###############################################################################
#
# IAR C/C++ Compiler V10.30.1.6000 for 8051               19/Apr/2021  17:31:05
# Copyright 2004-2018 IAR Systems AB.
# Evaluation license - IAR Embedded Workbench for 8051, Evaluation edition 10.30
#
#    Core               =  plain
#    Code model         =  banked
#    Data model         =  large
#    Calling convention =  xdata reentrant
#    Constant location  =  data_rom
#    Dptr setup         =  1,16
#                          
#    Source file        =  
#        C:\Texas Instruments\Z-Stack 3.0.2-20210417T211827Z-001\Z-Stack
#        3.0.2\Components\hal\common\hal_assert.c
#    Command line       =  
#        -f C:\users\slavko\Temp\EWa14.tmp ("C:\Texas Instruments\Z-Stack
#        3.0.2-20210417T211827Z-001\Z-Stack
#        3.0.2\Components\hal\common\hal_assert.c" -D BDB_REPORTING -D SECURE=1
#        -D TC_LINKKEY_JOIN -D NV_INIT -D NV_RESTORE -D xPOWER_SAVING -D
#        NWK_AUTO_POLL -D xZTOOL_P1 -D xMT_TASK -D xMT_APP_FUNC -D xMT_SYS_FUNC
#        -D xMT_ZDO_FUNC -D xMT_ZDO_MGMT -D xMT_APP_CNF_FUNC -D
#        LCD_SUPPORTED=DEBUG -D MULTICAST_ENABLED=FALSE -D ZCL_READ -D
#        ZCL_DISCOVER -D ZCL_WRITE -D ZCL_BASIC -D ZCL_IDENTIFY -D ZCL_ON_OFF
#        -D ZCL_SCENES -D ZCL_GROUPS -D ZCL_LEVEL_CTRL -lC "C:\Texas
#        Instruments\Z-Stack 3.0.2-20210417T211827Z-001\Z-Stack
#        3.0.2\Projects\zstack\HomeAutomation\SampleLight\CC2530DB\EndDeviceEB\List"
#        -lA "C:\Texas Instruments\Z-Stack 3.0.2-20210417T211827Z-001\Z-Stack
#        3.0.2\Projects\zstack\HomeAutomation\SampleLight\CC2530DB\EndDeviceEB\List"
#        --diag_suppress Pe001,Pa010 -o "C:\Texas Instruments\Z-Stack
#        3.0.2-20210417T211827Z-001\Z-Stack
#        3.0.2\Projects\zstack\HomeAutomation\SampleLight\CC2530DB\EndDeviceEB\Obj"
#        -e --debug --core=plain --dptr=16,1 --data_model=large
#        --code_model=banked --calling_convention=xdata_reentrant
#        --place_constants=data_rom --nr_virtual_regs 16 -f "C:\Texas
#        Instruments\Z-Stack 3.0.2-20210417T211827Z-001\Z-Stack
#        3.0.2\Projects\zstack\HomeAutomation\SampleLight\CC2530DB\..\..\..\Tools\CC2530DB\f8wEndev.cfg"
#        (-DCPU32MHZ -DROOT=__near_func -DMAC_CFG_TX_DATA_MAX=3
#        -DMAC_CFG_TX_MAX=6 -DMAC_CFG_RX_MAX=3) -f "C:\Texas
#        Instruments\Z-Stack 3.0.2-20210417T211827Z-001\Z-Stack
#        3.0.2\Projects\zstack\HomeAutomation\SampleLight\CC2530DB\..\..\..\Tools\CC2530DB\f8wConfig.cfg"
#        (-DZIGBEEPRO -DSECURE=1 -DZG_SECURE_DYNAMIC=0 -DREFLECTOR
#        -DDEFAULT_CHANLIST=0x00000800 -DZDAPP_CONFIG_PAN_ID=0xFFFF
#        -DNWK_START_DELAY=100 -DEXTENDED_JOINING_RANDOM_MASK=0x007F
#        -DBEACON_REQUEST_DELAY=100 -DBEACON_REQ_DELAY_MASK=0x00FF
#        -DLINK_STATUS_JITTER_MASK=0x007F -DROUTE_EXPIRY_TIME=30
#        -DAPSC_ACK_WAIT_DURATION_POLLED=3000 -DNWK_INDIRECT_MSG_TIMEOUT=7
#        -DMAX_RREQ_ENTRIES=8 -DAPSC_MAX_FRAME_RETRIES=3
#        -DNWK_MAX_DATA_RETRIES=2 -DMAX_POLL_FAILURE_RETRIES=2 -DMAX_BCAST=9
#        -DAPS_MAX_GROUPS=16 -DMAX_RTG_ENTRIES=40 -DNWK_MAX_BINDING_ENTRIES=4
#        -DMAX_BINDING_CLUSTER_IDS=4 -DDEFAULT_KEY={0} -DMAC_MAX_FRAME_SIZE=116
#        -DZDNWKMGR_MIN_TRANSMISSIONS=20 "-DCONST=const __code"
#        -DGENERIC=__generic -DRFD_RCVC_ALWAYS_ON=FALSE -DPOLL_RATE=1000
#        -DQUEUED_POLL_RATE=100 -DRESPONSE_POLL_RATE=100 -DREJOIN_POLL_RATE=440
#        -DREJOIN_BACKOFF=900000 -DREJOIN_SCAN=900000 -DENABLE_LED4_DISABLE_S1)
#        -f "C:\Texas Instruments\Z-Stack 3.0.2-20210417T211827Z-001\Z-Stack
#        3.0.2\Projects\zstack\HomeAutomation\SampleLight\CC2530DB\..\..\..\Tools\CC2530DB\f8wZCL.cfg"
#        -I "C:\Texas Instruments\Z-Stack 3.0.2-20210417T211827Z-001\Z-Stack
#        3.0.2\Projects\zstack\HomeAutomation\SampleLight\CC2530DB\" -I
#        "C:\Texas Instruments\Z-Stack 3.0.2-20210417T211827Z-001\Z-Stack
#        3.0.2\Projects\zstack\HomeAutomation\SampleLight\CC2530DB\..\Source\"
#        -I "C:\Texas Instruments\Z-Stack 3.0.2-20210417T211827Z-001\Z-Stack
#        3.0.2\Projects\zstack\HomeAutomation\SampleLight\CC2530DB\..\..\Source\"
#        -I "C:\Texas Instruments\Z-Stack 3.0.2-20210417T211827Z-001\Z-Stack
#        3.0.2\Projects\zstack\HomeAutomation\SampleLight\CC2530DB\..\..\..\ZMain\TI2530DB\"
#        -I "C:\Texas Instruments\Z-Stack 3.0.2-20210417T211827Z-001\Z-Stack
#        3.0.2\Projects\zstack\HomeAutomation\SampleLight\CC2530DB\..\..\..\..\..\Components\hal\include\"
#        -I "C:\Texas Instruments\Z-Stack 3.0.2-20210417T211827Z-001\Z-Stack
#        3.0.2\Projects\zstack\HomeAutomation\SampleLight\CC2530DB\..\..\..\..\..\Components\hal\target\CC2530EB\"
#        -I "C:\Texas Instruments\Z-Stack 3.0.2-20210417T211827Z-001\Z-Stack
#        3.0.2\Projects\zstack\HomeAutomation\SampleLight\CC2530DB\..\..\..\..\..\Components\mac\include\"
#        -I "C:\Texas Instruments\Z-Stack 3.0.2-20210417T211827Z-001\Z-Stack
#        3.0.2\Projects\zstack\HomeAutomation\SampleLight\CC2530DB\..\..\..\..\..\Components\mac\high_level\"
#        -I "C:\Texas Instruments\Z-Stack 3.0.2-20210417T211827Z-001\Z-Stack
#        3.0.2\Projects\zstack\HomeAutomation\SampleLight\CC2530DB\..\..\..\..\..\Components\mac\low_level\srf04\"
#        -I "C:\Texas Instruments\Z-Stack 3.0.2-20210417T211827Z-001\Z-Stack
#        3.0.2\Projects\zstack\HomeAutomation\SampleLight\CC2530DB\..\..\..\..\..\Components\mac\low_level\srf04\single_chip\"
#        -I "C:\Texas Instruments\Z-Stack 3.0.2-20210417T211827Z-001\Z-Stack
#        3.0.2\Projects\zstack\HomeAutomation\SampleLight\CC2530DB\..\..\..\..\..\Components\mt\"
#        -I "C:\Texas Instruments\Z-Stack 3.0.2-20210417T211827Z-001\Z-Stack
#        3.0.2\Projects\zstack\HomeAutomation\SampleLight\CC2530DB\..\..\..\..\..\Components\osal\include\"
#        -I "C:\Texas Instruments\Z-Stack 3.0.2-20210417T211827Z-001\Z-Stack
#        3.0.2\Projects\zstack\HomeAutomation\SampleLight\CC2530DB\..\..\..\..\..\Components\services\saddr\"
#        -I "C:\Texas Instruments\Z-Stack 3.0.2-20210417T211827Z-001\Z-Stack
#        3.0.2\Projects\zstack\HomeAutomation\SampleLight\CC2530DB\..\..\..\..\..\Components\services\sdata\"
#        -I "C:\Texas Instruments\Z-Stack 3.0.2-20210417T211827Z-001\Z-Stack
#        3.0.2\Projects\zstack\HomeAutomation\SampleLight\CC2530DB\..\..\..\..\..\Components\stack\af\"
#        -I "C:\Texas Instruments\Z-Stack 3.0.2-20210417T211827Z-001\Z-Stack
#        3.0.2\Projects\zstack\HomeAutomation\SampleLight\CC2530DB\..\..\..\..\..\Components\stack\bdb\"
#        -I "C:\Texas Instruments\Z-Stack 3.0.2-20210417T211827Z-001\Z-Stack
#        3.0.2\Projects\zstack\HomeAutomation\SampleLight\CC2530DB\..\..\..\..\..\Components\stack\gp\"
#        -I "C:\Texas Instruments\Z-Stack 3.0.2-20210417T211827Z-001\Z-Stack
#        3.0.2\Projects\zstack\HomeAutomation\SampleLight\CC2530DB\..\..\..\..\..\Components\stack\nwk\"
#        -I "C:\Texas Instruments\Z-Stack 3.0.2-20210417T211827Z-001\Z-Stack
#        3.0.2\Projects\zstack\HomeAutomation\SampleLight\CC2530DB\..\..\..\..\..\Components\stack\sapi\"
#        -I "C:\Texas Instruments\Z-Stack 3.0.2-20210417T211827Z-001\Z-Stack
#        3.0.2\Projects\zstack\HomeAutomation\SampleLight\CC2530DB\..\..\..\..\..\Components\stack\sec\"
#        -I "C:\Texas Instruments\Z-Stack 3.0.2-20210417T211827Z-001\Z-Stack
#        3.0.2\Projects\zstack\HomeAutomation\SampleLight\CC2530DB\..\..\..\..\..\Components\stack\sys\"
#        -I "C:\Texas Instruments\Z-Stack 3.0.2-20210417T211827Z-001\Z-Stack
#        3.0.2\Projects\zstack\HomeAutomation\SampleLight\CC2530DB\..\..\..\..\..\Components\stack\zcl\"
#        -I "C:\Texas Instruments\Z-Stack 3.0.2-20210417T211827Z-001\Z-Stack
#        3.0.2\Projects\zstack\HomeAutomation\SampleLight\CC2530DB\..\..\..\..\..\Components\stack\zdo\"
#        -I "C:\Texas Instruments\Z-Stack 3.0.2-20210417T211827Z-001\Z-Stack
#        3.0.2\Projects\zstack\HomeAutomation\SampleLight\CC2530DB\..\..\..\..\..\Components\zmac\"
#        -I "C:\Texas Instruments\Z-Stack 3.0.2-20210417T211827Z-001\Z-Stack
#        3.0.2\Projects\zstack\HomeAutomation\SampleLight\CC2530DB\..\..\..\..\..\Components\zmac\f8w\"
#        -Ohz --require_prototypes)
#    Locale             =  English_USA.1252
#    List file          =  
#        C:\Texas Instruments\Z-Stack 3.0.2-20210417T211827Z-001\Z-Stack
#        3.0.2\Projects\zstack\HomeAutomation\SampleLight\CC2530DB\EndDeviceEB\List\hal_assert.lst
#    Object file        =  
#        C:\Texas Instruments\Z-Stack 3.0.2-20210417T211827Z-001\Z-Stack
#        3.0.2\Projects\zstack\HomeAutomation\SampleLight\CC2530DB\EndDeviceEB\Obj\hal_assert.r51
#
###############################################################################

C:\Texas Instruments\Z-Stack 3.0.2-20210417T211827Z-001\Z-Stack 3.0.2\Components\hal\common\hal_assert.c
      1          /**************************************************************************************************
      2            Filename:       hal_assert.c
      3            Revised:        $Date: 2014-07-23 12:14:30 -0700 (Wed, 23 Jul 2014) $
      4            Revision:       $Revision: 39492 $
      5          
      6            Description:    Describe the purpose and contents of the file.
      7          
      8          
      9            Copyright 2006-2014 Texas Instruments Incorporated. All rights reserved.
     10          
     11            IMPORTANT: Your use of this Software is limited to those specific rights
     12            granted under the terms of a software license agreement between the user
     13            who downloaded the software, his/her employer (which must be your employer)
     14            and Texas Instruments Incorporated (the "License").  You may not use this
     15            Software unless you agree to abide by the terms of the License. The License
     16            limits your use, and you acknowledge, that the Software may not be modified,
     17            copied or distributed unless embedded on a Texas Instruments microcontroller
     18            or used solely and exclusively in conjunction with a Texas Instruments radio
     19            frequency transceiver, which is integrated into your product.  Other than for
     20            the foregoing purpose, you may not use, reproduce, copy, prepare derivative
     21            works of, modify, distribute, perform, display or sell this Software and/or
     22            its documentation for any purpose.
     23          
     24            YOU FURTHER ACKNOWLEDGE AND AGREE THAT THE SOFTWARE AND DOCUMENTATION ARE
     25            PROVIDED “AS IS” WITHOUT WARRANTY OF ANY KIND, EITHER EXPRESS OR IMPLIED,
     26            INCLUDING WITHOUT LIMITATION, ANY WARRANTY OF MERCHANTABILITY, TITLE,
     27            NON-INFRINGEMENT AND FITNESS FOR A PARTICULAR PURPOSE. IN NO EVENT SHALL
     28            TEXAS INSTRUMENTS OR ITS LICENSORS BE LIABLE OR OBLIGATED UNDER CONTRACT,
     29            NEGLIGENCE, STRICT LIABILITY, CONTRIBUTION, BREACH OF WARRANTY, OR OTHER
     30            LEGAL EQUITABLE THEORY ANY DIRECT OR INDIRECT DAMAGES OR EXPENSES
     31            INCLUDING BUT NOT LIMITED TO ANY INCIDENTAL, SPECIAL, INDIRECT, PUNITIVE
     32            OR CONSEQUENTIAL DAMAGES, LOST PROFITS OR LOST DATA, COST OF PROCUREMENT
     33            OF SUBSTITUTE GOODS, TECHNOLOGY, SERVICES, OR ANY CLAIMS BY THIRD PARTIES
     34            (INCLUDING BUT NOT LIMITED TO ANY DEFENSE THEREOF), OR OTHER SIMILAR COSTS.
     35          
     36            Should you have any questions regarding your right to use this Software,
     37            contact Texas Instruments Incorporated at www.TI.com.
     38          **************************************************************************************************/
     39          
     40          
     41          /* ------------------------------------------------------------------------------------------------
     42           *                                          Includes
     43           * ------------------------------------------------------------------------------------------------
     44           */
     45          #include "hal_assert.h"
     46          #include "hal_types.h"
     47          #include "hal_board.h"

   \                                 In  segment SFR_AN, at 0x80
   \   union <unnamed> volatile __sfr _A_P0
   \                     _A_P0:
   \   000000                DS 1

   \                                 In  segment SFR_AN, at 0x8f
   \   unsigned char volatile __sfr P0INP
   \                     P0INP:
   \   000000                DS 1

   \                                 In  segment SFR_AN, at 0x90
   \   union <unnamed> volatile __sfr _A_P1
   \                     _A_P1:
   \   000000                DS 1

   \                                 In  segment SFR_AN, at 0x9d
   \   unsigned char volatile __sfr SLEEPSTA
   \                     SLEEPSTA:
   \   000000                DS 1

   \                                 In  segment SFR_AN, at 0x9e
   \   unsigned char volatile __sfr CLKCONSTA
   \                     CLKCONSTA:
   \   000000                DS 1

   \                                 In  segment SFR_AN, at 0xa8
   \   union <unnamed> volatile __sfr _A_IEN0
   \                     _A_IEN0:
   \   000000                DS 1

   \                                 In  segment SFR_AN, at 0xbe
   \   unsigned char volatile __sfr SLEEPCMD
   \                     SLEEPCMD:
   \   000000                DS 1

   \                                 In  segment SFR_AN, at 0xc6
   \   unsigned char volatile __sfr CLKCONCMD
   \                     CLKCONCMD:
   \   000000                DS 1

   \                                 In  segment SFR_AN, at 0xfd
   \   unsigned char volatile __sfr P0DIR
   \                     P0DIR:
   \   000000                DS 1

   \                                 In  segment SFR_AN, at 0xfe
   \   unsigned char volatile __sfr P1DIR
   \                     P1DIR:
   \   000000                DS 1
     48          #include "hal_defs.h"
     49          #include "hal_mcu.h"
     50          
     51          #if (defined HAL_MCU_AVR) || (defined HAL_MCU_CC2430) || (defined HAL_MCU_CC2530) || \
     52              (defined HAL_MCU_CC2533) || (defined HAL_MCU_MSP430)
     53            /* for access to debug data */
     54          #include "mac_rx.h"
     55          #include "mac_tx.h"
     56          #endif
     57          
     58          /* ------------------------------------------------------------------------------------------------
     59           *                                       Local Prototypes
     60           * ------------------------------------------------------------------------------------------------
     61           */
     62          void halAssertHazardLights(void);
     63          
     64          
     65          /**************************************************************************************************
     66           * @fn          halAssertHandler
     67           *
     68           * @brief       Logic to handle an assert.
     69           *
     70           * @param       none
     71           *
     72           * @return      none
     73           **************************************************************************************************
     74           */

   \                                 In  segment BANKED_CODE, align 1, keep-with-next
     75          void halAssertHandler( void )
   \                     halAssertHandler:
     76          {
   \   000000                ; Saved register size: 0
   \   000000                ; Auto size: 0
     77          #if defined( HAL_ASSERT_RESET )
     78            HAL_SYSTEM_RESET();
     79          #elif defined ( HAL_ASSERT_LIGHTS )
     80            halAssertHazardLights();
     81          #elif defined( HAL_ASSERT_SPIN )
     82            volatile uint8 i = 1;
     83            HAL_DISABLE_INTERRUPTS();
     84            while(i);
     85          #endif
     86          
     87            return;
   \   000000   02....       LJMP      ?BRET
     88          }
     89          
     90          #if !defined ASSERT_WHILE
     91          /**************************************************************************************************
     92           * @fn          halAssertHazardLights
     93           *
     94           * @brief       Blink LEDs to indicate an error.
     95           *
     96           * @param       none
     97           *
     98           * @return      none
     99           **************************************************************************************************
    100           */

   \                                 In  segment BANKED_CODE, align 1, keep-with-next
    101          void halAssertHazardLights(void)
   \                     halAssertHazardLights:
    102          {
   \   000000                REQUIRE ?V0
   \   000000                REQUIRE ?V1
   \   000000                REQUIRE ?V2
   \   000000                REQUIRE ?V3
   \   000000   74F4         MOV       A,#-0xc
   \   000002   12....       LCALL     ?BANKED_ENTER_XDATA
   \   000005                ; Saved register size: 12
   \   000005                ; Auto size: 10
   \   000005   74F6         MOV       A,#-0xa
   \   000007   12....       LCALL     ?ALLOC_XSTACK8
    103            enum
    104            {
    105              DEBUG_DATA_RSTACK_HIGH_OFS,
    106              DEBUG_DATA_RSTACK_LOW_OFS,
    107              DEBUG_DATA_TX_ACTIVE_OFS,
    108              DEBUG_DATA_RX_ACTIVE_OFS,
    109          
    110          #if (defined HAL_MCU_AVR) || (defined HAL_MCU_CC2430)
    111              DEBUG_DATA_INT_MASK_OFS,
    112          #elif (defined HAL_MCU_CC2530) || (defined HAL_MCU_CC2533)
    113              DEBUG_DATA_INT_MASK0_OFS,
    114              DEBUG_DATA_INT_MASK1_OFS,
    115          #endif
    116          
    117              DEBUG_DATA_SIZE
    118            };
    119          
    120            uint8 buttonHeld;
    121            uint8 debugData[DEBUG_DATA_SIZE];
    122          
    123            /* disable all interrupts before anything else */
    124            HAL_DISABLE_INTERRUPTS();
   \   00000A   C2AF         CLR       0xa8.7
    125          
    126            /*-------------------------------------------------------------------------------
    127             *  Initialize LEDs and turn them off.
    128             */
    129            HAL_BOARD_INIT();
   \   00000C   53BEFB       ANL       0xbe,#0xfb
   \                     ??halAssertHazardLights_0:
   \   00000F   E59D         MOV       A,0x9d
   \   000011   A2E6         MOV       C,0xE0 /* A   */.6
   \   000013   50FA         JNC       ??halAssertHazardLights_0
   \   000015   00           NOP
   \   000016   78F8         MOV       R0,#-0x8
   \   000018   7901         MOV       R1,#0x1
   \                     ??halAssertHazardLights_1:
   \   00001A   00           NOP
   \   00001B   E8           MOV       A,R0
   \   00001C   24FF         ADD       A,#-0x1
   \   00001E   18           DEC       R0
   \   00001F   E9           MOV       A,R1
   \   000020   34FF         ADDC      A,#-0x1
   \   000022   F9           MOV       R1,A
   \   000023   E8           MOV       A,R0
   \   000024   49           ORL       A,R1
   \   000025   70F3         JNZ       ??halAssertHazardLights_1
   \   000027   75C600       MOV       0xc6,#0x0
   \                     ??halAssertHazardLights_2:
   \   00002A   E59E         MOV       A,0x9e
   \   00002C   70FC         JNZ       ??halAssertHazardLights_2
   \   00002E   43BE04       ORL       0xbe,#0x4
   \   000031   906270       MOV       DPTR,#0x6270
   \   000034   7408         MOV       A,#0x8
   \   000036   F0           MOVX      @DPTR,A
   \   000037   C290         CLR       0x90.0
   \   000039   43FE01       ORL       0xfe,#0x1
   \   00003C   C291         CLR       0x90.1
   \   00003E   43FE02       ORL       0xfe,#0x2
   \   000041   C294         CLR       0x90.4
   \   000043   43FE10       ORL       0xfe,#0x10
   \   000046   C281         CLR       0x80.1
   \   000048   43FD02       ORL       0xfd,#0x2
   \   00004B   438F01       ORL       0x8f,#0x1
    130          
    131            HAL_TURN_OFF_LED1();
   \   00004E   C290         CLR       0x90.0
    132            HAL_TURN_OFF_LED2();
   \   000050   C291         CLR       0x90.1
    133            HAL_TURN_OFF_LED3();
   \   000052   C294         CLR       0x90.4
    134            HAL_TURN_OFF_LED4();
   \   000054   C281         CLR       0x80.1
   \   000056   8019         SJMP      ??halAssertHazardLights_3
    135          
    136            /*-------------------------------------------------------------------------------
    137             *  Master infinite loop.
    138             */
    139            for (;;)
    140            {
    141              buttonHeld = 0;
    142          
    143              /*-------------------------------------------------------------------------------
    144               *  "Hazard lights" loop.  A held keypress will exit this loop.
    145               */
    146              do
    147              {
    148                HAL_LED_BLINK_DELAY();
    149          
    150                /* toggle LEDS, the #ifdefs are in case HAL has logically remapped non-existent LEDs */
    151          #if (HAL_NUM_LEDS >= 1)
    152                HAL_TOGGLE_LED1();
    153          #if (HAL_NUM_LEDS >= 2)
    154                HAL_TOGGLE_LED2();
    155          #if (HAL_NUM_LEDS >= 3)
    156                HAL_TOGGLE_LED3();
    157          #if (HAL_NUM_LEDS >= 4)
    158                HAL_TOGGLE_LED4();
    159          #endif
    160          #endif
    161          #endif
    162          #endif
    163          
    164                /* escape hatch to continue execution, set escape to '1' to continue execution */
    165                {
    166                  static uint8 escape = 0;
    167                  if (escape)
    168                  {
    169                    escape = 0;
    170                    return;
    171                  }
    172                }
    173          
    174                /* break out of loop if button is held long enough */
    175                if (HAL_PUSH_BUTTON1())
    176                {
    177                  buttonHeld++;
    178                }
    179                else
    180                {
    181                  buttonHeld = 0;
    182                }
    183              }
    184              while (buttonHeld != 10);  /* loop until button is held specified number of loops */
    185          
    186              /*-------------------------------------------------------------------------------
    187               *  Just exited from "hazard lights" loop.
    188               */
    189          
    190              /* turn off all LEDs */
    191              HAL_TURN_OFF_LED1();
    192              HAL_TURN_OFF_LED2();
    193              HAL_TURN_OFF_LED3();
    194              HAL_TURN_OFF_LED4();
    195          
    196              /* wait for button release */
    197              HAL_DEBOUNCE(!HAL_PUSH_BUTTON1());
    198          
    199              /*-------------------------------------------------------------------------------
    200               *  Load debug data into memory.
    201               */
    202          #ifdef HAL_MCU_AVR
    203              {
    204                uint8 * pStack;
    205                pStack = (uint8 *) SP;
    206                pStack++; /* point to return address on stack */
    207                debugData[DEBUG_DATA_RSTACK_HIGH_OFS] = *pStack;
    208                pStack++;
    209                debugData[DEBUG_DATA_RSTACK_LOW_OFS] = *pStack;
    210              }
    211              debugData[DEBUG_DATA_INT_MASK_OFS] = EIMSK;
    212          #endif
    213          
    214          #if (defined HAL_MCU_CC2430)
    215              debugData[DEBUG_DATA_INT_MASK_OFS] = RFIM;
    216          #elif (defined HAL_MCU_CC2530) || (defined HAL_MCU_CC2533)
    217              debugData[DEBUG_DATA_INT_MASK0_OFS] = RFIRQM0;
    218              debugData[DEBUG_DATA_INT_MASK1_OFS] = RFIRQM1;
    219          #endif
    220          
    221          
    222          #if (defined HAL_MCU_AVR) || (defined HAL_MCU_CC2430) || (defined HAL_MCU_CC2530) || \
    223              (defined HAL_MCU_CC2533) || (defined HAL_MCU_MSP430)
    224              debugData[DEBUG_DATA_TX_ACTIVE_OFS] = macTxActive;
    225              debugData[DEBUG_DATA_RX_ACTIVE_OFS] = macRxActive;
    226          #endif
    227          
    228             /* initialize for data dump loop */
    229              {
    230                uint8 iBit;
    231                uint8 iByte;
    232          
    233                iBit  = 0;
    234                iByte = 0;
    235          
    236                /*-------------------------------------------------------------------------------
    237                 *  Data dump loop.  A button press cycles data bits to an LED.
    238                 */
    239                while (iByte < DEBUG_DATA_SIZE)
    240                {
    241                  /* wait for key press */
    242                  while(!HAL_PUSH_BUTTON1());
    243          
    244                  /* turn on all LEDs for first bit of byte, turn on three LEDs if not first bit */
    245                  HAL_TURN_ON_LED1();
    246                  HAL_TURN_ON_LED2();
    247                  HAL_TURN_ON_LED3();
    248                  if (iBit == 0)
    249                  {
    250                    HAL_TURN_ON_LED4();
    251                  }
    252                  else
    253                  {
    254                    HAL_TURN_OFF_LED4();
    255                  }
    256          
    257                  /* wait for debounced key release */
    258                  HAL_DEBOUNCE(!HAL_PUSH_BUTTON1());
    259          
    260                  /* turn off all LEDs */
    261                  HAL_TURN_OFF_LED1();
    262                  HAL_TURN_OFF_LED2();
    263                  HAL_TURN_OFF_LED3();
    264                  HAL_TURN_OFF_LED4();
    265          
    266                  /* output value of data bit to LED1 */
    267                  if (debugData[iByte] & (1 << (7 - iBit)))
    268                  {
    269                    HAL_TURN_ON_LED1();
    270                  }
    271                  else
    272                  {
    273                    HAL_TURN_OFF_LED1();
   \                     ??halAssertHazardLights_4:
   \   000058   C290         CLR       0x90.0
    274                  }
    275          
    276                  /* advance to next bit */
    277                  iBit++;
   \                     ??halAssertHazardLights_5:
   \   00005A   09           INC       R1
    278                  if (iBit == 8)
   \   00005B   7408         MOV       A,#0x8
   \   00005D   69           XRL       A,R1
   \   00005E   6003         JZ        $+5
   \   000060   02....       LJMP      ??halAssertHazardLights_6 & 0xFFFF
    279                  {
    280                    iBit = 0;
   \   000063   7900         MOV       R1,#0x0
    281                    iByte++;
   \   000065   0C           INC       R4
    282                  }
   \   000066   EC           MOV       A,R4
   \   000067   C3           CLR       C
   \   000068   9406         SUBB      A,#0x6
   \   00006A   5003         JNC       $+5
   \   00006C   02....       LJMP      ??halAssertHazardLights_6 & 0xFFFF
    283                }
    284              }
    285          
    286              /*
    287               *  About to enter "hazard lights" loop again.  Turn off LED1 in case the last bit
    288               *  displayed happened to be one.  This guarantees all LEDs are off at the start of
    289               *  the flashing loop which uses a toggle operation to change LED states.
    290               */
    291              HAL_TURN_OFF_LED1();
   \   00006F   C290         CLR       0x90.0
   \                     ??halAssertHazardLights_3:
   \   000071   7900         MOV       R1,#0x0
   \                     ??halAssertHazardLights_7:
   \   000073   7406         MOV       A,#0x6
   \   000075   12....       LCALL     ?XSTACK_DISP0_8
   \   000078   E4           CLR       A
   \   000079   F0           MOVX      @DPTR,A
   \   00007A   A3           INC       DPTR
   \   00007B   F0           MOVX      @DPTR,A
   \   00007C   A3           INC       DPTR
   \   00007D   F0           MOVX      @DPTR,A
   \   00007E   A3           INC       DPTR
   \   00007F   F0           MOVX      @DPTR,A
   \   000080   8012         SJMP      ??halAssertHazardLights_8
   \                     ??halAssertHazardLights_9:
   \   000082   90....       MOV       DPTR,#__Constant_1
   \   000085   78..         MOV       R0,#?V0
   \   000087   12....       LCALL     ?L_MOV_X
   \   00008A   7406         MOV       A,#0x6
   \   00008C   12....       LCALL     ?XSTACK_DISP0_8
   \   00008F   78..         MOV       R0,#?V0
   \   000091   12....       LCALL     ?L_ADD_TO_X
   \                     ??halAssertHazardLights_8:
   \   000094   90....       MOV       DPTR,#__Constant_5800
   \   000097   78..         MOV       R0,#?V0
   \   000099   12....       LCALL     ?L_MOV_X
   \   00009C   7406         MOV       A,#0x6
   \   00009E   12....       LCALL     ?XSTACK_DISP0_8
   \   0000A1   78..         MOV       R0,#?V0
   \   0000A3   12....       LCALL     ?UL_GT_X
   \   0000A6   40DA         JC        ??halAssertHazardLights_9
   \   0000A8   A290         MOV       C,0x90.0
   \   0000AA   5004         JNC       ??halAssertHazardLights_10
   \   0000AC   C290         CLR       0x90.0
   \   0000AE   8002         SJMP      ??halAssertHazardLights_11
   \                     ??halAssertHazardLights_10:
   \   0000B0   D290         SETB      0x90.0
   \                     ??halAssertHazardLights_11:
   \   0000B2   A291         MOV       C,0x90.1
   \   0000B4   5004         JNC       ??halAssertHazardLights_12
   \   0000B6   C291         CLR       0x90.1
   \   0000B8   8002         SJMP      ??halAssertHazardLights_13
   \                     ??halAssertHazardLights_12:
   \   0000BA   D291         SETB      0x90.1
   \                     ??halAssertHazardLights_13:
   \   0000BC   A294         MOV       C,0x90.4
   \   0000BE   5004         JNC       ??halAssertHazardLights_14
   \   0000C0   C294         CLR       0x90.4
   \   0000C2   8002         SJMP      ??halAssertHazardLights_15
   \                     ??halAssertHazardLights_14:
   \   0000C4   D294         SETB      0x90.4
   \                     ??halAssertHazardLights_15:
   \   0000C6   90....       MOV       DPTR,#??escape
   \   0000C9   E0           MOVX      A,@DPTR
   \   0000CA   600C         JZ        ??halAssertHazardLights_16
   \   0000CC   E4           CLR       A
   \   0000CD   F0           MOVX      @DPTR,A
   \   0000CE   740A         MOV       A,#0xa
   \   0000D0   12....       LCALL     ?DEALLOC_XSTACK8
   \   0000D3   7F04         MOV       R7,#0x4
   \   0000D5   02....       LJMP      ?BANKED_LEAVE_XDATA
   \                     ??halAssertHazardLights_16:
   \   0000D8   A281         MOV       C,0x80.1
   \   0000DA   5095         JNC       ??halAssertHazardLights_3
   \   0000DC   09           INC       R1
   \   0000DD   740A         MOV       A,#0xa
   \   0000DF   69           XRL       A,R1
   \   0000E0   7091         JNZ       ??halAssertHazardLights_7
   \   0000E2   C290         CLR       0x90.0
   \   0000E4   C291         CLR       0x90.1
   \   0000E6   C294         CLR       0x90.4
   \   0000E8   C281         CLR       0x80.1
   \   0000EA   7800         MOV       R0,#0x0
   \   0000EC   7900         MOV       R1,#0x0
   \                     ??halAssertHazardLights_17:
   \   0000EE   A281         MOV       C,0x80.1
   \   0000F0   5004         JNC       ??halAssertHazardLights_18
   \   0000F2   7800         MOV       R0,#0x0
   \   0000F4   7900         MOV       R1,#0x0
   \                     ??halAssertHazardLights_18:
   \   0000F6   08           INC       R0
   \   0000F7   E8           MOV       A,R0
   \   0000F8   7001         JNZ       ??halAssertHazardLights_19
   \   0000FA   09           INC       R1
   \                     ??halAssertHazardLights_19:
   \   0000FB   C3           CLR       C
   \   0000FC   94F4         SUBB      A,#-0xc
   \   0000FE   E9           MOV       A,R1
   \   0000FF   9401         SUBB      A,#0x1
   \   000101   A2D2         MOV       C,0xD0 /* PSW */.2
   \   000103   65D0         XRL       A,PSW
   \   000105   33           RLC       A
   \   000106   40E6         JC        ??halAssertHazardLights_17
   \   000108   9061A3       MOV       DPTR,#0x61a3
   \   00010B   E0           MOVX      A,@DPTR
   \   00010C   C0E0         PUSH      A
   \   00010E   7404         MOV       A,#0x4
   \   000110   12....       LCALL     ?XSTACK_DISP0_8
   \   000113   D0E0         POP       A
   \   000115   F0           MOVX      @DPTR,A
   \   000116   9061A4       MOV       DPTR,#0x61a4
   \   000119   E0           MOVX      A,@DPTR
   \   00011A   C0E0         PUSH      A
   \   00011C   7405         MOV       A,#0x5
   \   00011E   12....       LCALL     ?XSTACK_DISP0_8
   \   000121   D0E0         POP       A
   \   000123   F0           MOVX      @DPTR,A
   \   000124   90....       MOV       DPTR,#macTxActive
   \   000127   E0           MOVX      A,@DPTR
   \   000128   C0E0         PUSH      A
   \   00012A   7402         MOV       A,#0x2
   \   00012C   12....       LCALL     ?XSTACK_DISP0_8
   \   00012F   D0E0         POP       A
   \   000131   F0           MOVX      @DPTR,A
   \   000132   90....       MOV       DPTR,#macRxActive
   \   000135   E0           MOVX      A,@DPTR
   \   000136   C0E0         PUSH      A
   \   000138   7403         MOV       A,#0x3
   \   00013A   12....       LCALL     ?XSTACK_DISP0_8
   \   00013D   D0E0         POP       A
   \   00013F   F0           MOVX      @DPTR,A
   \   000140   7900         MOV       R1,#0x0
   \   000142   7C00         MOV       R4,#0x0
   \                     ??halAssertHazardLights_6:
   \   000144   A281         MOV       C,0x80.1
   \   000146   50FC         JNC       ??halAssertHazardLights_6
   \   000148   D290         SETB      0x90.0
   \   00014A   D291         SETB      0x90.1
   \   00014C   D294         SETB      0x90.4
   \   00014E   E9           MOV       A,R1
   \   00014F   7004         JNZ       ??halAssertHazardLights_20
   \   000151   D281         SETB      0x80.1
   \   000153   8002         SJMP      ??halAssertHazardLights_21
   \                     ??halAssertHazardLights_20:
   \   000155   C281         CLR       0x80.1
   \                     ??halAssertHazardLights_21:
   \   000157   7A00         MOV       R2,#0x0
   \   000159   7B00         MOV       R3,#0x0
   \                     ??halAssertHazardLights_22:
   \   00015B   A281         MOV       C,0x80.1
   \   00015D   5004         JNC       ??halAssertHazardLights_23
   \   00015F   7A00         MOV       R2,#0x0
   \   000161   7B00         MOV       R3,#0x0
   \                     ??halAssertHazardLights_23:
   \   000163   0A           INC       R2
   \   000164   EA           MOV       A,R2
   \   000165   7001         JNZ       ??halAssertHazardLights_24
   \   000167   0B           INC       R3
   \                     ??halAssertHazardLights_24:
   \   000168   C3           CLR       C
   \   000169   94F4         SUBB      A,#-0xc
   \   00016B   EB           MOV       A,R3
   \   00016C   9401         SUBB      A,#0x1
   \   00016E   A2D2         MOV       C,0xD0 /* PSW */.2
   \   000170   65D0         XRL       A,PSW
   \   000172   33           RLC       A
   \   000173   40E6         JC        ??halAssertHazardLights_22
   \   000175   C290         CLR       0x90.0
   \   000177   C291         CLR       0x90.1
   \   000179   C294         CLR       0x90.4
   \   00017B   C281         CLR       0x80.1
   \   00017D   75..01       MOV       ?V0,#0x1
   \   000180   75..00       MOV       ?V1,#0x0
   \   000183   7407         MOV       A,#0x7
   \   000185   C3           CLR       C
   \   000186   99           SUBB      A,R1
   \   000187   78..         MOV       R0,#?V0
   \   000189   12....       LCALL     ?S_SHL
   \   00018C   EC           MOV       A,R4
   \   00018D   FA           MOV       R2,A
   \   00018E   85..82       MOV       DPL,?XSP + 0
   \   000191   85..83       MOV       DPH,?XSP + 1
   \   000194   E582         MOV       A,DPL
   \   000196   2A           ADD       A,R2
   \   000197   F582         MOV       DPL,A
   \   000199   E4           CLR       A
   \   00019A   3583         ADDC      A,DPH
   \   00019C   F583         MOV       DPH,A
   \   00019E   E0           MOVX      A,@DPTR
   \   00019F   55..         ANL       A,?V0
   \   0001A1   7003         JNZ       $+5
   \   0001A3   02....       LJMP      ??halAssertHazardLights_4 & 0xFFFF
   \   0001A6   D290         SETB      0x90.0
   \   0001A8   02....       LJMP      ??halAssertHazardLights_5 & 0xFFFF
   \   0001AB                REQUIRE _A_IEN0
   \   0001AB                REQUIRE SLEEPCMD
   \   0001AB                REQUIRE SLEEPSTA
   \   0001AB                REQUIRE CLKCONCMD
   \   0001AB                REQUIRE CLKCONSTA
   \   0001AB                REQUIRE _A_P1
   \   0001AB                REQUIRE P1DIR
   \   0001AB                REQUIRE _A_P0
   \   0001AB                REQUIRE P0DIR
   \   0001AB                REQUIRE P0INP
    292            }
    293          }

   \                                 In  segment XDATA_Z, align 1, keep-with-next
   \                     ??escape:
   \   000000                DS 1
   \   000001                REQUIRE __INIT_XDATA_Z

   \                                 In  segment XDATA_ROM_C, align 1
   \                     __Constant_1:
   \   000000   01000000     DD 1

   \                                 In  segment XDATA_ROM_C, align 1
   \                     __Constant_5800:
   \   000000   00580000     DD 22528
    294          #endif
    295          
    296          /* ------------------------------------------------------------------------------------------------
    297           *                                    Compile Time Assertions
    298           * ------------------------------------------------------------------------------------------------
    299           */
    300          
    301          /* integrity check of type sizes */
    302          HAL_ASSERT_SIZE(  int8, 1);
    303          HAL_ASSERT_SIZE( uint8, 1);
    304          HAL_ASSERT_SIZE( int16, 2);
    305          HAL_ASSERT_SIZE(uint16, 2);
    306          HAL_ASSERT_SIZE( int32, 4);
    307          HAL_ASSERT_SIZE(uint32, 4);
    308          
    309          
    310          /**************************************************************************************************
    311          */

   Maximum stack usage in bytes:

   ISTACK XSTACK Function
   ------ ------ --------
      0      0   halAssertHandler
      1     22   halAssertHazardLights


   Segment part sizes:

   Bytes  Function/Label
   -----  --------------
       1  CLKCONCMD
       1  CLKCONSTA
       1  P0DIR
       1  P0INP
       1  P1DIR
       1  SLEEPCMD
       1  SLEEPSTA
       1  _A_IEN0
       1  _A_P0
       1  _A_P1
       4  __Constant_1
       4  __Constant_5800
       1  escape
       3  halAssertHandler
     427  halAssertHazardLights
      12  -- Other

 
 430 bytes in segment BANKED_CODE
  12 bytes in segment BANK_RELAYS
  10 bytes in segment SFR_AN
   8 bytes in segment XDATA_ROM_C
   1 byte  in segment XDATA_Z
 
  12 bytes of CODE     memory
   0 bytes of CONST    memory (+  8 bytes shared)
   0 bytes of DATA     memory (+ 10 bytes shared)
 430 bytes of HUGECODE memory
   1 byte  of XDATA    memory

Errors: none
Warnings: none
