///////////////////////////////////////////////////////////////////////////////
//
// IAR C/C++ Compiler V10.30.1.6000 for 8051              20/Apr/2021  00:42:50
// Copyright 2004-2018 IAR Systems AB.
// Evaluation license - IAR Embedded Workbench for 8051, Evaluation edition 10.30
//
//    Core               =  plain
//    Code model         =  banked
//    Data model         =  large
//    Calling convention =  xdata reentrant
//    Constant location  =  data_rom
//    Dptr setup         =  1,16
//                          
//    Source file        =  
//        C:\Texas Instruments\Z-Stack 3.0.2-20210417T211827Z-001\Z-Stack
//        3.0.2\Z-Stack 3.0.2\Components\stack\sys\ZGlobals.c
//    Command line       =  
//        -f C:\users\slavko\Temp\EW7422.tmp ("C:\Texas Instruments\Z-Stack
//        3.0.2-20210417T211827Z-001\Z-Stack 3.0.2\Z-Stack
//        3.0.2\Components\stack\sys\ZGlobals.c" -D BDB_REPORTING -D SECURE=1
//        -D TC_LINKKEY_JOIN -D NV_INIT -D NV_RESTORE -D xPOWER_SAVING -D
//        NWK_AUTO_POLL -D xZTOOL_P1 -D xMT_TASK -D xMT_APP_FUNC -D
//        xMT_SYS_FUNC -D xMT_ZDO_FUNC -D xMT_ZDO_MGMT -D xMT_APP_CNF_FUNC -D
//        LCD_SUPPORTED=DEBUG -D MULTICAST_ENABLED=FALSE -D ZCL_READ -D
//        ZCL_DISCOVER -D ZCL_WRITE -D ZCL_BASIC -D ZCL_IDENTIFY -D ZCL_ON_OFF
//        -D ZCL_SCENES -D ZCL_GROUPS -D ZCL_LEVEL_CTRL -lC "C:\Texas
//        Instruments\Z-Stack 3.0.2-20210417T211827Z-001\Z-Stack 3.0.2\Z-Stack
//        3.0.2\Projects\zstack\HomeAutomation\SampleLight\CC2530DB\EndDeviceEB\List"
//        -lA "C:\Texas Instruments\Z-Stack 3.0.2-20210417T211827Z-001\Z-Stack
//        3.0.2\Z-Stack
//        3.0.2\Projects\zstack\HomeAutomation\SampleLight\CC2530DB\EndDeviceEB\List"
//        --diag_suppress Pe001,Pa010 -o "C:\Texas Instruments\Z-Stack
//        3.0.2-20210417T211827Z-001\Z-Stack 3.0.2\Z-Stack
//        3.0.2\Projects\zstack\HomeAutomation\SampleLight\CC2530DB\EndDeviceEB\Obj"
//        -e --debug --core=plain --dptr=16,1 --data_model=large
//        --code_model=banked --calling_convention=xdata_reentrant
//        --place_constants=data_rom --nr_virtual_regs 16 -f "C:\Texas
//        Instruments\Z-Stack 3.0.2-20210417T211827Z-001\Z-Stack 3.0.2\Z-Stack
//        3.0.2\Projects\zstack\HomeAutomation\SampleLight\CC2530DB\..\..\..\Tools\CC2530DB\f8wEndev.cfg"
//        (-DCPU32MHZ -DROOT=__near_func -DMAC_CFG_TX_DATA_MAX=3
//        -DMAC_CFG_TX_MAX=6 -DMAC_CFG_RX_MAX=3) -f "C:\Texas
//        Instruments\Z-Stack 3.0.2-20210417T211827Z-001\Z-Stack 3.0.2\Z-Stack
//        3.0.2\Projects\zstack\HomeAutomation\SampleLight\CC2530DB\..\..\..\Tools\CC2530DB\f8wConfig.cfg"
//        (-DZIGBEEPRO -DSECURE=1 -DZG_SECURE_DYNAMIC=0 -DREFLECTOR
//        -DDEFAULT_CHANLIST=0x00000800 -DZDAPP_CONFIG_PAN_ID=0xFFFF
//        -DNWK_START_DELAY=100 -DEXTENDED_JOINING_RANDOM_MASK=0x007F
//        -DBEACON_REQUEST_DELAY=100 -DBEACON_REQ_DELAY_MASK=0x00FF
//        -DLINK_STATUS_JITTER_MASK=0x007F -DROUTE_EXPIRY_TIME=30
//        -DAPSC_ACK_WAIT_DURATION_POLLED=3000 -DNWK_INDIRECT_MSG_TIMEOUT=7
//        -DMAX_RREQ_ENTRIES=8 -DAPSC_MAX_FRAME_RETRIES=3
//        -DNWK_MAX_DATA_RETRIES=2 -DMAX_POLL_FAILURE_RETRIES=2 -DMAX_BCAST=9
//        -DAPS_MAX_GROUPS=16 -DMAX_RTG_ENTRIES=40 -DNWK_MAX_BINDING_ENTRIES=4
//        -DMAX_BINDING_CLUSTER_IDS=4 -DDEFAULT_KEY={0}
//        -DMAC_MAX_FRAME_SIZE=116 -DZDNWKMGR_MIN_TRANSMISSIONS=20
//        "-DCONST=const __code" -DGENERIC=__generic -DRFD_RCVC_ALWAYS_ON=FALSE
//        -DPOLL_RATE=1000 -DQUEUED_POLL_RATE=100 -DRESPONSE_POLL_RATE=100
//        -DREJOIN_POLL_RATE=440 -DREJOIN_BACKOFF=900000 -DREJOIN_SCAN=900000
//        -DENABLE_LED4_DISABLE_S1) -f "C:\Texas Instruments\Z-Stack
//        3.0.2-20210417T211827Z-001\Z-Stack 3.0.2\Z-Stack
//        3.0.2\Projects\zstack\HomeAutomation\SampleLight\CC2530DB\..\..\..\Tools\CC2530DB\f8wZCL.cfg"
//        -I "C:\Texas Instruments\Z-Stack 3.0.2-20210417T211827Z-001\Z-Stack
//        3.0.2\Z-Stack
//        3.0.2\Projects\zstack\HomeAutomation\SampleLight\CC2530DB\" -I
//        "C:\Texas Instruments\Z-Stack 3.0.2-20210417T211827Z-001\Z-Stack
//        3.0.2\Z-Stack
//        3.0.2\Projects\zstack\HomeAutomation\SampleLight\CC2530DB\..\Source\"
//        -I "C:\Texas Instruments\Z-Stack 3.0.2-20210417T211827Z-001\Z-Stack
//        3.0.2\Z-Stack
//        3.0.2\Projects\zstack\HomeAutomation\SampleLight\CC2530DB\..\..\Source\"
//        -I "C:\Texas Instruments\Z-Stack 3.0.2-20210417T211827Z-001\Z-Stack
//        3.0.2\Z-Stack
//        3.0.2\Projects\zstack\HomeAutomation\SampleLight\CC2530DB\..\..\..\ZMain\TI2530DB\"
//        -I "C:\Texas Instruments\Z-Stack 3.0.2-20210417T211827Z-001\Z-Stack
//        3.0.2\Z-Stack
//        3.0.2\Projects\zstack\HomeAutomation\SampleLight\CC2530DB\..\..\..\..\..\Components\hal\include\"
//        -I "C:\Texas Instruments\Z-Stack 3.0.2-20210417T211827Z-001\Z-Stack
//        3.0.2\Z-Stack
//        3.0.2\Projects\zstack\HomeAutomation\SampleLight\CC2530DB\..\..\..\..\..\Components\hal\target\CC2530EB\"
//        -I "C:\Texas Instruments\Z-Stack 3.0.2-20210417T211827Z-001\Z-Stack
//        3.0.2\Z-Stack
//        3.0.2\Projects\zstack\HomeAutomation\SampleLight\CC2530DB\..\..\..\..\..\Components\mac\include\"
//        -I "C:\Texas Instruments\Z-Stack 3.0.2-20210417T211827Z-001\Z-Stack
//        3.0.2\Z-Stack
//        3.0.2\Projects\zstack\HomeAutomation\SampleLight\CC2530DB\..\..\..\..\..\Components\mac\high_level\"
//        -I "C:\Texas Instruments\Z-Stack 3.0.2-20210417T211827Z-001\Z-Stack
//        3.0.2\Z-Stack
//        3.0.2\Projects\zstack\HomeAutomation\SampleLight\CC2530DB\..\..\..\..\..\Components\mac\low_level\srf04\"
//        -I "C:\Texas Instruments\Z-Stack 3.0.2-20210417T211827Z-001\Z-Stack
//        3.0.2\Z-Stack
//        3.0.2\Projects\zstack\HomeAutomation\SampleLight\CC2530DB\..\..\..\..\..\Components\mac\low_level\srf04\single_chip\"
//        -I "C:\Texas Instruments\Z-Stack 3.0.2-20210417T211827Z-001\Z-Stack
//        3.0.2\Z-Stack
//        3.0.2\Projects\zstack\HomeAutomation\SampleLight\CC2530DB\..\..\..\..\..\Components\mt\"
//        -I "C:\Texas Instruments\Z-Stack 3.0.2-20210417T211827Z-001\Z-Stack
//        3.0.2\Z-Stack
//        3.0.2\Projects\zstack\HomeAutomation\SampleLight\CC2530DB\..\..\..\..\..\Components\osal\include\"
//        -I "C:\Texas Instruments\Z-Stack 3.0.2-20210417T211827Z-001\Z-Stack
//        3.0.2\Z-Stack
//        3.0.2\Projects\zstack\HomeAutomation\SampleLight\CC2530DB\..\..\..\..\..\Components\services\saddr\"
//        -I "C:\Texas Instruments\Z-Stack 3.0.2-20210417T211827Z-001\Z-Stack
//        3.0.2\Z-Stack
//        3.0.2\Projects\zstack\HomeAutomation\SampleLight\CC2530DB\..\..\..\..\..\Components\services\sdata\"
//        -I "C:\Texas Instruments\Z-Stack 3.0.2-20210417T211827Z-001\Z-Stack
//        3.0.2\Z-Stack
//        3.0.2\Projects\zstack\HomeAutomation\SampleLight\CC2530DB\..\..\..\..\..\Components\stack\af\"
//        -I "C:\Texas Instruments\Z-Stack 3.0.2-20210417T211827Z-001\Z-Stack
//        3.0.2\Z-Stack
//        3.0.2\Projects\zstack\HomeAutomation\SampleLight\CC2530DB\..\..\..\..\..\Components\stack\bdb\"
//        -I "C:\Texas Instruments\Z-Stack 3.0.2-20210417T211827Z-001\Z-Stack
//        3.0.2\Z-Stack
//        3.0.2\Projects\zstack\HomeAutomation\SampleLight\CC2530DB\..\..\..\..\..\Components\stack\gp\"
//        -I "C:\Texas Instruments\Z-Stack 3.0.2-20210417T211827Z-001\Z-Stack
//        3.0.2\Z-Stack
//        3.0.2\Projects\zstack\HomeAutomation\SampleLight\CC2530DB\..\..\..\..\..\Components\stack\nwk\"
//        -I "C:\Texas Instruments\Z-Stack 3.0.2-20210417T211827Z-001\Z-Stack
//        3.0.2\Z-Stack
//        3.0.2\Projects\zstack\HomeAutomation\SampleLight\CC2530DB\..\..\..\..\..\Components\stack\sapi\"
//        -I "C:\Texas Instruments\Z-Stack 3.0.2-20210417T211827Z-001\Z-Stack
//        3.0.2\Z-Stack
//        3.0.2\Projects\zstack\HomeAutomation\SampleLight\CC2530DB\..\..\..\..\..\Components\stack\sec\"
//        -I "C:\Texas Instruments\Z-Stack 3.0.2-20210417T211827Z-001\Z-Stack
//        3.0.2\Z-Stack
//        3.0.2\Projects\zstack\HomeAutomation\SampleLight\CC2530DB\..\..\..\..\..\Components\stack\sys\"
//        -I "C:\Texas Instruments\Z-Stack 3.0.2-20210417T211827Z-001\Z-Stack
//        3.0.2\Z-Stack
//        3.0.2\Projects\zstack\HomeAutomation\SampleLight\CC2530DB\..\..\..\..\..\Components\stack\zcl\"
//        -I "C:\Texas Instruments\Z-Stack 3.0.2-20210417T211827Z-001\Z-Stack
//        3.0.2\Z-Stack
//        3.0.2\Projects\zstack\HomeAutomation\SampleLight\CC2530DB\..\..\..\..\..\Components\stack\zdo\"
//        -I "C:\Texas Instruments\Z-Stack 3.0.2-20210417T211827Z-001\Z-Stack
//        3.0.2\Z-Stack
//        3.0.2\Projects\zstack\HomeAutomation\SampleLight\CC2530DB\..\..\..\..\..\Components\zmac\"
//        -I "C:\Texas Instruments\Z-Stack 3.0.2-20210417T211827Z-001\Z-Stack
//        3.0.2\Z-Stack
//        3.0.2\Projects\zstack\HomeAutomation\SampleLight\CC2530DB\..\..\..\..\..\Components\zmac\f8w\"
//        -Ohz --require_prototypes)
//    Locale             =  English_USA.1252
//    List file          =  
//        C:\Texas Instruments\Z-Stack 3.0.2-20210417T211827Z-001\Z-Stack
//        3.0.2\Z-Stack
//        3.0.2\Projects\zstack\HomeAutomation\SampleLight\CC2530DB\EndDeviceEB\List\ZGlobals.s51
//
///////////////////////////////////////////////////////////////////////////////

        NAME ZGlobals

        RTMODEL "__SystemLibrary", "CLib"
        RTMODEL "__calling_convention", "xdata_reentrant"
        RTMODEL "__code_model", "banked"
        RTMODEL "__core", "plain"
        RTMODEL "__data_model", "large"
        RTMODEL "__dptr_size", "16"
        RTMODEL "__extended_stack", "disabled"
        RTMODEL "__location_for_constants", "data"
        RTMODEL "__number_of_dptrs", "1"
        RTMODEL "__register_banks", "*"
        RTMODEL "__rt_version", "1"

        RSEG DOVERLAY:DATA:NOROOT(0)
        RSEG IOVERLAY:IDATA:NOROOT(0)
        RSEG ISTACK:IDATA:NOROOT(0)
        RSEG PSTACK:XDATA:NOROOT(0)
        RSEG XSTACK:XDATA:NOROOT(0)

        EXTERN ?V0
        EXTERN ?V1
        EXTERN ?V2
        EXTERN ?V3
        EXTERN ?V4
        EXTERN ?V5
        EXTERN ?ALLOC_XSTACK8
        EXTERN ?BANKED_ENTER_XDATA
        EXTERN ?BANKED_LEAVE_XDATA
        EXTERN ?BDISPATCH
        EXTERN ?DEALLOC_XSTACK8
        EXTERN ?PUSH_XSTACK_I_THREE
        EXTERN ?PUSH_XSTACK_I_TWO
        EXTERN ?XSP
        EXTERN ?XSTACK_DISP0_8
        EXTERN ?XSTACK_DISP100_8
        EXTERN ?XSTACK_DISP101_8
        EXTERN __INIT_XDATA_I
        EXTERN __INIT_XDATA_Z

        PUBLIC `??zgInit::?relay`
        FUNCTION `??zgInit::?relay`,0203H
        PUBLIC `??zgInitItems::?relay`
        FUNCTION `??zgInitItems::?relay`,0203H
        PUBLIC `??zgReadStartupOptions::?relay`
        FUNCTION `??zgReadStartupOptions::?relay`,0203H
        PUBLIC `??zgSetItem::?relay`
        FUNCTION `??zgSetItem::?relay`,0203H
        PUBLIC `??zgWriteStartupOptions::?relay`
        FUNCTION `??zgWriteStartupOptions::?relay`,0203H
        PUBLIC zTouchLinkNwkStartRtr
        PUBLIC zgAllowInstallCodes
        PUBLIC zgAllowRejoins
        PUBLIC zgAllowRejoinsOptions
        PUBLIC zgAllowRemoteTCPolicyChange
        PUBLIC zgApsAckWaitMultiplier
        PUBLIC zgApsAllowR19Sec
        PUBLIC zgApsDefaultMaxBindingTime
        PUBLIC zgApsLinkKeyType
        PUBLIC zgApsMinDupRejTableSize
        PUBLIC zgApsNonMemberRadius
        PUBLIC zgApsTrustCenterAddr
        PUBLIC zgApsUseExtendedPANID
        PUBLIC zgApsUseInsecureJoin
        PUBLIC zgApscAckWaitDurationPolled
        PUBLIC zgApscDupRejTimeoutCount
        PUBLIC zgApscDupRejTimeoutInc
        PUBLIC zgApscMaxFrameRetries
        PUBLIC zgBcastDeliveryTime
        PUBLIC zgChildAgingEnable
        PUBLIC zgConcentratorDiscoveryTime
        PUBLIC zgConcentratorEnable
        PUBLIC zgConcentratorRC
        PUBLIC zgConcentratorRadius
        PUBLIC zgConfigPANID
        PUBLIC zgDefaultChannelList
        PUBLIC zgDefaultRejoinBackoff
        PUBLIC zgDefaultRejoinScan
        PUBLIC zgDeviceLogicalType
        PUBLIC zgEndDeviceConfiguration
        PUBLIC zgEndDeviceTimeoutValue
        PUBLIC zgExtendedPANID
        PUBLIC zgIndirectMsgTimeout
        PUBLIC zgInit
        FUNCTION zgInit,0a1203H
        ARGFRAME XSTACK, 0, STACK
        LOCFRAME XSTACK, 34, STACK
        PUBLIC zgInitItems
        FUNCTION zgInitItems,0a1203H
        ARGFRAME XSTACK, 30, STACK
        ARGFRAME IOVERLAY, 0, STATIC
        ARGFRAME DOVERLAY, 0, STATIC
        LOCFRAME XSTACK, 18, STACK
        PUBLIC zgMaxBcastRetires
        PUBLIC zgMaxDataRetries
        PUBLIC zgMaxPollFailureRetries
        PUBLIC zgNwkCommissionedNwkAddr
        PUBLIC zgNwkEndDeviceLeaveTimeoutDefault
        PUBLIC zgNwkEndDeviceTimeoutDefault
        PUBLIC zgNwkLeaveRequestAllowed
        PUBLIC zgNwkMgrMinTransmissions
        PUBLIC zgNwkMgrMode
        PUBLIC zgNwkMode
        PUBLIC zgNwkParentInformation
        PUBLIC zgNwkProcessLocalLeaveCnf
        PUBLIC zgNwkSrcRtgExpiryTime
        PUBLIC zgPassiveAckTimeout
        PUBLIC zgPollRate
        PUBLIC zgPreConfigKeys
        PUBLIC zgQueuedPollRate
        PUBLIC zgReadStartupOptions
        FUNCTION zgReadStartupOptions,0a1203H
        ARGFRAME XSTACK, 30, STACK
        ARGFRAME IOVERLAY, 0, STATIC
        ARGFRAME DOVERLAY, 0, STATIC
        LOCFRAME XSTACK, 15, STACK
        PUBLIC zgRejoinPollRate
        PUBLIC zgResponsePollRate
        PUBLIC zgRouteDiscoveryTime
        PUBLIC zgRouteExpiryTime
        PUBLIC zgRouterOffAssocCleanup
        PUBLIC zgSapiEndpoint
        PUBLIC zgSavedPollRate
        PUBLIC zgSecurePermitJoin
        PUBLIC zgSecurityMode
        PUBLIC zgSetItem
        FUNCTION zgSetItem,0a1203H
        ARGFRAME XSTACK, 2, STACK
        LOCFRAME XSTACK, 14, STACK
        PUBLIC zgStackProfile
        PUBLIC zgStartDelay
        PUBLIC zgSwitchCoordKey
        PUBLIC zgSwitchCoordKeyIndex
        PUBLIC zgUseDefaultTCLK
        PUBLIC zgWriteStartupOptions
        FUNCTION zgWriteStartupOptions,0a1203H
        ARGFRAME XSTACK, 30, STACK
        ARGFRAME IOVERLAY, 0, STATIC
        ARGFRAME DOVERLAY, 0, STATIC
        LOCFRAME XSTACK, 15, STACK
        PUBLIC zgZdoDirectCB
        
          CFI Names cfiNames0
          CFI StackFrame CFA_SP SP IDATA
          CFI StackFrame CFA_PSP16 PSP16 XDATA
          CFI StackFrame CFA_XSP16 XSP16 XDATA
          CFI StaticOverlayFrame CFA_IOVERLAY IOVERLAY
          CFI StaticOverlayFrame CFA_DOVERLAY DOVERLAY
          CFI Resource `PSW.CY`:1, `B.BR0`:1, `B.BR1`:1, `B.BR2`:1, `B.BR3`:1
          CFI Resource `B.BR4`:1, `B.BR5`:1, `B.BR6`:1, `B.BR7`:1, `VB.BR8`:1
          CFI Resource `VB.BR9`:1, `VB.BR10`:1, `VB.BR11`:1, `VB.BR12`:1
          CFI Resource `VB.BR13`:1, `VB.BR14`:1, `VB.BR15`:1, VB:8, B:8, A:8
          CFI Resource PSW:8, DPL0:8, DPH0:8, R0:8, R1:8, R2:8, R3:8, R4:8, R5:8
          CFI Resource R6:8, R7:8, V0:8, V1:8, V2:8, V3:8, V4:8, V5:8, V6:8, V7:8
          CFI Resource V8:8, V9:8, V10:8, V11:8, V12:8, V13:8, V14:8, V15:8, SP:8
          CFI Resource PSPH:8, PSPL:8, PSP16:16, XSPH:8, XSPL:8, XSP16:16
          CFI VirtualResource ?RET:24
          CFI Resource ?BRET_EXT:8
          CFI VirtualResource ?RET_HIGH:8, ?RET_LOW:8
          CFI ResourceParts PSP16 PSPH, PSPL
          CFI ResourceParts XSP16 XSPH, XSPL
          CFI ResourceParts ?RET ?BRET_EXT, ?RET_HIGH, ?RET_LOW
          CFI EndNames cfiNames0
        
          CFI Common cfiCommon0 Using cfiNames0
          CFI CodeAlign 1
          CFI DataAlign -1
          CFI ReturnAddress ?RET CODE
          CFI CFA_DOVERLAY Used
          CFI CFA_IOVERLAY Used
          CFI CFA_SP SP+-3
          CFI CFA_PSP16 PSP16+0
          CFI CFA_XSP16 XSP16+0
          CFI `PSW.CY` SameValue
          CFI `B.BR0` SameValue
          CFI `B.BR1` SameValue
          CFI `B.BR2` SameValue
          CFI `B.BR3` SameValue
          CFI `B.BR4` SameValue
          CFI `B.BR5` SameValue
          CFI `B.BR6` SameValue
          CFI `B.BR7` SameValue
          CFI `VB.BR8` SameValue
          CFI `VB.BR9` SameValue
          CFI `VB.BR10` SameValue
          CFI `VB.BR11` SameValue
          CFI `VB.BR12` SameValue
          CFI `VB.BR13` SameValue
          CFI `VB.BR14` SameValue
          CFI `VB.BR15` SameValue
          CFI VB SameValue
          CFI B Undefined
          CFI A Undefined
          CFI PSW SameValue
          CFI DPL0 SameValue
          CFI DPH0 SameValue
          CFI R0 Undefined
          CFI R1 Undefined
          CFI R2 Undefined
          CFI R3 Undefined
          CFI R4 Undefined
          CFI R5 Undefined
          CFI R6 SameValue
          CFI R7 SameValue
          CFI V0 SameValue
          CFI V1 SameValue
          CFI V2 SameValue
          CFI V3 SameValue
          CFI V4 SameValue
          CFI V5 SameValue
          CFI V6 SameValue
          CFI V7 SameValue
          CFI V8 SameValue
          CFI V9 SameValue
          CFI V10 SameValue
          CFI V11 SameValue
          CFI V12 SameValue
          CFI V13 SameValue
          CFI V14 SameValue
          CFI V15 SameValue
          CFI PSPH Undefined
          CFI PSPL Undefined
          CFI XSPH Undefined
          CFI XSPL Undefined
          CFI ?RET Concat
          CFI ?BRET_EXT Frame(CFA_SP, 3)
          CFI ?RET_HIGH Frame(CFA_SP, 2)
          CFI ?RET_LOW Frame(CFA_SP, 1)
          CFI EndCommon cfiCommon0
        
        
          CFI Common cfiCommon1 Using cfiNames0
          CFI CodeAlign 1
          CFI DataAlign -1
          CFI ReturnAddress ?RET CODE
          CFI CFA_DOVERLAY Used
          CFI CFA_IOVERLAY Used
          CFI CFA_SP SP+-2
          CFI CFA_PSP16 PSP16+0
          CFI CFA_XSP16 XSP16+0
          CFI `PSW.CY` SameValue
          CFI `B.BR0` SameValue
          CFI `B.BR1` SameValue
          CFI `B.BR2` SameValue
          CFI `B.BR3` SameValue
          CFI `B.BR4` SameValue
          CFI `B.BR5` SameValue
          CFI `B.BR6` SameValue
          CFI `B.BR7` SameValue
          CFI `VB.BR8` SameValue
          CFI `VB.BR9` SameValue
          CFI `VB.BR10` SameValue
          CFI `VB.BR11` SameValue
          CFI `VB.BR12` SameValue
          CFI `VB.BR13` SameValue
          CFI `VB.BR14` SameValue
          CFI `VB.BR15` SameValue
          CFI VB SameValue
          CFI B SameValue
          CFI A SameValue
          CFI PSW SameValue
          CFI DPL0 SameValue
          CFI DPH0 SameValue
          CFI R0 SameValue
          CFI R1 SameValue
          CFI R2 SameValue
          CFI R3 SameValue
          CFI R4 SameValue
          CFI R5 SameValue
          CFI R6 SameValue
          CFI R7 SameValue
          CFI V0 SameValue
          CFI V1 SameValue
          CFI V2 SameValue
          CFI V3 SameValue
          CFI V4 SameValue
          CFI V5 SameValue
          CFI V6 SameValue
          CFI V7 SameValue
          CFI V8 SameValue
          CFI V9 SameValue
          CFI V10 SameValue
          CFI V11 SameValue
          CFI V12 SameValue
          CFI V13 SameValue
          CFI V14 SameValue
          CFI V15 SameValue
          CFI PSPH Undefined
          CFI PSPL Undefined
          CFI XSPH Undefined
          CFI XSPL Undefined
          CFI ?RET Concat
          CFI ?BRET_EXT SameValue
          CFI ?RET_HIGH Frame(CFA_SP, 2)
          CFI ?RET_LOW Frame(CFA_SP, 1)
          CFI EndCommon cfiCommon1
        
ZDSecMgrInitNVKeyTables SYMBOL "ZDSecMgrInitNVKeyTables"
`??ZDSecMgrInitNVKeyTables::?relay` SYMBOL "?relay", ZDSecMgrInitNVKeyTables
ZMacGetReq          SYMBOL "ZMacGetReq"
`??ZMacGetReq::?relay` SYMBOL "?relay", ZMacGetReq
bdb_setNodeIsOnANetwork SYMBOL "bdb_setNodeIsOnANetwork"
`??bdb_setNodeIsOnANetwork::?relay` SYMBOL "?relay", bdb_setNodeIsOnANetwork
osal_memcpy         SYMBOL "osal_memcpy"
`??osal_memcpy::?relay` SYMBOL "?relay", osal_memcpy
osal_memset         SYMBOL "osal_memset"
`??osal_memset::?relay` SYMBOL "?relay", osal_memset
osal_nv_delete      SYMBOL "osal_nv_delete"
`??osal_nv_delete::?relay` SYMBOL "?relay", osal_nv_delete
osal_nv_item_init   SYMBOL "osal_nv_item_init"
`??osal_nv_item_init::?relay` SYMBOL "?relay", osal_nv_item_init
osal_nv_item_len    SYMBOL "osal_nv_item_len"
`??osal_nv_item_len::?relay` SYMBOL "?relay", osal_nv_item_len
osal_nv_read        SYMBOL "osal_nv_read"
`??osal_nv_read::?relay` SYMBOL "?relay", osal_nv_read
osal_nv_write       SYMBOL "osal_nv_write"
`??osal_nv_write::?relay` SYMBOL "?relay", osal_nv_write
zgInit              SYMBOL "zgInit"
`??zgInit::?relay`  SYMBOL "?relay", zgInit
zgInitItems         SYMBOL "zgInitItems"
`??zgInitItems::?relay` SYMBOL "?relay", zgInitItems
zgReadStartupOptions SYMBOL "zgReadStartupOptions"
`??zgReadStartupOptions::?relay` SYMBOL "?relay", zgReadStartupOptions
zgSetItem           SYMBOL "zgSetItem"
`??zgSetItem::?relay` SYMBOL "?relay", zgSetItem
zgWriteStartupOptions SYMBOL "zgWriteStartupOptions"
`??zgWriteStartupOptions::?relay` SYMBOL "?relay", zgWriteStartupOptions

        EXTERN `??ZDSecMgrInitNVKeyTables::?relay`
        FUNCTION `??ZDSecMgrInitNVKeyTables::?relay`,00H
        EXTERN `??ZMacGetReq::?relay`
        FUNCTION `??ZMacGetReq::?relay`,00H
        EXTERN `??bdb_setNodeIsOnANetwork::?relay`
        FUNCTION `??bdb_setNodeIsOnANetwork::?relay`,00H
        EXTERN `??osal_memcpy::?relay`
        FUNCTION `??osal_memcpy::?relay`,00H
        EXTERN `??osal_memset::?relay`
        FUNCTION `??osal_memset::?relay`,00H
        EXTERN `??osal_nv_delete::?relay`
        FUNCTION `??osal_nv_delete::?relay`,00H
        EXTERN `??osal_nv_item_init::?relay`
        FUNCTION `??osal_nv_item_init::?relay`,00H
        EXTERN `??osal_nv_item_len::?relay`
        FUNCTION `??osal_nv_item_len::?relay`,00H
        EXTERN `??osal_nv_read::?relay`
        FUNCTION `??osal_nv_read::?relay`,00H
        EXTERN `??osal_nv_write::?relay`
        FUNCTION `??osal_nv_write::?relay`,00H
        EXTERN ZDSecMgrInitNVKeyTables
        FUNCTION ZDSecMgrInitNVKeyTables,0202H
        ARGFRAME ISTACK, 0, STACK
        ARGFRAME PSTACK, 0, STACK
        ARGFRAME XSTACK, 30, STACK
        ARGFRAME IOVERLAY, 0, STATIC
        ARGFRAME DOVERLAY, 0, STATIC
        EXTERN ZMacGetReq
        FUNCTION ZMacGetReq,0202H
        ARGFRAME ISTACK, 0, STACK
        ARGFRAME PSTACK, 0, STACK
        ARGFRAME XSTACK, 30, STACK
        ARGFRAME IOVERLAY, 0, STATIC
        ARGFRAME DOVERLAY, 0, STATIC
        EXTERN bdbAttributes
        EXTERN bdb_setNodeIsOnANetwork
        FUNCTION bdb_setNodeIsOnANetwork,0202H
        ARGFRAME ISTACK, 0, STACK
        ARGFRAME PSTACK, 0, STACK
        ARGFRAME XSTACK, 30, STACK
        ARGFRAME IOVERLAY, 0, STATIC
        ARGFRAME DOVERLAY, 0, STATIC
        EXTERN osal_memcpy
        FUNCTION osal_memcpy,0202H
        ARGFRAME ISTACK, 0, STACK
        ARGFRAME PSTACK, 0, STACK
        ARGFRAME XSTACK, 14, STACK
        ARGFRAME IOVERLAY, 0, STATIC
        ARGFRAME DOVERLAY, 0, STATIC
        EXTERN osal_memset
        FUNCTION osal_memset,0202H
        ARGFRAME ISTACK, 0, STACK
        ARGFRAME PSTACK, 0, STACK
        ARGFRAME XSTACK, 30, STACK
        ARGFRAME IOVERLAY, 0, STATIC
        ARGFRAME DOVERLAY, 0, STATIC
        EXTERN osal_nv_delete
        FUNCTION osal_nv_delete,0202H
        ARGFRAME ISTACK, 0, STACK
        ARGFRAME PSTACK, 0, STACK
        ARGFRAME XSTACK, 30, STACK
        ARGFRAME IOVERLAY, 0, STATIC
        ARGFRAME DOVERLAY, 0, STATIC
        EXTERN osal_nv_item_init
        FUNCTION osal_nv_item_init,0202H
        ARGFRAME ISTACK, 0, STACK
        ARGFRAME PSTACK, 0, STACK
        ARGFRAME XSTACK, 32, STACK
        ARGFRAME IOVERLAY, 0, STATIC
        ARGFRAME DOVERLAY, 0, STATIC
        EXTERN osal_nv_item_len
        FUNCTION osal_nv_item_len,0202H
        ARGFRAME ISTACK, 0, STACK
        ARGFRAME PSTACK, 0, STACK
        ARGFRAME XSTACK, 30, STACK
        ARGFRAME IOVERLAY, 0, STATIC
        ARGFRAME DOVERLAY, 0, STATIC
        EXTERN osal_nv_read
        FUNCTION osal_nv_read,0202H
        ARGFRAME ISTACK, 0, STACK
        ARGFRAME PSTACK, 0, STACK
        ARGFRAME XSTACK, 34, STACK
        ARGFRAME IOVERLAY, 0, STATIC
        ARGFRAME DOVERLAY, 0, STATIC
        EXTERN osal_nv_write
        FUNCTION osal_nv_write,0202H
        ARGFRAME ISTACK, 0, STACK
        ARGFRAME PSTACK, 0, STACK
        ARGFRAME XSTACK, 34, STACK
        ARGFRAME IOVERLAY, 0, STATIC
        ARGFRAME DOVERLAY, 0, STATIC

// C:\Texas Instruments\Z-Stack 3.0.2-20210417T211827Z-001\Z-Stack 3.0.2\Z-Stack 3.0.2\Components\stack\sys\ZGlobals.c
//    1 /**************************************************************************************************
//    2   Filename:       ZGlobals.c
//    3   Revised:        $Date: 2015-10-05 14:56:09 -0700 (Mon, 05 Oct 2015) $
//    4   Revision:       $Revision: 44517 $
//    5 
//    6   Description:    User definable Z-Stack parameters.
//    7 
//    8 
//    9   Copyright 2007-2015 Texas Instruments Incorporated. All rights reserved.
//   10 
//   11   IMPORTANT: Your use of this Software is limited to those specific rights
//   12   granted under the terms of a software license agreement between the user
//   13   who downloaded the software, his/her employer (which must be your employer)
//   14   and Texas Instruments Incorporated (the "License").  You may not use this
//   15   Software unless you agree to abide by the terms of the License. The License
//   16   limits your use, and you acknowledge, that the Software may not be modified,
//   17   copied or distributed unless embedded on a Texas Instruments microcontroller
//   18   or used solely and exclusively in conjunction with a Texas Instruments radio
//   19   frequency transceiver, which is integrated into your product. Other than for
//   20   the foregoing purpose, you may not use, reproduce, copy, prepare derivative
//   21   works of, modify, distribute, perform, display or sell this Software and/or
//   22   its documentation for any purpose.
//   23 
//   24   YOU FURTHER ACKNOWLEDGE AND AGREE THAT THE SOFTWARE AND DOCUMENTATION ARE
//   25   PROVIDED "AS IS" WITHOUT WARRANTY OF ANY KIND, EITHER EXPRESS OR IMPLIED,
//   26   INCLUDING WITHOUT LIMITATION, ANY WARRANTY OF MERCHANTABILITY, TITLE,
//   27   NON-INFRINGEMENT AND FITNESS FOR A PARTICULAR PURPOSE. IN NO EVENT SHALL
//   28   TEXAS INSTRUMENTS OR ITS LICENSORS BE LIABLE OR OBLIGATED UNDER CONTRACT,
//   29   NEGLIGENCE, STRICT LIABILITY, CONTRIBUTION, BREACH OF WARRANTY, OR OTHER
//   30   LEGAL EQUITABLE THEORY ANY DIRECT OR INDIRECT DAMAGES OR EXPENSES
//   31   INCLUDING BUT NOT LIMITED TO ANY INCIDENTAL, SPECIAL, INDIRECT, PUNITIVE
//   32   OR CONSEQUENTIAL DAMAGES, LOST PROFITS OR LOST DATA, COST OF PROCUREMENT
//   33   OF SUBSTITUTE GOODS, TECHNOLOGY, SERVICES, OR ANY CLAIMS BY THIRD PARTIES
//   34   (INCLUDING BUT NOT LIMITED TO ANY DEFENSE THEREOF), OR OTHER SIMILAR COSTS.
//   35 
//   36   Should you have any questions regarding your right to use this Software,
//   37   contact Texas Instruments Incorporated at www.TI.com.
//   38 **************************************************************************************************/
//   39 
//   40 /*********************************************************************
//   41  * INCLUDES
//   42  */
//   43 
//   44 #include "ZComDef.h"
//   45 #include "OSAL_Nv.h"
//   46 #include "ZDObject.h"
//   47 #include "ZGlobals.h"
//   48 #include "ZDNwkMgr.h"
//   49 #include "OnBoard.h"
//   50 #include "ZDSecMgr.h"
//   51 #include "bdb.h"
//   52 
//   53 /*********************************************************************
//   54  * MACROS
//   55  */
//   56 
//   57 /*********************************************************************
//   58  * CONSTANTS
//   59  */
//   60 
//   61 /*********************************************************************
//   62  * TYPEDEFS
//   63  */
//   64 
//   65 typedef struct zgItem
//   66 {
//   67   uint16 id;
//   68   uint16 len;
//   69   void *buf;
//   70 } zgItem_t;
//   71 
//   72 /*********************************************************************
//   73  * NWK GLOBAL VARIABLES
//   74  */
//   75 
//   76 // Polling values

        RSEG XDATA_I:XDATA:NOROOT(0)
//   77 uint32 zgPollRate = POLL_RATE;
zgPollRate:
        DATA32
        DS 4
        REQUIRE `?<Initializer for zgPollRate>`
        REQUIRE __INIT_XDATA_I

        RSEG XDATA_I:XDATA:NOROOT(0)
//   78 uint32 zgSavedPollRate = POLL_RATE;
zgSavedPollRate:
        DATA32
        DS 4
        REQUIRE `?<Initializer for zgSavedPollRate>`
        REQUIRE __INIT_XDATA_I

        RSEG XDATA_I:XDATA:NOROOT(0)
//   79 uint16 zgQueuedPollRate = QUEUED_POLL_RATE;
zgQueuedPollRate:
        DATA16
        DS 2
        REQUIRE `?<Initializer for zgQueuedPollRate>`
        REQUIRE __INIT_XDATA_I

        RSEG XDATA_I:XDATA:NOROOT(0)
//   80 uint16 zgResponsePollRate = RESPONSE_POLL_RATE;
zgResponsePollRate:
        DATA16
        DS 2
        REQUIRE `?<Initializer for zgResponsePollRate>`
        REQUIRE __INIT_XDATA_I

        RSEG XDATA_I:XDATA:NOROOT(0)
//   81 uint16 zgRejoinPollRate = REJOIN_POLL_RATE;
zgRejoinPollRate:
        DATA16
        DS 2
        REQUIRE `?<Initializer for zgRejoinPollRate>`
        REQUIRE __INIT_XDATA_I
//   82 
//   83 // Rejoin backoff (silent period ) duration

        RSEG XDATA_I:XDATA:NOROOT(0)
//   84 uint32 zgDefaultRejoinBackoff = REJOIN_BACKOFF;
zgDefaultRejoinBackoff:
        DATA32
        DS 4
        REQUIRE `?<Initializer for zgDefaultRejoinBackoff>`
        REQUIRE __INIT_XDATA_I
//   85 
//   86 // Rejoin scan duration

        RSEG XDATA_I:XDATA:NOROOT(0)
//   87 uint32 zgDefaultRejoinScan = REJOIN_SCAN ;
zgDefaultRejoinScan:
        DATA32
        DS 4
        REQUIRE `?<Initializer for zgDefaultRejoinScan>`
        REQUIRE __INIT_XDATA_I
//   88 
//   89 // Transmission retries numbers

        RSEG XDATA_I:XDATA:NOROOT(0)
//   90 uint8 zgMaxDataRetries = NWK_MAX_DATA_RETRIES;
zgMaxDataRetries:
        DATA8
        DS 1
        REQUIRE `?<Initializer for zgMaxDataRetries>`
        REQUIRE __INIT_XDATA_I

        RSEG XDATA_I:XDATA:NOROOT(0)
//   91 uint8 zgMaxPollFailureRetries = MAX_POLL_FAILURE_RETRIES;
zgMaxPollFailureRetries:
        DATA8
        DS 1
        REQUIRE `?<Initializer for zgMaxPollFailureRetries>`
        REQUIRE __INIT_XDATA_I
//   92 
//   93 // Default channel list

        RSEG XDATA_Z:XDATA:NOROOT(0)
        DATA32
//   94 uint32 zgDefaultChannelList = 0;
zgDefaultChannelList:
        DS 4
        REQUIRE __INIT_XDATA_Z
//   95 
//   96 // Stack profile Id

        RSEG XDATA_I:XDATA:NOROOT(0)
//   97 uint8 zgStackProfile = STACK_PROFILE_ID;
zgStackProfile:
        DATA8
        DS 1
        REQUIRE `?<Initializer for zgStackProfile>`
        REQUIRE __INIT_XDATA_I
//   98 
//   99 // Default indirect message holding timeout

        RSEG XDATA_I:XDATA:NOROOT(0)
//  100 uint8 zgIndirectMsgTimeout = NWK_INDIRECT_MSG_TIMEOUT;
zgIndirectMsgTimeout:
        DATA8
        DS 1
        REQUIRE `?<Initializer for zgIndirectMsgTimeout>`
        REQUIRE __INIT_XDATA_I
//  101 
//  102 // Security mode

        RSEG XDATA_I:XDATA:NOROOT(0)
//  103 uint8 zgSecurityMode = ZG_SECURITY_MODE;
zgSecurityMode:
        DATA8
        DS 1
        REQUIRE `?<Initializer for zgSecurityMode>`
        REQUIRE __INIT_XDATA_I
//  104 
//  105 // Secure permit join

        RSEG XDATA_I:XDATA:NOROOT(0)
//  106 uint8 zgSecurePermitJoin = TRUE;
zgSecurePermitJoin:
        DATA8
        DS 1
        REQUIRE `?<Initializer for zgSecurePermitJoin>`
        REQUIRE __INIT_XDATA_I
//  107 
//  108 // trustcenter allows rejoins using well known or default keys 

        RSEG XDATA_Z:XDATA:NOROOT(0)
        DATA8
//  109 uint8 zgAllowRejoins = FALSE;   // FALSE by default
zgAllowRejoins:
        DS 1
        REQUIRE __INIT_XDATA_Z
//  110 
//  111 //if zgAllowRejoins is set to FALSE, the rejoining device will receive a rejoin rsp success and also a leave command.
//  112 //The leave command will have set the rejoin parameter = 'zgAllowRejoinsOptions' value.

        RSEG XDATA_Z:XDATA:NOROOT(0)
        DATA8
//  113 uint8 zgAllowRejoinsOptions = FALSE;  //FALSE by default
zgAllowRejoinsOptions:
        DS 1
        REQUIRE __INIT_XDATA_Z
//  114 
//  115 //allowInstallCodes

        RSEG XDATA_I:XDATA:NOROOT(0)
//  116 uint8 zgAllowInstallCodes = ZG_IC_SUPPORTED_NOT_REQUIRED;
zgAllowInstallCodes:
        DATA8
        DS 1
        REQUIRE `?<Initializer for zgAllowInstallCodes>`
        REQUIRE __INIT_XDATA_I
//  117 //Allow other devices in the network to change the TC permit joining policy

        RSEG XDATA_I:XDATA:NOROOT(0)
//  118 uint8 zgAllowRemoteTCPolicyChange = TRUE;
zgAllowRemoteTCPolicyChange:
        DATA8
        DS 1
        REQUIRE `?<Initializer for zgAllowRemoteTCPolicyChange>`
        REQUIRE __INIT_XDATA_I
//  119 
//  120 //Change these policies to FALSE is not supported
//  121 //uint8 zgAllowTrustCenterLinkKeyRequest = TRUE;
//  122 //uint8 zgAllowApplicationKeyRequests = TRUE;
//  123 
//  124 
//  125 // Trust center address

        RSEG XDATA_Z:XDATA:NOROOT(0)
        DATA8
//  126 uint8 zgApsTrustCenterAddr[Z_EXTADDR_LEN] = { 0 };
zgApsTrustCenterAddr:
        DS 8
        REQUIRE __INIT_XDATA_Z
//  127 
//  128 
//  129 // Route Discovery Time - amount of time that a route request lasts

        RSEG XDATA_I:XDATA:NOROOT(0)
//  130 uint8 zgRouteDiscoveryTime = ROUTE_DISCOVERY_TIME;
zgRouteDiscoveryTime:
        DATA8
        DS 1
        REQUIRE `?<Initializer for zgRouteDiscoveryTime>`
        REQUIRE __INIT_XDATA_I
//  131 
//  132 // Route expiry

        RSEG XDATA_I:XDATA:NOROOT(0)
//  133 uint8 zgRouteExpiryTime = ROUTE_EXPIRY_TIME;
zgRouteExpiryTime:
        DATA8
        DS 1
        REQUIRE `?<Initializer for zgRouteExpiryTime>`
        REQUIRE __INIT_XDATA_I
//  134 
//  135 // Extended PAN Id

        RSEG XDATA_Z:XDATA:NOROOT(0)
        DATA8
//  136 uint8 zgExtendedPANID[Z_EXTADDR_LEN];
zgExtendedPANID:
        DS 8
        REQUIRE __INIT_XDATA_Z
//  137 
//  138 // Broadcast parameters

        RSEG XDATA_I:XDATA:NOROOT(0)
//  139 uint8 zgMaxBcastRetires   = MAX_BCAST_RETRIES;
zgMaxBcastRetires:
        DATA8
        DS 1
        REQUIRE `?<Initializer for zgMaxBcastRetires>`
        REQUIRE __INIT_XDATA_I

        RSEG XDATA_I:XDATA:NOROOT(0)
//  140 uint8 zgPassiveAckTimeout = PASSIVE_ACK_TIMEOUT;
zgPassiveAckTimeout:
        DATA8
        DS 1
        REQUIRE `?<Initializer for zgPassiveAckTimeout>`
        REQUIRE __INIT_XDATA_I

        RSEG XDATA_I:XDATA:NOROOT(0)
//  141 uint8 zgBcastDeliveryTime = BCAST_DELIVERY_TIME;
zgBcastDeliveryTime:
        DATA8
        DS 1
        REQUIRE `?<Initializer for zgBcastDeliveryTime>`
        REQUIRE __INIT_XDATA_I
//  142 
//  143 // Network mode

        RSEG XDATA_I:XDATA:NOROOT(0)
//  144 uint8 zgNwkMode = NWK_MODE;
zgNwkMode:
        DATA8
        DS 1
        REQUIRE `?<Initializer for zgNwkMode>`
        REQUIRE __INIT_XDATA_I
//  145 
//  146 // Many-to-one values

        RSEG XDATA_Z:XDATA:NOROOT(0)
        DATA8
//  147 uint8 zgConcentratorEnable = CONCENTRATOR_ENABLE;
zgConcentratorEnable:
        DS 1
        REQUIRE __INIT_XDATA_Z

        RSEG XDATA_Z:XDATA:NOROOT(0)
        DATA8
//  148 uint8 zgConcentratorDiscoveryTime = CONCENTRATOR_DISCOVERY_TIME;
zgConcentratorDiscoveryTime:
        DS 1
        REQUIRE __INIT_XDATA_Z

        RSEG XDATA_I:XDATA:NOROOT(0)
//  149 uint8 zgConcentratorRadius = CONCENTRATOR_RADIUS;
zgConcentratorRadius:
        DATA8
        DS 1
        REQUIRE `?<Initializer for zgConcentratorRadius>`
        REQUIRE __INIT_XDATA_I

        RSEG XDATA_Z:XDATA:NOROOT(0)
        DATA8
//  150 uint8 zgConcentratorRC = CONCENTRATOR_ROUTE_CACHE;   // concentrator with route cache (no memory constraints)
zgConcentratorRC:
        DS 1
        REQUIRE __INIT_XDATA_Z

        RSEG XDATA_I:XDATA:NOROOT(0)
//  151 uint8 zgNwkSrcRtgExpiryTime = SRC_RTG_EXPIRY_TIME;
zgNwkSrcRtgExpiryTime:
        DATA8
        DS 1
        REQUIRE `?<Initializer for zgNwkSrcRtgExpiryTime>`
        REQUIRE __INIT_XDATA_I
//  152 
//  153 // Cleanup Child Table according to routing traffic

        RSEG XDATA_Z:XDATA:NOROOT(0)
        DATA8
//  154 uint8 zgRouterOffAssocCleanup = FALSE;
zgRouterOffAssocCleanup:
        DS 1
        REQUIRE __INIT_XDATA_Z
//  155 
//  156 // Determines whether or not a remote NWK leave request command frame received
//  157 // by the local device is accepted .

        RSEG XDATA_I:XDATA:NOROOT(0)
//  158 uint8 zgNwkLeaveRequestAllowed = TRUE;
zgNwkLeaveRequestAllowed:
        DATA8
        DS 1
        REQUIRE `?<Initializer for zgNwkLeaveRequestAllowed>`
        REQUIRE __INIT_XDATA_I
//  159 
//  160 
//  161 
//  162 // Enable or disable processing a leave request confirm generated by local
//  163 // device when it sends a leave request to a remote device. 
//  164 // NOTE: This is only used for testing purposes, do not disable 

        RSEG XDATA_I:XDATA:NOROOT(0)
//  165 uint8 zgNwkProcessLocalLeaveCnf = TRUE;
zgNwkProcessLocalLeaveCnf:
        DATA8
        DS 1
        REQUIRE `?<Initializer for zgNwkProcessLocalLeaveCnf>`
        REQUIRE __INIT_XDATA_I
//  166 
//  167 
//  168 //=======    Child Aging PARENT ROUTER (ZR/ZC) configuration   ========
//  169 // You can setup a router to support Child Table Aging in 1 of 2 modes of
//  170 // operation.  The first mode is NWK_PARENT_INFO_ORPHAN_NOTIFICATION and it
//  171 // expects end devices to use orphan scan periodically as a means of a keep-alive
//  172 // notification to the parent.  The other mode is NWK_PARENT_INFO_MAC_DATA_POLL
//  173 // which uses the end device's MAC POLL request as the keep-alive notification.
//  174 // The first method is preferred for new devices, where the end devices provide
//  175 // support for it (which will be manditory in future Zigbee Home Automation
//  176 // Specifications).
//  177 // The second method is compatible with older end devices without the need for
//  178 // specific child aging support.
//  179 //
//  180 // The method supported by the router (or coordinator) is determined at build time
//  181 // by setting zgNwkParentInformation to either NWK_PARENT_INFO_ORPHAN_NOTIFICATION
//  182 // or NWK_PARENT_INFO_MAC_DATA_POLL.
//  183 //
//  184 // End device built with Child Table Aging support both methods, the method is
//  185 // determined by the parent and communicated at run-time.
//  186 #if ( ZG_BUILD_RTR_TYPE )
//  187 uint8 zgNwkParentInformation = NWK_PARENT_INFO_MAC_DATA_POLL;
//  188 #else

        RSEG XDATA_Z:XDATA:NOROOT(0)
        DATA8
//  189 uint8 zgNwkParentInformation = NWK_PARENT_INFO_UNDEFINED;
zgNwkParentInformation:
        DS 1
        REQUIRE __INIT_XDATA_Z
//  190 #endif
//  191 
//  192 // This is an index into table Requested Timeout Enumerated Values.
//  193 // It is used by the parent router, it indicates the default timeout value
//  194 // for any end device that does not negotiate a different timeout value

        RSEG XDATA_I:XDATA:NOROOT(0)
//  195 uint8 zgNwkEndDeviceTimeoutDefault = NWK_END_DEV_TIMEOUT_DEFAULT;
zgNwkEndDeviceTimeoutDefault:
        DATA8
        DS 1
        REQUIRE `?<Initializer for zgNwkEndDeviceTimeoutDefault`
        REQUIRE __INIT_XDATA_I
//  196 
//  197 // Index into table Requested Timeout Enumerated Values.
//  198 // Used to keep the leave message into MAC queue for child devices that has expired

        RSEG XDATA_I:XDATA:NOROOT(0)
//  199 uint8 zgNwkEndDeviceLeaveTimeoutDefault = NWK_END_DEVICE_LEAVE_TIMEOUT;
zgNwkEndDeviceLeaveTimeoutDefault:
        DATA8
        DS 1
        REQUIRE `?<Initializer for zgNwkEndDeviceLeaveTimeoutDe`
        REQUIRE __INIT_XDATA_I
//  200 //=====================================================================
//  201 
//  202 //==========    Child Aging END DEVICE configuration    ===============
//  203 // Values used by End Device when sending End Device Timeout Request

        RSEG XDATA_I:XDATA:NOROOT(0)
//  204 uint8 zgEndDeviceTimeoutValue  = END_DEV_TIMEOUT_VALUE;
zgEndDeviceTimeoutValue:
        DATA8
        DS 1
        REQUIRE `?<Initializer for zgEndDeviceTimeoutValue>`
        REQUIRE __INIT_XDATA_I

        RSEG XDATA_Z:XDATA:NOROOT(0)
        DATA8
//  205 uint8 zgEndDeviceConfiguration = END_DEV_CONFIGURATION;
zgEndDeviceConfiguration:
        DS 1
        REQUIRE __INIT_XDATA_Z
//  206 
//  207 
//  208 //=====================================================================
//  209 
//  210 // Determines if the Child Aging Table Management process is active or not.
//  211 // This feature is optional and it is disabled by default.
//  212 //
//  213 // NOTICE:  Before enabling Child Aging make sure to review all the related
//  214 // definitions in this file, especially zgNwkParentInformation.

        RSEG XDATA_I:XDATA:NOROOT(0)
//  215 uint8 zgChildAgingEnable = TRUE;
zgChildAgingEnable:
        DATA8
        DS 1
        REQUIRE `?<Initializer for zgChildAgingEnable>`
        REQUIRE __INIT_XDATA_I
//  216 
//  217 //==========    TouchLink NWK configuration    ===============
//  218 // Values used by Router when starts a network as initiator

        RSEG XDATA_Z:XDATA:NOROOT(0)
        DATA8
//  219 uint8 zTouchLinkNwkStartRtr = FALSE;
zTouchLinkNwkStartRtr:
        DS 1
        REQUIRE __INIT_XDATA_Z
//  220 
//  221 /*********************************************************************
//  222  * APS GLOBAL VARIABLES
//  223  */
//  224 
//  225 // The maximum number of retries allowed after a transmission failure

        RSEG XDATA_I:XDATA:NOROOT(0)
//  226 uint8 zgApscMaxFrameRetries = APSC_MAX_FRAME_RETRIES;
zgApscMaxFrameRetries:
        DATA8
        DS 1
        REQUIRE `?<Initializer for zgApscMaxFrameRetries>`
        REQUIRE __INIT_XDATA_I
//  227 
//  228 // The maximum number of seconds (milliseconds) to wait for an
//  229 // acknowledgement to a transmitted frame.
//  230 
//  231 // This number is used by polled devices.

        RSEG XDATA_I:XDATA:NOROOT(0)
//  232 uint16 zgApscAckWaitDurationPolled = APSC_ACK_WAIT_DURATION_POLLED;
zgApscAckWaitDurationPolled:
        DATA16
        DS 2
        REQUIRE `?<Initializer for zgApscAckWaitDurationPolled>`
        REQUIRE __INIT_XDATA_I
//  233 
//  234 // This number is used by non-polled devices in the following formula:
//  235 //   (100 mSec) * (_NIB.MaxDepth * zgApsAckWaitMultiplier)

        RSEG XDATA_I:XDATA:NOROOT(0)
//  236 uint8 zgApsAckWaitMultiplier = 2;
zgApsAckWaitMultiplier:
        DATA8
        DS 1
        REQUIRE `?<Initializer for zgApsAckWaitMultiplier>`
        REQUIRE __INIT_XDATA_I
//  237 
//  238 // The maximum number of milliseconds for the end device binding

        RSEG XDATA_I:XDATA:NOROOT(0)
//  239 uint16 zgApsDefaultMaxBindingTime = APS_DEFAULT_MAXBINDING_TIME;
zgApsDefaultMaxBindingTime:
        DATA16
        DS 2
        REQUIRE `?<Initializer for zgApsDefaultMaxBindingTime>`
        REQUIRE __INIT_XDATA_I
//  240 
//  241 // The 64-big identifier of the network to join or form.
//  242 // Default set to all zeros

        RSEG XDATA_Z:XDATA:NOROOT(0)
        DATA8
//  243 uint8 zgApsUseExtendedPANID[Z_EXTADDR_LEN] = {00,00,00,00,00,00,00,00};
zgApsUseExtendedPANID:
        DS 8
        REQUIRE __INIT_XDATA_Z
//  244 
//  245 // A boolean flag that indicates whether it is OK to use insecure join
//  246 // on startup. Default set to TRUE

        RSEG XDATA_I:XDATA:NOROOT(0)
//  247 uint8 zgApsUseInsecureJoin = TRUE;
zgApsUseInsecureJoin:
        DATA8
        DS 1
        REQUIRE `?<Initializer for zgApsUseInsecureJoin>`
        REQUIRE __INIT_XDATA_I
//  248 
//  249 // The radius of broadcast multicast transmissions

        RSEG XDATA_I:XDATA:NOROOT(0)
//  250 uint8 zgApsNonMemberRadius = APS_DEFAULT_NONMEMBER_RADIUS;
zgApsNonMemberRadius:
        DATA8
        DS 1
        REQUIRE `?<Initializer for zgApsNonMemberRadius>`
        REQUIRE __INIT_XDATA_I
//  251 
//  252 // Commissioned Network Address

        RSEG XDATA_I:XDATA:NOROOT(0)
//  253 uint16 zgNwkCommissionedNwkAddr = INVALID_NODE_ADDR;
zgNwkCommissionedNwkAddr:
        DATA16
        DS 2
        REQUIRE `?<Initializer for zgNwkCommissionedNwkAddr>`
        REQUIRE __INIT_XDATA_I
//  254 
//  255 // APS Duplication Rejection table variables

        RSEG XDATA_I:XDATA:NOROOT(0)
//  256 uint16 zgApscDupRejTimeoutInc = DEFAULT_APS_DUP_REJ_TIMEOUT_INCREMENT;
zgApscDupRejTimeoutInc:
        DATA16
        DS 2
        REQUIRE `?<Initializer for zgApscDupRejTimeoutInc>`
        REQUIRE __INIT_XDATA_I

        RSEG XDATA_I:XDATA:NOROOT(0)
//  257 uint8  zgApscDupRejTimeoutCount = DEFAULT_APS_DUP_REJ_TIMEOUT;
zgApscDupRejTimeoutCount:
        DATA8
        DS 1
        REQUIRE `?<Initializer for zgApscDupRejTimeoutCount>`
        REQUIRE __INIT_XDATA_I

        RSEG XDATA_I:XDATA:NOROOT(0)
//  258 uint16 zgApsMinDupRejTableSize = APS_DUP_REJ_ENTRIES;
zgApsMinDupRejTableSize:
        DATA16
        DS 2
        REQUIRE `?<Initializer for zgApsMinDupRejTableSize>`
        REQUIRE __INIT_XDATA_I
//  259 
//  260 
//  261 
//  262 /*********************************************************************
//  263  * SECURITY GLOBAL VARIABLES
//  264  */
//  265 
//  266 // If TRUE, preConfigKey should be configured on all devices on the network
//  267 // If false, it is configured only on the coordinator and sent to other
//  268 // devices upon joining.

        RSEG XDATA_Z:XDATA:NOROOT(0)
        DATA8
//  269 uint8 zgPreConfigKeys = FALSE;
zgPreConfigKeys:
        DS 1
        REQUIRE __INIT_XDATA_Z
//  270 
//  271 // The type of link key in use.  This will determine the security
//  272 // policies associated with sending and receiving APS messages.
//  273 // If ZG_GLOBAL_LINK_KEY APS TCLK security may be used for specific APS commands
//  274 // If ZG_UNIQUE_LINK_KEY APS TCLK security is required for specific APS commands

        RSEG XDATA_I:XDATA:NOROOT(0)
//  275 uint8 zgApsLinkKeyType = ZG_GLOBAL_LINK_KEY;
zgApsLinkKeyType:
        DATA8
        DS 1
        REQUIRE `?<Initializer for zgApsLinkKeyType>`
        REQUIRE __INIT_XDATA_I
//  276 
//  277 // With changes introduced in R20 of the ZigBee specification,
//  278 // boolean value of zgUseDefaultTCLK is set depending on zgApsLinkKeyType value.
//  279 //
//  280 // For zgApsLinkKeyType = ZG_GLOBAL_LINK_KEY, zgUseDefaultTCLK = TRUE
//  281 // For zgApsLinkKeyType = ZG_UNIQUE_LINK_KEY, different devices have
//  282 // different value:
//  283 //      ZC should have             zgUseDefaultTCLK = FALSE
//  284 //      Other devices should have  zgUseDefaultTCLK = TRUE
//  285 // This is initialized in zgInitItems()
//  286 // If ZG_UNIQUE_LINK_KEY, individual trust center link key between each device
//  287 // and the trust center should be manually configured via MT_SYS_OSAL_NV_WRITE

        RSEG XDATA_Z:XDATA:NOROOT(0)
        DATA8
//  288 uint8 zgUseDefaultTCLK;
zgUseDefaultTCLK:
        DS 1
        REQUIRE __INIT_XDATA_Z
//  289 
//  290 #if defined ( APP_TP2_TEST_MODE )
//  291 uint8 guTxApsSecON = TP_GU_BOTH;
//  292 uint8 guEnforceRxApsSec = TP_GU_ALL;
//  293 #endif
//  294 

        RSEG XDATA_Z:XDATA:NOROOT(0)
        DATA8
//  295 uint8 zgApsAllowR19Sec = FALSE;
zgApsAllowR19Sec:
        DS 1
        REQUIRE __INIT_XDATA_Z

        RSEG XDATA_Z:XDATA:NOROOT(0)
        DATA8
//  296 uint8 zgSwitchCoordKey = FALSE;
zgSwitchCoordKey:
        DS 1
        REQUIRE __INIT_XDATA_Z

        RSEG XDATA_Z:XDATA:NOROOT(0)
        DATA8
//  297 uint8 zgSwitchCoordKeyIndex = 0;
zgSwitchCoordKeyIndex:
        DS 1
        REQUIRE __INIT_XDATA_Z
//  298 
//  299 /*********************************************************************
//  300  * ZDO GLOBAL VARIABLES
//  301  */
//  302 
//  303 // Configured PAN ID

        RSEG XDATA_I:XDATA:NOROOT(0)
//  304 uint16 zgConfigPANID = ZDAPP_CONFIG_PAN_ID;
zgConfigPANID:
        DATA16
        DS 2
        REQUIRE `?<Initializer for zgConfigPANID>`
        REQUIRE __INIT_XDATA_I
//  305 
//  306 // Device Logical Type

        RSEG XDATA_I:XDATA:NOROOT(0)
//  307 uint8 zgDeviceLogicalType = DEVICE_LOGICAL_TYPE;
zgDeviceLogicalType:
        DATA8
        DS 1
        REQUIRE `?<Initializer for zgDeviceLogicalType>`
        REQUIRE __INIT_XDATA_I
//  308 
//  309 // Startup Delay

        RSEG XDATA_I:XDATA:NOROOT(0)
//  310 uint8 zgStartDelay = START_DELAY;
zgStartDelay:
        DATA8
        DS 1
        REQUIRE `?<Initializer for zgStartDelay>`
        REQUIRE __INIT_XDATA_I
//  311 
//  312 #if !defined MT_TASK
//  313 // Flag to use verbose (i.e. "cc2480-style") direct MT callbacks in ZDProfile.c, ZDP_IncomingData().

        RSEG XDATA_I:XDATA:NOROOT(0)
//  314 uint8 zgZdoDirectCB = TRUE;
zgZdoDirectCB:
        DATA8
        DS 1
        REQUIRE `?<Initializer for zgZdoDirectCB>`
        REQUIRE __INIT_XDATA_I
//  315 #endif
//  316 
//  317 // Min number of attempted transmissions for Channel Interference detection

        RSEG XDATA_I:XDATA:NOROOT(0)
//  318 uint8 zgNwkMgrMinTransmissions = ZDNWKMGR_MIN_TRANSMISSIONS;
zgNwkMgrMinTransmissions:
        DATA8
        DS 1
        REQUIRE `?<Initializer for zgNwkMgrMinTransmissions>`
        REQUIRE __INIT_XDATA_I
//  319 
//  320 /*********************************************************************
//  321  * APPLICATION GLOBAL VARIABLES
//  322  */
//  323 
//  324 // Network Manager Mode

        RSEG XDATA_I:XDATA:NOROOT(0)
//  325 uint8 zgNwkMgrMode = ZDNWKMGR_ENABLE;
zgNwkMgrMode:
        DATA8
        DS 1
        REQUIRE `?<Initializer for zgNwkMgrMode>`
        REQUIRE __INIT_XDATA_I
//  326 
//  327 /*********************************************************************
//  328  * NON-STANDARD GLOBAL VARIABLES
//  329  */
//  330 
//  331 // Simple API Endpoint

        RSEG XDATA_I:XDATA:NOROOT(0)
//  332 uint8 zgSapiEndpoint = SAPI_ENDPOINT;
zgSapiEndpoint:
        DATA8
        DS 1
        REQUIRE `?<Initializer for zgSapiEndpoint>`
        REQUIRE __INIT_XDATA_I
//  333 
//  334 /*********************************************************************
//  335  * LOCAL VARIABLES
//  336  */
//  337 
//  338 /*********************************************************************
//  339  * ZGlobal Item Table
//  340  */

        RSEG CODE_C:CODE:REORDER:NOROOT(0)
        DATA8
//  341 static CONST zgItem_t zgItemTable[] =
zgItemTable:
        DATA16
        DW 143
        DW 1
        DW zgZdoDirectCB
        DW 135
        DW 1
        DW zgDeviceLogicalType
        DW 53
        DW 4
        DW zgPollRate
        DW 37
        DW 2
        DW zgQueuedPollRate
        DW 38
        DW 2
        DW zgResponsePollRate
        DW 39
        DW 2
        DW zgRejoinPollRate
        DW 40
        DW 1
        DW zgMaxDataRetries
        DW 41
        DW 1
        DW zgMaxPollFailureRetries
        DW 132
        DW 4
        DW zgDefaultChannelList
        DW 134
        DW 1
        DW bdbAttributes + 0DH
        DW 42
        DW 1
        DW zgStackProfile
        DW 43
        DW 1
        DW zgIndirectMsgTimeout
        DW 44
        DW 1
        DW zgRouteExpiryTime
        DW 45
        DW 8
        DW zgExtendedPANID
        DW 46
        DW 1
        DW zgMaxBcastRetires
        DW 47
        DW 1
        DW zgPassiveAckTimeout
        DW 48
        DW 1
        DW zgBcastDeliveryTime
        DW 49
        DW 1
        DW zgNwkMode
        DW 50
        DW 1
        DW zgConcentratorEnable
        DW 51
        DW 1
        DW zgConcentratorDiscoveryTime
        DW 52
        DW 1
        DW zgConcentratorRadius
        DW 54
        DW 1
        DW zgConcentratorRC
        DW 56
        DW 1
        DW zgNwkSrcRtgExpiryTime
        DW 57
        DW 1
        DW zgRouteDiscoveryTime
        DW 131
        DW 2
        DW zgConfigPANID
        DW 99
        DW 1
        DW zgPreConfigKeys
        DW 100
        DW 1
        DW zgSecurityMode
        DW 101
        DW 1
        DW zgSecurePermitJoin
        DW 109
        DW 1
        DW zgUseDefaultTCLK
        DW 113
        DW 8
        DW zgApsTrustCenterAddr
        DW 102
        DW 1
        DW zgApsLinkKeyType
        DW 67
        DW 1
        DW zgApscMaxFrameRetries
        DW 68
        DW 2
        DW zgApscAckWaitDurationPolled
        DW 69
        DW 1
        DW zgApsAckWaitMultiplier
        DW 70
        DW 2
        DW zgApsDefaultMaxBindingTime
        DW 71
        DW 8
        DW zgApsUseExtendedPANID
        DW 72
        DW 1
        DW zgApsUseInsecureJoin
        DW 75
        DW 1
        DW zgApsNonMemberRadius
        DW 4
        DW 1
        DW zgStartDelay
        DW 161
        DW 1
        DW zgSapiEndpoint
        DW 55
        DW 1
        DW zgNwkMgrMode
        DW 136
        DW 1
        DW zgNwkMgrMinTransmissions
        DW 60
        DW 1
        DW zgRouterOffAssocCleanup
        DW 61
        DW 1
        DW zgNwkLeaveRequestAllowed
        DW 73
        DW 2
        DW zgNwkCommissionedNwkAddr
        DW 103
        DW 1
        DW zgApsAllowR19Sec
        DW 77
        DW 2
        DW zgApscDupRejTimeoutInc
        DW 78
        DW 1
        DW zgApscDupRejTimeoutCount
        DW 79
        DW 2
        DW zgApsMinDupRejTableSize
        DW 62
        DW 1
        DW zgChildAgingEnable
        DW 81
        DW 1
        DW zgNwkParentInformation
        DW 82
        DW 1
        DW zgNwkEndDeviceTimeoutDefault
        DW 83
        DW 1
        DW zgEndDeviceTimeoutValue
        DW 84
        DW 1
        DW zgEndDeviceConfiguration
        DW 0
        DW 0
        DW 0H
//  342 {
//  343 #if defined ( NV_INIT )
//  344 #if !defined MT_TASK
//  345   {
//  346     ZCD_NV_ZDO_DIRECT_CB, sizeof(zgZdoDirectCB), &zgZdoDirectCB
//  347   },
//  348 #endif
//  349   {
//  350     ZCD_NV_LOGICAL_TYPE, sizeof(zgDeviceLogicalType), &zgDeviceLogicalType
//  351   },
//  352   {
//  353     ZCD_NV_POLL_RATE, sizeof(zgPollRate), &zgPollRate
//  354   },
//  355   {
//  356     ZCD_NV_QUEUED_POLL_RATE, sizeof(zgQueuedPollRate), &zgQueuedPollRate
//  357   },
//  358   {
//  359     ZCD_NV_RESPONSE_POLL_RATE, sizeof(zgResponsePollRate), &zgResponsePollRate
//  360   },
//  361   {
//  362     ZCD_NV_REJOIN_POLL_RATE, sizeof(zgRejoinPollRate), &zgRejoinPollRate
//  363   },
//  364   {
//  365     ZCD_NV_DATA_RETRIES, sizeof(zgMaxDataRetries), &zgMaxDataRetries
//  366   },
//  367   {
//  368     ZCD_NV_POLL_FAILURE_RETRIES, sizeof(zgMaxPollFailureRetries), &zgMaxPollFailureRetries
//  369   },
//  370   {
//  371     ZCD_NV_CHANLIST, sizeof(zgDefaultChannelList), &zgDefaultChannelList
//  372   },
//  373   {
//  374     ZCD_NV_SCAN_DURATION, sizeof(zgDefaultStartingScanDuration), &zgDefaultStartingScanDuration
//  375   },
//  376   {
//  377     ZCD_NV_STACK_PROFILE, sizeof(zgStackProfile), &zgStackProfile
//  378   },
//  379   {
//  380     ZCD_NV_INDIRECT_MSG_TIMEOUT, sizeof(zgIndirectMsgTimeout), &zgIndirectMsgTimeout
//  381   },
//  382   {
//  383     ZCD_NV_ROUTE_EXPIRY_TIME, sizeof(zgRouteExpiryTime), &zgRouteExpiryTime
//  384   },
//  385   {
//  386     ZCD_NV_EXTENDED_PAN_ID, Z_EXTADDR_LEN, zgExtendedPANID
//  387   },
//  388   {
//  389     ZCD_NV_BCAST_RETRIES, sizeof(zgMaxBcastRetires), &zgMaxBcastRetires
//  390   },
//  391   {
//  392     ZCD_NV_PASSIVE_ACK_TIMEOUT, sizeof(zgPassiveAckTimeout), &zgPassiveAckTimeout
//  393   },
//  394   {
//  395     ZCD_NV_BCAST_DELIVERY_TIME, sizeof(zgBcastDeliveryTime), &zgBcastDeliveryTime
//  396   },
//  397   {
//  398     ZCD_NV_NWK_MODE, sizeof(zgNwkMode), &zgNwkMode
//  399   },
//  400   {
//  401     ZCD_NV_CONCENTRATOR_ENABLE, sizeof(zgConcentratorEnable), &zgConcentratorEnable
//  402   },
//  403   {
//  404     ZCD_NV_CONCENTRATOR_DISCOVERY, sizeof(zgConcentratorDiscoveryTime), &zgConcentratorDiscoveryTime
//  405   },
//  406   {
//  407     ZCD_NV_CONCENTRATOR_RADIUS, sizeof(zgConcentratorRadius), &zgConcentratorRadius
//  408   },
//  409   {
//  410     ZCD_NV_CONCENTRATOR_RC, sizeof(zgConcentratorRC), &zgConcentratorRC
//  411   },
//  412   {
//  413     ZCD_NV_SRC_RTG_EXPIRY_TIME, sizeof(zgNwkSrcRtgExpiryTime), &zgNwkSrcRtgExpiryTime
//  414   },
//  415   {
//  416     ZCD_NV_ROUTE_DISCOVERY_TIME, sizeof(zgRouteDiscoveryTime), &zgRouteDiscoveryTime
//  417   },
//  418 #ifndef NONWK
//  419   {
//  420     ZCD_NV_PANID, sizeof(zgConfigPANID), &zgConfigPANID
//  421   },
//  422   {
//  423     ZCD_NV_PRECFGKEYS_ENABLE, sizeof(zgPreConfigKeys), &zgPreConfigKeys
//  424   },
//  425   {
//  426     ZCD_NV_SECURITY_MODE, sizeof(zgSecurityMode), &zgSecurityMode
//  427   },
//  428   {
//  429     ZCD_NV_SECURE_PERMIT_JOIN, sizeof(zgSecurePermitJoin), &zgSecurePermitJoin
//  430   },
//  431   {
//  432     ZCD_NV_USE_DEFAULT_TCLK, sizeof(zgUseDefaultTCLK), &zgUseDefaultTCLK
//  433   },
//  434   {
//  435     ZCD_NV_TRUSTCENTER_ADDR, Z_EXTADDR_LEN, zgApsTrustCenterAddr
//  436   },
//  437   {
//  438     ZCD_NV_APS_LINK_KEY_TYPE, sizeof(zgApsLinkKeyType), &zgApsLinkKeyType
//  439   },
//  440 #endif // NONWK
//  441   {
//  442     ZCD_NV_APS_FRAME_RETRIES, sizeof(zgApscMaxFrameRetries), &zgApscMaxFrameRetries
//  443   },
//  444   {
//  445     ZCD_NV_APS_ACK_WAIT_DURATION, sizeof(zgApscAckWaitDurationPolled), &zgApscAckWaitDurationPolled
//  446   },
//  447   {
//  448     ZCD_NV_APS_ACK_WAIT_MULTIPLIER, sizeof(zgApsAckWaitMultiplier), &zgApsAckWaitMultiplier
//  449   },
//  450   {
//  451     ZCD_NV_BINDING_TIME, sizeof(zgApsDefaultMaxBindingTime), &zgApsDefaultMaxBindingTime
//  452   },
//  453   {
//  454     ZCD_NV_APS_USE_EXT_PANID, Z_EXTADDR_LEN, zgApsUseExtendedPANID
//  455   },
//  456   {
//  457     ZCD_NV_APS_USE_INSECURE_JOIN, sizeof(zgApsUseInsecureJoin), &zgApsUseInsecureJoin
//  458   },
//  459   {
//  460     ZCD_NV_APS_NONMEMBER_RADIUS, sizeof(zgApsNonMemberRadius), &zgApsNonMemberRadius
//  461   },
//  462   {
//  463     ZCD_NV_START_DELAY, sizeof(zgStartDelay), &zgStartDelay
//  464   },
//  465   {
//  466     ZCD_NV_SAPI_ENDPOINT, sizeof(zgSapiEndpoint), &zgSapiEndpoint
//  467   },
//  468   {
//  469     ZCD_NV_NWK_MGR_MODE, sizeof(zgNwkMgrMode), &zgNwkMgrMode
//  470   },
//  471   {
//  472     ZCD_NV_NWKMGR_MIN_TX, sizeof(zgNwkMgrMinTransmissions), &zgNwkMgrMinTransmissions
//  473   },
//  474   {
//  475     ZCD_NV_ROUTER_OFF_ASSOC_CLEANUP, sizeof(zgRouterOffAssocCleanup), &zgRouterOffAssocCleanup
//  476   },
//  477   {
//  478     ZCD_NV_NWK_LEAVE_REQ_ALLOWED, sizeof(zgNwkLeaveRequestAllowed), &zgNwkLeaveRequestAllowed
//  479   },
//  480   {
//  481     ZCD_NV_COMMISSIONED_NWK_ADDR, sizeof(zgNwkCommissionedNwkAddr), &zgNwkCommissionedNwkAddr
//  482   },
//  483   {
//  484     ZCD_NV_APS_ALLOW_R19_SECURITY, sizeof(zgApsAllowR19Sec), &zgApsAllowR19Sec
//  485   },
//  486   {
//  487     ZCD_NV_APS_DUPREJ_TIMEOUT_INC, sizeof(zgApscDupRejTimeoutInc), &zgApscDupRejTimeoutInc
//  488   },
//  489   {
//  490     ZCD_NV_APS_DUPREJ_TIMEOUT_COUNT, sizeof(zgApscDupRejTimeoutCount), &zgApscDupRejTimeoutCount
//  491   },
//  492   {
//  493     ZCD_NV_APS_DUPREJ_TABLE_SIZE, sizeof(zgApsMinDupRejTableSize), &zgApsMinDupRejTableSize
//  494   },
//  495   {
//  496     ZCD_NV_NWK_CHILD_AGE_ENABLE, sizeof(zgChildAgingEnable), &zgChildAgingEnable
//  497   },
//  498   {
//  499     ZCD_NV_NWK_PARENT_INFO, sizeof(zgNwkParentInformation), &zgNwkParentInformation
//  500   },
//  501   {
//  502     ZCD_NV_NWK_ENDDEV_TIMEOUT_DEF, sizeof(zgNwkEndDeviceTimeoutDefault), &zgNwkEndDeviceTimeoutDefault
//  503   },
//  504   {
//  505     ZCD_NV_END_DEV_TIMEOUT_VALUE, sizeof(zgEndDeviceTimeoutValue), &zgEndDeviceTimeoutValue
//  506   },
//  507   {
//  508     ZCD_NV_END_DEV_CONFIGURATION, sizeof(zgEndDeviceConfiguration), &zgEndDeviceConfiguration
//  509   },
//  510 #endif // NV_INIT
//  511   // Last item -- DO NOT MOVE IT!
//  512   {
//  513     0x00, 0, NULL
//  514   }
//  515 };
//  516 
//  517 /*********************************************************************
//  518  * LOCAL FUNCTIONS
//  519  */
//  520 
//  521 static uint8 zgItemInit( uint16 id, uint16 len, void *buf, uint8 setDefault );
//  522 
//  523 static void zgUpgradeNVItems( void );
//  524 
//  525 #ifndef NONWK
//  526 static uint8 zgPreconfigKeyInit( uint8 setDefault );
//  527 #endif
//  528 
//  529 #ifdef UPGRADE_SECURITY_NV_ITEMS
//  530 static void zgUpgradeSecurityNVItems( void );
//  531 #endif // UPGRADE_SECURITY_NV_ITEMS
//  532 /*********************************************************************
//  533  * @fn       zgItemInit()
//  534  *
//  535  * @brief
//  536  *
//  537  *   Initialize a global item. If the item doesn't exist in NV memory,
//  538  *   write the system default (value passed in) into NV memory. But if
//  539  *   it exists, set the item to the value stored in NV memory.
//  540  *
//  541  *   Also, if setDefault is TRUE and the item exists, we will write
//  542  *   the default value to NV space.
//  543  *
//  544  * @param   id - item id
//  545  * @param   len - item len
//  546  * @param   buf - pointer to the item
//  547  * @param   setDefault - TRUE to set default, not read
//  548  *
//  549  * @return  ZSUCCESS if successful, NV_ITEM_UNINIT if item did not
//  550  *          exist in NV, NV_OPER_FAILED if failure.
//  551  */
//  552 static uint8 zgItemInit( uint16 id, uint16 len, void *buf, uint8 setDefault )
//  553 {
//  554   uint8 status;
//  555 
//  556   // If the item doesn't exist in NV memory, create and initialize
//  557   // it with the value passed in.
//  558   status = osal_nv_item_init( id, len, buf );
//  559   if ( status == ZSUCCESS )
//  560   {
//  561     if ( setDefault )
//  562     {
//  563       // Write the default value back to NV
//  564       status = osal_nv_write( id, 0, len, buf );
//  565     }
//  566     else
//  567     {
//  568       // The item exists in NV memory, read it from NV memory
//  569       status = osal_nv_read( id, 0, len, buf );
//  570     }
//  571   }
//  572 
//  573   return (status);
//  574 }
//  575 
//  576 /*********************************************************************
//  577  * API FUNCTIONS
//  578  */
//  579 
//  580 /*********************************************************************
//  581  * @fn          zgInit
//  582  *
//  583  * @brief
//  584  *
//  585  *   Initialize the Z-Stack Globals. If an item doesn't exist in
//  586  *   NV memory, write the system default into NV memory. But if
//  587  *   it exists, set the item to the value stored in NV memory.
//  588  *
//  589  * NOTE: The Startup Options (ZCD_NV_STARTUP_OPTION) indicate
//  590  *       that the Config state items (zgItemTable) need to be
//  591  *       set to defaults (ZCD_STARTOPT_DEFAULT_CONFIG_STATE). The
//  592  *
//  593  * @param       none
//  594  *
//  595  * @return      ZSUCCESS if successful, NV_ITEM_UNINIT if item did not
//  596  *              exist in NV, NV_OPER_FAILED if failure.
//  597  */

        RSEG BANKED_CODE:HUGECODE:NOROOT(0)
//  598 uint8 zgInit( void )
zgInit:
          CFI Block cfiBlock0 Using cfiCommon0
          CFI Function zgInit
        CODE
//  599 {
        FUNCALL zgInit, zgReadStartupOptions
        LOCFRAME ISTACK, 0, STACK
        LOCFRAME PSTACK, 0, STACK
        LOCFRAME XSTACK, 30, STACK
        LOCFRAME IOVERLAY, 0, STATIC
        LOCFRAME DOVERLAY, 0, STATIC
        ARGFRAME ISTACK, 0, STACK
        ARGFRAME PSTACK, 0, STACK
        ARGFRAME XSTACK, 30, STACK
        ARGFRAME IOVERLAY, 0, STATIC
        ARGFRAME DOVERLAY, 0, STATIC
        FUNCALL zgInit, osal_nv_item_init
        LOCFRAME ISTACK, 0, STACK
        LOCFRAME PSTACK, 0, STACK
        LOCFRAME XSTACK, 32, STACK
        LOCFRAME IOVERLAY, 0, STATIC
        LOCFRAME DOVERLAY, 0, STATIC
        ARGFRAME ISTACK, 0, STACK
        ARGFRAME PSTACK, 0, STACK
        ARGFRAME XSTACK, 32, STACK
        ARGFRAME IOVERLAY, 0, STATIC
        ARGFRAME DOVERLAY, 0, STATIC
        FUNCALL zgInit, bdb_setNodeIsOnANetwork
        LOCFRAME ISTACK, 0, STACK
        LOCFRAME PSTACK, 0, STACK
        LOCFRAME XSTACK, 30, STACK
        LOCFRAME IOVERLAY, 0, STATIC
        LOCFRAME DOVERLAY, 0, STATIC
        ARGFRAME ISTACK, 0, STACK
        ARGFRAME PSTACK, 0, STACK
        ARGFRAME XSTACK, 30, STACK
        ARGFRAME IOVERLAY, 0, STATIC
        ARGFRAME DOVERLAY, 0, STATIC
        FUNCALL zgInit, osal_nv_item_len
        LOCFRAME ISTACK, 0, STACK
        LOCFRAME PSTACK, 0, STACK
        LOCFRAME XSTACK, 30, STACK
        LOCFRAME IOVERLAY, 0, STATIC
        LOCFRAME DOVERLAY, 0, STATIC
        ARGFRAME ISTACK, 0, STACK
        ARGFRAME PSTACK, 0, STACK
        ARGFRAME XSTACK, 30, STACK
        ARGFRAME IOVERLAY, 0, STATIC
        ARGFRAME DOVERLAY, 0, STATIC
        FUNCALL zgInit, osal_nv_item_len
        LOCFRAME ISTACK, 0, STACK
        LOCFRAME PSTACK, 0, STACK
        LOCFRAME XSTACK, 30, STACK
        LOCFRAME IOVERLAY, 0, STATIC
        LOCFRAME DOVERLAY, 0, STATIC
        ARGFRAME ISTACK, 0, STACK
        ARGFRAME PSTACK, 0, STACK
        ARGFRAME XSTACK, 30, STACK
        ARGFRAME IOVERLAY, 0, STATIC
        ARGFRAME DOVERLAY, 0, STATIC
        FUNCALL zgInit, osal_nv_read
        LOCFRAME ISTACK, 0, STACK
        LOCFRAME PSTACK, 0, STACK
        LOCFRAME XSTACK, 34, STACK
        LOCFRAME IOVERLAY, 0, STATIC
        LOCFRAME DOVERLAY, 0, STATIC
        ARGFRAME ISTACK, 0, STACK
        ARGFRAME PSTACK, 0, STACK
        ARGFRAME XSTACK, 34, STACK
        ARGFRAME IOVERLAY, 0, STATIC
        ARGFRAME DOVERLAY, 0, STATIC
        FUNCALL zgInit, osal_nv_item_init
        LOCFRAME ISTACK, 0, STACK
        LOCFRAME PSTACK, 0, STACK
        LOCFRAME XSTACK, 32, STACK
        LOCFRAME IOVERLAY, 0, STATIC
        LOCFRAME DOVERLAY, 0, STATIC
        ARGFRAME ISTACK, 0, STACK
        ARGFRAME PSTACK, 0, STACK
        ARGFRAME XSTACK, 32, STACK
        ARGFRAME IOVERLAY, 0, STATIC
        ARGFRAME DOVERLAY, 0, STATIC
        FUNCALL zgInit, osal_nv_delete
        LOCFRAME ISTACK, 0, STACK
        LOCFRAME PSTACK, 0, STACK
        LOCFRAME XSTACK, 30, STACK
        LOCFRAME IOVERLAY, 0, STATIC
        LOCFRAME DOVERLAY, 0, STATIC
        ARGFRAME ISTACK, 0, STACK
        ARGFRAME PSTACK, 0, STACK
        ARGFRAME XSTACK, 30, STACK
        ARGFRAME IOVERLAY, 0, STATIC
        ARGFRAME DOVERLAY, 0, STATIC
        FUNCALL zgInit, ZMacGetReq
        LOCFRAME ISTACK, 0, STACK
        LOCFRAME PSTACK, 0, STACK
        LOCFRAME XSTACK, 30, STACK
        LOCFRAME IOVERLAY, 0, STATIC
        LOCFRAME DOVERLAY, 0, STATIC
        ARGFRAME ISTACK, 0, STACK
        ARGFRAME PSTACK, 0, STACK
        ARGFRAME XSTACK, 30, STACK
        ARGFRAME IOVERLAY, 0, STATIC
        ARGFRAME DOVERLAY, 0, STATIC
        FUNCALL zgInit, zgInitItems
        LOCFRAME ISTACK, 0, STACK
        LOCFRAME PSTACK, 0, STACK
        LOCFRAME XSTACK, 30, STACK
        LOCFRAME IOVERLAY, 0, STATIC
        LOCFRAME DOVERLAY, 0, STATIC
        ARGFRAME ISTACK, 0, STACK
        ARGFRAME PSTACK, 0, STACK
        ARGFRAME XSTACK, 30, STACK
        ARGFRAME IOVERLAY, 0, STATIC
        ARGFRAME DOVERLAY, 0, STATIC
        FUNCALL zgInit, osal_memset
        LOCFRAME ISTACK, 0, STACK
        LOCFRAME PSTACK, 0, STACK
        LOCFRAME XSTACK, 30, STACK
        LOCFRAME IOVERLAY, 0, STATIC
        LOCFRAME DOVERLAY, 0, STATIC
        ARGFRAME ISTACK, 0, STACK
        ARGFRAME PSTACK, 0, STACK
        ARGFRAME XSTACK, 30, STACK
        ARGFRAME IOVERLAY, 0, STATIC
        ARGFRAME DOVERLAY, 0, STATIC
        FUNCALL zgInit, osal_nv_item_init
        LOCFRAME ISTACK, 0, STACK
        LOCFRAME PSTACK, 0, STACK
        LOCFRAME XSTACK, 32, STACK
        LOCFRAME IOVERLAY, 0, STATIC
        LOCFRAME DOVERLAY, 0, STATIC
        ARGFRAME ISTACK, 0, STACK
        ARGFRAME PSTACK, 0, STACK
        ARGFRAME XSTACK, 32, STACK
        ARGFRAME IOVERLAY, 0, STATIC
        ARGFRAME DOVERLAY, 0, STATIC
        FUNCALL zgInit, osal_nv_write
        LOCFRAME ISTACK, 0, STACK
        LOCFRAME PSTACK, 0, STACK
        LOCFRAME XSTACK, 34, STACK
        LOCFRAME IOVERLAY, 0, STATIC
        LOCFRAME DOVERLAY, 0, STATIC
        ARGFRAME ISTACK, 0, STACK
        ARGFRAME PSTACK, 0, STACK
        ARGFRAME XSTACK, 34, STACK
        ARGFRAME IOVERLAY, 0, STATIC
        ARGFRAME DOVERLAY, 0, STATIC
        FUNCALL zgInit, osal_memset
        LOCFRAME ISTACK, 0, STACK
        LOCFRAME PSTACK, 0, STACK
        LOCFRAME XSTACK, 30, STACK
        LOCFRAME IOVERLAY, 0, STATIC
        LOCFRAME DOVERLAY, 0, STATIC
        ARGFRAME ISTACK, 0, STACK
        ARGFRAME PSTACK, 0, STACK
        ARGFRAME XSTACK, 30, STACK
        ARGFRAME IOVERLAY, 0, STATIC
        ARGFRAME DOVERLAY, 0, STATIC
        FUNCALL zgInit, ZDSecMgrInitNVKeyTables
        LOCFRAME ISTACK, 0, STACK
        LOCFRAME PSTACK, 0, STACK
        LOCFRAME XSTACK, 30, STACK
        LOCFRAME IOVERLAY, 0, STATIC
        LOCFRAME DOVERLAY, 0, STATIC
        ARGFRAME ISTACK, 0, STACK
        ARGFRAME PSTACK, 0, STACK
        ARGFRAME XSTACK, 30, STACK
        ARGFRAME IOVERLAY, 0, STATIC
        ARGFRAME DOVERLAY, 0, STATIC
        FUNCALL zgInit, zgWriteStartupOptions
        LOCFRAME ISTACK, 0, STACK
        LOCFRAME PSTACK, 0, STACK
        LOCFRAME XSTACK, 30, STACK
        LOCFRAME IOVERLAY, 0, STATIC
        LOCFRAME DOVERLAY, 0, STATIC
        ARGFRAME ISTACK, 0, STACK
        ARGFRAME PSTACK, 0, STACK
        ARGFRAME XSTACK, 30, STACK
        ARGFRAME IOVERLAY, 0, STATIC
        ARGFRAME DOVERLAY, 0, STATIC
        REQUIRE ?V0
        REQUIRE ?V1
        REQUIRE ?V2
        REQUIRE ?V3
        MOV       A,#-0xc
        LCALL     ?BANKED_ENTER_XDATA
          CFI DPH0 load(1, XDATA, add(CFA_XSP16, literal(-1)))
          CFI DPL0 load(1, XDATA, add(CFA_XSP16, literal(-2)))
          CFI ?BRET_EXT load(1, XDATA, add(CFA_XSP16, literal(-3)))
          CFI ?RET_HIGH load(1, XDATA, add(CFA_XSP16, literal(-4)))
          CFI ?RET_LOW load(1, XDATA, add(CFA_XSP16, literal(-5)))
          CFI R7 load(1, XDATA, add(CFA_XSP16, literal(-6)))
          CFI V3 load(1, XDATA, add(CFA_XSP16, literal(-7)))
          CFI V2 load(1, XDATA, add(CFA_XSP16, literal(-8)))
          CFI V1 load(1, XDATA, add(CFA_XSP16, literal(-9)))
          CFI V0 load(1, XDATA, add(CFA_XSP16, literal(-10)))
          CFI VB load(1, XDATA, add(CFA_XSP16, literal(-11)))
          CFI R6 load(1, XDATA, add(CFA_XSP16, literal(-12)))
          CFI CFA_SP SP+0
          CFI CFA_XSP16 add(XSP16, 12)
        ; Saved register size: 12
        ; Auto size: 18
        MOV       A,#-0x12
        LCALL     ?ALLOC_XSTACK8
          CFI CFA_XSP16 add(XSP16, 30)
//  600   uint8  setDefault = FALSE;
        MOV       R6,#0x0
//  601   uint8  status;
//  602   
//  603 #ifdef NV_RESTORE
//  604   // Do we want to default the Config state values
//  605   if ( zgReadStartupOptions() & ZCD_STARTOPT_DEFAULT_CONFIG_STATE )
        ; Setup parameters for call to function zgReadStartupOptions
        LCALL     `??zgReadStartupOptions::?relay`; Banked call to: zgReadStartupOptions
        MOV       A,R1
        MOV       R0,A
        MOV       C,0xE0 /* A   */.0
        JNC       ??zgInit_0
//  606   {
//  607     setDefault = TRUE;
        MOV       R6,#0x1
//  608   }
//  609 #else
//  610     setDefault = TRUE;
//  611 #endif
//  612   
//  613   status = osal_nv_item_init(ZCD_NV_BDBNODEISONANETWORK,sizeof(bdbAttributes.bdbNodeIsOnANetwork),&bdbAttributes.bdbNodeIsOnANetwork);
//  614 
//  615   //Force to reset state if device is forced to FN
//  616   if((status == SUCCESS) && setDefault)
??zgInit_0:
        ; Setup parameters for call to function osal_nv_item_init
        MOV       ?V0,#(bdbAttributes + 14) & 0xff
        MOV       ?V1,#((bdbAttributes + 14) >> 8) & 0xff
        MOV       R0,#?V0
        LCALL     ?PUSH_XSTACK_I_TWO
          CFI CFA_XSP16 add(XSP16, 32)
        MOV       R4,#0x1
        MOV       R5,#0x0
        MOV       R2,#0x55
        LCALL     ?Subroutine2 & 0xFFFF
??CrossCallReturnLabel_0:
        LCALL     ?DEALLOC_XSTACK8
          CFI CFA_XSP16 add(XSP16, 30)
        MOV       A,R1
        JNZ       ??zgInit_1
        MOV       A,R6
        MOV       C,0xE0 /* A   */.0
        JNC       ??zgInit_1
//  617   {
//  618     bdb_setNodeIsOnANetwork(false);
        ; Setup parameters for call to function bdb_setNodeIsOnANetwork
        MOV       R1,#0x0
        LCALL     `??bdb_setNodeIsOnANetwork::?relay`; Banked call to: bdb_setNodeIsOnANetwork
//  619   }
//  620   
//  621 #if defined (FEATURE_SYSTEM_STATS) 
//  622   {
//  623     // This sections tracks the number of resets
//  624     uint16 bootCnt = 0;
//  625 
//  626     // Update the Boot Counter
//  627     if ( osal_nv_item_init( ZCD_NV_BOOTCOUNTER, sizeof(bootCnt), &bootCnt ) == ZSUCCESS )
//  628     {
//  629       // Get the old value from NV memory
//  630       osal_nv_read( ZCD_NV_BOOTCOUNTER, 0, sizeof(bootCnt), &bootCnt );
//  631     }
//  632 
//  633     // Increment the Boot Counter and store it into NV memory
//  634     if ( setDefault )
//  635     {
//  636       bootCnt = 0;
//  637     }
//  638     else
//  639     {
//  640       bootCnt++;
//  641     }
//  642 
//  643     osal_nv_write( ZCD_NV_BOOTCOUNTER, 0, sizeof(bootCnt), &bootCnt );
//  644   }
//  645 #endif  // FEATURE_SYSTEM_STATS
//  646 
//  647   zgUpgradeNVItems();
??zgInit_1:
        ; Setup parameters for call to function osal_nv_item_len
        MOV       R2,#0x24
        MOV       R3,#0x0
        LCALL     `??osal_nv_item_len::?relay`; Banked call to: osal_nv_item_len
        MOV       ?V0,R2
        MOV       ?V1,R3
        ; Setup parameters for call to function osal_nv_item_len
        MOV       R2,#0x35
        MOV       R3,#0x0
        LCALL     `??osal_nv_item_len::?relay`; Banked call to: osal_nv_item_len
        MOV       A,R2
        ORL       A,R3
        JNZ       ??zgInit_2
        MOV       A,#0x2
        XRL       A,?V0
        ORL       A,?V1
        JNZ       ??zgInit_2
        ; Setup parameters for call to function osal_nv_read
        MOV       R0,?XSP + 0
        MOV       R1,?XSP + 1
        MOV       ?V0,R0
        MOV       ?V1,R1
        MOV       R0,#?V0
        LCALL     ?PUSH_XSTACK_I_TWO
          CFI CFA_XSP16 add(XSP16, 32)
        MOV       ?V0,#0x2
        MOV       ?V1,#0x0
        MOV       R0,#?V0
        LCALL     ?PUSH_XSTACK_I_TWO
          CFI CFA_XSP16 add(XSP16, 34)
        MOV       R4,#0x0
        MOV       R5,#0x0
        MOV       R2,#0x24
        MOV       R3,#0x0
        LCALL     `??osal_nv_read::?relay`; Banked call to: osal_nv_read
        MOV       A,#0x4
        LCALL     ?DEALLOC_XSTACK8
          CFI CFA_XSP16 add(XSP16, 30)
        MOV       DPL,?XSP + 0
        MOV       DPH,?XSP + 1
        MOVX      A,@DPTR
        MOV       R0,A
        INC       DPTR
        MOVX      A,@DPTR
        MOV       R1,A
        MOV       DPTR,#zgPollRate
        MOV       A,R0
        MOVX      @DPTR,A
        INC       DPTR
        MOV       A,R1
        MOVX      @DPTR,A
        INC       DPTR
        CLR       A
        MOVX      @DPTR,A
        INC       DPTR
        MOVX      @DPTR,A
        ; Setup parameters for call to function osal_nv_item_init
        MOV       ?V0,#zgPollRate & 0xff
        MOV       ?V1,#(zgPollRate >> 8) & 0xff
        MOV       R0,#?V0
        LCALL     ?PUSH_XSTACK_I_TWO
          CFI CFA_XSP16 add(XSP16, 32)
        MOV       R4,#0x4
        MOV       R5,#0x0
        MOV       R2,#0x35
        LCALL     ?Subroutine2 & 0xFFFF
??CrossCallReturnLabel_1:
        LCALL     ?DEALLOC_XSTACK8
          CFI CFA_XSP16 add(XSP16, 30)
        ; Setup parameters for call to function osal_nv_delete
        MOV       R4,#0x2
        MOV       R5,#0x0
        MOV       R2,#0x24
        MOV       R3,#0x0
        LCALL     `??osal_nv_delete::?relay`; Banked call to: osal_nv_delete
//  648 
//  649   // Initialize the Extended PAN ID as my own extended address
//  650   ZMacGetReq( ZMacExtAddr, zgExtendedPANID );
??zgInit_2:
        ; Setup parameters for call to function ZMacGetReq
        MOV       R2,#zgExtendedPANID & 0xff
        MOV       R3,#(zgExtendedPANID >> 8) & 0xff
        MOV       R1,#-0x1e
        LCALL     `??ZMacGetReq::?relay`; Banked call to: ZMacGetReq
//  651 
//  652   // Initialize the items table
//  653   zgInitItems( setDefault );
        ; Setup parameters for call to function zgInitItems
        MOV       A,R6
        MOV       R1,A
        LCALL     `??zgInitItems::?relay`; Banked call to: zgInitItems
//  654 
//  655 #ifndef NONWK
//  656   if ( ZG_SECURE_ENABLED )
//  657   {
//  658     // Initialize the Pre-Configured Key to the default key
//  659     zgPreconfigKeyInit( setDefault );
        ; Setup parameters for call to function osal_memset
        MOV       R4,#0x10
        MOV       R5,#0x0
        MOV       R1,#0x0
        MOV       A,#0x2
        LCALL     ?XSTACK_DISP101_8
        LCALL     `??osal_memset::?relay`; Banked call to: osal_memset
        ; Setup parameters for call to function osal_nv_item_init
        MOV       A,#0x2
        LCALL     ?XSTACK_DISP100_8
        MOV       ?V0,R0
        MOV       ?V1,R1
        MOV       R0,#?V0
        LCALL     ?PUSH_XSTACK_I_TWO
          CFI CFA_XSP16 add(XSP16, 32)
        MOV       R4,#0x10
        MOV       R5,#0x0
        MOV       R2,#0x62
        LCALL     ?Subroutine2 & 0xFFFF
??CrossCallReturnLabel_2:
        LCALL     ?DEALLOC_XSTACK8
          CFI CFA_XSP16 add(XSP16, 30)
        MOV       A,R1
        JNZ       ??zgInit_3
        MOV       A,R6
        MOV       C,0xE0 /* A   */.0
        JNC       ??zgInit_3
        ; Setup parameters for call to function osal_nv_write
        MOV       R0,#?V0
        LCALL     ?PUSH_XSTACK_I_TWO
          CFI CFA_XSP16 add(XSP16, 32)
        MOV       ?V0,#0x10
        MOV       ?V1,#0x0
        MOV       R0,#?V0
        LCALL     ?PUSH_XSTACK_I_TWO
          CFI CFA_XSP16 add(XSP16, 34)
        MOV       R4,#0x0
        MOV       R5,#0x0
        MOV       R2,#0x62
        MOV       R3,#0x0
        LCALL     `??osal_nv_write::?relay`; Banked call to: osal_nv_write
        MOV       A,#0x4
        LCALL     ?DEALLOC_XSTACK8
          CFI CFA_XSP16 add(XSP16, 30)
??zgInit_3:
        ; Setup parameters for call to function osal_memset
        MOV       R4,#0x10
        MOV       R5,#0x0
        MOV       R1,#0x0
        MOV       A,#0x2
        LCALL     ?XSTACK_DISP101_8
        LCALL     `??osal_memset::?relay`; Banked call to: osal_memset
//  660 
//  661     // Initialize NV items for all Keys: NWK, APS, TCLK and Master
//  662     ZDSecMgrInitNVKeyTables( setDefault );
        ; Setup parameters for call to function ZDSecMgrInitNVKeyTables
        MOV       A,R6
        MOV       R1,A
        LCALL     `??ZDSecMgrInitNVKeyTables::?relay`; Banked call to: ZDSecMgrInitNVKeyTables
//  663   }
//  664 #endif // NONWK
//  665 
//  666 #ifdef UPGRADE_SECURITY_NV_ITEMS
//  667   zgUpgradeSecurityNVItems();
//  668 #endif // UPGRADE_SECURITY_NV_ITEMS
//  669   
//  670   // Clear the Config State default
//  671   if ( setDefault )
        MOV       A,R6
        MOV       C,0xE0 /* A   */.0
        JNC       ??zgInit_4
//  672   {
//  673     zgWriteStartupOptions( ZG_STARTUP_CLEAR, ZCD_STARTOPT_DEFAULT_CONFIG_STATE );
        ; Setup parameters for call to function zgWriteStartupOptions
        MOV       R2,#0x1
        MOV       R1,#0x0
        LCALL     `??zgWriteStartupOptions::?relay`; Banked call to: zgWriteStartupOptions
//  674   }
//  675   
//  676   return ( ZSUCCESS );
??zgInit_4:
        MOV       R1,#0x0
        MOV       A,#0x12
        LCALL     ?DEALLOC_XSTACK8
          CFI CFA_XSP16 add(XSP16, 12)
        MOV       R7,#0x4
        LJMP      ?BANKED_LEAVE_XDATA
//  677 }
          CFI EndBlock cfiBlock0

        RSEG BANKED_CODE:HUGECODE:NOROOT(0)
?Subroutine2:
          CFI Block cfiCond1 Using cfiCommon0
          CFI Function zgInit
          CFI Conditional ??CrossCallReturnLabel_0
          CFI R6 load(1, XDATA, add(CFA_XSP16, literal(-12)))
          CFI VB load(1, XDATA, add(CFA_XSP16, literal(-11)))
          CFI V0 load(1, XDATA, add(CFA_XSP16, literal(-10)))
          CFI V1 load(1, XDATA, add(CFA_XSP16, literal(-9)))
          CFI V2 load(1, XDATA, add(CFA_XSP16, literal(-8)))
          CFI V3 load(1, XDATA, add(CFA_XSP16, literal(-7)))
          CFI R7 load(1, XDATA, add(CFA_XSP16, literal(-6)))
          CFI ?RET_LOW load(1, XDATA, add(CFA_XSP16, literal(-5)))
          CFI ?RET_HIGH load(1, XDATA, add(CFA_XSP16, literal(-4)))
          CFI ?BRET_EXT load(1, XDATA, add(CFA_XSP16, literal(-3)))
          CFI DPL0 load(1, XDATA, add(CFA_XSP16, literal(-2)))
          CFI DPH0 load(1, XDATA, add(CFA_XSP16, literal(-1)))
          CFI CFA_SP SP+-2
          CFI CFA_XSP16 add(XSP16, 32)
          CFI Block cfiCond2 Using cfiCommon0
          CFI (cfiCond2) Function zgInit
          CFI (cfiCond2) Conditional ??CrossCallReturnLabel_1
          CFI (cfiCond2) R6 load(1, XDATA, add(CFA_XSP16, literal(-12)))
          CFI (cfiCond2) VB load(1, XDATA, add(CFA_XSP16, literal(-11)))
          CFI (cfiCond2) V0 load(1, XDATA, add(CFA_XSP16, literal(-10)))
          CFI (cfiCond2) V1 load(1, XDATA, add(CFA_XSP16, literal(-9)))
          CFI (cfiCond2) V2 load(1, XDATA, add(CFA_XSP16, literal(-8)))
          CFI (cfiCond2) V3 load(1, XDATA, add(CFA_XSP16, literal(-7)))
          CFI (cfiCond2) R7 load(1, XDATA, add(CFA_XSP16, literal(-6)))
          CFI (cfiCond2) ?RET_LOW load(1, XDATA, add(CFA_XSP16, literal(-5)))
          CFI (cfiCond2) ?RET_HIGH load(1, XDATA, add(CFA_XSP16, literal(-4)))
          CFI (cfiCond2) ?BRET_EXT load(1, XDATA, add(CFA_XSP16, literal(-3)))
          CFI (cfiCond2) DPL0 load(1, XDATA, add(CFA_XSP16, literal(-2)))
          CFI (cfiCond2) DPH0 load(1, XDATA, add(CFA_XSP16, literal(-1)))
          CFI (cfiCond2) CFA_SP SP+-2
          CFI (cfiCond2) CFA_XSP16 add(XSP16, 32)
          CFI Block cfiCond3 Using cfiCommon0
          CFI (cfiCond3) Function zgInit
          CFI (cfiCond3) Conditional ??CrossCallReturnLabel_2
          CFI (cfiCond3) R6 load(1, XDATA, add(CFA_XSP16, literal(-12)))
          CFI (cfiCond3) VB load(1, XDATA, add(CFA_XSP16, literal(-11)))
          CFI (cfiCond3) V0 load(1, XDATA, add(CFA_XSP16, literal(-10)))
          CFI (cfiCond3) V1 load(1, XDATA, add(CFA_XSP16, literal(-9)))
          CFI (cfiCond3) V2 load(1, XDATA, add(CFA_XSP16, literal(-8)))
          CFI (cfiCond3) V3 load(1, XDATA, add(CFA_XSP16, literal(-7)))
          CFI (cfiCond3) R7 load(1, XDATA, add(CFA_XSP16, literal(-6)))
          CFI (cfiCond3) ?RET_LOW load(1, XDATA, add(CFA_XSP16, literal(-5)))
          CFI (cfiCond3) ?RET_HIGH load(1, XDATA, add(CFA_XSP16, literal(-4)))
          CFI (cfiCond3) ?BRET_EXT load(1, XDATA, add(CFA_XSP16, literal(-3)))
          CFI (cfiCond3) DPL0 load(1, XDATA, add(CFA_XSP16, literal(-2)))
          CFI (cfiCond3) DPH0 load(1, XDATA, add(CFA_XSP16, literal(-1)))
          CFI (cfiCond3) CFA_SP SP+-2
          CFI (cfiCond3) CFA_XSP16 add(XSP16, 32)
          CFI Block cfiCond4 Using cfiCommon0
          CFI (cfiCond4) Function zgReadStartupOptions
          CFI (cfiCond4) Conditional ??CrossCallReturnLabel_3
          CFI (cfiCond4) R6 load(1, XDATA, add(CFA_XSP16, literal(-10)))
          CFI (cfiCond4) VB load(1, XDATA, add(CFA_XSP16, literal(-9)))
          CFI (cfiCond4) V0 load(1, XDATA, add(CFA_XSP16, literal(-8)))
          CFI (cfiCond4) V1 load(1, XDATA, add(CFA_XSP16, literal(-7)))
          CFI (cfiCond4) R7 load(1, XDATA, add(CFA_XSP16, literal(-6)))
          CFI (cfiCond4) ?RET_LOW load(1, XDATA, add(CFA_XSP16, literal(-5)))
          CFI (cfiCond4) ?RET_HIGH load(1, XDATA, add(CFA_XSP16, literal(-4)))
          CFI (cfiCond4) ?BRET_EXT load(1, XDATA, add(CFA_XSP16, literal(-3)))
          CFI (cfiCond4) DPL0 load(1, XDATA, add(CFA_XSP16, literal(-2)))
          CFI (cfiCond4) DPH0 load(1, XDATA, add(CFA_XSP16, literal(-1)))
          CFI (cfiCond4) CFA_SP SP+-2
          CFI (cfiCond4) CFA_XSP16 add(XSP16, 13)
          CFI Block cfiPicker5 Using cfiCommon1
          CFI (cfiPicker5) NoFunction
          CFI (cfiPicker5) Picker
        MOV       R3,#0x0
          CFI EndBlock cfiCond1
          CFI EndBlock cfiCond2
          CFI EndBlock cfiCond3
          CFI EndBlock cfiCond4
          CFI EndBlock cfiPicker5
        REQUIRE ??Subroutine3_0
        ; // Fall through to label ??Subroutine3_0

        RSEG BANKED_CODE:HUGECODE:NOROOT(0)
??Subroutine3_0:
          CFI Block cfiCond6 Using cfiCommon0
          CFI Function zgInitItems
          CFI Conditional ??CrossCallReturnLabel_4
          CFI R6 load(1, XDATA, add(CFA_XSP16, literal(-14)))
          CFI VB load(1, XDATA, add(CFA_XSP16, literal(-13)))
          CFI V0 load(1, XDATA, add(CFA_XSP16, literal(-12)))
          CFI V1 load(1, XDATA, add(CFA_XSP16, literal(-11)))
          CFI V2 load(1, XDATA, add(CFA_XSP16, literal(-10)))
          CFI V3 load(1, XDATA, add(CFA_XSP16, literal(-9)))
          CFI V4 load(1, XDATA, add(CFA_XSP16, literal(-8)))
          CFI V5 load(1, XDATA, add(CFA_XSP16, literal(-7)))
          CFI R7 load(1, XDATA, add(CFA_XSP16, literal(-6)))
          CFI ?RET_LOW load(1, XDATA, add(CFA_XSP16, literal(-5)))
          CFI ?RET_HIGH load(1, XDATA, add(CFA_XSP16, literal(-4)))
          CFI ?BRET_EXT load(1, XDATA, add(CFA_XSP16, literal(-3)))
          CFI DPL0 load(1, XDATA, add(CFA_XSP16, literal(-2)))
          CFI DPH0 load(1, XDATA, add(CFA_XSP16, literal(-1)))
          CFI CFA_SP SP+-2
          CFI CFA_XSP16 add(XSP16, 16)
          CFI Block cfiCond7 Using cfiCommon0
          CFI (cfiCond7) Function zgInit
          CFI (cfiCond7) Conditional ??CrossCallReturnLabel_0
          CFI (cfiCond7) R6 load(1, XDATA, add(CFA_XSP16, literal(-12)))
          CFI (cfiCond7) VB load(1, XDATA, add(CFA_XSP16, literal(-11)))
          CFI (cfiCond7) V0 load(1, XDATA, add(CFA_XSP16, literal(-10)))
          CFI (cfiCond7) V1 load(1, XDATA, add(CFA_XSP16, literal(-9)))
          CFI (cfiCond7) V2 load(1, XDATA, add(CFA_XSP16, literal(-8)))
          CFI (cfiCond7) V3 load(1, XDATA, add(CFA_XSP16, literal(-7)))
          CFI (cfiCond7) R7 load(1, XDATA, add(CFA_XSP16, literal(-6)))
          CFI (cfiCond7) ?RET_LOW load(1, XDATA, add(CFA_XSP16, literal(-5)))
          CFI (cfiCond7) ?RET_HIGH load(1, XDATA, add(CFA_XSP16, literal(-4)))
          CFI (cfiCond7) ?BRET_EXT load(1, XDATA, add(CFA_XSP16, literal(-3)))
          CFI (cfiCond7) DPL0 load(1, XDATA, add(CFA_XSP16, literal(-2)))
          CFI (cfiCond7) DPH0 load(1, XDATA, add(CFA_XSP16, literal(-1)))
          CFI (cfiCond7) CFA_SP SP+-2
          CFI (cfiCond7) CFA_XSP16 add(XSP16, 32)
          CFI Block cfiCond8 Using cfiCommon0
          CFI (cfiCond8) Function zgInit
          CFI (cfiCond8) Conditional ??CrossCallReturnLabel_1
          CFI (cfiCond8) R6 load(1, XDATA, add(CFA_XSP16, literal(-12)))
          CFI (cfiCond8) VB load(1, XDATA, add(CFA_XSP16, literal(-11)))
          CFI (cfiCond8) V0 load(1, XDATA, add(CFA_XSP16, literal(-10)))
          CFI (cfiCond8) V1 load(1, XDATA, add(CFA_XSP16, literal(-9)))
          CFI (cfiCond8) V2 load(1, XDATA, add(CFA_XSP16, literal(-8)))
          CFI (cfiCond8) V3 load(1, XDATA, add(CFA_XSP16, literal(-7)))
          CFI (cfiCond8) R7 load(1, XDATA, add(CFA_XSP16, literal(-6)))
          CFI (cfiCond8) ?RET_LOW load(1, XDATA, add(CFA_XSP16, literal(-5)))
          CFI (cfiCond8) ?RET_HIGH load(1, XDATA, add(CFA_XSP16, literal(-4)))
          CFI (cfiCond8) ?BRET_EXT load(1, XDATA, add(CFA_XSP16, literal(-3)))
          CFI (cfiCond8) DPL0 load(1, XDATA, add(CFA_XSP16, literal(-2)))
          CFI (cfiCond8) DPH0 load(1, XDATA, add(CFA_XSP16, literal(-1)))
          CFI (cfiCond8) CFA_SP SP+-2
          CFI (cfiCond8) CFA_XSP16 add(XSP16, 32)
          CFI Block cfiCond9 Using cfiCommon0
          CFI (cfiCond9) Function zgInit
          CFI (cfiCond9) Conditional ??CrossCallReturnLabel_2
          CFI (cfiCond9) R6 load(1, XDATA, add(CFA_XSP16, literal(-12)))
          CFI (cfiCond9) VB load(1, XDATA, add(CFA_XSP16, literal(-11)))
          CFI (cfiCond9) V0 load(1, XDATA, add(CFA_XSP16, literal(-10)))
          CFI (cfiCond9) V1 load(1, XDATA, add(CFA_XSP16, literal(-9)))
          CFI (cfiCond9) V2 load(1, XDATA, add(CFA_XSP16, literal(-8)))
          CFI (cfiCond9) V3 load(1, XDATA, add(CFA_XSP16, literal(-7)))
          CFI (cfiCond9) R7 load(1, XDATA, add(CFA_XSP16, literal(-6)))
          CFI (cfiCond9) ?RET_LOW load(1, XDATA, add(CFA_XSP16, literal(-5)))
          CFI (cfiCond9) ?RET_HIGH load(1, XDATA, add(CFA_XSP16, literal(-4)))
          CFI (cfiCond9) ?BRET_EXT load(1, XDATA, add(CFA_XSP16, literal(-3)))
          CFI (cfiCond9) DPL0 load(1, XDATA, add(CFA_XSP16, literal(-2)))
          CFI (cfiCond9) DPH0 load(1, XDATA, add(CFA_XSP16, literal(-1)))
          CFI (cfiCond9) CFA_SP SP+-2
          CFI (cfiCond9) CFA_XSP16 add(XSP16, 32)
          CFI Block cfiCond10 Using cfiCommon0
          CFI (cfiCond10) Function zgReadStartupOptions
          CFI (cfiCond10) Conditional ??CrossCallReturnLabel_3
          CFI (cfiCond10) R6 load(1, XDATA, add(CFA_XSP16, literal(-10)))
          CFI (cfiCond10) VB load(1, XDATA, add(CFA_XSP16, literal(-9)))
          CFI (cfiCond10) V0 load(1, XDATA, add(CFA_XSP16, literal(-8)))
          CFI (cfiCond10) V1 load(1, XDATA, add(CFA_XSP16, literal(-7)))
          CFI (cfiCond10) R7 load(1, XDATA, add(CFA_XSP16, literal(-6)))
          CFI (cfiCond10) ?RET_LOW load(1, XDATA, add(CFA_XSP16, literal(-5)))
          CFI (cfiCond10) ?RET_HIGH load(1, XDATA, add(CFA_XSP16, literal(-4)))
          CFI (cfiCond10) ?BRET_EXT load(1, XDATA, add(CFA_XSP16, literal(-3)))
          CFI (cfiCond10) DPL0 load(1, XDATA, add(CFA_XSP16, literal(-2)))
          CFI (cfiCond10) DPH0 load(1, XDATA, add(CFA_XSP16, literal(-1)))
          CFI (cfiCond10) CFA_SP SP+-2
          CFI (cfiCond10) CFA_XSP16 add(XSP16, 13)
          CFI Block cfiPicker11 Using cfiCommon1
          CFI (cfiPicker11) NoFunction
          CFI (cfiPicker11) Picker
        LCALL     `??osal_nv_item_init::?relay`; Banked call to: osal_nv_item_init
        MOV       A,#0x2
        RET
          CFI EndBlock cfiCond6
          CFI EndBlock cfiCond7
          CFI EndBlock cfiCond8
          CFI EndBlock cfiCond9
          CFI EndBlock cfiCond10
          CFI EndBlock cfiPicker11
//  678 
//  679 /*********************************************************************
//  680  * @fn          zgInitItems
//  681  *
//  682  * @brief       Initializes RAM variables from NV.  If NV items don't
//  683  *              exist, then the NV is initialize with what is in RAM
//  684  *              variables.
//  685  *
//  686  * @param       none
//  687  *
//  688  * @return      none
//  689  */

        RSEG BANKED_CODE:HUGECODE:NOROOT(0)
//  690 void zgInitItems( uint8 setDefault )
zgInitItems:
          CFI Block cfiBlock12 Using cfiCommon0
          CFI Function zgInitItems
        CODE
//  691 {
        FUNCALL zgInitItems, osal_nv_read
        LOCFRAME ISTACK, 0, STACK
        LOCFRAME PSTACK, 0, STACK
        LOCFRAME XSTACK, 18, STACK
        LOCFRAME IOVERLAY, 0, STATIC
        LOCFRAME DOVERLAY, 0, STATIC
        ARGFRAME ISTACK, 0, STACK
        ARGFRAME PSTACK, 0, STACK
        ARGFRAME XSTACK, 18, STACK
        ARGFRAME IOVERLAY, 0, STATIC
        ARGFRAME DOVERLAY, 0, STATIC
        FUNCALL zgInitItems, osal_nv_item_init
        LOCFRAME ISTACK, 0, STACK
        LOCFRAME PSTACK, 0, STACK
        LOCFRAME XSTACK, 16, STACK
        LOCFRAME IOVERLAY, 0, STATIC
        LOCFRAME DOVERLAY, 0, STATIC
        ARGFRAME ISTACK, 0, STACK
        ARGFRAME PSTACK, 0, STACK
        ARGFRAME XSTACK, 16, STACK
        ARGFRAME IOVERLAY, 0, STATIC
        ARGFRAME DOVERLAY, 0, STATIC
        FUNCALL zgInitItems, osal_nv_write
        LOCFRAME ISTACK, 0, STACK
        LOCFRAME PSTACK, 0, STACK
        LOCFRAME XSTACK, 18, STACK
        LOCFRAME IOVERLAY, 0, STATIC
        LOCFRAME DOVERLAY, 0, STATIC
        ARGFRAME ISTACK, 0, STACK
        ARGFRAME PSTACK, 0, STACK
        ARGFRAME XSTACK, 18, STACK
        ARGFRAME IOVERLAY, 0, STATIC
        ARGFRAME DOVERLAY, 0, STATIC
        REQUIRE ?V0
        REQUIRE ?V1
        REQUIRE ?V2
        REQUIRE ?V3
        REQUIRE ?V4
        REQUIRE ?V5
        MOV       A,#-0xe
        LCALL     ?BANKED_ENTER_XDATA
          CFI DPH0 load(1, XDATA, add(CFA_XSP16, literal(-1)))
          CFI DPL0 load(1, XDATA, add(CFA_XSP16, literal(-2)))
          CFI ?BRET_EXT load(1, XDATA, add(CFA_XSP16, literal(-3)))
          CFI ?RET_HIGH load(1, XDATA, add(CFA_XSP16, literal(-4)))
          CFI ?RET_LOW load(1, XDATA, add(CFA_XSP16, literal(-5)))
          CFI R7 load(1, XDATA, add(CFA_XSP16, literal(-6)))
          CFI V5 load(1, XDATA, add(CFA_XSP16, literal(-7)))
          CFI V4 load(1, XDATA, add(CFA_XSP16, literal(-8)))
          CFI V3 load(1, XDATA, add(CFA_XSP16, literal(-9)))
          CFI V2 load(1, XDATA, add(CFA_XSP16, literal(-10)))
          CFI V1 load(1, XDATA, add(CFA_XSP16, literal(-11)))
          CFI V0 load(1, XDATA, add(CFA_XSP16, literal(-12)))
          CFI VB load(1, XDATA, add(CFA_XSP16, literal(-13)))
          CFI R6 load(1, XDATA, add(CFA_XSP16, literal(-14)))
          CFI CFA_SP SP+0
          CFI CFA_XSP16 add(XSP16, 14)
        ; Saved register size: 14
        ; Auto size: 0
        MOV       ?V5,R1
//  692   uint8  i = 0;
        MOV       ?V4,#0x0
//  693 
//  694   if ( ZG_BUILD_COORDINATOR_TYPE && ( zgApsLinkKeyType == ZG_UNIQUE_LINK_KEY ) )
//  695   {
//  696     zgUseDefaultTCLK = FALSE;
//  697   }
//  698   else
//  699   {
//  700     // Most of the time default TCLK will be used
//  701     zgUseDefaultTCLK = TRUE;
        MOV       DPTR,#zgUseDefaultTCLK
        MOV       A,#0x1
        MOVX      @DPTR,A
        SJMP      ??zgInitItems_0
//  702   }
//  703 
//  704   while ( zgItemTable[i].id != 0x00 )
//  705   {
??zgInitItems_1:
        ; Setup parameters for call to function osal_nv_read
        LCALL     ?PUSH_XSTACK_I_TWO
          CFI CFA_XSP16 add(XSP16, 16)
        MOV       R0,#?V0
        LCALL     ?PUSH_XSTACK_I_TWO
          CFI CFA_XSP16 add(XSP16, 18)
        MOV       R4,#0x0
        MOV       R5,#0x0
        MOV       A,R6
        MOV       R2,A
        MOV       A,R7
        MOV       R3,A
        LCALL     `??osal_nv_read::?relay`; Banked call to: osal_nv_read
??zgInitItems_2:
        MOV       A,#0x4
        LCALL     ?DEALLOC_XSTACK8
          CFI CFA_XSP16 add(XSP16, 14)
//  706     // Initialize the item
//  707     zgItemInit( zgItemTable[i].id, zgItemTable[i].len, zgItemTable[i].buf, setDefault  );
//  708 
//  709     // Move on to the next item
//  710     i++;
??zgInitItems_3:
        INC       ?V4
??zgInitItems_0:
        MOV       A,?V4
        MOV       B,#0x6
        MUL       AB
        MOV       R0,A
        MOV       R1,B
        MOV       A,#zgItemTable & 0xff
        ADD       A,R0
        MOV       R0,A
        MOV       A,#(zgItemTable >> 8) & 0xff
        ADDC      A,R1
        MOV       R1,A
        MOV       DPL,R0
        MOV       DPH,A
        CLR       A
        MOVC      A,@A+DPTR
        MOV       R2,A
        MOV       A,#0x1
        MOVC      A,@A+DPTR
        MOV       R3,A
        MOV       A,R2
        ORL       A,R3
        JZ        ??zgInitItems_4
        INC       DPTR
        INC       DPTR
        INC       DPTR
        INC       DPTR
        CLR       A
        MOVC      A,@A+DPTR
        MOV       ?V2,A
        MOV       A,#0x1
        MOVC      A,@A+DPTR
        MOV       ?V3,A
        MOV       DPL,R0
        MOV       DPH,R1
        INC       DPTR
        INC       DPTR
        CLR       A
        MOVC      A,@A+DPTR
        PUSH      A
          CFI CFA_SP SP+-1
        MOV       A,#0x1
        MOVC      A,@A+DPTR
        MOV       DPH,A
        POP       DPL
          CFI CFA_SP SP+0
        MOV       ?V0,DPL
        MOV       ?V1,DPH
        MOV       DPL,R0
        MOV       DPH,R1
        CLR       A
        MOVC      A,@A+DPTR
        PUSH      A
          CFI CFA_SP SP+-1
        MOV       A,#0x1
        MOVC      A,@A+DPTR
        MOV       DPH,A
        POP       DPL
          CFI CFA_SP SP+0
        MOV       R6,DPL
        MOV       R7,DPH
        ; Setup parameters for call to function osal_nv_item_init
        MOV       R0,#?V2
        LCALL     ?PUSH_XSTACK_I_TWO
          CFI CFA_XSP16 add(XSP16, 16)
        MOV       R4,?V0
        MOV       R5,?V1
        MOV       A,R6
        MOV       R2,A
        MOV       A,R7
        MOV       R3,A
        LCALL     ??Subroutine3_0 & 0xFFFF
??CrossCallReturnLabel_4:
        LCALL     ?DEALLOC_XSTACK8
          CFI CFA_XSP16 add(XSP16, 14)
        MOV       A,R1
        JNZ       ??zgInitItems_3
        MOV       A,?V5
        MOV       R0,#?V2
        JNZ       $+5
        LJMP      ??zgInitItems_1 & 0xFFFF
        ; Setup parameters for call to function osal_nv_write
        LCALL     ?PUSH_XSTACK_I_TWO
          CFI CFA_XSP16 add(XSP16, 16)
        MOV       R0,#?V0
        LCALL     ?PUSH_XSTACK_I_TWO
          CFI CFA_XSP16 add(XSP16, 18)
        MOV       R4,#0x0
        MOV       R5,#0x0
        MOV       A,R6
        MOV       R2,A
        MOV       A,R7
        MOV       R3,A
        LCALL     `??osal_nv_write::?relay`; Banked call to: osal_nv_write
        LJMP      ??zgInitItems_2 & 0xFFFF
          CFI CFA_XSP16 add(XSP16, 14)
//  711   }
//  712 }
??zgInitItems_4:
        MOV       R7,#0x6
        LJMP      ?BANKED_LEAVE_XDATA
          CFI EndBlock cfiBlock12
//  713 
//  714 /*********************************************************************
//  715  * @fn          zgReadStartupOptions
//  716  *
//  717  * @brief       Reads the ZCD_NV_STARTUP_OPTION NV Item.
//  718  *
//  719  * @param       none
//  720  *
//  721  * @return      the ZCD_NV_STARTUP_OPTION NV item
//  722  */

        RSEG BANKED_CODE:HUGECODE:NOROOT(0)
//  723 uint8 zgReadStartupOptions( void )
zgReadStartupOptions:
          CFI Block cfiBlock13 Using cfiCommon0
          CFI Function zgReadStartupOptions
        CODE
//  724 {
        FUNCALL zgReadStartupOptions, osal_nv_item_init
        LOCFRAME ISTACK, 0, STACK
        LOCFRAME PSTACK, 0, STACK
        LOCFRAME XSTACK, 13, STACK
        LOCFRAME IOVERLAY, 0, STATIC
        LOCFRAME DOVERLAY, 0, STATIC
        ARGFRAME ISTACK, 0, STACK
        ARGFRAME PSTACK, 0, STACK
        ARGFRAME XSTACK, 13, STACK
        ARGFRAME IOVERLAY, 0, STATIC
        ARGFRAME DOVERLAY, 0, STATIC
        FUNCALL zgReadStartupOptions, osal_nv_read
        LOCFRAME ISTACK, 0, STACK
        LOCFRAME PSTACK, 0, STACK
        LOCFRAME XSTACK, 15, STACK
        LOCFRAME IOVERLAY, 0, STATIC
        LOCFRAME DOVERLAY, 0, STATIC
        ARGFRAME ISTACK, 0, STACK
        ARGFRAME PSTACK, 0, STACK
        ARGFRAME XSTACK, 15, STACK
        ARGFRAME IOVERLAY, 0, STATIC
        ARGFRAME DOVERLAY, 0, STATIC
        REQUIRE ?V0
        REQUIRE ?V1
        MOV       A,#-0xa
        LCALL     ?BANKED_ENTER_XDATA
          CFI DPH0 load(1, XDATA, add(CFA_XSP16, literal(-1)))
          CFI DPL0 load(1, XDATA, add(CFA_XSP16, literal(-2)))
          CFI ?BRET_EXT load(1, XDATA, add(CFA_XSP16, literal(-3)))
          CFI ?RET_HIGH load(1, XDATA, add(CFA_XSP16, literal(-4)))
          CFI ?RET_LOW load(1, XDATA, add(CFA_XSP16, literal(-5)))
          CFI R7 load(1, XDATA, add(CFA_XSP16, literal(-6)))
          CFI V1 load(1, XDATA, add(CFA_XSP16, literal(-7)))
          CFI V0 load(1, XDATA, add(CFA_XSP16, literal(-8)))
          CFI VB load(1, XDATA, add(CFA_XSP16, literal(-9)))
          CFI R6 load(1, XDATA, add(CFA_XSP16, literal(-10)))
          CFI CFA_SP SP+0
          CFI CFA_XSP16 add(XSP16, 10)
        ; Saved register size: 10
        ; Auto size: 1
        MOV       A,#-0x1
        LCALL     ?ALLOC_XSTACK8
          CFI CFA_XSP16 add(XSP16, 11)
//  725   // Default to Use Config State and Use Network State
//  726   uint8 startupOption = 0;
        LCALL     ?Subroutine1 & 0xFFFF
//  727 
//  728   // This should have been done in ZMain.c, but just in case.
//  729   if ( osal_nv_item_init( ZCD_NV_STARTUP_OPTION,
//  730                               sizeof(startupOption),
//  731                               &startupOption ) == ZSUCCESS )
??CrossCallReturnLabel_5:
        LCALL     ?PUSH_XSTACK_I_TWO
          CFI CFA_XSP16 add(XSP16, 13)
        MOV       R4,#0x1
        MOV       R5,#0x0
        MOV       R2,#0x3
        LCALL     ?Subroutine2 & 0xFFFF
??CrossCallReturnLabel_3:
        LCALL     ?DEALLOC_XSTACK8
          CFI CFA_XSP16 add(XSP16, 11)
        MOV       A,R1
        JNZ       ??zgReadStartupOptions_0
//  732   {
//  733     // Read saved startup control
//  734     osal_nv_read( ZCD_NV_STARTUP_OPTION,
//  735                   0,
//  736                   sizeof( startupOption ),
//  737                   &startupOption);
        ; Setup parameters for call to function osal_nv_read
        MOV       R0,#?V0
        LCALL     ?PUSH_XSTACK_I_TWO
          CFI CFA_XSP16 add(XSP16, 13)
        MOV       ?V0,#0x1
        MOV       ?V1,#0x0
        MOV       R0,#?V0
        LCALL     ?PUSH_XSTACK_I_TWO
          CFI CFA_XSP16 add(XSP16, 15)
        MOV       R4,#0x0
        MOV       R5,#0x0
        MOV       R2,#0x3
        MOV       R3,#0x0
        LCALL     `??osal_nv_read::?relay`; Banked call to: osal_nv_read
        MOV       A,#0x4
        LCALL     ?DEALLOC_XSTACK8
          CFI CFA_XSP16 add(XSP16, 11)
//  738   }
//  739   return ( startupOption );
??zgReadStartupOptions_0:
        MOV       DPL,?XSP + 0
        MOV       DPH,?XSP + 1
        MOVX      A,@DPTR
        MOV       R1,A
          CFI EndBlock cfiBlock13
        REQUIRE ?Subroutine0
        ; // Fall through to label ?Subroutine0
//  740 }

        RSEG BANKED_CODE:HUGECODE:NOROOT(0)
?Subroutine0:
          CFI Block cfiBlock14 Using cfiCommon0
          CFI NoFunction
          CFI CFA_SP SP+0
          CFI CFA_XSP16 add(XSP16, 11)
          CFI VB load(1, XDATA, add(CFA_XSP16, literal(-9)))
          CFI DPL0 load(1, XDATA, add(CFA_XSP16, literal(-2)))
          CFI DPH0 load(1, XDATA, add(CFA_XSP16, literal(-1)))
          CFI R6 load(1, XDATA, add(CFA_XSP16, literal(-10)))
          CFI R7 load(1, XDATA, add(CFA_XSP16, literal(-6)))
          CFI V0 load(1, XDATA, add(CFA_XSP16, literal(-8)))
          CFI V1 load(1, XDATA, add(CFA_XSP16, literal(-7)))
          CFI ?BRET_EXT load(1, XDATA, add(CFA_XSP16, literal(-3)))
          CFI ?RET_HIGH load(1, XDATA, add(CFA_XSP16, literal(-4)))
          CFI ?RET_LOW load(1, XDATA, add(CFA_XSP16, literal(-5)))
        MOV       A,#0x1
        LCALL     ?DEALLOC_XSTACK8
          CFI CFA_XSP16 add(XSP16, 10)
        MOV       R7,#0x2
        LJMP      ?BANKED_LEAVE_XDATA
          CFI EndBlock cfiBlock14

        RSEG BANKED_CODE:HUGECODE:NOROOT(0)
?Subroutine1:
          CFI Block cfiCond15 Using cfiCommon0
          CFI Function zgReadStartupOptions
          CFI Conditional ??CrossCallReturnLabel_5
          CFI R6 load(1, XDATA, add(CFA_XSP16, literal(-10)))
          CFI VB load(1, XDATA, add(CFA_XSP16, literal(-9)))
          CFI V0 load(1, XDATA, add(CFA_XSP16, literal(-8)))
          CFI V1 load(1, XDATA, add(CFA_XSP16, literal(-7)))
          CFI R7 load(1, XDATA, add(CFA_XSP16, literal(-6)))
          CFI ?RET_LOW load(1, XDATA, add(CFA_XSP16, literal(-5)))
          CFI ?RET_HIGH load(1, XDATA, add(CFA_XSP16, literal(-4)))
          CFI ?BRET_EXT load(1, XDATA, add(CFA_XSP16, literal(-3)))
          CFI DPL0 load(1, XDATA, add(CFA_XSP16, literal(-2)))
          CFI DPH0 load(1, XDATA, add(CFA_XSP16, literal(-1)))
          CFI CFA_SP SP+-2
          CFI CFA_XSP16 add(XSP16, 11)
          CFI Block cfiCond16 Using cfiCommon0
          CFI (cfiCond16) Function zgWriteStartupOptions
          CFI (cfiCond16) Conditional ??CrossCallReturnLabel_6
          CFI (cfiCond16) R6 load(1, XDATA, add(CFA_XSP16, literal(-10)))
          CFI (cfiCond16) VB load(1, XDATA, add(CFA_XSP16, literal(-9)))
          CFI (cfiCond16) V0 load(1, XDATA, add(CFA_XSP16, literal(-8)))
          CFI (cfiCond16) V1 load(1, XDATA, add(CFA_XSP16, literal(-7)))
          CFI (cfiCond16) R7 load(1, XDATA, add(CFA_XSP16, literal(-6)))
          CFI (cfiCond16) ?RET_LOW load(1, XDATA, add(CFA_XSP16, literal(-5)))
          CFI (cfiCond16) ?RET_HIGH load(1, XDATA, add(CFA_XSP16, literal(-4)))
          CFI (cfiCond16) ?BRET_EXT load(1, XDATA, add(CFA_XSP16, literal(-3)))
          CFI (cfiCond16) DPL0 load(1, XDATA, add(CFA_XSP16, literal(-2)))
          CFI (cfiCond16) DPH0 load(1, XDATA, add(CFA_XSP16, literal(-1)))
          CFI (cfiCond16) CFA_SP SP+-2
          CFI (cfiCond16) CFA_XSP16 add(XSP16, 11)
          CFI Block cfiPicker17 Using cfiCommon1
          CFI (cfiPicker17) NoFunction
          CFI (cfiPicker17) Picker
        MOV       DPL,?XSP + 0
        MOV       DPH,?XSP + 1
        CLR       A
          CFI EndBlock cfiCond15
          CFI EndBlock cfiCond16
          CFI EndBlock cfiPicker17
        REQUIRE ??Subroutine4_0
        ; // Fall through to label ??Subroutine4_0

        RSEG BANKED_CODE:HUGECODE:NOROOT(0)
??Subroutine4_0:
          CFI Block cfiCond18 Using cfiCommon0
          CFI Function zgWriteStartupOptions
          CFI Conditional ??CrossCallReturnLabel_7
          CFI R6 load(1, XDATA, add(CFA_XSP16, literal(-10)))
          CFI VB load(1, XDATA, add(CFA_XSP16, literal(-9)))
          CFI V0 load(1, XDATA, add(CFA_XSP16, literal(-8)))
          CFI V1 load(1, XDATA, add(CFA_XSP16, literal(-7)))
          CFI R7 load(1, XDATA, add(CFA_XSP16, literal(-6)))
          CFI ?RET_LOW load(1, XDATA, add(CFA_XSP16, literal(-5)))
          CFI ?RET_HIGH load(1, XDATA, add(CFA_XSP16, literal(-4)))
          CFI ?BRET_EXT load(1, XDATA, add(CFA_XSP16, literal(-3)))
          CFI DPL0 load(1, XDATA, add(CFA_XSP16, literal(-2)))
          CFI DPH0 load(1, XDATA, add(CFA_XSP16, literal(-1)))
          CFI CFA_SP SP+-2
          CFI CFA_XSP16 add(XSP16, 11)
          CFI Block cfiCond19 Using cfiCommon0
          CFI (cfiCond19) Function zgReadStartupOptions
          CFI (cfiCond19) Conditional ??CrossCallReturnLabel_5
          CFI (cfiCond19) R6 load(1, XDATA, add(CFA_XSP16, literal(-10)))
          CFI (cfiCond19) VB load(1, XDATA, add(CFA_XSP16, literal(-9)))
          CFI (cfiCond19) V0 load(1, XDATA, add(CFA_XSP16, literal(-8)))
          CFI (cfiCond19) V1 load(1, XDATA, add(CFA_XSP16, literal(-7)))
          CFI (cfiCond19) R7 load(1, XDATA, add(CFA_XSP16, literal(-6)))
          CFI (cfiCond19) ?RET_LOW load(1, XDATA, add(CFA_XSP16, literal(-5)))
          CFI (cfiCond19) ?RET_HIGH load(1, XDATA, add(CFA_XSP16, literal(-4)))
          CFI (cfiCond19) ?BRET_EXT load(1, XDATA, add(CFA_XSP16, literal(-3)))
          CFI (cfiCond19) DPL0 load(1, XDATA, add(CFA_XSP16, literal(-2)))
          CFI (cfiCond19) DPH0 load(1, XDATA, add(CFA_XSP16, literal(-1)))
          CFI (cfiCond19) CFA_SP SP+-2
          CFI (cfiCond19) CFA_XSP16 add(XSP16, 11)
          CFI Block cfiCond20 Using cfiCommon0
          CFI (cfiCond20) Function zgWriteStartupOptions
          CFI (cfiCond20) Conditional ??CrossCallReturnLabel_6
          CFI (cfiCond20) R6 load(1, XDATA, add(CFA_XSP16, literal(-10)))
          CFI (cfiCond20) VB load(1, XDATA, add(CFA_XSP16, literal(-9)))
          CFI (cfiCond20) V0 load(1, XDATA, add(CFA_XSP16, literal(-8)))
          CFI (cfiCond20) V1 load(1, XDATA, add(CFA_XSP16, literal(-7)))
          CFI (cfiCond20) R7 load(1, XDATA, add(CFA_XSP16, literal(-6)))
          CFI (cfiCond20) ?RET_LOW load(1, XDATA, add(CFA_XSP16, literal(-5)))
          CFI (cfiCond20) ?RET_HIGH load(1, XDATA, add(CFA_XSP16, literal(-4)))
          CFI (cfiCond20) ?BRET_EXT load(1, XDATA, add(CFA_XSP16, literal(-3)))
          CFI (cfiCond20) DPL0 load(1, XDATA, add(CFA_XSP16, literal(-2)))
          CFI (cfiCond20) DPH0 load(1, XDATA, add(CFA_XSP16, literal(-1)))
          CFI (cfiCond20) CFA_SP SP+-2
          CFI (cfiCond20) CFA_XSP16 add(XSP16, 11)
          CFI Block cfiPicker21 Using cfiCommon1
          CFI (cfiPicker21) NoFunction
          CFI (cfiPicker21) Picker
        MOVX      @DPTR,A
        ; Setup parameters for call to function osal_nv_item_init
        ; Setup parameters for call to function osal_nv_read
        ; Setup parameters for call to function osal_nv_write
        MOV       R0,?XSP + 0
        MOV       R1,?XSP + 1
        MOV       ?V0,R0
        MOV       ?V1,R1
        MOV       R0,#?V0
        RET
          CFI EndBlock cfiCond18
          CFI EndBlock cfiCond19
          CFI EndBlock cfiCond20
          CFI EndBlock cfiPicker21
//  741 
//  742 /*********************************************************************
//  743  * @fn          zgWriteStartupOptions
//  744  *
//  745  * @brief       Writes bits into the ZCD_NV_STARTUP_OPTION NV Item.
//  746  *
//  747  * @param       action - ZG_STARTUP_SET set bit, ZG_STARTUP_CLEAR to
//  748  *               clear bit. The set bit is an OR operation, and the
//  749  *               clear bit is an AND ~(bitOptions) operation.
//  750  *
//  751  * @param       bitOptions - which bits to perform action on:
//  752  *                      ZCD_STARTOPT_DEFAULT_CONFIG_STATE
//  753  *                      ZCD_STARTOPT_DEFAULT_NETWORK_STATE
//  754  *
//  755  * @return      ZSUCCESS if successful
//  756  */

        RSEG BANKED_CODE:HUGECODE:NOROOT(0)
//  757 uint8 zgWriteStartupOptions( uint8 action, uint8 bitOptions )
zgWriteStartupOptions:
          CFI Block cfiBlock22 Using cfiCommon0
          CFI Function zgWriteStartupOptions
        CODE
//  758 {
        FUNCALL zgWriteStartupOptions, osal_nv_read
        LOCFRAME ISTACK, 0, STACK
        LOCFRAME PSTACK, 0, STACK
        LOCFRAME XSTACK, 15, STACK
        LOCFRAME IOVERLAY, 0, STATIC
        LOCFRAME DOVERLAY, 0, STATIC
        ARGFRAME ISTACK, 0, STACK
        ARGFRAME PSTACK, 0, STACK
        ARGFRAME XSTACK, 15, STACK
        ARGFRAME IOVERLAY, 0, STATIC
        ARGFRAME DOVERLAY, 0, STATIC
        FUNCALL zgWriteStartupOptions, osal_nv_write
        LOCFRAME ISTACK, 0, STACK
        LOCFRAME PSTACK, 0, STACK
        LOCFRAME XSTACK, 15, STACK
        LOCFRAME IOVERLAY, 0, STATIC
        LOCFRAME DOVERLAY, 0, STATIC
        ARGFRAME ISTACK, 0, STACK
        ARGFRAME PSTACK, 0, STACK
        ARGFRAME XSTACK, 15, STACK
        ARGFRAME IOVERLAY, 0, STATIC
        ARGFRAME DOVERLAY, 0, STATIC
        REQUIRE ?V0
        REQUIRE ?V1
        MOV       A,#-0xa
        LCALL     ?BANKED_ENTER_XDATA
          CFI DPH0 load(1, XDATA, add(CFA_XSP16, literal(-1)))
          CFI DPL0 load(1, XDATA, add(CFA_XSP16, literal(-2)))
          CFI ?BRET_EXT load(1, XDATA, add(CFA_XSP16, literal(-3)))
          CFI ?RET_HIGH load(1, XDATA, add(CFA_XSP16, literal(-4)))
          CFI ?RET_LOW load(1, XDATA, add(CFA_XSP16, literal(-5)))
          CFI R7 load(1, XDATA, add(CFA_XSP16, literal(-6)))
          CFI V1 load(1, XDATA, add(CFA_XSP16, literal(-7)))
          CFI V0 load(1, XDATA, add(CFA_XSP16, literal(-8)))
          CFI VB load(1, XDATA, add(CFA_XSP16, literal(-9)))
          CFI R6 load(1, XDATA, add(CFA_XSP16, literal(-10)))
          CFI CFA_SP SP+0
          CFI CFA_XSP16 add(XSP16, 10)
        ; Saved register size: 10
        ; Auto size: 1
        MOV       A,#-0x1
        LCALL     ?ALLOC_XSTACK8
          CFI CFA_XSP16 add(XSP16, 11)
        MOV       A,R1
        MOV       R6,A
        MOV       A,R2
        MOV       R7,A
//  759   uint8 status;
//  760   uint8 startupOptions = 0;
        LCALL     ?Subroutine1 & 0xFFFF
//  761 
//  762   status = osal_nv_read( ZCD_NV_STARTUP_OPTION,
//  763                 0,
//  764                 sizeof( startupOptions ),
//  765                 &startupOptions );
??CrossCallReturnLabel_6:
        LCALL     ?PUSH_XSTACK_I_TWO
          CFI CFA_XSP16 add(XSP16, 13)
        MOV       ?V0,#0x1
        MOV       ?V1,#0x0
        MOV       R0,#?V0
        LCALL     ?PUSH_XSTACK_I_TWO
          CFI CFA_XSP16 add(XSP16, 15)
        MOV       R4,#0x0
        MOV       R5,#0x0
        MOV       R2,#0x3
        MOV       R3,#0x0
        LCALL     `??osal_nv_read::?relay`; Banked call to: osal_nv_read
        MOV       A,#0x4
        LCALL     ?DEALLOC_XSTACK8
          CFI CFA_XSP16 add(XSP16, 11)
        MOV       A,R1
        MOV       R1,A
//  766 
//  767   if ( status == ZSUCCESS )
        JNZ       ??zgWriteStartupOptions_0
//  768   {
//  769     if ( action == ZG_STARTUP_SET )
        MOV       A,#-0x1
        XRL       A,R6
        JNZ       ??zgWriteStartupOptions_1
//  770     {
//  771       // Set bits
//  772       startupOptions |= bitOptions;
        MOV       DPL,?XSP + 0
        MOV       DPH,?XSP + 1
        MOVX      A,@DPTR
        ORL       A,R7
        SJMP      ??zgWriteStartupOptions_2
//  773     }
//  774     else
//  775     {
//  776       // Clear bits
//  777       startupOptions &= (bitOptions ^ 0xFF);
??zgWriteStartupOptions_1:
        MOV       A,#-0x1
        XRL       A,R7
        MOV       R0,A
        MOV       DPL,?XSP + 0
        MOV       DPH,?XSP + 1
        MOVX      A,@DPTR
        ANL       A,R0
//  778     }
//  779 
//  780     // Changed?
//  781     status = osal_nv_write( ZCD_NV_STARTUP_OPTION,
//  782                  0,
//  783                  sizeof( startupOptions ),
//  784                  &startupOptions );
//  785   }
??zgWriteStartupOptions_2:
        LCALL     ??Subroutine4_0 & 0xFFFF
??CrossCallReturnLabel_7:
        LCALL     ?PUSH_XSTACK_I_TWO
          CFI CFA_XSP16 add(XSP16, 13)
        MOV       ?V0,#0x1
        MOV       ?V1,#0x0
        MOV       R0,#?V0
        LCALL     ?PUSH_XSTACK_I_TWO
          CFI CFA_XSP16 add(XSP16, 15)
        MOV       R4,#0x0
        MOV       R5,#0x0
        MOV       R2,#0x3
        MOV       R3,#0x0
        LCALL     `??osal_nv_write::?relay`; Banked call to: osal_nv_write
        MOV       A,#0x4
        LCALL     ?DEALLOC_XSTACK8
          CFI CFA_XSP16 add(XSP16, 11)
        MOV       A,R1
        MOV       R1,A
//  786 
//  787   return ( status );
??zgWriteStartupOptions_0:
        LJMP      ?Subroutine0 & 0xFFFF
//  788 }
          CFI EndBlock cfiBlock22
//  789 
//  790 /*********************************************************************
//  791  * @fn          zgSetItem
//  792  *
//  793  * @brief       Set RAM variables from set-NV, if it exist in the zgItemTable
//  794  *
//  795  * @param       id - NV ID
//  796  *              len - NV item length
//  797  *              buf - pointer to the input buffer
//  798  *
//  799  * @return      none
//  800  */

        RSEG BANKED_CODE:HUGECODE:NOROOT(0)
//  801 void zgSetItem( uint16 id, uint16 len, void *buf )
zgSetItem:
          CFI Block cfiBlock23 Using cfiCommon0
          CFI Function zgSetItem
        CODE
//  802 {
        FUNCALL zgSetItem, osal_memcpy
        LOCFRAME ISTACK, 0, STACK
        LOCFRAME PSTACK, 0, STACK
        LOCFRAME XSTACK, 14, STACK
        LOCFRAME IOVERLAY, 0, STATIC
        LOCFRAME DOVERLAY, 0, STATIC
        ARGFRAME ISTACK, 0, STACK
        ARGFRAME PSTACK, 0, STACK
        ARGFRAME XSTACK, 14, STACK
        ARGFRAME IOVERLAY, 0, STATIC
        ARGFRAME DOVERLAY, 0, STATIC
        REQUIRE ?V0
        REQUIRE ?V1
        REQUIRE ?V2
        MOV       A,#-0xb
        LCALL     ?BANKED_ENTER_XDATA
          CFI DPH0 load(1, XDATA, add(CFA_XSP16, literal(-1)))
          CFI DPL0 load(1, XDATA, add(CFA_XSP16, literal(-2)))
          CFI ?BRET_EXT load(1, XDATA, add(CFA_XSP16, literal(-3)))
          CFI ?RET_HIGH load(1, XDATA, add(CFA_XSP16, literal(-4)))
          CFI ?RET_LOW load(1, XDATA, add(CFA_XSP16, literal(-5)))
          CFI R7 load(1, XDATA, add(CFA_XSP16, literal(-6)))
          CFI V2 load(1, XDATA, add(CFA_XSP16, literal(-7)))
          CFI V1 load(1, XDATA, add(CFA_XSP16, literal(-8)))
          CFI V0 load(1, XDATA, add(CFA_XSP16, literal(-9)))
          CFI VB load(1, XDATA, add(CFA_XSP16, literal(-10)))
          CFI R6 load(1, XDATA, add(CFA_XSP16, literal(-11)))
          CFI CFA_SP SP+0
          CFI CFA_XSP16 add(XSP16, 11)
        ; Saved register size: 11
        ; Auto size: 0
//  803 
//  804   uint8  i = 0;
        MOV       ?V0,#0x0
        SJMP      ??zgSetItem_0
//  805 
//  806   // Look up the NV item table
//  807   while ( zgItemTable[i].id != 0x00 )
//  808   {
//  809     if( zgItemTable[i].id == id )
//  810     {
//  811       if ( zgItemTable[i].len == len )
//  812       {
//  813         osal_memcpy( zgItemTable[i].buf, buf, len );
//  814       }
//  815       break;
//  816     }
//  817     // Move on to the next item
//  818     i++;
??zgSetItem_1:
        INC       ?V0
??zgSetItem_0:
        MOV       A,?V0
        MOV       B,#0x6
        MUL       AB
        MOV       R0,A
        MOV       R1,B
        MOV       A,#zgItemTable & 0xff
        ADD       A,R0
        MOV       R0,A
        MOV       A,#(zgItemTable >> 8) & 0xff
        ADDC      A,R1
        MOV       R1,A
        MOV       A,R0
        MOV       R6,A
        MOV       A,R1
        MOV       R7,A
        MOV       DPL,R0
        MOV       DPH,A
        CLR       A
        MOVC      A,@A+DPTR
        PUSH      A
          CFI CFA_SP SP+-1
        MOV       A,#0x1
        MOVC      A,@A+DPTR
        MOV       DPH,A
        POP       DPL
          CFI CFA_SP SP+0
        MOV       R0,DPL
        MOV       R1,DPH
        MOV       A,R0
        ORL       A,R1
        JZ        ??zgSetItem_2
        MOV       A,R2
        XRL       A,R0
        JNZ       ??zgSetItem_3
        MOV       A,R3
        XRL       A,R1
??zgSetItem_3:
        JNZ       ??zgSetItem_1
        MOV       DPL,R6
        MOV       DPH,R7
        INC       DPTR
        INC       DPTR
        CLR       A
        MOVC      A,@A+DPTR
        MOV       R0,A
        MOV       A,#0x1
        MOVC      A,@A+DPTR
        MOV       R1,A
        MOV       A,R4
        XRL       A,R0
        JNZ       ??zgSetItem_4
        MOV       A,R5
        XRL       A,R1
??zgSetItem_4:
        JNZ       ??zgSetItem_2
        ; Setup parameters for call to function osal_memcpy
        MOV       A,#0xb
        LCALL     ?XSTACK_DISP0_8
        MOVX      A,@DPTR
        MOV       ?V0,A
        INC       DPTR
        MOVX      A,@DPTR
        MOV       ?V1,A
        MOV       ?V2,#0x0
        MOV       R0,#?V0
        LCALL     ?PUSH_XSTACK_I_THREE
          CFI CFA_XSP16 add(XSP16, 14)
        MOV       DPL,R6
        MOV       DPH,R7
        INC       DPTR
        INC       DPTR
        INC       DPTR
        INC       DPTR
        CLR       A
        MOVC      A,@A+DPTR
        MOV       R2,A
        MOV       A,#0x1
        MOVC      A,@A+DPTR
        MOV       R3,A
        LCALL     `??osal_memcpy::?relay`; Banked call to: osal_memcpy
        MOV       A,#0x3
        LCALL     ?DEALLOC_XSTACK8
          CFI CFA_XSP16 add(XSP16, 11)
//  819   }
//  820 }
??zgSetItem_2:
        MOV       R7,#0x3
        LJMP      ?BANKED_LEAVE_XDATA
          CFI EndBlock cfiBlock23

        RSEG XDATA_ID:CODE:NOROOT(0)
`?<Initializer for zgPollRate>`:
        DATA32
        DD 1000

        RSEG XDATA_ID:CODE:NOROOT(0)
`?<Initializer for zgSavedPollRate>`:
        DATA32
        DD 1000

        RSEG XDATA_ID:CODE:NOROOT(0)
`?<Initializer for zgQueuedPollRate>`:
        DATA16
        DW 100

        RSEG XDATA_ID:CODE:NOROOT(0)
`?<Initializer for zgResponsePollRate>`:
        DATA16
        DW 100

        RSEG XDATA_ID:CODE:NOROOT(0)
`?<Initializer for zgRejoinPollRate>`:
        DATA16
        DW 440

        RSEG XDATA_ID:CODE:NOROOT(0)
`?<Initializer for zgDefaultRejoinBackoff>`:
        DATA32
        DD 900000

        RSEG XDATA_ID:CODE:NOROOT(0)
`?<Initializer for zgDefaultRejoinScan>`:
        DATA32
        DD 900000

        RSEG XDATA_ID:CODE:NOROOT(0)
`?<Initializer for zgMaxDataRetries>`:
        DATA8
        DB 2

        RSEG XDATA_ID:CODE:NOROOT(0)
`?<Initializer for zgMaxPollFailureRetries>`:
        DATA8
        DB 2

        RSEG XDATA_ID:CODE:NOROOT(0)
`?<Initializer for zgStackProfile>`:
        DATA8
        DB 2

        RSEG XDATA_ID:CODE:NOROOT(0)
`?<Initializer for zgIndirectMsgTimeout>`:
        DATA8
        DB 7

        RSEG XDATA_ID:CODE:NOROOT(0)
`?<Initializer for zgSecurityMode>`:
        DATA8
        DB 4

        RSEG XDATA_ID:CODE:NOROOT(0)
`?<Initializer for zgSecurePermitJoin>`:
        DATA8
        DB 1

        RSEG XDATA_ID:CODE:NOROOT(0)
`?<Initializer for zgAllowInstallCodes>`:
        DATA8
        DB 1

        RSEG XDATA_ID:CODE:NOROOT(0)
`?<Initializer for zgAllowRemoteTCPolicyChange>`:
        DATA8
        DB 1

        RSEG XDATA_ID:CODE:NOROOT(0)
`?<Initializer for zgRouteDiscoveryTime>`:
        DATA8
        DB 5

        RSEG XDATA_ID:CODE:NOROOT(0)
`?<Initializer for zgRouteExpiryTime>`:
        DATA8
        DB 30

        RSEG XDATA_ID:CODE:NOROOT(0)
`?<Initializer for zgMaxBcastRetires>`:
        DATA8
        DB 2

        RSEG XDATA_ID:CODE:NOROOT(0)
`?<Initializer for zgPassiveAckTimeout>`:
        DATA8
        DB 5

        RSEG XDATA_ID:CODE:NOROOT(0)
`?<Initializer for zgBcastDeliveryTime>`:
        DATA8
        DB 30

        RSEG XDATA_ID:CODE:NOROOT(0)
`?<Initializer for zgNwkMode>`:
        DATA8
        DB 2

        RSEG XDATA_ID:CODE:NOROOT(0)
`?<Initializer for zgConcentratorRadius>`:
        DATA8
        DB 10

        RSEG XDATA_ID:CODE:NOROOT(0)
`?<Initializer for zgNwkSrcRtgExpiryTime>`:
        DATA8
        DB 10

        RSEG XDATA_ID:CODE:NOROOT(0)
`?<Initializer for zgNwkLeaveRequestAllowed>`:
        DATA8
        DB 1

        RSEG XDATA_ID:CODE:NOROOT(0)
`?<Initializer for zgNwkProcessLocalLeaveCnf>`:
        DATA8
        DB 1

        RSEG XDATA_ID:CODE:NOROOT(0)
`?<Initializer for zgNwkEndDeviceTimeoutDefault`:
        DATA8
        DB 8

        RSEG XDATA_ID:CODE:NOROOT(0)
`?<Initializer for zgNwkEndDeviceLeaveTimeoutDe`:
        DATA8
        DB 9

        RSEG XDATA_ID:CODE:NOROOT(0)
`?<Initializer for zgEndDeviceTimeoutValue>`:
        DATA8
        DB 8

        RSEG XDATA_ID:CODE:NOROOT(0)
`?<Initializer for zgChildAgingEnable>`:
        DATA8
        DB 1

        RSEG XDATA_ID:CODE:NOROOT(0)
`?<Initializer for zgApscMaxFrameRetries>`:
        DATA8
        DB 3

        RSEG XDATA_ID:CODE:NOROOT(0)
`?<Initializer for zgApscAckWaitDurationPolled>`:
        DATA16
        DW 3000

        RSEG XDATA_ID:CODE:NOROOT(0)
`?<Initializer for zgApsAckWaitMultiplier>`:
        DATA8
        DB 2

        RSEG XDATA_ID:CODE:NOROOT(0)
`?<Initializer for zgApsDefaultMaxBindingTime>`:
        DATA16
        DW 16000

        RSEG XDATA_ID:CODE:NOROOT(0)
`?<Initializer for zgApsUseInsecureJoin>`:
        DATA8
        DB 1

        RSEG XDATA_ID:CODE:NOROOT(0)
`?<Initializer for zgApsNonMemberRadius>`:
        DATA8
        DB 2

        RSEG XDATA_ID:CODE:NOROOT(0)
`?<Initializer for zgNwkCommissionedNwkAddr>`:
        DATA16
        DW 65534

        RSEG XDATA_ID:CODE:NOROOT(0)
`?<Initializer for zgApscDupRejTimeoutInc>`:
        DATA16
        DW 1000

        RSEG XDATA_ID:CODE:NOROOT(0)
`?<Initializer for zgApscDupRejTimeoutCount>`:
        DATA8
        DB 10

        RSEG XDATA_ID:CODE:NOROOT(0)
`?<Initializer for zgApsMinDupRejTableSize>`:
        DATA16
        DW 5

        RSEG XDATA_ID:CODE:NOROOT(0)
`?<Initializer for zgApsLinkKeyType>`:
        DATA8
        DB 1

        RSEG XDATA_ID:CODE:NOROOT(0)
`?<Initializer for zgConfigPANID>`:
        DATA16
        DW 65535

        RSEG XDATA_ID:CODE:NOROOT(0)
`?<Initializer for zgDeviceLogicalType>`:
        DATA8
        DB 2

        RSEG XDATA_ID:CODE:NOROOT(0)
`?<Initializer for zgStartDelay>`:
        DATA8
        DB 10

        RSEG XDATA_ID:CODE:NOROOT(0)
`?<Initializer for zgZdoDirectCB>`:
        DATA8
        DB 1

        RSEG XDATA_ID:CODE:NOROOT(0)
`?<Initializer for zgNwkMgrMinTransmissions>`:
        DATA8
        DB 20

        RSEG XDATA_ID:CODE:NOROOT(0)
`?<Initializer for zgNwkMgrMode>`:
        DATA8
        DB 1

        RSEG XDATA_ID:CODE:NOROOT(0)
`?<Initializer for zgSapiEndpoint>`:
        DATA8
        DB 224

        RSEG BANK_RELAYS:CODE:REORDER:NOROOT(0)
`??zgInit::?relay`:
        CODE
        LCALL   ?BDISPATCH
        DATA24
        DC24    zgInit

        RSEG BANK_RELAYS:CODE:REORDER:NOROOT(0)
`??zgInitItems::?relay`:
        CODE
        LCALL   ?BDISPATCH
        DATA24
        DC24    zgInitItems

        RSEG BANK_RELAYS:CODE:REORDER:NOROOT(0)
`??zgReadStartupOptions::?relay`:
        CODE
        LCALL   ?BDISPATCH
        DATA24
        DC24    zgReadStartupOptions

        RSEG BANK_RELAYS:CODE:REORDER:NOROOT(0)
`??zgWriteStartupOptions::?relay`:
        CODE
        LCALL   ?BDISPATCH
        DATA24
        DC24    zgWriteStartupOptions

        RSEG BANK_RELAYS:CODE:REORDER:NOROOT(0)
`??zgSetItem::?relay`:
        CODE
        LCALL   ?BDISPATCH
        DATA24
        DC24    zgSetItem

        END
//  821 
//  822 #ifndef NONWK
//  823 /*********************************************************************
//  824  * @fn       zgPreconfigKeyInit()
//  825  *
//  826  * @brief
//  827  *
//  828  *   Initialize ZCD_NV_PRECFGKEY NV item. If the item doesn't exist in NV memory,
//  829  *   write the system default (value passed in) into NV memory. But if
//  830  *   it exists do not overwrite it.
//  831  *
//  832  *   Also, if setDefault is TRUE and the item exists, we will write
//  833  *   the default value to NV space.
//  834  *
//  835  * @param   setDefault - TRUE to set default
//  836  *
//  837  * @return  ZSUCCESS if successful, NV_ITEM_UNINIT if item did not
//  838  *          exist in NV, NV_OPER_FAILED if failure.
//  839  */
//  840 static uint8 zgPreconfigKeyInit( uint8 setDefault )
//  841 {
//  842   uint8              zgPreConfigKey[SEC_KEY_LEN];
//  843   uint8              status;
//  844   
//  845   //NWK KEY
//  846   //if nwk key is set to zeros, then generate a random key and use it
//  847   osal_memset(zgPreConfigKey,0,SEC_KEY_LEN);
//  848   
//  849 #if (ZG_BUILD_RTR_TYPE)
//  850   if(ZG_DEVICE_RTR_TYPE)
//  851   {  
//  852     if(osal_memcmp(defaultKey, zgPreConfigKey,SEC_KEY_LEN))
//  853     {
//  854       ZDSecMgrGenerateRndKey(zgPreConfigKey);
//  855     }
//  856     else
//  857     {
//  858       // Initialize the Pre-Configured Key to the default key
//  859       osal_memcpy( zgPreConfigKey, defaultKey, SEC_KEY_LEN );
//  860     }
//  861   }
//  862 #endif
//  863   
//  864   
//  865   // If the item doesn't exist in NV memory, create and initialize it
//  866   status = osal_nv_item_init( ZCD_NV_PRECFGKEY, SEC_KEY_LEN, zgPreConfigKey );
//  867   if ( status == ZSUCCESS )
//  868   {
//  869     if ( setDefault )
//  870     {
//  871       // Write the default value back to NV
//  872       status =  osal_nv_write( ZCD_NV_PRECFGKEY, 0, SEC_KEY_LEN, zgPreConfigKey );
//  873     }
//  874   }
//  875   
//  876   // clear local copy of default key
//  877   osal_memset(zgPreConfigKey, 0x00, SEC_KEY_LEN);
//  878 
//  879   return (status);
//  880 }
//  881 #endif
//  882 
//  883 /*********************************************************************
//  884  * @fn       zgUpgradeNVItems()
//  885  *
//  886  * @brief
//  887  *
//  888  *   Function that upgrades NV Items that have changed.
//  889  *
//  890  * @param   none
//  891  *
//  892  * @return  none
//  893  */
//  894 static void zgUpgradeNVItems( void )
//  895 {
//  896 #if defined ( ZCD_NV_POLL_RATE_OLD16 )
//  897   {
//  898     // This conversion will only happen if the old poll rate exists and
//  899     // the new poll rate doesn't exist.  It will read the old poll rate,
//  900     // convert it to the new poll rate, create the new poll rate NV item,
//  901     // then delete the old poll rate NV item.
//  902     uint16 oldNvLen;
//  903     uint16 newNvLen;
//  904 
//  905     // Use the length of the NV items to determine if they exist
//  906     oldNvLen = osal_nv_item_len( ZCD_NV_POLL_RATE_OLD16 );
//  907     newNvLen = osal_nv_item_len( ZCD_NV_POLL_RATE );
//  908     if ( (newNvLen == 0) && (oldNvLen == sizeof ( uint16 )) )
//  909     {
//  910       // The old poll rate exists, so read it and convert to the new 32 bit poll rate
//  911       uint16 oldPollRate;
//  912       osal_nv_read( ZCD_NV_POLL_RATE_OLD16, 0, sizeof(uint16), &oldPollRate );
//  913       zgPollRate = (uint32)oldPollRate;
//  914       osal_nv_item_init( ZCD_NV_POLL_RATE, sizeof(zgPollRate), &zgPollRate );
//  915       osal_nv_delete( ZCD_NV_POLL_RATE_OLD16, oldNvLen );
//  916     }
//  917   }
//  918 #endif // ZCD_NV_POLL_RATE_OLD16
//  919 }
//  920 
//  921 /*********************************************************************
//  922  * @fn       zgUpgradeSecurityNVItems()
//  923  *
//  924  * @brief
//  925  *
//  926  *   Function that upgrades NV Items that have changed.
//  927  *
//  928  * @param   none
//  929  *
//  930  * @return  none
//  931  */
//  932 #ifdef UPGRADE_SECURITY_NV_ITEMS
//  933 static void zgUpgradeSecurityNVItems( void )
//  934 {
//  935   //Nv configuration to allow upgrade from HA1.2 to Z3.0
//  936 
//  937   uint8 isOnANetwork = 1;
//  938   //Read bdb attribute
//  939   if(osal_nv_read(ZCD_NV_BDBNODEISONANETWORK, 0, sizeof(uint8), &isOnANetwork) == SUCCESS)
//  940   {
//  941     //After upgrade, this parameter will be 0, then update properly as it is in a network.
//  942     //If the device was not in a network and is upgraded, the BDB will handle the network 
//  943     //configuration status and will performing FN reset.
//  944     
//  945     nwkSecMaterialDesc_t  nwkSecMaterialDesc;
//  946     nwkActiveKeyItems     keyItems;
//  947     uint8                 keyAttributes;
//  948     uint8                 tempKey[SEC_KEY_LEN];
//  949     
//  950     osal_memset(tempKey, 0x00, SEC_KEY_LEN);
//  951     
//  952     //Get the network frame counter from old NV item, also check if old key exists.
//  953     //if it doesn't, we can assume that this is factory new Z3.0 device instead of 
//  954     //upgraded ZHA 1.2 device
//  955     osal_nv_read( ZCD_NV_NWKKEY, 0, sizeof( nwkActiveKeyItems ),(void *)&keyItems );
//  956     
//  957     if( osal_memcmp(tempKey, keyItems.active.key, SEC_KEY_LEN) )
//  958     {
//  959       // device is factory new, don't do anything 
//  960     }
//  961     // else if node is not on a network currently and is not factory new Z3.0 device, 
//  962     // it must be ZHA 1.2 -> Z3.0.1 upgraded device
//  963     else if(!isOnANetwork)
//  964     {
//  965       //If none of these parameters can be configured by Nv operations BDB will be able to initialize or handle.
//  966       
//  967       //set bdbNodeIsOnANetwork attribute to 1 indicating that we need to resume our network state
//  968       isOnANetwork = 0x01;
//  969       osal_nv_write( ZCD_NV_BDBNODEISONANETWORK, 0, sizeof(uint8), &isOnANetwork );
//  970       
//  971       //Set the network frame counter in new NV item, frame counter will be incremented by 1000+250 in ZDApp_RestoreNwkSecMaterial() 
//  972       //to ensure that its outgoing packets can be used by devices in its previous network
//  973       nwkSecMaterialDesc.FrameCounter = keyItems.frameCounter; 
//  974       
//  975       //Retrieve Extended PANID from NIB in NV
//  976       osal_nv_read( ZCD_NV_NIB, osal_offsetof(nwkIB_t,extendedPANID), Z_EXTADDR_LEN, &nwkSecMaterialDesc.extendedPanID );
//  977       
//  978       //Set the BDB network security material, BDB state machine will restore network state if this is a valid entry
//  979       osal_nv_write( ZCD_NV_NWK_SEC_MATERIAL_TABLE_START, 0, sizeof(nwkSecMaterialDesc_t), &nwkSecMaterialDesc );  
//  980       
//  981       //indicate to BDB that our previous nwk was non-R21, so don't expect TC Link Key exchange
//  982       keyAttributes = ZG_NON_R21_NWK_JOINED;
//  983       osal_nv_write(ZCD_NV_TCLK_TABLE_START, osal_offsetof(APSME_TCLKDevEntry_t,keyAttributes), sizeof(uint8), &keyAttributes); 
//  984     }
//  985   }
//  986 }
//  987 #endif // UPGRADE_SECURITY_NV_ITEMS
//  988 /*********************************************************************
//  989 *********************************************************************/
// 
// 870 bytes in segment BANKED_CODE
//  30 bytes in segment BANK_RELAYS
// 330 bytes in segment CODE_C
//  68 bytes in segment XDATA_I
//  68 bytes in segment XDATA_ID
//  42 bytes in segment XDATA_Z
// 
// 428 bytes of CODE     memory
// 870 bytes of HUGECODE memory
// 110 bytes of XDATA    memory
//
//Errors: none
//Warnings: none
