///////////////////////////////////////////////////////////////////////////////
//
// IAR C/C++ Compiler V10.30.1.6000 for 8051              19/Apr/2021  17:59:54
// Copyright 2004-2018 IAR Systems AB.
// Evaluation license - IAR Embedded Workbench for 8051, Evaluation edition 10.30
//
//    Core               =  plain
//    Code model         =  banked
//    Data model         =  large
//    Calling convention =  xdata reentrant
//    Constant location  =  data_rom
//    Dptr setup         =  1,16
//                          
//    Source file        =  
//        C:\Texas Instruments\Z-Stack 3.0.2-20210417T211827Z-001\Z-Stack
//        3.0.2\Z-Stack 3.0.2\Components\stack\GP\gp_proxyTbl.c
//    Command line       =  
//        -f C:\users\slavko\Temp\EW6976.tmp ("C:\Texas Instruments\Z-Stack
//        3.0.2-20210417T211827Z-001\Z-Stack 3.0.2\Z-Stack
//        3.0.2\Components\stack\GP\gp_proxyTbl.c" -D BDB_REPORTING -D SECURE=1
//        -D TC_LINKKEY_JOIN -D NV_INIT -D NV_RESTORE -D xZTOOL_P1 -D xMT_TASK
//        -D xMT_APP_FUNC -D xMT_SYS_FUNC -D xMT_ZDO_FUNC -D xMT_ZDO_MGMT -D
//        xMT_APP_CNF_FUNC -D LCD_SUPPORTED=DEBUG -D MULTICAST_ENABLED=FALSE -D
//        ZCL_READ -D ZCL_DISCOVER -D ZCL_WRITE -D ZCL_BASIC -D ZCL_IDENTIFY -D
//        ZCL_ON_OFF -D ZCL_SCENES -D ZCL_GROUPS -D ZCL_LEVEL_CTRL -lC
//        "C:\Texas Instruments\Z-Stack 3.0.2-20210417T211827Z-001\Z-Stack
//        3.0.2\Z-Stack
//        3.0.2\Projects\zstack\HomeAutomation\SampleLight\CC2530DB\CoordinatorEB\List"
//        -lA "C:\Texas Instruments\Z-Stack 3.0.2-20210417T211827Z-001\Z-Stack
//        3.0.2\Z-Stack
//        3.0.2\Projects\zstack\HomeAutomation\SampleLight\CC2530DB\CoordinatorEB\List"
//        --diag_suppress Pe001,Pa010 -o "C:\Texas Instruments\Z-Stack
//        3.0.2-20210417T211827Z-001\Z-Stack 3.0.2\Z-Stack
//        3.0.2\Projects\zstack\HomeAutomation\SampleLight\CC2530DB\CoordinatorEB\Obj"
//        -e --debug --core=plain --dptr=16,1 --data_model=large
//        --code_model=banked --calling_convention=xdata_reentrant
//        --place_constants=data_rom --nr_virtual_regs 16 -f "C:\Texas
//        Instruments\Z-Stack 3.0.2-20210417T211827Z-001\Z-Stack 3.0.2\Z-Stack
//        3.0.2\Projects\zstack\HomeAutomation\SampleLight\CC2530DB\..\..\..\Tools\CC2530DB\f8wCoord.cfg"
//        (-DCPU32MHZ -DROOT=__near_func -DMAC_CFG_APP_PENDING_QUEUE=TRUE
//        -DMAC_CFG_TX_DATA_MAX=5 -DMAC_CFG_TX_MAX=8 -DMAC_CFG_RX_MAX=5
//        -DZDO_COORDINATOR -DRTR_NWK) -f "C:\Texas Instruments\Z-Stack
//        3.0.2-20210417T211827Z-001\Z-Stack 3.0.2\Z-Stack
//        3.0.2\Projects\zstack\HomeAutomation\SampleLight\CC2530DB\..\..\..\Tools\CC2530DB\f8wConfig.cfg"
//        (-DZIGBEEPRO -DSECURE=1 -DZG_SECURE_DYNAMIC=0 -DREFLECTOR
//        -DDEFAULT_CHANLIST=0x00000800 -DZDAPP_CONFIG_PAN_ID=0xFFFF
//        -DNWK_START_DELAY=100 -DEXTENDED_JOINING_RANDOM_MASK=0x007F
//        -DBEACON_REQUEST_DELAY=100 -DBEACON_REQ_DELAY_MASK=0x00FF
//        -DLINK_STATUS_JITTER_MASK=0x007F -DROUTE_EXPIRY_TIME=30
//        -DAPSC_ACK_WAIT_DURATION_POLLED=3000 -DNWK_INDIRECT_MSG_TIMEOUT=7
//        -DMAX_RREQ_ENTRIES=8 -DAPSC_MAX_FRAME_RETRIES=3
//        -DNWK_MAX_DATA_RETRIES=2 -DMAX_POLL_FAILURE_RETRIES=2 -DMAX_BCAST=9
//        -DAPS_MAX_GROUPS=16 -DMAX_RTG_ENTRIES=40 -DNWK_MAX_BINDING_ENTRIES=4
//        -DMAX_BINDING_CLUSTER_IDS=4 -DDEFAULT_KEY={0}
//        -DMAC_MAX_FRAME_SIZE=116 -DZDNWKMGR_MIN_TRANSMISSIONS=20
//        "-DCONST=const __code" -DGENERIC=__generic -DRFD_RCVC_ALWAYS_ON=FALSE
//        -DPOLL_RATE=1000 -DQUEUED_POLL_RATE=100 -DRESPONSE_POLL_RATE=100
//        -DREJOIN_POLL_RATE=440 -DREJOIN_BACKOFF=900000 -DREJOIN_SCAN=900000
//        -DENABLE_LED4_DISABLE_S1) -f "C:\Texas Instruments\Z-Stack
//        3.0.2-20210417T211827Z-001\Z-Stack 3.0.2\Z-Stack
//        3.0.2\Projects\zstack\HomeAutomation\SampleLight\CC2530DB\..\..\..\Tools\CC2530DB\f8wZCL.cfg"
//        -I "C:\Texas Instruments\Z-Stack 3.0.2-20210417T211827Z-001\Z-Stack
//        3.0.2\Z-Stack
//        3.0.2\Projects\zstack\HomeAutomation\SampleLight\CC2530DB\" -I
//        "C:\Texas Instruments\Z-Stack 3.0.2-20210417T211827Z-001\Z-Stack
//        3.0.2\Z-Stack
//        3.0.2\Projects\zstack\HomeAutomation\SampleLight\CC2530DB\..\Source\"
//        -I "C:\Texas Instruments\Z-Stack 3.0.2-20210417T211827Z-001\Z-Stack
//        3.0.2\Z-Stack
//        3.0.2\Projects\zstack\HomeAutomation\SampleLight\CC2530DB\..\..\Source\"
//        -I "C:\Texas Instruments\Z-Stack 3.0.2-20210417T211827Z-001\Z-Stack
//        3.0.2\Z-Stack
//        3.0.2\Projects\zstack\HomeAutomation\SampleLight\CC2530DB\..\..\..\ZMain\TI2530DB\"
//        -I "C:\Texas Instruments\Z-Stack 3.0.2-20210417T211827Z-001\Z-Stack
//        3.0.2\Z-Stack
//        3.0.2\Projects\zstack\HomeAutomation\SampleLight\CC2530DB\..\..\..\..\..\Components\hal\include\"
//        -I "C:\Texas Instruments\Z-Stack 3.0.2-20210417T211827Z-001\Z-Stack
//        3.0.2\Z-Stack
//        3.0.2\Projects\zstack\HomeAutomation\SampleLight\CC2530DB\..\..\..\..\..\Components\hal\target\CC2530EB\"
//        -I "C:\Texas Instruments\Z-Stack 3.0.2-20210417T211827Z-001\Z-Stack
//        3.0.2\Z-Stack
//        3.0.2\Projects\zstack\HomeAutomation\SampleLight\CC2530DB\..\..\..\..\..\Components\mac\include\"
//        -I "C:\Texas Instruments\Z-Stack 3.0.2-20210417T211827Z-001\Z-Stack
//        3.0.2\Z-Stack
//        3.0.2\Projects\zstack\HomeAutomation\SampleLight\CC2530DB\..\..\..\..\..\Components\mac\high_level\"
//        -I "C:\Texas Instruments\Z-Stack 3.0.2-20210417T211827Z-001\Z-Stack
//        3.0.2\Z-Stack
//        3.0.2\Projects\zstack\HomeAutomation\SampleLight\CC2530DB\..\..\..\..\..\Components\mac\low_level\srf04\"
//        -I "C:\Texas Instruments\Z-Stack 3.0.2-20210417T211827Z-001\Z-Stack
//        3.0.2\Z-Stack
//        3.0.2\Projects\zstack\HomeAutomation\SampleLight\CC2530DB\..\..\..\..\..\Components\mac\low_level\srf04\single_chip\"
//        -I "C:\Texas Instruments\Z-Stack 3.0.2-20210417T211827Z-001\Z-Stack
//        3.0.2\Z-Stack
//        3.0.2\Projects\zstack\HomeAutomation\SampleLight\CC2530DB\..\..\..\..\..\Components\mt\"
//        -I "C:\Texas Instruments\Z-Stack 3.0.2-20210417T211827Z-001\Z-Stack
//        3.0.2\Z-Stack
//        3.0.2\Projects\zstack\HomeAutomation\SampleLight\CC2530DB\..\..\..\..\..\Components\osal\include\"
//        -I "C:\Texas Instruments\Z-Stack 3.0.2-20210417T211827Z-001\Z-Stack
//        3.0.2\Z-Stack
//        3.0.2\Projects\zstack\HomeAutomation\SampleLight\CC2530DB\..\..\..\..\..\Components\services\saddr\"
//        -I "C:\Texas Instruments\Z-Stack 3.0.2-20210417T211827Z-001\Z-Stack
//        3.0.2\Z-Stack
//        3.0.2\Projects\zstack\HomeAutomation\SampleLight\CC2530DB\..\..\..\..\..\Components\services\sdata\"
//        -I "C:\Texas Instruments\Z-Stack 3.0.2-20210417T211827Z-001\Z-Stack
//        3.0.2\Z-Stack
//        3.0.2\Projects\zstack\HomeAutomation\SampleLight\CC2530DB\..\..\..\..\..\Components\stack\af\"
//        -I "C:\Texas Instruments\Z-Stack 3.0.2-20210417T211827Z-001\Z-Stack
//        3.0.2\Z-Stack
//        3.0.2\Projects\zstack\HomeAutomation\SampleLight\CC2530DB\..\..\..\..\..\Components\stack\bdb\"
//        -I "C:\Texas Instruments\Z-Stack 3.0.2-20210417T211827Z-001\Z-Stack
//        3.0.2\Z-Stack
//        3.0.2\Projects\zstack\HomeAutomation\SampleLight\CC2530DB\..\..\..\..\..\Components\stack\gp\"
//        -I "C:\Texas Instruments\Z-Stack 3.0.2-20210417T211827Z-001\Z-Stack
//        3.0.2\Z-Stack
//        3.0.2\Projects\zstack\HomeAutomation\SampleLight\CC2530DB\..\..\..\..\..\Components\stack\nwk\"
//        -I "C:\Texas Instruments\Z-Stack 3.0.2-20210417T211827Z-001\Z-Stack
//        3.0.2\Z-Stack
//        3.0.2\Projects\zstack\HomeAutomation\SampleLight\CC2530DB\..\..\..\..\..\Components\stack\sapi\"
//        -I "C:\Texas Instruments\Z-Stack 3.0.2-20210417T211827Z-001\Z-Stack
//        3.0.2\Z-Stack
//        3.0.2\Projects\zstack\HomeAutomation\SampleLight\CC2530DB\..\..\..\..\..\Components\stack\sec\"
//        -I "C:\Texas Instruments\Z-Stack 3.0.2-20210417T211827Z-001\Z-Stack
//        3.0.2\Z-Stack
//        3.0.2\Projects\zstack\HomeAutomation\SampleLight\CC2530DB\..\..\..\..\..\Components\stack\sys\"
//        -I "C:\Texas Instruments\Z-Stack 3.0.2-20210417T211827Z-001\Z-Stack
//        3.0.2\Z-Stack
//        3.0.2\Projects\zstack\HomeAutomation\SampleLight\CC2530DB\..\..\..\..\..\Components\stack\zcl\"
//        -I "C:\Texas Instruments\Z-Stack 3.0.2-20210417T211827Z-001\Z-Stack
//        3.0.2\Z-Stack
//        3.0.2\Projects\zstack\HomeAutomation\SampleLight\CC2530DB\..\..\..\..\..\Components\stack\zdo\"
//        -I "C:\Texas Instruments\Z-Stack 3.0.2-20210417T211827Z-001\Z-Stack
//        3.0.2\Z-Stack
//        3.0.2\Projects\zstack\HomeAutomation\SampleLight\CC2530DB\..\..\..\..\..\Components\zmac\"
//        -I "C:\Texas Instruments\Z-Stack 3.0.2-20210417T211827Z-001\Z-Stack
//        3.0.2\Z-Stack
//        3.0.2\Projects\zstack\HomeAutomation\SampleLight\CC2530DB\..\..\..\..\..\Components\zmac\f8w\"
//        -Ohz --require_prototypes)
//    Locale             =  English_USA.1252
//    List file          =  
//        C:\Texas Instruments\Z-Stack 3.0.2-20210417T211827Z-001\Z-Stack
//        3.0.2\Z-Stack
//        3.0.2\Projects\zstack\HomeAutomation\SampleLight\CC2530DB\CoordinatorEB\List\gp_proxyTbl.s51
//
///////////////////////////////////////////////////////////////////////////////

        NAME gp_proxyTbl

        RTMODEL "__SystemLibrary", "CLib"
        RTMODEL "__calling_convention", "xdata_reentrant"
        RTMODEL "__code_model", "banked"
        RTMODEL "__core", "plain"
        RTMODEL "__data_model", "large"
        RTMODEL "__dptr_size", "16"
        RTMODEL "__extended_stack", "disabled"
        RTMODEL "__location_for_constants", "data"
        RTMODEL "__number_of_dptrs", "1"
        RTMODEL "__register_banks", "*"
        RTMODEL "__rt_version", "1"

        RSEG DOVERLAY:DATA:NOROOT(0)
        RSEG IOVERLAY:IDATA:NOROOT(0)
        RSEG ISTACK:IDATA:NOROOT(0)
        RSEG PSTACK:XDATA:NOROOT(0)
        RSEG XSTACK:XDATA:NOROOT(0)

        EXTERN ?V0
        EXTERN ?V1
        EXTERN ?V2
        EXTERN ?V3
        EXTERN ?V4
        EXTERN ?V5
        EXTERN ?V6
        EXTERN ?V8
        EXTERN ?V9
        EXTERN ?V10
        EXTERN ?V12
        EXTERN ?V13
        EXTERN ?V14
        EXTERN ?V15
        EXTERN ?V7
        EXTERN ?V11
        EXTERN ?ADD_XSTACK_DISP0_16
        EXTERN ?ALLOC_XSTACK8
        EXTERN ?BANKED_ENTER_XDATA
        EXTERN ?BANKED_LEAVE_XDATA
        EXTERN ?BDISPATCH
        EXTERN ?DEALLOC_XSTACK8
        EXTERN ?L_AND_X
        EXTERN ?L_MOV_X
        EXTERN ?MOVE_LONG8_XDATA_XDATA
        EXTERN ?PUSH_XSTACK_I_FOUR
        EXTERN ?PUSH_XSTACK_I_ONE
        EXTERN ?PUSH_XSTACK_I_THREE
        EXTERN ?PUSH_XSTACK_I_TWO
        EXTERN ?US_DIV_MOD
        EXTERN ?US_SHR
        EXTERN ?XSP
        EXTERN ?XSTACK_DISP0_8
        EXTERN ?XSTACK_DISP100_8
        EXTERN ?XSTACK_DISP101_8
        EXTERN ?XSTACK_DISP102_8
        EXTERN __INIT_XDATA_Z

        PUBLIC `??gp_CheckAnnouncedDevice::?relay`
        FUNCTION `??gp_CheckAnnouncedDevice::?relay`,0203H
        PUBLIC `??gp_PairingUpdateProxyTlb::?relay`
        FUNCTION `??gp_PairingUpdateProxyTlb::?relay`,0203H
        FUNCTION `??gp_PopulateProxyTblEntry::?relay`,0203H
        PUBLIC `??gp_UpdateProxyTlb::?relay`
        FUNCTION `??gp_UpdateProxyTlb::?relay`,0203H
        FUNCTION `??gp_pairingSetProxyTblOptions::?relay`,0203H
        PUBLIC `??pt_ZclReadGetProxyEntry::?relay`
        FUNCTION `??pt_ZclReadGetProxyEntry::?relay`,0203H
        FUNCTION `??pt_addSinkGroup::?relay`,0203H
        FUNCTION `??pt_updateLightweightUnicastSink::?relay`,0203H
        PUBLIC `??zclGpp_ReadWriteAttrCB::?relay`
        FUNCTION `??zclGpp_ReadWriteAttrCB::?relay`,0203H
        PUBWEAK __Constant_10000
        PUBLIC aliasConflictAnnce
        PUBLIC gp_CheckAnnouncedDevice
        FUNCTION gp_CheckAnnouncedDevice,0a1203H
        ARGFRAME XSTACK, 0, STACK
        LOCFRAME XSTACK, 93, STACK
        PUBLIC gp_PairingUpdateProxyTlb
        FUNCTION gp_PairingUpdateProxyTlb,0a1203H
        ARGFRAME XSTACK, 0, STACK
        LOCFRAME XSTACK, 95, STACK
        FUNCTION gp_PopulateProxyTblEntry,0a1203H
        ARGFRAME XSTACK, 172, STACK
        ARGFRAME IOVERLAY, 0, STATIC
        ARGFRAME DOVERLAY, 0, STATIC
        LOCFRAME XSTACK, 18, STACK
        PUBLIC gp_UpdateProxyTlb
        FUNCTION gp_UpdateProxyTlb,0a1203H
        ARGFRAME XSTACK, 92, STACK
        ARGFRAME IOVERLAY, 0, STATIC
        ARGFRAME DOVERLAY, 0, STATIC
        LOCFRAME ISTACK, 1, STACK
        LOCFRAME XSTACK, 279, STACK
        FUNCTION gp_pairingSetProxyTblOptions,080203H
        ARGFRAME XSTACK, 92, STACK
        ARGFRAME IOVERLAY, 0, STATIC
        ARGFRAME DOVERLAY, 0, STATIC
        LOCFRAME ISTACK, 1, STACK
        LOCFRAME XSTACK, 18, STACK
        PUBLIC pt_ZclReadGetProxyEntry
        FUNCTION pt_ZclReadGetProxyEntry,0a1203H
        ARGFRAME XSTACK, 14, STACK
        ARGFRAME IOVERLAY, 0, STATIC
        ARGFRAME DOVERLAY, 0, STATIC
        LOCFRAME ISTACK, 1, STACK
        LOCFRAME XSTACK, 173, STACK
        FUNCTION pt_addSinkGroup,0a1203H
        ARGFRAME XSTACK, 275, STACK
        ARGFRAME IOVERLAY, 0, STATIC
        ARGFRAME DOVERLAY, 0, STATIC
        LOCFRAME XSTACK, 148, STACK
        FUNCTION pt_updateLightweightUnicastSink,0a1203H
        ARGFRAME XSTACK, 275, STACK
        ARGFRAME IOVERLAY, 0, STATIC
        ARGFRAME DOVERLAY, 0, STATIC
        LOCFRAME XSTACK, 168, STACK
        PUBLIC zclGpp_ReadWriteAttrCB
        FUNCTION zclGpp_ReadWriteAttrCB,0a1203H
        ARGFRAME XSTACK, 4, STACK
        LOCFRAME XSTACK, 14, STACK
        
          CFI Names cfiNames0
          CFI StackFrame CFA_SP SP IDATA
          CFI StackFrame CFA_PSP16 PSP16 XDATA
          CFI StackFrame CFA_XSP16 XSP16 XDATA
          CFI StaticOverlayFrame CFA_IOVERLAY IOVERLAY
          CFI StaticOverlayFrame CFA_DOVERLAY DOVERLAY
          CFI Resource `PSW.CY`:1, `B.BR0`:1, `B.BR1`:1, `B.BR2`:1, `B.BR3`:1
          CFI Resource `B.BR4`:1, `B.BR5`:1, `B.BR6`:1, `B.BR7`:1, `VB.BR8`:1
          CFI Resource `VB.BR9`:1, `VB.BR10`:1, `VB.BR11`:1, `VB.BR12`:1
          CFI Resource `VB.BR13`:1, `VB.BR14`:1, `VB.BR15`:1, VB:8, B:8, A:8
          CFI Resource PSW:8, DPL0:8, DPH0:8, R0:8, R1:8, R2:8, R3:8, R4:8, R5:8
          CFI Resource R6:8, R7:8, V0:8, V1:8, V2:8, V3:8, V4:8, V5:8, V6:8, V7:8
          CFI Resource V8:8, V9:8, V10:8, V11:8, V12:8, V13:8, V14:8, V15:8, SP:8
          CFI Resource PSPH:8, PSPL:8, PSP16:16, XSPH:8, XSPL:8, XSP16:16
          CFI VirtualResource ?RET:24
          CFI Resource ?BRET_EXT:8
          CFI VirtualResource ?RET_HIGH:8, ?RET_LOW:8
          CFI ResourceParts PSP16 PSPH, PSPL
          CFI ResourceParts XSP16 XSPH, XSPL
          CFI ResourceParts ?RET ?BRET_EXT, ?RET_HIGH, ?RET_LOW
          CFI EndNames cfiNames0
        
          CFI Common cfiCommon0 Using cfiNames0
          CFI CodeAlign 1
          CFI DataAlign -1
          CFI ReturnAddress ?RET CODE
          CFI CFA_DOVERLAY Used
          CFI CFA_IOVERLAY Used
          CFI CFA_SP SP+-3
          CFI CFA_PSP16 PSP16+0
          CFI CFA_XSP16 XSP16+0
          CFI `PSW.CY` SameValue
          CFI `B.BR0` SameValue
          CFI `B.BR1` SameValue
          CFI `B.BR2` SameValue
          CFI `B.BR3` SameValue
          CFI `B.BR4` SameValue
          CFI `B.BR5` SameValue
          CFI `B.BR6` SameValue
          CFI `B.BR7` SameValue
          CFI `VB.BR8` SameValue
          CFI `VB.BR9` SameValue
          CFI `VB.BR10` SameValue
          CFI `VB.BR11` SameValue
          CFI `VB.BR12` SameValue
          CFI `VB.BR13` SameValue
          CFI `VB.BR14` SameValue
          CFI `VB.BR15` SameValue
          CFI VB SameValue
          CFI B Undefined
          CFI A Undefined
          CFI PSW SameValue
          CFI DPL0 SameValue
          CFI DPH0 SameValue
          CFI R0 Undefined
          CFI R1 Undefined
          CFI R2 Undefined
          CFI R3 Undefined
          CFI R4 Undefined
          CFI R5 Undefined
          CFI R6 SameValue
          CFI R7 SameValue
          CFI V0 SameValue
          CFI V1 SameValue
          CFI V2 SameValue
          CFI V3 SameValue
          CFI V4 SameValue
          CFI V5 SameValue
          CFI V6 SameValue
          CFI V7 SameValue
          CFI V8 SameValue
          CFI V9 SameValue
          CFI V10 SameValue
          CFI V11 SameValue
          CFI V12 SameValue
          CFI V13 SameValue
          CFI V14 SameValue
          CFI V15 SameValue
          CFI PSPH Undefined
          CFI PSPL Undefined
          CFI XSPH Undefined
          CFI XSPL Undefined
          CFI ?RET Concat
          CFI ?BRET_EXT Frame(CFA_SP, 3)
          CFI ?RET_HIGH Frame(CFA_SP, 2)
          CFI ?RET_LOW Frame(CFA_SP, 1)
          CFI EndCommon cfiCommon0
        
        
          CFI Common cfiCommon1 Using cfiNames0
          CFI CodeAlign 1
          CFI DataAlign -1
          CFI ReturnAddress ?RET CODE
          CFI CFA_DOVERLAY Used
          CFI CFA_IOVERLAY Used
          CFI CFA_SP SP+-2
          CFI CFA_PSP16 PSP16+0
          CFI CFA_XSP16 XSP16+0
          CFI `PSW.CY` SameValue
          CFI `B.BR0` SameValue
          CFI `B.BR1` SameValue
          CFI `B.BR2` SameValue
          CFI `B.BR3` SameValue
          CFI `B.BR4` SameValue
          CFI `B.BR5` SameValue
          CFI `B.BR6` SameValue
          CFI `B.BR7` SameValue
          CFI `VB.BR8` SameValue
          CFI `VB.BR9` SameValue
          CFI `VB.BR10` SameValue
          CFI `VB.BR11` SameValue
          CFI `VB.BR12` SameValue
          CFI `VB.BR13` SameValue
          CFI `VB.BR14` SameValue
          CFI `VB.BR15` SameValue
          CFI VB SameValue
          CFI B SameValue
          CFI A SameValue
          CFI PSW SameValue
          CFI DPL0 SameValue
          CFI DPH0 SameValue
          CFI R0 SameValue
          CFI R1 SameValue
          CFI R2 SameValue
          CFI R3 SameValue
          CFI R4 SameValue
          CFI R5 SameValue
          CFI R6 SameValue
          CFI R7 SameValue
          CFI V0 SameValue
          CFI V1 SameValue
          CFI V2 SameValue
          CFI V3 SameValue
          CFI V4 SameValue
          CFI V5 SameValue
          CFI V6 SameValue
          CFI V7 SameValue
          CFI V8 SameValue
          CFI V9 SameValue
          CFI V10 SameValue
          CFI V11 SameValue
          CFI V12 SameValue
          CFI V13 SameValue
          CFI V14 SameValue
          CFI V15 SameValue
          CFI PSPH Undefined
          CFI PSPL Undefined
          CFI XSPH Undefined
          CFI XSPL Undefined
          CFI ?RET Concat
          CFI ?BRET_EXT SameValue
          CFI ?RET_HIGH Frame(CFA_SP, 2)
          CFI ?RET_LOW Frame(CFA_SP, 1)
          CFI EndCommon cfiCommon1
        
NLME_ReportAddressConflict SYMBOL "NLME_ReportAddressConflict"
`??NLME_ReportAddressConflict::?relay` SYMBOL "?relay", NLME_ReportAddressConflict
NLME_SendNetworkStatus SYMBOL "NLME_SendNetworkStatus"
`??NLME_SendNetworkStatus::?relay` SYMBOL "?relay", NLME_SendNetworkStatus
gp_ResetProxyBasicTblEntry SYMBOL "gp_ResetProxyBasicTblEntry"
`??gp_ResetProxyBasicTblEntry::?relay` SYMBOL "?relay", gp_ResetProxyBasicTblEntry
gp_getProxyTableByIndex SYMBOL "gp_getProxyTableByIndex"
`??gp_getProxyTableByIndex::?relay` SYMBOL "?relay", gp_getProxyTableByIndex
osal_memcmp         SYMBOL "osal_memcmp"
`??osal_memcmp::?relay` SYMBOL "?relay", osal_memcmp
osal_memcpy         SYMBOL "osal_memcpy"
`??osal_memcpy::?relay` SYMBOL "?relay", osal_memcpy
osal_memset         SYMBOL "osal_memset"
`??osal_memset::?relay` SYMBOL "?relay", osal_memset
osal_nv_read        SYMBOL "osal_nv_read"
`??osal_nv_read::?relay` SYMBOL "?relay", osal_nv_read
osal_nv_write       SYMBOL "osal_nv_write"
`??osal_nv_write::?relay` SYMBOL "?relay", osal_nv_write
osal_rand           SYMBOL "osal_rand"
`??osal_rand::?relay` SYMBOL "?relay", osal_rand
osal_start_timerEx  SYMBOL "osal_start_timerEx"
`??osal_start_timerEx::?relay` SYMBOL "?relay", osal_start_timerEx
gp_CheckAnnouncedDevice SYMBOL "gp_CheckAnnouncedDevice"
`??gp_CheckAnnouncedDevice::?relay` SYMBOL "?relay", gp_CheckAnnouncedDevice
gp_PairingUpdateProxyTlb SYMBOL "gp_PairingUpdateProxyTlb"
`??gp_PairingUpdateProxyTlb::?relay` SYMBOL "?relay", gp_PairingUpdateProxyTlb
gp_UpdateProxyTlb   SYMBOL "gp_UpdateProxyTlb"
`??gp_UpdateProxyTlb::?relay` SYMBOL "?relay", gp_UpdateProxyTlb
pt_ZclReadGetProxyEntry SYMBOL "pt_ZclReadGetProxyEntry"
`??pt_ZclReadGetProxyEntry::?relay` SYMBOL "?relay", pt_ZclReadGetProxyEntry
zclGpp_ReadWriteAttrCB SYMBOL "zclGpp_ReadWriteAttrCB"
`??zclGpp_ReadWriteAttrCB::?relay` SYMBOL "?relay", zclGpp_ReadWriteAttrCB

        EXTERN `??NLME_ReportAddressConflict::?relay`
        FUNCTION `??NLME_ReportAddressConflict::?relay`,00H
        EXTERN `??NLME_SendNetworkStatus::?relay`
        FUNCTION `??NLME_SendNetworkStatus::?relay`,00H
        EXTERN `??gp_ResetProxyBasicTblEntry::?relay`
        FUNCTION `??gp_ResetProxyBasicTblEntry::?relay`,00H
        EXTERN `??gp_getProxyTableByIndex::?relay`
        FUNCTION `??gp_getProxyTableByIndex::?relay`,00H
        EXTERN `??osal_memcmp::?relay`
        FUNCTION `??osal_memcmp::?relay`,00H
        EXTERN `??osal_memcpy::?relay`
        FUNCTION `??osal_memcpy::?relay`,00H
        EXTERN `??osal_memset::?relay`
        FUNCTION `??osal_memset::?relay`,00H
        EXTERN `??osal_nv_read::?relay`
        FUNCTION `??osal_nv_read::?relay`,00H
        EXTERN `??osal_nv_write::?relay`
        FUNCTION `??osal_nv_write::?relay`,00H
        EXTERN `??osal_rand::?relay`
        FUNCTION `??osal_rand::?relay`,00H
        EXTERN `??osal_start_timerEx::?relay`
        FUNCTION `??osal_start_timerEx::?relay`,00H
        EXTERN NLME_ReportAddressConflict
        FUNCTION NLME_ReportAddressConflict,0202H
        ARGFRAME ISTACK, 0, STACK
        ARGFRAME PSTACK, 0, STACK
        ARGFRAME XSTACK, 275, STACK
        ARGFRAME IOVERLAY, 0, STATIC
        ARGFRAME DOVERLAY, 0, STATIC
        EXTERN NLME_SendNetworkStatus
        FUNCTION NLME_SendNetworkStatus,0202H
        ARGFRAME ISTACK, 0, STACK
        ARGFRAME PSTACK, 0, STACK
        ARGFRAME XSTACK, 90, STACK
        ARGFRAME IOVERLAY, 0, STATIC
        ARGFRAME DOVERLAY, 0, STATIC
        EXTERN _NIB
        EXTERN gp_ResetProxyBasicTblEntry
        FUNCTION gp_ResetProxyBasicTblEntry,0202H
        ARGFRAME ISTACK, 0, STACK
        ARGFRAME PSTACK, 0, STACK
        ARGFRAME XSTACK, 275, STACK
        ARGFRAME IOVERLAY, 0, STATIC
        ARGFRAME DOVERLAY, 0, STATIC
        EXTERN gp_TaskID
        EXTERN gp_getProxyTableByIndex
        FUNCTION gp_getProxyTableByIndex,0202H
        ARGFRAME ISTACK, 0, STACK
        ARGFRAME PSTACK, 0, STACK
        ARGFRAME XSTACK, 275, STACK
        ARGFRAME IOVERLAY, 0, STATIC
        ARGFRAME DOVERLAY, 0, STATIC
        EXTERN osal_memcmp
        FUNCTION osal_memcmp,0202H
        ARGFRAME ISTACK, 0, STACK
        ARGFRAME PSTACK, 0, STACK
        ARGFRAME XSTACK, 278, STACK
        ARGFRAME IOVERLAY, 0, STATIC
        ARGFRAME DOVERLAY, 0, STATIC
        EXTERN osal_memcpy
        FUNCTION osal_memcpy,0202H
        ARGFRAME ISTACK, 0, STACK
        ARGFRAME PSTACK, 0, STACK
        ARGFRAME XSTACK, 278, STACK
        ARGFRAME IOVERLAY, 0, STATIC
        ARGFRAME DOVERLAY, 0, STATIC
        EXTERN osal_memset
        FUNCTION osal_memset,0202H
        ARGFRAME ISTACK, 0, STACK
        ARGFRAME PSTACK, 0, STACK
        ARGFRAME XSTACK, 92, STACK
        ARGFRAME IOVERLAY, 0, STATIC
        ARGFRAME DOVERLAY, 0, STATIC
        EXTERN osal_nv_read
        FUNCTION osal_nv_read,0202H
        ARGFRAME ISTACK, 0, STACK
        ARGFRAME PSTACK, 0, STACK
        ARGFRAME XSTACK, 279, STACK
        ARGFRAME IOVERLAY, 0, STATIC
        ARGFRAME DOVERLAY, 0, STATIC
        EXTERN osal_nv_write
        FUNCTION osal_nv_write,0202H
        ARGFRAME ISTACK, 0, STACK
        ARGFRAME PSTACK, 0, STACK
        ARGFRAME XSTACK, 279, STACK
        ARGFRAME IOVERLAY, 0, STATIC
        ARGFRAME DOVERLAY, 0, STATIC
        EXTERN osal_rand
        FUNCTION osal_rand,0202H
        ARGFRAME ISTACK, 0, STACK
        ARGFRAME PSTACK, 0, STACK
        ARGFRAME XSTACK, 89, STACK
        ARGFRAME IOVERLAY, 0, STATIC
        ARGFRAME DOVERLAY, 0, STATIC
        EXTERN osal_start_timerEx
        FUNCTION osal_start_timerEx,0202H
        ARGFRAME ISTACK, 0, STACK
        ARGFRAME PSTACK, 0, STACK
        ARGFRAME XSTACK, 93, STACK
        ARGFRAME IOVERLAY, 0, STATIC
        ARGFRAME DOVERLAY, 0, STATIC

// C:\Texas Instruments\Z-Stack 3.0.2-20210417T211827Z-001\Z-Stack 3.0.2\Z-Stack 3.0.2\Components\stack\GP\gp_proxyTbl.c
//    1 /**************************************************************************************************
//    2   Filename:       gp_proxyTbl.c
//    3   Revised:        $Date: 2016-02-25 11:51:49 -0700 (Thu, 25 Feb 2016) $
//    4   Revision:       $Revision: - $
//    5 
//    6   Description:    This file contains the implementation of the cGP stub.
//    7 
//    8 
//    9   Copyright 2006-2015 Texas Instruments Incorporated. All rights reserved.
//   10 
//   11   IMPORTANT: Your use of this Software is limited to those specific rights
//   12   granted under the terms of a software license agreement between the user
//   13   who downloaded the software, his/her employer (which must be your employer)
//   14   and Texas Instruments Incorporated (the "License").  You may not use this
//   15   Software unless you agree to abide by the terms of the License. The License
//   16   limits your use, and you acknowledge, that the Software may not be modified,
//   17   copied or distributed unless embedded on a Texas Instruments microcontroller
//   18   or used solely and exclusively in conjunction with a Texas Instruments radio
//   19   frequency transceiver, which is integrated into your product.  Other than for
//   20   the foregoing purpose, you may not use, reproduce, copy, prepare derivative
//   21   works of, modify, distribute, perform, display or sell this Software and/or
//   22   its documentation for any purpose.
//   23 
//   24   YOU FURTHER ACKNOWLEDGE AND AGREE THAT THE SOFTWARE AND DOCUMENTATION ARE
//   25   PROVIDED "AS IS" WITHOUT WARRANTY OF ANY KIND, EITHER EXPRESS OR IMPLIED,
//   26   INCLUDING WITHOUT LIMITATION, ANY WARRANTY OF MERCHANTABILITY, TITLE,
//   27   NON-INFRINGEMENT AND FITNESS FOR A PARTICULAR PURPOSE. IN NO EVENT SHALL
//   28   TEXAS INSTRUMENTS OR ITS LICENSORS BE LIABLE OR OBLIGATED UNDER CONTRACT,
//   29   NEGLIGENCE, STRICT LIABILITY, CONTRIBUTION, BREACH OF WARRANTY, OR OTHER
//   30   LEGAL EQUITABLE THEORY ANY DIRECT OR INDIRECT DAMAGES OR EXPENSES
//   31   INCLUDING BUT NOT LIMITED TO ANY INCIDENTAL, SPECIAL, INDIRECT, PUNITIVE
//   32   OR CONSEQUENTIAL DAMAGES, LOST PROFITS OR LOST DATA, COST OF PROCUREMENT
//   33   OF SUBSTITUTE GOODS, TECHNOLOGY, SERVICES, OR ANY CLAIMS BY THIRD PARTIES
//   34   (INCLUDING BUT NOT LIMITED TO ANY DEFENSE THEREOF), OR OTHER SIMILAR COSTS.
//   35 
//   36   Should you have any questions regarding your right to use this Software,
//   37   contact Texas Instruments Incorporated at www.TI.com.
//   38 **************************************************************************************************/
//   39 
//   40 
//   41 
//   42 /*********************************************************************
//   43  * INCLUDES
//   44  */
//   45    
//   46 #include "ZGlobals.h"
//   47 #include "ZDObject.h"
//   48 #include "nwk_util.h"   
//   49 #include "ZComDef.h"
//   50 #include "cGP_stub.h"
//   51 #include "gp_common.h"
//   52 #include "gp_interface.h"
//   53 #include "zcl_green_power.h"
//   54 #include "OSAL.h"
//   55 
//   56 #if !defined (DISABLE_GREENPOWER_BASIC_PROXY) && (ZG_BUILD_RTR_TYPE)
//   57    
//   58  /*********************************************************************
//   59  * MACROS
//   60  */ 
//   61 
//   62  /*********************************************************************
//   63  * CONSTANTS
//   64  */
//   65 
//   66 /*********************************************************************
//   67  * TYPEDEFS
//   68  */
//   69    
//   70  /*********************************************************************
//   71  * GLOBAL VARIABLES
//   72  */

        RSEG XDATA_Z:XDATA:NOROOT(0)
        DATA8
//   73 ZDO_DeviceAnnce_t aliasConflictAnnce;
aliasConflictAnnce:
        DS 11
        REQUIRE __INIT_XDATA_Z
//   74 
//   75  /*********************************************************************
//   76  * EXTERNAL VARIABLES
//   77  */
//   78 
//   79 /*********************************************************************
//   80  * EXTERNAL FUNCTIONS
//   81  */
//   82 
//   83 /*********************************************************************
//   84  * LOCAL VARIABLES
//   85  */
//   86 
//   87  /*********************************************************************
//   88  * LOCAL FUNCTIONS
//   89  */
//   90 static void gp_PopulateProxyTblEntry( uint8* pData, uint8 size, uint8* pTblEntryVector, uint8* vectorLen );
//   91 static uint8 pt_getAlias( uint8* pNew );
//   92 static uint8 pt_getSecurity( uint8* pNew );
//   93 static uint8 pt_getSecFrameCounterCapabilities( uint8* pNew );
//   94 static uint8 pt_updateLightweightUnicastSink( uint8* pNew, uint8* pCurr, uint8 addSink );
//   95 static uint8 pt_addSinkGroup( uint8* pNew, uint8* pCurr );
//   96 static uint8 pt_lookForGpd( uint16 currProxyEntryId, uint8* pNew );
//   97 
//   98 /*********************************************************************
//   99  * PUBLIC FUNCTIONS
//  100  *********************************************************************/
//  101 
//  102 /*********************************************************************
//  103  * @fn          pt_ZclReadGetProxyEntry
//  104  *
//  105  * @brief       Populate the given item data
//  106  *
//  107  * @param       nvId - NV entry to read
//  108  *              pData - Pointer to OTA message payload
//  109  *              len - Lenght of the payload
//  110  *
//  111  * @return
//  112  */

        RSEG BANKED_CODE:HUGECODE:NOROOT(0)
//  113 uint8 pt_ZclReadGetProxyEntry( uint16 nvId, uint8* pData, uint8* len )
pt_ZclReadGetProxyEntry:
          CFI Block cfiBlock0 Using cfiCommon0
          CFI Function pt_ZclReadGetProxyEntry
        CODE
//  114 {
        FUNCALL pt_ZclReadGetProxyEntry, gp_getProxyTableByIndex
        LOCFRAME ISTACK, 0, STACK
        LOCFRAME PSTACK, 0, STACK
        LOCFRAME XSTACK, 170, STACK
        LOCFRAME IOVERLAY, 0, STATIC
        LOCFRAME DOVERLAY, 0, STATIC
        ARGFRAME ISTACK, 0, STACK
        ARGFRAME PSTACK, 0, STACK
        ARGFRAME XSTACK, 170, STACK
        ARGFRAME IOVERLAY, 0, STATIC
        ARGFRAME DOVERLAY, 0, STATIC
        FUNCALL pt_ZclReadGetProxyEntry, osal_memcpy
        LOCFRAME ISTACK, 0, STACK
        LOCFRAME PSTACK, 0, STACK
        LOCFRAME XSTACK, 173, STACK
        LOCFRAME IOVERLAY, 0, STATIC
        LOCFRAME DOVERLAY, 0, STATIC
        ARGFRAME ISTACK, 0, STACK
        ARGFRAME PSTACK, 0, STACK
        ARGFRAME XSTACK, 173, STACK
        ARGFRAME IOVERLAY, 0, STATIC
        ARGFRAME DOVERLAY, 0, STATIC
        FUNCALL pt_ZclReadGetProxyEntry, osal_memcpy
        LOCFRAME ISTACK, 0, STACK
        LOCFRAME PSTACK, 0, STACK
        LOCFRAME XSTACK, 173, STACK
        LOCFRAME IOVERLAY, 0, STATIC
        LOCFRAME DOVERLAY, 0, STATIC
        ARGFRAME ISTACK, 0, STACK
        ARGFRAME PSTACK, 0, STACK
        ARGFRAME XSTACK, 173, STACK
        ARGFRAME IOVERLAY, 0, STATIC
        ARGFRAME DOVERLAY, 0, STATIC
        FUNCALL pt_ZclReadGetProxyEntry, gp_PopulateProxyTblEntry
        LOCFRAME ISTACK, 0, STACK
        LOCFRAME PSTACK, 0, STACK
        LOCFRAME XSTACK, 172, STACK
        LOCFRAME IOVERLAY, 0, STATIC
        LOCFRAME DOVERLAY, 0, STATIC
        ARGFRAME ISTACK, 0, STACK
        ARGFRAME PSTACK, 0, STACK
        ARGFRAME XSTACK, 172, STACK
        ARGFRAME IOVERLAY, 0, STATIC
        ARGFRAME DOVERLAY, 0, STATIC
        FUNCALL pt_ZclReadGetProxyEntry, gp_PopulateProxyTblEntry
        LOCFRAME ISTACK, 0, STACK
        LOCFRAME PSTACK, 0, STACK
        LOCFRAME XSTACK, 172, STACK
        LOCFRAME IOVERLAY, 0, STATIC
        LOCFRAME DOVERLAY, 0, STATIC
        ARGFRAME ISTACK, 0, STACK
        ARGFRAME PSTACK, 0, STACK
        ARGFRAME XSTACK, 172, STACK
        ARGFRAME IOVERLAY, 0, STATIC
        ARGFRAME DOVERLAY, 0, STATIC
        FUNCALL pt_ZclReadGetProxyEntry, gp_PopulateProxyTblEntry
        LOCFRAME ISTACK, 0, STACK
        LOCFRAME PSTACK, 0, STACK
        LOCFRAME XSTACK, 172, STACK
        LOCFRAME IOVERLAY, 0, STATIC
        LOCFRAME DOVERLAY, 0, STATIC
        ARGFRAME ISTACK, 0, STACK
        ARGFRAME PSTACK, 0, STACK
        ARGFRAME XSTACK, 172, STACK
        ARGFRAME IOVERLAY, 0, STATIC
        ARGFRAME DOVERLAY, 0, STATIC
        FUNCALL pt_ZclReadGetProxyEntry, gp_PopulateProxyTblEntry
        LOCFRAME ISTACK, 0, STACK
        LOCFRAME PSTACK, 0, STACK
        LOCFRAME XSTACK, 172, STACK
        LOCFRAME IOVERLAY, 0, STATIC
        LOCFRAME DOVERLAY, 0, STATIC
        ARGFRAME ISTACK, 0, STACK
        ARGFRAME PSTACK, 0, STACK
        ARGFRAME XSTACK, 172, STACK
        ARGFRAME IOVERLAY, 0, STATIC
        ARGFRAME DOVERLAY, 0, STATIC
        FUNCALL pt_ZclReadGetProxyEntry, gp_PopulateProxyTblEntry
        LOCFRAME ISTACK, 0, STACK
        LOCFRAME PSTACK, 0, STACK
        LOCFRAME XSTACK, 172, STACK
        LOCFRAME IOVERLAY, 0, STATIC
        LOCFRAME DOVERLAY, 0, STATIC
        ARGFRAME ISTACK, 0, STACK
        ARGFRAME PSTACK, 0, STACK
        ARGFRAME XSTACK, 172, STACK
        ARGFRAME IOVERLAY, 0, STATIC
        ARGFRAME DOVERLAY, 0, STATIC
        FUNCALL pt_ZclReadGetProxyEntry, gp_PopulateProxyTblEntry
        LOCFRAME ISTACK, 0, STACK
        LOCFRAME PSTACK, 0, STACK
        LOCFRAME XSTACK, 172, STACK
        LOCFRAME IOVERLAY, 0, STATIC
        LOCFRAME DOVERLAY, 0, STATIC
        ARGFRAME ISTACK, 0, STACK
        ARGFRAME PSTACK, 0, STACK
        ARGFRAME XSTACK, 172, STACK
        ARGFRAME IOVERLAY, 0, STATIC
        ARGFRAME DOVERLAY, 0, STATIC
        FUNCALL pt_ZclReadGetProxyEntry, gp_PopulateProxyTblEntry
        LOCFRAME ISTACK, 0, STACK
        LOCFRAME PSTACK, 0, STACK
        LOCFRAME XSTACK, 172, STACK
        LOCFRAME IOVERLAY, 0, STATIC
        LOCFRAME DOVERLAY, 0, STATIC
        ARGFRAME ISTACK, 0, STACK
        ARGFRAME PSTACK, 0, STACK
        ARGFRAME XSTACK, 172, STACK
        ARGFRAME IOVERLAY, 0, STATIC
        ARGFRAME DOVERLAY, 0, STATIC
        FUNCALL pt_ZclReadGetProxyEntry, osal_memcmp
        LOCFRAME ISTACK, 0, STACK
        LOCFRAME PSTACK, 0, STACK
        LOCFRAME XSTACK, 173, STACK
        LOCFRAME IOVERLAY, 0, STATIC
        LOCFRAME DOVERLAY, 0, STATIC
        ARGFRAME ISTACK, 0, STACK
        ARGFRAME PSTACK, 0, STACK
        ARGFRAME XSTACK, 173, STACK
        ARGFRAME IOVERLAY, 0, STATIC
        ARGFRAME DOVERLAY, 0, STATIC
        FUNCALL pt_ZclReadGetProxyEntry, osal_memcpy
        LOCFRAME ISTACK, 0, STACK
        LOCFRAME PSTACK, 0, STACK
        LOCFRAME XSTACK, 173, STACK
        LOCFRAME IOVERLAY, 0, STATIC
        LOCFRAME DOVERLAY, 0, STATIC
        ARGFRAME ISTACK, 0, STACK
        ARGFRAME PSTACK, 0, STACK
        ARGFRAME XSTACK, 173, STACK
        ARGFRAME IOVERLAY, 0, STATIC
        ARGFRAME DOVERLAY, 0, STATIC
        FUNCALL pt_ZclReadGetProxyEntry, gp_PopulateProxyTblEntry
        LOCFRAME ISTACK, 0, STACK
        LOCFRAME PSTACK, 0, STACK
        LOCFRAME XSTACK, 172, STACK
        LOCFRAME IOVERLAY, 0, STATIC
        LOCFRAME DOVERLAY, 0, STATIC
        ARGFRAME ISTACK, 0, STACK
        ARGFRAME PSTACK, 0, STACK
        ARGFRAME XSTACK, 172, STACK
        ARGFRAME IOVERLAY, 0, STATIC
        ARGFRAME DOVERLAY, 0, STATIC
        FUNCALL pt_ZclReadGetProxyEntry, osal_memcmp
        LOCFRAME ISTACK, 0, STACK
        LOCFRAME PSTACK, 0, STACK
        LOCFRAME XSTACK, 173, STACK
        LOCFRAME IOVERLAY, 0, STATIC
        LOCFRAME DOVERLAY, 0, STATIC
        ARGFRAME ISTACK, 0, STACK
        ARGFRAME PSTACK, 0, STACK
        ARGFRAME XSTACK, 173, STACK
        ARGFRAME IOVERLAY, 0, STATIC
        ARGFRAME DOVERLAY, 0, STATIC
        FUNCALL pt_ZclReadGetProxyEntry, osal_memcpy
        LOCFRAME ISTACK, 0, STACK
        LOCFRAME PSTACK, 0, STACK
        LOCFRAME XSTACK, 173, STACK
        LOCFRAME IOVERLAY, 0, STATIC
        LOCFRAME DOVERLAY, 0, STATIC
        ARGFRAME ISTACK, 0, STACK
        ARGFRAME PSTACK, 0, STACK
        ARGFRAME XSTACK, 173, STACK
        ARGFRAME IOVERLAY, 0, STATIC
        ARGFRAME DOVERLAY, 0, STATIC
        FUNCALL pt_ZclReadGetProxyEntry, gp_PopulateProxyTblEntry
        LOCFRAME ISTACK, 0, STACK
        LOCFRAME PSTACK, 0, STACK
        LOCFRAME XSTACK, 172, STACK
        LOCFRAME IOVERLAY, 0, STATIC
        LOCFRAME DOVERLAY, 0, STATIC
        ARGFRAME ISTACK, 0, STACK
        ARGFRAME PSTACK, 0, STACK
        ARGFRAME XSTACK, 172, STACK
        ARGFRAME IOVERLAY, 0, STATIC
        ARGFRAME DOVERLAY, 0, STATIC
        FUNCALL pt_ZclReadGetProxyEntry, osal_memcpy
        LOCFRAME ISTACK, 0, STACK
        LOCFRAME PSTACK, 0, STACK
        LOCFRAME XSTACK, 173, STACK
        LOCFRAME IOVERLAY, 0, STATIC
        LOCFRAME DOVERLAY, 0, STATIC
        ARGFRAME ISTACK, 0, STACK
        ARGFRAME PSTACK, 0, STACK
        ARGFRAME XSTACK, 173, STACK
        ARGFRAME IOVERLAY, 0, STATIC
        ARGFRAME DOVERLAY, 0, STATIC
        FUNCALL pt_ZclReadGetProxyEntry, gp_PopulateProxyTblEntry
        LOCFRAME ISTACK, 0, STACK
        LOCFRAME PSTACK, 0, STACK
        LOCFRAME XSTACK, 172, STACK
        LOCFRAME IOVERLAY, 0, STATIC
        LOCFRAME DOVERLAY, 0, STATIC
        ARGFRAME ISTACK, 0, STACK
        ARGFRAME PSTACK, 0, STACK
        ARGFRAME XSTACK, 172, STACK
        ARGFRAME IOVERLAY, 0, STATIC
        ARGFRAME DOVERLAY, 0, STATIC
        FUNCALL pt_ZclReadGetProxyEntry, osal_memcpy
        LOCFRAME ISTACK, 0, STACK
        LOCFRAME PSTACK, 0, STACK
        LOCFRAME XSTACK, 173, STACK
        LOCFRAME IOVERLAY, 0, STATIC
        LOCFRAME DOVERLAY, 0, STATIC
        ARGFRAME ISTACK, 0, STACK
        ARGFRAME PSTACK, 0, STACK
        ARGFRAME XSTACK, 173, STACK
        ARGFRAME IOVERLAY, 0, STATIC
        ARGFRAME DOVERLAY, 0, STATIC
        FUNCALL pt_ZclReadGetProxyEntry, gp_PopulateProxyTblEntry
        LOCFRAME ISTACK, 0, STACK
        LOCFRAME PSTACK, 0, STACK
        LOCFRAME XSTACK, 172, STACK
        LOCFRAME IOVERLAY, 0, STATIC
        LOCFRAME DOVERLAY, 0, STATIC
        ARGFRAME ISTACK, 0, STACK
        ARGFRAME PSTACK, 0, STACK
        ARGFRAME XSTACK, 172, STACK
        ARGFRAME IOVERLAY, 0, STATIC
        ARGFRAME DOVERLAY, 0, STATIC
        FUNCALL pt_ZclReadGetProxyEntry, gp_PopulateProxyTblEntry
        LOCFRAME ISTACK, 0, STACK
        LOCFRAME PSTACK, 0, STACK
        LOCFRAME XSTACK, 172, STACK
        LOCFRAME IOVERLAY, 0, STATIC
        LOCFRAME DOVERLAY, 0, STATIC
        ARGFRAME ISTACK, 0, STACK
        ARGFRAME PSTACK, 0, STACK
        ARGFRAME XSTACK, 172, STACK
        ARGFRAME IOVERLAY, 0, STATIC
        ARGFRAME DOVERLAY, 0, STATIC
        FUNCALL pt_ZclReadGetProxyEntry, gp_PopulateProxyTblEntry
        LOCFRAME ISTACK, 0, STACK
        LOCFRAME PSTACK, 0, STACK
        LOCFRAME XSTACK, 172, STACK
        LOCFRAME IOVERLAY, 0, STATIC
        LOCFRAME DOVERLAY, 0, STATIC
        ARGFRAME ISTACK, 0, STACK
        ARGFRAME PSTACK, 0, STACK
        ARGFRAME XSTACK, 172, STACK
        ARGFRAME IOVERLAY, 0, STATIC
        ARGFRAME DOVERLAY, 0, STATIC
        FUNCALL pt_ZclReadGetProxyEntry, osal_memcpy
        LOCFRAME ISTACK, 0, STACK
        LOCFRAME PSTACK, 0, STACK
        LOCFRAME XSTACK, 173, STACK
        LOCFRAME IOVERLAY, 0, STATIC
        LOCFRAME DOVERLAY, 0, STATIC
        ARGFRAME ISTACK, 0, STACK
        ARGFRAME PSTACK, 0, STACK
        ARGFRAME XSTACK, 173, STACK
        ARGFRAME IOVERLAY, 0, STATIC
        ARGFRAME DOVERLAY, 0, STATIC
        FUNCALL pt_ZclReadGetProxyEntry, osal_memcpy
        LOCFRAME ISTACK, 0, STACK
        LOCFRAME PSTACK, 0, STACK
        LOCFRAME XSTACK, 173, STACK
        LOCFRAME IOVERLAY, 0, STATIC
        LOCFRAME DOVERLAY, 0, STATIC
        ARGFRAME ISTACK, 0, STACK
        ARGFRAME PSTACK, 0, STACK
        ARGFRAME XSTACK, 173, STACK
        ARGFRAME IOVERLAY, 0, STATIC
        ARGFRAME DOVERLAY, 0, STATIC
        REQUIRE ?V0
        REQUIRE ?V1
        REQUIRE ?V2
        REQUIRE ?V3
        REQUIRE ?V4
        REQUIRE ?V5
        REQUIRE ?V6
        REQUIRE ?V8
        REQUIRE ?V9
        REQUIRE ?V10
        REQUIRE ?V12
        REQUIRE ?V13
        REQUIRE ?V14
        REQUIRE ?V15
        MOV       A,#-0x18
        LCALL     ?BANKED_ENTER_XDATA
          CFI DPH0 load(1, XDATA, add(CFA_XSP16, literal(-1)))
          CFI DPL0 load(1, XDATA, add(CFA_XSP16, literal(-2)))
          CFI ?BRET_EXT load(1, XDATA, add(CFA_XSP16, literal(-3)))
          CFI ?RET_HIGH load(1, XDATA, add(CFA_XSP16, literal(-4)))
          CFI ?RET_LOW load(1, XDATA, add(CFA_XSP16, literal(-5)))
          CFI R7 load(1, XDATA, add(CFA_XSP16, literal(-6)))
          CFI V15 load(1, XDATA, add(CFA_XSP16, literal(-7)))
          CFI V14 load(1, XDATA, add(CFA_XSP16, literal(-8)))
          CFI V13 load(1, XDATA, add(CFA_XSP16, literal(-9)))
          CFI V12 load(1, XDATA, add(CFA_XSP16, literal(-10)))
          CFI V11 load(1, XDATA, add(CFA_XSP16, literal(-11)))
          CFI V10 load(1, XDATA, add(CFA_XSP16, literal(-12)))
          CFI V9 load(1, XDATA, add(CFA_XSP16, literal(-13)))
          CFI V8 load(1, XDATA, add(CFA_XSP16, literal(-14)))
          CFI V7 load(1, XDATA, add(CFA_XSP16, literal(-15)))
          CFI V6 load(1, XDATA, add(CFA_XSP16, literal(-16)))
          CFI V5 load(1, XDATA, add(CFA_XSP16, literal(-17)))
          CFI V4 load(1, XDATA, add(CFA_XSP16, literal(-18)))
          CFI V3 load(1, XDATA, add(CFA_XSP16, literal(-19)))
          CFI V2 load(1, XDATA, add(CFA_XSP16, literal(-20)))
          CFI V1 load(1, XDATA, add(CFA_XSP16, literal(-21)))
          CFI V0 load(1, XDATA, add(CFA_XSP16, literal(-22)))
          CFI VB load(1, XDATA, add(CFA_XSP16, literal(-23)))
          CFI R6 load(1, XDATA, add(CFA_XSP16, literal(-24)))
          CFI CFA_SP SP+0
          CFI CFA_XSP16 add(XSP16, 24)
        ; Saved register size: 24
        ; Auto size: 146
        MOV       A,#0x6e
        LCALL     ?ALLOC_XSTACK8
          CFI CFA_XSP16 add(XSP16, 170)
        MOV       ?V12,R4
        MOV       ?V13,R5
//  115   uint8  freeSinkEntry[LSINK_ADDR_LEN] = {0xFF, 0xFF, 0xFF, 0xFF, 0xFF, 0xFF, 0xFF, 0xFF, 0xFF, 0xFF};
        MOV       DPTR,#`?<Constant {255, 255, 255, 255, 255, 255, 255,`
        MOV       A,#-0x78
        LCALL     ?XSTACK_DISP102_8
        MOV       A,#0xa
        LCALL     ?MOVE_LONG8_XDATA_XDATA
//  116   uint8  currEntry[PROXY_TBL_ENTRY_LEN];
//  117   uint8  gpdEntry[PROXY_TBL_ENTRY_LEN];
//  118   uint8  gpdEntryLen = 0;
        MOV       DPL,?XSP + 0
        MOV       DPH,?XSP + 1
        MOVX      @DPTR,A
//  119   uint8  status;
//  120   uint16 options;
//  121 
//  122   status = gp_getProxyTableByIndex( nvId, currEntry );
        ; Setup parameters for call to function gp_getProxyTableByIndex
        MOV       A,#0x6
        LCALL     ?XSTACK_DISP102_8
        LCALL     ?Subroutine3 & 0xFFFF
//  123 
//  124   // if FAIL or Empty
//  125   if ( ( status == NV_OPER_FAILED ) || ( status == NV_INVALID_DATA ) )
??CrossCallReturnLabel_5:
        JZ        ??pt_ZclReadGetProxyEntry_0
        MOV       A,#0xd
        XRL       A,R6
        JNZ       ??pt_ZclReadGetProxyEntry_1
//  126   {
//  127     // FAIL
//  128     return status;
??pt_ZclReadGetProxyEntry_0:
        LJMP      ??pt_ZclReadGetProxyEntry_2 & 0xFFFF
//  129   }
//  130 
//  131   osal_memcpy( &gpdEntry[gpdEntryLen], &currEntry[PROXY_TBL_ENTRY_OPT], sizeof ( uint16 ) );
??pt_ZclReadGetProxyEntry_1:
        MOV       A,#0x6
        LCALL     ?XSTACK_DISP100_8
        MOV       ?V0,R0
        MOV       ?V1,R1
        MOV       ?V2,#0x0
        ; Setup parameters for call to function osal_memcpy
        MOV       R0,#?V0
        LCALL     ?PUSH_XSTACK_I_THREE
          CFI CFA_XSP16 add(XSP16, 173)
        MOV       R4,#0x2
        MOV       R5,#0x0
        MOV       A,#0x3
        LCALL     ?XSTACK_DISP0_8
        MOVX      A,@DPTR
        MOV       R0,A
        MOV       A,#0x4a
        LCALL     ?XSTACK_DISP0_8
        LCALL     ?Subroutine6 & 0xFFFF
??CrossCallReturnLabel_7:
        LCALL     ??Subroutine11_0 & 0xFFFF
??CrossCallReturnLabel_51:
        LCALL     ?DEALLOC_XSTACK8
          CFI CFA_XSP16 add(XSP16, 170)
//  132   osal_memcpy( &options, &currEntry[PROXY_TBL_ENTRY_OPT], sizeof ( uint16 ) );
        ; Setup parameters for call to function osal_memcpy
        MOV       R0,#?V0
        LCALL     ?PUSH_XSTACK_I_THREE
          CFI CFA_XSP16 add(XSP16, 173)
        MOV       R4,#0x2
        MOV       R5,#0x0
        MOV       A,#0x7
        LCALL     ?XSTACK_DISP101_8
        LCALL     ??Subroutine11_0 & 0xFFFF
??CrossCallReturnLabel_52:
        LCALL     ?DEALLOC_XSTACK8
          CFI CFA_XSP16 add(XSP16, 170)
//  133   gpdEntryLen += sizeof ( uint16 );
        MOV       DPL,?XSP + 0
        MOV       DPH,?XSP + 1
        MOVX      A,@DPTR
        ADD       A,#0x2
        MOVX      @DPTR,A
//  134   
//  135   // Options bitfield
//  136   // If Application Id bitfield is 0b000
//  137   if( GP_IS_APPLICATION_ID_GPD( options ) )
        MOV       A,#0x4
        LCALL     ?XSTACK_DISP0_8
        MOVX      A,@DPTR
        ANL       A,#0x7
        MOV       R0,A
        JNZ       ??pt_ZclReadGetProxyEntry_3
//  138   {        
//  139     // Populate GPD ID
//  140     gp_PopulateProxyTblEntry( ( uint8* )&currEntry[PROXY_TBL_ENTRY_GPD_ID + 4], sizeof ( uint32 ), gpdEntry, &gpdEntryLen );
        ; Setup parameters for call to function gp_PopulateProxyTblEntry
        MOV       R0,?XSP + 0
        MOV       R1,?XSP + 1
        MOV       ?V0,R0
        MOV       ?V1,R1
        MOV       R0,#?V0
        LCALL     ?PUSH_XSTACK_I_TWO
          CFI CFA_XSP16 add(XSP16, 172)
        MOV       A,#0x49
        LCALL     ?XSTACK_DISP102_8
        MOV       R1,#0x4
        MOV       A,#0xe
        SJMP      ??pt_ZclReadGetProxyEntry_4
          CFI CFA_XSP16 add(XSP16, 170)
//  141   }
//  142   // If Application Id bitfield is 0b010
//  143   else if( GP_IS_APPLICATION_ID_IEEE( options ) )
??pt_ZclReadGetProxyEntry_3:
        MOV       A,#0x2
        XRL       A,R0
        JNZ       ??pt_ZclReadGetProxyEntry_5
//  144   {   
//  145     gp_PopulateProxyTblEntry( ( uint8* )&currEntry[PROXY_TBL_ENTRY_GPD_ID], Z_EXTADDR_LEN, gpdEntry, &gpdEntryLen );
        ; Setup parameters for call to function gp_PopulateProxyTblEntry
        MOV       R0,?XSP + 0
        MOV       R1,?XSP + 1
        MOV       ?V0,R0
        MOV       ?V1,R1
        MOV       R0,#?V0
        LCALL     ?PUSH_XSTACK_I_TWO
          CFI CFA_XSP16 add(XSP16, 172)
        MOV       A,#0x49
        LCALL     ?XSTACK_DISP102_8
        MOV       R1,#0x8
        MOV       A,#0xa
        LCALL     ?XSTACK_DISP0_8
        LCALL     ?Subroutine5 & 0xFFFF
??CrossCallReturnLabel_14:
        LCALL     ?DEALLOC_XSTACK8
          CFI CFA_XSP16 add(XSP16, 170)
//  146     gp_PopulateProxyTblEntry( ( uint8* )&currEntry[PROXY_TBL_ENTRY_GPD_EP], sizeof ( uint8 ), gpdEntry, &gpdEntryLen );
        ; Setup parameters for call to function gp_PopulateProxyTblEntry
        MOV       R0,#?V0
        LCALL     ?PUSH_XSTACK_I_TWO
          CFI CFA_XSP16 add(XSP16, 172)
        MOV       A,#0x49
        LCALL     ?XSTACK_DISP102_8
        MOV       R1,#0x1
        MOV       A,#0x12
??pt_ZclReadGetProxyEntry_4:
        LCALL     ?XSTACK_DISP0_8
//  147   }
        LCALL     ?Subroutine5 & 0xFFFF
??CrossCallReturnLabel_15:
        LCALL     ?DEALLOC_XSTACK8
          CFI CFA_XSP16 add(XSP16, 170)
//  148   
//  149   if ( PROXY_TBL_GET_ASSIGNED_ALIAS( currEntry[PROXY_TBL_ENTRY_OPT + 1] ) )
??pt_ZclReadGetProxyEntry_5:
        MOV       A,#0x7
        LCALL     ?XSTACK_DISP0_8
        MOVX      A,@DPTR
        MOV       C,0xE0 /* A   */.5
        JNC       ??pt_ZclReadGetProxyEntry_6
//  150   {
//  151     gp_PopulateProxyTblEntry( ( uint8* )&currEntry[PROXY_TBL_ENTRY_ALIAS], sizeof ( uint16 ), gpdEntry, &gpdEntryLen );
        ; Setup parameters for call to function gp_PopulateProxyTblEntry
        MOV       R0,?XSP + 0
        MOV       R1,?XSP + 1
        MOV       ?V0,R0
        MOV       ?V1,R1
        MOV       R0,#?V0
        LCALL     ?PUSH_XSTACK_I_TWO
          CFI CFA_XSP16 add(XSP16, 172)
        MOV       A,#0x49
        LCALL     ?XSTACK_DISP102_8
        MOV       R1,#0x2
        MOV       A,#0x13
        LCALL     ?XSTACK_DISP0_8
        LCALL     ?Subroutine5 & 0xFFFF
//  152   }
??CrossCallReturnLabel_16:
        LCALL     ?DEALLOC_XSTACK8
          CFI CFA_XSP16 add(XSP16, 170)
//  153   
//  154   if ( PROXY_TBL_GET_SEC_USE( currEntry[PROXY_TBL_ENTRY_OPT + 1] ) )
??pt_ZclReadGetProxyEntry_6:
        MOV       A,#0x7
        LCALL     ?XSTACK_DISP0_8
        MOVX      A,@DPTR
        MOV       C,0xE0 /* A   */.6
        JNC       ??pt_ZclReadGetProxyEntry_7
//  155   {
//  156     gp_PopulateProxyTblEntry( ( uint8* )&currEntry[PROXY_TBL_ENTRY_SEC_OPT], sizeof ( uint8 ), gpdEntry, &gpdEntryLen );
        ; Setup parameters for call to function gp_PopulateProxyTblEntry
        MOV       R0,?XSP + 0
        MOV       R1,?XSP + 1
        MOV       ?V0,R0
        MOV       ?V1,R1
        MOV       R0,#?V0
        LCALL     ?PUSH_XSTACK_I_TWO
          CFI CFA_XSP16 add(XSP16, 172)
        MOV       A,#0x49
        LCALL     ?XSTACK_DISP102_8
        MOV       R1,#0x1
        MOV       A,#0x15
        LCALL     ?XSTACK_DISP0_8
        LCALL     ?Subroutine5 & 0xFFFF
//  157   }
??CrossCallReturnLabel_17:
        LCALL     ?DEALLOC_XSTACK8
          CFI CFA_XSP16 add(XSP16, 170)
//  158   
//  159   if ( ( PROXY_TBL_GET_SEC_USE( currEntry[PROXY_TBL_ENTRY_OPT + 1] ) || ( PROXY_TBL_GET_SEC_CAP( currEntry[PROXY_TBL_ENTRY_OPT] ) ) ) )
??pt_ZclReadGetProxyEntry_7:
        MOV       A,#0x7
        LCALL     ?XSTACK_DISP0_8
        MOVX      A,@DPTR
        MOV       C,0xE0 /* A   */.6
        JC        ??pt_ZclReadGetProxyEntry_8
        MOV       A,#0x6
        LCALL     ?XSTACK_DISP0_8
        MOVX      A,@DPTR
        MOV       C,0xE0 /* A   */.5
        JNC       ??pt_ZclReadGetProxyEntry_9
//  160   {
//  161     gp_PopulateProxyTblEntry( ( uint8* )&currEntry[PROXY_TBL_ENTRY_SEC_FRAME], sizeof ( uint32 ), gpdEntry, &gpdEntryLen );
??pt_ZclReadGetProxyEntry_8:
        ; Setup parameters for call to function gp_PopulateProxyTblEntry
        MOV       R0,?XSP + 0
        MOV       R1,?XSP + 1
        MOV       ?V0,R0
        MOV       ?V1,R1
        MOV       R0,#?V0
        LCALL     ?PUSH_XSTACK_I_TWO
          CFI CFA_XSP16 add(XSP16, 172)
        MOV       A,#0x49
        LCALL     ?XSTACK_DISP102_8
        MOV       R1,#0x4
        MOV       A,#0x16
        LCALL     ?XSTACK_DISP0_8
        LCALL     ?Subroutine5 & 0xFFFF
//  162   }
??CrossCallReturnLabel_18:
        LCALL     ?DEALLOC_XSTACK8
          CFI CFA_XSP16 add(XSP16, 170)
//  163   
//  164   if ( PROXY_TBL_GET_SEC_USE( currEntry[PROXY_TBL_ENTRY_OPT + 1] ) )
??pt_ZclReadGetProxyEntry_9:
        MOV       A,#0x7
        LCALL     ?XSTACK_DISP0_8
        MOVX      A,@DPTR
        MOV       C,0xE0 /* A   */.6
        JNC       ??pt_ZclReadGetProxyEntry_10
//  165   {
//  166     gp_PopulateProxyTblEntry( ( uint8* )&currEntry[PROXY_TBL_ENTRY_GPD_KEY], SEC_KEY_LEN, gpdEntry, &gpdEntryLen );
        ; Setup parameters for call to function gp_PopulateProxyTblEntry
        MOV       R0,?XSP + 0
        MOV       R1,?XSP + 1
        MOV       ?V0,R0
        MOV       ?V1,R1
        MOV       R0,#?V0
        LCALL     ?PUSH_XSTACK_I_TWO
          CFI CFA_XSP16 add(XSP16, 172)
        MOV       A,#0x49
        LCALL     ?XSTACK_DISP102_8
        MOV       R1,#0x10
        MOV       A,#0x1a
        LCALL     ?XSTACK_DISP0_8
        LCALL     ?Subroutine5 & 0xFFFF
//  167   }
??CrossCallReturnLabel_19:
        LCALL     ?DEALLOC_XSTACK8
          CFI CFA_XSP16 add(XSP16, 170)
//  168   
//  169   if ( PROXY_TBL_GET_LIGHTWIGHT_UNICAST( currEntry[PROXY_TBL_ENTRY_OPT] ) )
??pt_ZclReadGetProxyEntry_10:
        MOV       A,#0x6
        LCALL     ?XSTACK_DISP0_8
        MOVX      A,@DPTR
        MOV       C,0xE0 /* A   */.6
        JC        $+5
        LJMP      ??pt_ZclReadGetProxyEntry_11 & 0xFFFF
//  170   {
//  171     uint8 sinkCount = 0;
        MOV       A,#0x1
        LCALL     ?XSTACK_DISP0_8
        LCALL     ?Subroutine2 & 0xFFFF
//  172     uint8 sinkCountByte = gpdEntryLen;
//  173     
//  174     gpdEntryLen += sizeof ( sinkCountByte );
//  175     
//  176     if ( !osal_memcmp( freeSinkEntry, &currEntry[PROXY_TBL_ENTRY_1ST_LSINK_ADDR], LSINK_ADDR_LEN ) )
??CrossCallReturnLabel_3:
        LCALL     ?XSTACK_DISP0_8
        MOV       A,DPL
        ADD       A,R0
        MOV       ?V14,A
        CLR       A
        ADDC      A,DPH
        MOV       ?V15,A
        MOV       A,#-0x78
        LCALL     ?XSTACK_DISP100_8
        MOV       ?V0,R0
        MOV       ?V1,R1
        MOV       A,#0x1
        LCALL     ?XSTACK_DISP100_8
        MOV       ?V4,R0
        MOV       ?V5,R1
        MOV       ?V6,#0x0
        ; Setup parameters for call to function osal_memcmp
        MOV       A,#0x28
        LCALL     ?XSTACK_DISP0_8
        MOV       R1,DPL
        MOV       R2,DPH
        MOV       ?V8,R1
        MOV       ?V9,R2
        MOV       ?V10,#0x0
        MOV       R0,#?V8
        LCALL     ?PUSH_XSTACK_I_THREE
          CFI CFA_XSP16 add(XSP16, 173)
        MOV       R4,#0xa
        LCALL     ??Subroutine12_0 & 0xFFFF
??CrossCallReturnLabel_81:
        LCALL     ?DEALLOC_XSTACK8
          CFI CFA_XSP16 add(XSP16, 170)
        MOV       A,R1
        JNZ       ??pt_ZclReadGetProxyEntry_12
//  177     {
//  178       sinkCount += 1;
        MOV       A,#0x1
        LCALL     ?XSTACK_DISP0_8
        MOVX      A,@DPTR
        INC       A
        MOVX      @DPTR,A
//  179       osal_memcpy( &gpdEntry[sinkCountByte], &sinkCount, sizeof ( uint8 ) );
        ; Setup parameters for call to function osal_memcpy
        MOV       R0,#?V4
        LCALL     ?PUSH_XSTACK_I_THREE
          CFI CFA_XSP16 add(XSP16, 173)
        MOV       R4,#0x1
        MOV       R5,#0x0
        MOV       R2,?V14
        MOV       R3,?V15
        LCALL     ??Subroutine11_0 & 0xFFFF
??CrossCallReturnLabel_53:
        LCALL     ?DEALLOC_XSTACK8
          CFI CFA_XSP16 add(XSP16, 170)
//  180       gp_PopulateProxyTblEntry( ( uint8* )&currEntry[PROXY_TBL_ENTRY_1ST_LSINK_ADDR], LSINK_ADDR_LEN, gpdEntry, &gpdEntryLen );
        ; Setup parameters for call to function gp_PopulateProxyTblEntry
        MOV       R0,?XSP + 0
        MOV       R1,?XSP + 1
        MOV       ?V8,R0
        MOV       ?V9,R1
        MOV       R0,#?V8
        LCALL     ?PUSH_XSTACK_I_TWO
          CFI CFA_XSP16 add(XSP16, 172)
        MOV       A,#0x49
        LCALL     ?XSTACK_DISP102_8
        MOV       R1,#0xa
        MOV       A,#0x2a
        LCALL     ?XSTACK_DISP0_8
        LCALL     ?Subroutine5 & 0xFFFF
//  181     }
??CrossCallReturnLabel_20:
        LCALL     ?DEALLOC_XSTACK8
          CFI CFA_XSP16 add(XSP16, 170)
//  182     if ( !osal_memcmp( freeSinkEntry, &currEntry[PROXY_TBL_ENTRY_2ND_LSINK_ADDR], LSINK_ADDR_LEN ) )
??pt_ZclReadGetProxyEntry_12:
        ; Setup parameters for call to function osal_memcmp
        MOV       A,#0x32
        LCALL     ?XSTACK_DISP0_8
        MOV       R1,DPL
        MOV       R2,DPH
        MOV       ?V8,R1
        MOV       ?V9,R2
        MOV       R0,#?V8
        LCALL     ?PUSH_XSTACK_I_THREE
          CFI CFA_XSP16 add(XSP16, 173)
        MOV       R4,#0xa
        LCALL     ??Subroutine12_0 & 0xFFFF
??CrossCallReturnLabel_82:
        LCALL     ?DEALLOC_XSTACK8
          CFI CFA_XSP16 add(XSP16, 170)
        MOV       A,R1
        JNZ       ??pt_ZclReadGetProxyEntry_11
//  183     {
//  184       sinkCount += 1;
        MOV       A,#0x1
        LCALL     ?XSTACK_DISP0_8
        MOVX      A,@DPTR
        INC       A
        MOVX      @DPTR,A
//  185       osal_memcpy( &gpdEntry[sinkCountByte], &sinkCount, sizeof ( uint8 ) );
        ; Setup parameters for call to function osal_memcpy
        MOV       R0,#?V4
        LCALL     ?PUSH_XSTACK_I_THREE
          CFI CFA_XSP16 add(XSP16, 173)
        MOV       R4,#0x1
        MOV       R5,#0x0
        MOV       R2,?V14
        MOV       R3,?V15
        LCALL     ??Subroutine11_0 & 0xFFFF
??CrossCallReturnLabel_54:
        LCALL     ?DEALLOC_XSTACK8
          CFI CFA_XSP16 add(XSP16, 170)
//  186       gp_PopulateProxyTblEntry( ( uint8* )&currEntry[PROXY_TBL_ENTRY_2ND_LSINK_ADDR], LSINK_ADDR_LEN, gpdEntry, &gpdEntryLen );
        ; Setup parameters for call to function gp_PopulateProxyTblEntry
        MOV       R0,?XSP + 0
        MOV       R1,?XSP + 1
        MOV       ?V0,R0
        MOV       ?V1,R1
        MOV       R0,#?V0
        LCALL     ?PUSH_XSTACK_I_TWO
          CFI CFA_XSP16 add(XSP16, 172)
        MOV       A,#0x49
        LCALL     ?XSTACK_DISP102_8
        MOV       R1,#0xa
        MOV       A,#0x34
        LCALL     ?XSTACK_DISP0_8
        LCALL     ?Subroutine5 & 0xFFFF
//  187     }
//  188   }
??CrossCallReturnLabel_21:
        LCALL     ?DEALLOC_XSTACK8
          CFI CFA_XSP16 add(XSP16, 170)
//  189      
//  190   if ( PROXY_TBL_GET_CGROUP( currEntry[PROXY_TBL_ENTRY_OPT + 1] ) )
??pt_ZclReadGetProxyEntry_11:
        MOV       A,#0x7
        LCALL     ?XSTACK_DISP0_8
        MOVX      A,@DPTR
        MOV       C,0xE0 /* A   */.0
        JC        $+5
        LJMP      ??pt_ZclReadGetProxyEntry_13 & 0xFFFF
//  191   {
//  192     uint8 groupCount = 0;
        MOV       A,#0x1
        LCALL     ?XSTACK_DISP0_8
        LCALL     ?Subroutine2 & 0xFFFF
//  193     uint8 groupCountByte = gpdEntryLen;
//  194     
//  195     gpdEntryLen++;
//  196     
//  197     if ( GET_BIT( &currEntry[PROXY_TBL_ENTRY_GRP_TBL_ENTRIES], PROXY_TBL_ENTRY_1ST_GRP_BIT ) )
??CrossCallReturnLabel_4:
        LCALL     ?XSTACK_DISP0_8
        MOV       A,DPL
        ADD       A,R0
        MOV       ?V0,A
        CLR       A
        ADDC      A,DPH
        MOV       ?V1,A
        MOV       A,#0x1
        LCALL     ?XSTACK_DISP100_8
        MOV       ?V4,R0
        MOV       ?V5,R1
        MOV       ?V6,#0x0
        MOV       A,#0x3c
        LCALL     ?XSTACK_DISP0_8
        MOVX      A,@DPTR
        MOV       C,0xE0 /* A   */.0
        JNC       ??pt_ZclReadGetProxyEntry_14
//  198     {
//  199       groupCount += 1;
        MOV       A,#0x1
        LCALL     ?XSTACK_DISP0_8
        MOV       A,#0x1
        MOVX      @DPTR,A
//  200       osal_memcpy( &gpdEntry[groupCountByte], &groupCount, sizeof ( uint8 ) );
        ; Setup parameters for call to function osal_memcpy
        MOV       R0,#?V4
        LCALL     ?PUSH_XSTACK_I_THREE
          CFI CFA_XSP16 add(XSP16, 173)
        MOV       R4,#0x1
        MOV       R5,#0x0
        MOV       R2,?V0
        MOV       R3,?V1
        LCALL     ??Subroutine11_0 & 0xFFFF
??CrossCallReturnLabel_55:
        LCALL     ?DEALLOC_XSTACK8
          CFI CFA_XSP16 add(XSP16, 170)
//  201       gp_PopulateProxyTblEntry( ( uint8* )&currEntry[PROXY_TBL_ENTRY_1ST_GRP_ADDR], sizeof ( uint32 ), gpdEntry, &gpdEntryLen );
        ; Setup parameters for call to function gp_PopulateProxyTblEntry
        MOV       R0,?XSP + 0
        MOV       R1,?XSP + 1
        MOV       ?V2,R0
        MOV       ?V3,R1
        MOV       R0,#?V2
        LCALL     ?PUSH_XSTACK_I_TWO
          CFI CFA_XSP16 add(XSP16, 172)
        MOV       A,#0x49
        LCALL     ?XSTACK_DISP102_8
        MOV       R1,#0x4
        MOV       A,#0x3f
        LCALL     ?XSTACK_DISP0_8
        LCALL     ?Subroutine5 & 0xFFFF
//  202     }
??CrossCallReturnLabel_22:
        LCALL     ?DEALLOC_XSTACK8
          CFI CFA_XSP16 add(XSP16, 170)
//  203     if ( GET_BIT( &currEntry[PROXY_TBL_ENTRY_GRP_TBL_ENTRIES], PROXY_TBL_ENTRY_2ND_GRP_BIT ) )
??pt_ZclReadGetProxyEntry_14:
        MOV       A,#0x3c
        LCALL     ?XSTACK_DISP0_8
        MOVX      A,@DPTR
        MOV       C,0xE0 /* A   */.1
        JNC       ??pt_ZclReadGetProxyEntry_13
//  204     {
//  205       groupCount += 1;
        MOV       A,#0x1
        LCALL     ?XSTACK_DISP0_8
        MOVX      A,@DPTR
        INC       A
        MOVX      @DPTR,A
//  206       osal_memcpy( &gpdEntry[groupCountByte], &groupCount, sizeof( uint8 ) );
        ; Setup parameters for call to function osal_memcpy
        MOV       R0,#?V4
        LCALL     ?PUSH_XSTACK_I_THREE
          CFI CFA_XSP16 add(XSP16, 173)
        MOV       R4,#0x1
        MOV       R5,#0x0
        MOV       R2,?V0
        MOV       R3,?V1
        LCALL     ??Subroutine11_0 & 0xFFFF
??CrossCallReturnLabel_56:
        LCALL     ?DEALLOC_XSTACK8
          CFI CFA_XSP16 add(XSP16, 170)
//  207       gp_PopulateProxyTblEntry( ( uint8* )&currEntry[PROXY_TBL_ENTRY_2ND_GRP_ADDR], sizeof ( uint32 ), gpdEntry, &gpdEntryLen );
        ; Setup parameters for call to function gp_PopulateProxyTblEntry
        MOV       R0,?XSP + 0
        MOV       R1,?XSP + 1
        MOV       ?V0,R0
        MOV       ?V1,R1
        MOV       R0,#?V0
        LCALL     ?PUSH_XSTACK_I_TWO
          CFI CFA_XSP16 add(XSP16, 172)
        MOV       A,#0x49
        LCALL     ?XSTACK_DISP102_8
        MOV       R1,#0x4
        MOV       A,#0x43
        LCALL     ?XSTACK_DISP0_8
        LCALL     ?Subroutine5 & 0xFFFF
//  208     }
//  209   }
??CrossCallReturnLabel_23:
        LCALL     ?DEALLOC_XSTACK8
          CFI CFA_XSP16 add(XSP16, 170)
//  210   
//  211   gp_PopulateProxyTblEntry( ( uint8* )&currEntry[PROXY_TBL_ENTRY_GRP_RAD], sizeof ( uint8 ), gpdEntry, &gpdEntryLen );
??pt_ZclReadGetProxyEntry_13:
        ; Setup parameters for call to function gp_PopulateProxyTblEntry
        MOV       R0,?XSP + 0
        MOV       R1,?XSP + 1
        MOV       ?V0,R0
        MOV       ?V1,R1
        MOV       R0,#?V0
        LCALL     ?PUSH_XSTACK_I_TWO
          CFI CFA_XSP16 add(XSP16, 172)
        MOV       A,#0x49
        LCALL     ?XSTACK_DISP102_8
        MOV       R1,#0x1
        MOV       A,#0x47
        LCALL     ?XSTACK_DISP0_8
        LCALL     ?Subroutine5 & 0xFFFF
??CrossCallReturnLabel_24:
        LCALL     ?DEALLOC_XSTACK8
          CFI CFA_XSP16 add(XSP16, 170)
//  212   
//  213   if ( ( PROXY_TBL_GET_ENTRY_ACTIVE( currEntry[PROXY_TBL_ENTRY_OPT] ) == 0 ) || ( PROXY_TBL_GET_ENTRY_VALID( currEntry[PROXY_TBL_ENTRY_OPT] ) == 0 ) )
        MOV       A,#0x6
        LCALL     ?XSTACK_DISP0_8
        MOVX      A,@DPTR
        ANL       A,#0x18
        XRL       A,#0x18
        JZ        ??pt_ZclReadGetProxyEntry_15
//  214   {
//  215     gp_PopulateProxyTblEntry( ( uint8* )&currEntry[PROXY_TBL_ENTRY_SEARCH_COUNTER], sizeof ( uint8 ), gpdEntry, &gpdEntryLen );
        ; Setup parameters for call to function gp_PopulateProxyTblEntry
        MOV       R0,#?V0
        LCALL     ?PUSH_XSTACK_I_TWO
          CFI CFA_XSP16 add(XSP16, 172)
        MOV       A,#0x49
        LCALL     ?XSTACK_DISP102_8
        MOV       R1,#0x1
        MOV       A,#0x48
        LCALL     ?XSTACK_DISP0_8
        LCALL     ?Subroutine5 & 0xFFFF
//  216   }
??CrossCallReturnLabel_25:
        LCALL     ?DEALLOC_XSTACK8
          CFI CFA_XSP16 add(XSP16, 170)
??pt_ZclReadGetProxyEntry_15:
        MOV       A,#-0x56
        LCALL     ?XSTACK_DISP0_8
        MOVX      A,@DPTR
        MOV       ?V0,A
        INC       DPTR
        MOVX      A,@DPTR
        MOV       ?V1,A
//  217   
//  218   if ( pData != NULL )
        MOV       DPL,?V0
        MOV       DPH,A
        MOVX      A,@DPTR
        MOV       R0,A
        MOV       A,?V12
        ORL       A,?V13
        JNZ       $+5
        LJMP      ??pt_ZclReadGetProxyEntry_16 & 0xFFFF
//  219   {
//  220     uint8 sinkEntryLen;
//  221     uint16 totalLen;
//  222     
//  223     sinkEntryLen = gpdEntryLen;
        MOV       DPL,?XSP + 0
        MOV       DPH,?XSP + 1
        MOVX      A,@DPTR
        MOV       R7,A
//  224     if ( *len != 0 )
        MOV       A,R0
        JZ        ??pt_ZclReadGetProxyEntry_17
//  225     {
//  226     gpdEntryLen -= sizeof ( uint16 );
        MOVX      A,@DPTR
        ADD       A,#-0x2
        MOVX      @DPTR,A
//  227     }
//  228     totalLen = gpdEntryLen;
??pt_ZclReadGetProxyEntry_17:
        MOVX      A,@DPTR
        MOV       R0,A
        MOV       A,#0x2
        LCALL     ?XSTACK_DISP0_8
        MOV       A,R0
        MOVX      @DPTR,A
        INC       DPTR
        CLR       A
        MOVX      @DPTR,A
//  229     totalLen += *len;
        MOV       DPL,?V0
        MOV       DPH,?V1
        MOVX      A,@DPTR
        MOV       R0,A
        MOV       A,#0x2
        LCALL     ?XSTACK_DISP0_8
        MOVX      A,@DPTR
        ADD       A,R0
        MOVX      @DPTR,A
        INC       DPTR
        MOVX      A,@DPTR
        ADDC      A,#0x0
        MOVX      @DPTR,A
//  230     osal_memcpy( pData, &totalLen, sizeof ( uint16 ) );
        ; Setup parameters for call to function osal_memcpy
        MOV       A,#0x2
        LCALL     ?XSTACK_DISP100_8
        MOV       ?V4,R0
        MOV       ?V5,R1
        MOV       ?V6,#0x0
        MOV       R0,#?V4
        LCALL     ?PUSH_XSTACK_I_THREE
          CFI CFA_XSP16 add(XSP16, 173)
        MOV       R4,#0x2
        MOV       R5,#0x0
        MOV       R2,?V12
        MOV       R3,?V13
        LCALL     ??Subroutine11_0 & 0xFFFF
??CrossCallReturnLabel_57:
        LCALL     ?DEALLOC_XSTACK8
          CFI CFA_XSP16 add(XSP16, 170)
//  231     if ( *len == 0 )
        MOV       DPL,?V0
        MOV       DPH,?V1
        MOVX      A,@DPTR
        JNZ       ??pt_ZclReadGetProxyEntry_18
//  232     {
//  233       pData += sizeof ( uint16 );
        MOV       A,?V12
        ADD       A,#0x2
        MOV       ?V12,A
        JNC       ??pt_ZclReadGetProxyEntry_18
        INC       ?V13
//  234     }
//  235     gpdEntryLen += sizeof ( uint16 );
??pt_ZclReadGetProxyEntry_18:
        MOV       DPL,?XSP + 0
        MOV       DPH,?XSP + 1
        MOVX      A,@DPTR
        ADD       A,#0x2
        MOVX      @DPTR,A
//  236     
//  237     pData += *len;
//  238     osal_memcpy( pData, gpdEntry, sinkEntryLen );
        ; Setup parameters for call to function osal_memcpy
        MOV       A,#0x47
        LCALL     ?XSTACK_DISP100_8
        MOV       ?V4,R0
        MOV       ?V5,R1
        MOV       R0,#?V4
        LCALL     ?PUSH_XSTACK_I_THREE
          CFI CFA_XSP16 add(XSP16, 173)
        MOV       A,R7
        MOV       R4,A
        MOV       R5,#0x0
        MOV       DPL,?V0
        MOV       DPH,?V1
        MOVX      A,@DPTR
        MOV       R0,A
        MOV       A,?V12
        ADD       A,R0
        MOV       R2,A
        CLR       A
        ADDC      A,?V13
        MOV       R3,A
        LCALL     ??Subroutine11_0 & 0xFFFF
??CrossCallReturnLabel_58:
        LCALL     ?DEALLOC_XSTACK8
          CFI CFA_XSP16 add(XSP16, 170)
//  239     if ( *len != 0 )
        MOV       DPL,?V0
        MOV       DPH,?V1
        MOVX      A,@DPTR
        JZ        ??pt_ZclReadGetProxyEntry_19
//  240     {
//  241       *len = totalLen;
        MOV       A,#0x2
        LCALL     ?XSTACK_DISP0_8
        MOVX      A,@DPTR
        MOV       DPL,?V0
        MOV       DPH,?V1
        SJMP      ??pt_ZclReadGetProxyEntry_20
//  242       return status;
//  243     }
//  244     *len += gpdEntryLen;
//  245     return status;
//  246   }
//  247   else
//  248   {
//  249     if ( *len == 0 )
??pt_ZclReadGetProxyEntry_16:
        MOV       A,R0
        JNZ       ??pt_ZclReadGetProxyEntry_19
//  250     {
//  251       gpdEntryLen += sizeof ( uint16 );
        MOV       DPL,?XSP + 0
        MOV       DPH,?XSP + 1
        MOVX      A,@DPTR
        ADD       A,#0x2
        MOVX      @DPTR,A
//  252     }
//  253     *len += gpdEntryLen;
??pt_ZclReadGetProxyEntry_19:
        MOV       DPL,?XSP + 0
        MOV       DPH,?XSP + 1
        MOVX      A,@DPTR
        MOV       R0,A
        MOV       DPL,?V0
        MOV       DPH,?V1
        MOVX      A,@DPTR
        ADD       A,R0
??pt_ZclReadGetProxyEntry_20:
        MOVX      @DPTR,A
//  254     return status;
        MOV       A,R6
        MOV       R1,A
??pt_ZclReadGetProxyEntry_2:
        MOV       A,#-0x6e
        LCALL     ?DEALLOC_XSTACK8
          CFI CFA_XSP16 add(XSP16, 24)
        MOV       R7,#0x10
        LJMP      ?BANKED_LEAVE_XDATA
//  255   }
//  256 }
          CFI EndBlock cfiBlock0

        RSEG BANKED_CODE:HUGECODE:NOROOT(0)
?Subroutine5:
          CFI Block cfiCond1 Using cfiCommon0
          CFI Function pt_ZclReadGetProxyEntry
          CFI Conditional ??CrossCallReturnLabel_14
          CFI R6 load(1, XDATA, add(CFA_XSP16, literal(-24)))
          CFI VB load(1, XDATA, add(CFA_XSP16, literal(-23)))
          CFI V0 load(1, XDATA, add(CFA_XSP16, literal(-22)))
          CFI V1 load(1, XDATA, add(CFA_XSP16, literal(-21)))
          CFI V2 load(1, XDATA, add(CFA_XSP16, literal(-20)))
          CFI V3 load(1, XDATA, add(CFA_XSP16, literal(-19)))
          CFI V4 load(1, XDATA, add(CFA_XSP16, literal(-18)))
          CFI V5 load(1, XDATA, add(CFA_XSP16, literal(-17)))
          CFI V6 load(1, XDATA, add(CFA_XSP16, literal(-16)))
          CFI V7 load(1, XDATA, add(CFA_XSP16, literal(-15)))
          CFI V8 load(1, XDATA, add(CFA_XSP16, literal(-14)))
          CFI V9 load(1, XDATA, add(CFA_XSP16, literal(-13)))
          CFI V10 load(1, XDATA, add(CFA_XSP16, literal(-12)))
          CFI V11 load(1, XDATA, add(CFA_XSP16, literal(-11)))
          CFI V12 load(1, XDATA, add(CFA_XSP16, literal(-10)))
          CFI V13 load(1, XDATA, add(CFA_XSP16, literal(-9)))
          CFI V14 load(1, XDATA, add(CFA_XSP16, literal(-8)))
          CFI V15 load(1, XDATA, add(CFA_XSP16, literal(-7)))
          CFI R7 load(1, XDATA, add(CFA_XSP16, literal(-6)))
          CFI ?RET_LOW load(1, XDATA, add(CFA_XSP16, literal(-5)))
          CFI ?RET_HIGH load(1, XDATA, add(CFA_XSP16, literal(-4)))
          CFI ?BRET_EXT load(1, XDATA, add(CFA_XSP16, literal(-3)))
          CFI DPL0 load(1, XDATA, add(CFA_XSP16, literal(-2)))
          CFI DPH0 load(1, XDATA, add(CFA_XSP16, literal(-1)))
          CFI CFA_SP SP+-2
          CFI CFA_XSP16 add(XSP16, 172)
          CFI Block cfiCond2 Using cfiCommon0
          CFI (cfiCond2) Function pt_ZclReadGetProxyEntry
          CFI (cfiCond2) Conditional ??CrossCallReturnLabel_15
          CFI (cfiCond2) R6 load(1, XDATA, add(CFA_XSP16, literal(-24)))
          CFI (cfiCond2) VB load(1, XDATA, add(CFA_XSP16, literal(-23)))
          CFI (cfiCond2) V0 load(1, XDATA, add(CFA_XSP16, literal(-22)))
          CFI (cfiCond2) V1 load(1, XDATA, add(CFA_XSP16, literal(-21)))
          CFI (cfiCond2) V2 load(1, XDATA, add(CFA_XSP16, literal(-20)))
          CFI (cfiCond2) V3 load(1, XDATA, add(CFA_XSP16, literal(-19)))
          CFI (cfiCond2) V4 load(1, XDATA, add(CFA_XSP16, literal(-18)))
          CFI (cfiCond2) V5 load(1, XDATA, add(CFA_XSP16, literal(-17)))
          CFI (cfiCond2) V6 load(1, XDATA, add(CFA_XSP16, literal(-16)))
          CFI (cfiCond2) V7 load(1, XDATA, add(CFA_XSP16, literal(-15)))
          CFI (cfiCond2) V8 load(1, XDATA, add(CFA_XSP16, literal(-14)))
          CFI (cfiCond2) V9 load(1, XDATA, add(CFA_XSP16, literal(-13)))
          CFI (cfiCond2) V10 load(1, XDATA, add(CFA_XSP16, literal(-12)))
          CFI (cfiCond2) V11 load(1, XDATA, add(CFA_XSP16, literal(-11)))
          CFI (cfiCond2) V12 load(1, XDATA, add(CFA_XSP16, literal(-10)))
          CFI (cfiCond2) V13 load(1, XDATA, add(CFA_XSP16, literal(-9)))
          CFI (cfiCond2) V14 load(1, XDATA, add(CFA_XSP16, literal(-8)))
          CFI (cfiCond2) V15 load(1, XDATA, add(CFA_XSP16, literal(-7)))
          CFI (cfiCond2) R7 load(1, XDATA, add(CFA_XSP16, literal(-6)))
          CFI (cfiCond2) ?RET_LOW load(1, XDATA, add(CFA_XSP16, literal(-5)))
          CFI (cfiCond2) ?RET_HIGH load(1, XDATA, add(CFA_XSP16, literal(-4)))
          CFI (cfiCond2) ?BRET_EXT load(1, XDATA, add(CFA_XSP16, literal(-3)))
          CFI (cfiCond2) DPL0 load(1, XDATA, add(CFA_XSP16, literal(-2)))
          CFI (cfiCond2) DPH0 load(1, XDATA, add(CFA_XSP16, literal(-1)))
          CFI (cfiCond2) CFA_SP SP+-2
          CFI (cfiCond2) CFA_XSP16 add(XSP16, 172)
          CFI Block cfiCond3 Using cfiCommon0
          CFI (cfiCond3) Function pt_ZclReadGetProxyEntry
          CFI (cfiCond3) Conditional ??CrossCallReturnLabel_16
          CFI (cfiCond3) R6 load(1, XDATA, add(CFA_XSP16, literal(-24)))
          CFI (cfiCond3) VB load(1, XDATA, add(CFA_XSP16, literal(-23)))
          CFI (cfiCond3) V0 load(1, XDATA, add(CFA_XSP16, literal(-22)))
          CFI (cfiCond3) V1 load(1, XDATA, add(CFA_XSP16, literal(-21)))
          CFI (cfiCond3) V2 load(1, XDATA, add(CFA_XSP16, literal(-20)))
          CFI (cfiCond3) V3 load(1, XDATA, add(CFA_XSP16, literal(-19)))
          CFI (cfiCond3) V4 load(1, XDATA, add(CFA_XSP16, literal(-18)))
          CFI (cfiCond3) V5 load(1, XDATA, add(CFA_XSP16, literal(-17)))
          CFI (cfiCond3) V6 load(1, XDATA, add(CFA_XSP16, literal(-16)))
          CFI (cfiCond3) V7 load(1, XDATA, add(CFA_XSP16, literal(-15)))
          CFI (cfiCond3) V8 load(1, XDATA, add(CFA_XSP16, literal(-14)))
          CFI (cfiCond3) V9 load(1, XDATA, add(CFA_XSP16, literal(-13)))
          CFI (cfiCond3) V10 load(1, XDATA, add(CFA_XSP16, literal(-12)))
          CFI (cfiCond3) V11 load(1, XDATA, add(CFA_XSP16, literal(-11)))
          CFI (cfiCond3) V12 load(1, XDATA, add(CFA_XSP16, literal(-10)))
          CFI (cfiCond3) V13 load(1, XDATA, add(CFA_XSP16, literal(-9)))
          CFI (cfiCond3) V14 load(1, XDATA, add(CFA_XSP16, literal(-8)))
          CFI (cfiCond3) V15 load(1, XDATA, add(CFA_XSP16, literal(-7)))
          CFI (cfiCond3) R7 load(1, XDATA, add(CFA_XSP16, literal(-6)))
          CFI (cfiCond3) ?RET_LOW load(1, XDATA, add(CFA_XSP16, literal(-5)))
          CFI (cfiCond3) ?RET_HIGH load(1, XDATA, add(CFA_XSP16, literal(-4)))
          CFI (cfiCond3) ?BRET_EXT load(1, XDATA, add(CFA_XSP16, literal(-3)))
          CFI (cfiCond3) DPL0 load(1, XDATA, add(CFA_XSP16, literal(-2)))
          CFI (cfiCond3) DPH0 load(1, XDATA, add(CFA_XSP16, literal(-1)))
          CFI (cfiCond3) CFA_SP SP+-2
          CFI (cfiCond3) CFA_XSP16 add(XSP16, 172)
          CFI Block cfiCond4 Using cfiCommon0
          CFI (cfiCond4) Function pt_ZclReadGetProxyEntry
          CFI (cfiCond4) Conditional ??CrossCallReturnLabel_17
          CFI (cfiCond4) R6 load(1, XDATA, add(CFA_XSP16, literal(-24)))
          CFI (cfiCond4) VB load(1, XDATA, add(CFA_XSP16, literal(-23)))
          CFI (cfiCond4) V0 load(1, XDATA, add(CFA_XSP16, literal(-22)))
          CFI (cfiCond4) V1 load(1, XDATA, add(CFA_XSP16, literal(-21)))
          CFI (cfiCond4) V2 load(1, XDATA, add(CFA_XSP16, literal(-20)))
          CFI (cfiCond4) V3 load(1, XDATA, add(CFA_XSP16, literal(-19)))
          CFI (cfiCond4) V4 load(1, XDATA, add(CFA_XSP16, literal(-18)))
          CFI (cfiCond4) V5 load(1, XDATA, add(CFA_XSP16, literal(-17)))
          CFI (cfiCond4) V6 load(1, XDATA, add(CFA_XSP16, literal(-16)))
          CFI (cfiCond4) V7 load(1, XDATA, add(CFA_XSP16, literal(-15)))
          CFI (cfiCond4) V8 load(1, XDATA, add(CFA_XSP16, literal(-14)))
          CFI (cfiCond4) V9 load(1, XDATA, add(CFA_XSP16, literal(-13)))
          CFI (cfiCond4) V10 load(1, XDATA, add(CFA_XSP16, literal(-12)))
          CFI (cfiCond4) V11 load(1, XDATA, add(CFA_XSP16, literal(-11)))
          CFI (cfiCond4) V12 load(1, XDATA, add(CFA_XSP16, literal(-10)))
          CFI (cfiCond4) V13 load(1, XDATA, add(CFA_XSP16, literal(-9)))
          CFI (cfiCond4) V14 load(1, XDATA, add(CFA_XSP16, literal(-8)))
          CFI (cfiCond4) V15 load(1, XDATA, add(CFA_XSP16, literal(-7)))
          CFI (cfiCond4) R7 load(1, XDATA, add(CFA_XSP16, literal(-6)))
          CFI (cfiCond4) ?RET_LOW load(1, XDATA, add(CFA_XSP16, literal(-5)))
          CFI (cfiCond4) ?RET_HIGH load(1, XDATA, add(CFA_XSP16, literal(-4)))
          CFI (cfiCond4) ?BRET_EXT load(1, XDATA, add(CFA_XSP16, literal(-3)))
          CFI (cfiCond4) DPL0 load(1, XDATA, add(CFA_XSP16, literal(-2)))
          CFI (cfiCond4) DPH0 load(1, XDATA, add(CFA_XSP16, literal(-1)))
          CFI (cfiCond4) CFA_SP SP+-2
          CFI (cfiCond4) CFA_XSP16 add(XSP16, 172)
          CFI Block cfiCond5 Using cfiCommon0
          CFI (cfiCond5) Function pt_ZclReadGetProxyEntry
          CFI (cfiCond5) Conditional ??CrossCallReturnLabel_18
          CFI (cfiCond5) R6 load(1, XDATA, add(CFA_XSP16, literal(-24)))
          CFI (cfiCond5) VB load(1, XDATA, add(CFA_XSP16, literal(-23)))
          CFI (cfiCond5) V0 load(1, XDATA, add(CFA_XSP16, literal(-22)))
          CFI (cfiCond5) V1 load(1, XDATA, add(CFA_XSP16, literal(-21)))
          CFI (cfiCond5) V2 load(1, XDATA, add(CFA_XSP16, literal(-20)))
          CFI (cfiCond5) V3 load(1, XDATA, add(CFA_XSP16, literal(-19)))
          CFI (cfiCond5) V4 load(1, XDATA, add(CFA_XSP16, literal(-18)))
          CFI (cfiCond5) V5 load(1, XDATA, add(CFA_XSP16, literal(-17)))
          CFI (cfiCond5) V6 load(1, XDATA, add(CFA_XSP16, literal(-16)))
          CFI (cfiCond5) V7 load(1, XDATA, add(CFA_XSP16, literal(-15)))
          CFI (cfiCond5) V8 load(1, XDATA, add(CFA_XSP16, literal(-14)))
          CFI (cfiCond5) V9 load(1, XDATA, add(CFA_XSP16, literal(-13)))
          CFI (cfiCond5) V10 load(1, XDATA, add(CFA_XSP16, literal(-12)))
          CFI (cfiCond5) V11 load(1, XDATA, add(CFA_XSP16, literal(-11)))
          CFI (cfiCond5) V12 load(1, XDATA, add(CFA_XSP16, literal(-10)))
          CFI (cfiCond5) V13 load(1, XDATA, add(CFA_XSP16, literal(-9)))
          CFI (cfiCond5) V14 load(1, XDATA, add(CFA_XSP16, literal(-8)))
          CFI (cfiCond5) V15 load(1, XDATA, add(CFA_XSP16, literal(-7)))
          CFI (cfiCond5) R7 load(1, XDATA, add(CFA_XSP16, literal(-6)))
          CFI (cfiCond5) ?RET_LOW load(1, XDATA, add(CFA_XSP16, literal(-5)))
          CFI (cfiCond5) ?RET_HIGH load(1, XDATA, add(CFA_XSP16, literal(-4)))
          CFI (cfiCond5) ?BRET_EXT load(1, XDATA, add(CFA_XSP16, literal(-3)))
          CFI (cfiCond5) DPL0 load(1, XDATA, add(CFA_XSP16, literal(-2)))
          CFI (cfiCond5) DPH0 load(1, XDATA, add(CFA_XSP16, literal(-1)))
          CFI (cfiCond5) CFA_SP SP+-2
          CFI (cfiCond5) CFA_XSP16 add(XSP16, 172)
          CFI Block cfiCond6 Using cfiCommon0
          CFI (cfiCond6) Function pt_ZclReadGetProxyEntry
          CFI (cfiCond6) Conditional ??CrossCallReturnLabel_19
          CFI (cfiCond6) R6 load(1, XDATA, add(CFA_XSP16, literal(-24)))
          CFI (cfiCond6) VB load(1, XDATA, add(CFA_XSP16, literal(-23)))
          CFI (cfiCond6) V0 load(1, XDATA, add(CFA_XSP16, literal(-22)))
          CFI (cfiCond6) V1 load(1, XDATA, add(CFA_XSP16, literal(-21)))
          CFI (cfiCond6) V2 load(1, XDATA, add(CFA_XSP16, literal(-20)))
          CFI (cfiCond6) V3 load(1, XDATA, add(CFA_XSP16, literal(-19)))
          CFI (cfiCond6) V4 load(1, XDATA, add(CFA_XSP16, literal(-18)))
          CFI (cfiCond6) V5 load(1, XDATA, add(CFA_XSP16, literal(-17)))
          CFI (cfiCond6) V6 load(1, XDATA, add(CFA_XSP16, literal(-16)))
          CFI (cfiCond6) V7 load(1, XDATA, add(CFA_XSP16, literal(-15)))
          CFI (cfiCond6) V8 load(1, XDATA, add(CFA_XSP16, literal(-14)))
          CFI (cfiCond6) V9 load(1, XDATA, add(CFA_XSP16, literal(-13)))
          CFI (cfiCond6) V10 load(1, XDATA, add(CFA_XSP16, literal(-12)))
          CFI (cfiCond6) V11 load(1, XDATA, add(CFA_XSP16, literal(-11)))
          CFI (cfiCond6) V12 load(1, XDATA, add(CFA_XSP16, literal(-10)))
          CFI (cfiCond6) V13 load(1, XDATA, add(CFA_XSP16, literal(-9)))
          CFI (cfiCond6) V14 load(1, XDATA, add(CFA_XSP16, literal(-8)))
          CFI (cfiCond6) V15 load(1, XDATA, add(CFA_XSP16, literal(-7)))
          CFI (cfiCond6) R7 load(1, XDATA, add(CFA_XSP16, literal(-6)))
          CFI (cfiCond6) ?RET_LOW load(1, XDATA, add(CFA_XSP16, literal(-5)))
          CFI (cfiCond6) ?RET_HIGH load(1, XDATA, add(CFA_XSP16, literal(-4)))
          CFI (cfiCond6) ?BRET_EXT load(1, XDATA, add(CFA_XSP16, literal(-3)))
          CFI (cfiCond6) DPL0 load(1, XDATA, add(CFA_XSP16, literal(-2)))
          CFI (cfiCond6) DPH0 load(1, XDATA, add(CFA_XSP16, literal(-1)))
          CFI (cfiCond6) CFA_SP SP+-2
          CFI (cfiCond6) CFA_XSP16 add(XSP16, 172)
          CFI Block cfiCond7 Using cfiCommon0
          CFI (cfiCond7) Function pt_ZclReadGetProxyEntry
          CFI (cfiCond7) Conditional ??CrossCallReturnLabel_20
          CFI (cfiCond7) R6 load(1, XDATA, add(CFA_XSP16, literal(-24)))
          CFI (cfiCond7) VB load(1, XDATA, add(CFA_XSP16, literal(-23)))
          CFI (cfiCond7) V0 load(1, XDATA, add(CFA_XSP16, literal(-22)))
          CFI (cfiCond7) V1 load(1, XDATA, add(CFA_XSP16, literal(-21)))
          CFI (cfiCond7) V2 load(1, XDATA, add(CFA_XSP16, literal(-20)))
          CFI (cfiCond7) V3 load(1, XDATA, add(CFA_XSP16, literal(-19)))
          CFI (cfiCond7) V4 load(1, XDATA, add(CFA_XSP16, literal(-18)))
          CFI (cfiCond7) V5 load(1, XDATA, add(CFA_XSP16, literal(-17)))
          CFI (cfiCond7) V6 load(1, XDATA, add(CFA_XSP16, literal(-16)))
          CFI (cfiCond7) V7 load(1, XDATA, add(CFA_XSP16, literal(-15)))
          CFI (cfiCond7) V8 load(1, XDATA, add(CFA_XSP16, literal(-14)))
          CFI (cfiCond7) V9 load(1, XDATA, add(CFA_XSP16, literal(-13)))
          CFI (cfiCond7) V10 load(1, XDATA, add(CFA_XSP16, literal(-12)))
          CFI (cfiCond7) V11 load(1, XDATA, add(CFA_XSP16, literal(-11)))
          CFI (cfiCond7) V12 load(1, XDATA, add(CFA_XSP16, literal(-10)))
          CFI (cfiCond7) V13 load(1, XDATA, add(CFA_XSP16, literal(-9)))
          CFI (cfiCond7) V14 load(1, XDATA, add(CFA_XSP16, literal(-8)))
          CFI (cfiCond7) V15 load(1, XDATA, add(CFA_XSP16, literal(-7)))
          CFI (cfiCond7) R7 load(1, XDATA, add(CFA_XSP16, literal(-6)))
          CFI (cfiCond7) ?RET_LOW load(1, XDATA, add(CFA_XSP16, literal(-5)))
          CFI (cfiCond7) ?RET_HIGH load(1, XDATA, add(CFA_XSP16, literal(-4)))
          CFI (cfiCond7) ?BRET_EXT load(1, XDATA, add(CFA_XSP16, literal(-3)))
          CFI (cfiCond7) DPL0 load(1, XDATA, add(CFA_XSP16, literal(-2)))
          CFI (cfiCond7) DPH0 load(1, XDATA, add(CFA_XSP16, literal(-1)))
          CFI (cfiCond7) CFA_SP SP+-2
          CFI (cfiCond7) CFA_XSP16 add(XSP16, 172)
          CFI Block cfiCond8 Using cfiCommon0
          CFI (cfiCond8) Function pt_ZclReadGetProxyEntry
          CFI (cfiCond8) Conditional ??CrossCallReturnLabel_21
          CFI (cfiCond8) R6 load(1, XDATA, add(CFA_XSP16, literal(-24)))
          CFI (cfiCond8) VB load(1, XDATA, add(CFA_XSP16, literal(-23)))
          CFI (cfiCond8) V0 load(1, XDATA, add(CFA_XSP16, literal(-22)))
          CFI (cfiCond8) V1 load(1, XDATA, add(CFA_XSP16, literal(-21)))
          CFI (cfiCond8) V2 load(1, XDATA, add(CFA_XSP16, literal(-20)))
          CFI (cfiCond8) V3 load(1, XDATA, add(CFA_XSP16, literal(-19)))
          CFI (cfiCond8) V4 load(1, XDATA, add(CFA_XSP16, literal(-18)))
          CFI (cfiCond8) V5 load(1, XDATA, add(CFA_XSP16, literal(-17)))
          CFI (cfiCond8) V6 load(1, XDATA, add(CFA_XSP16, literal(-16)))
          CFI (cfiCond8) V7 load(1, XDATA, add(CFA_XSP16, literal(-15)))
          CFI (cfiCond8) V8 load(1, XDATA, add(CFA_XSP16, literal(-14)))
          CFI (cfiCond8) V9 load(1, XDATA, add(CFA_XSP16, literal(-13)))
          CFI (cfiCond8) V10 load(1, XDATA, add(CFA_XSP16, literal(-12)))
          CFI (cfiCond8) V11 load(1, XDATA, add(CFA_XSP16, literal(-11)))
          CFI (cfiCond8) V12 load(1, XDATA, add(CFA_XSP16, literal(-10)))
          CFI (cfiCond8) V13 load(1, XDATA, add(CFA_XSP16, literal(-9)))
          CFI (cfiCond8) V14 load(1, XDATA, add(CFA_XSP16, literal(-8)))
          CFI (cfiCond8) V15 load(1, XDATA, add(CFA_XSP16, literal(-7)))
          CFI (cfiCond8) R7 load(1, XDATA, add(CFA_XSP16, literal(-6)))
          CFI (cfiCond8) ?RET_LOW load(1, XDATA, add(CFA_XSP16, literal(-5)))
          CFI (cfiCond8) ?RET_HIGH load(1, XDATA, add(CFA_XSP16, literal(-4)))
          CFI (cfiCond8) ?BRET_EXT load(1, XDATA, add(CFA_XSP16, literal(-3)))
          CFI (cfiCond8) DPL0 load(1, XDATA, add(CFA_XSP16, literal(-2)))
          CFI (cfiCond8) DPH0 load(1, XDATA, add(CFA_XSP16, literal(-1)))
          CFI (cfiCond8) CFA_SP SP+-2
          CFI (cfiCond8) CFA_XSP16 add(XSP16, 172)
          CFI Block cfiCond9 Using cfiCommon0
          CFI (cfiCond9) Function pt_ZclReadGetProxyEntry
          CFI (cfiCond9) Conditional ??CrossCallReturnLabel_22
          CFI (cfiCond9) R6 load(1, XDATA, add(CFA_XSP16, literal(-24)))
          CFI (cfiCond9) VB load(1, XDATA, add(CFA_XSP16, literal(-23)))
          CFI (cfiCond9) V0 load(1, XDATA, add(CFA_XSP16, literal(-22)))
          CFI (cfiCond9) V1 load(1, XDATA, add(CFA_XSP16, literal(-21)))
          CFI (cfiCond9) V2 load(1, XDATA, add(CFA_XSP16, literal(-20)))
          CFI (cfiCond9) V3 load(1, XDATA, add(CFA_XSP16, literal(-19)))
          CFI (cfiCond9) V4 load(1, XDATA, add(CFA_XSP16, literal(-18)))
          CFI (cfiCond9) V5 load(1, XDATA, add(CFA_XSP16, literal(-17)))
          CFI (cfiCond9) V6 load(1, XDATA, add(CFA_XSP16, literal(-16)))
          CFI (cfiCond9) V7 load(1, XDATA, add(CFA_XSP16, literal(-15)))
          CFI (cfiCond9) V8 load(1, XDATA, add(CFA_XSP16, literal(-14)))
          CFI (cfiCond9) V9 load(1, XDATA, add(CFA_XSP16, literal(-13)))
          CFI (cfiCond9) V10 load(1, XDATA, add(CFA_XSP16, literal(-12)))
          CFI (cfiCond9) V11 load(1, XDATA, add(CFA_XSP16, literal(-11)))
          CFI (cfiCond9) V12 load(1, XDATA, add(CFA_XSP16, literal(-10)))
          CFI (cfiCond9) V13 load(1, XDATA, add(CFA_XSP16, literal(-9)))
          CFI (cfiCond9) V14 load(1, XDATA, add(CFA_XSP16, literal(-8)))
          CFI (cfiCond9) V15 load(1, XDATA, add(CFA_XSP16, literal(-7)))
          CFI (cfiCond9) R7 load(1, XDATA, add(CFA_XSP16, literal(-6)))
          CFI (cfiCond9) ?RET_LOW load(1, XDATA, add(CFA_XSP16, literal(-5)))
          CFI (cfiCond9) ?RET_HIGH load(1, XDATA, add(CFA_XSP16, literal(-4)))
          CFI (cfiCond9) ?BRET_EXT load(1, XDATA, add(CFA_XSP16, literal(-3)))
          CFI (cfiCond9) DPL0 load(1, XDATA, add(CFA_XSP16, literal(-2)))
          CFI (cfiCond9) DPH0 load(1, XDATA, add(CFA_XSP16, literal(-1)))
          CFI (cfiCond9) CFA_SP SP+-2
          CFI (cfiCond9) CFA_XSP16 add(XSP16, 172)
          CFI Block cfiCond10 Using cfiCommon0
          CFI (cfiCond10) Function pt_ZclReadGetProxyEntry
          CFI (cfiCond10) Conditional ??CrossCallReturnLabel_23
          CFI (cfiCond10) R6 load(1, XDATA, add(CFA_XSP16, literal(-24)))
          CFI (cfiCond10) VB load(1, XDATA, add(CFA_XSP16, literal(-23)))
          CFI (cfiCond10) V0 load(1, XDATA, add(CFA_XSP16, literal(-22)))
          CFI (cfiCond10) V1 load(1, XDATA, add(CFA_XSP16, literal(-21)))
          CFI (cfiCond10) V2 load(1, XDATA, add(CFA_XSP16, literal(-20)))
          CFI (cfiCond10) V3 load(1, XDATA, add(CFA_XSP16, literal(-19)))
          CFI (cfiCond10) V4 load(1, XDATA, add(CFA_XSP16, literal(-18)))
          CFI (cfiCond10) V5 load(1, XDATA, add(CFA_XSP16, literal(-17)))
          CFI (cfiCond10) V6 load(1, XDATA, add(CFA_XSP16, literal(-16)))
          CFI (cfiCond10) V7 load(1, XDATA, add(CFA_XSP16, literal(-15)))
          CFI (cfiCond10) V8 load(1, XDATA, add(CFA_XSP16, literal(-14)))
          CFI (cfiCond10) V9 load(1, XDATA, add(CFA_XSP16, literal(-13)))
          CFI (cfiCond10) V10 load(1, XDATA, add(CFA_XSP16, literal(-12)))
          CFI (cfiCond10) V11 load(1, XDATA, add(CFA_XSP16, literal(-11)))
          CFI (cfiCond10) V12 load(1, XDATA, add(CFA_XSP16, literal(-10)))
          CFI (cfiCond10) V13 load(1, XDATA, add(CFA_XSP16, literal(-9)))
          CFI (cfiCond10) V14 load(1, XDATA, add(CFA_XSP16, literal(-8)))
          CFI (cfiCond10) V15 load(1, XDATA, add(CFA_XSP16, literal(-7)))
          CFI (cfiCond10) R7 load(1, XDATA, add(CFA_XSP16, literal(-6)))
          CFI (cfiCond10) ?RET_LOW load(1, XDATA, add(CFA_XSP16, literal(-5)))
          CFI (cfiCond10) ?RET_HIGH load(1, XDATA, add(CFA_XSP16, literal(-4)))
          CFI (cfiCond10) ?BRET_EXT load(1, XDATA, add(CFA_XSP16, literal(-3)))
          CFI (cfiCond10) DPL0 load(1, XDATA, add(CFA_XSP16, literal(-2)))
          CFI (cfiCond10) DPH0 load(1, XDATA, add(CFA_XSP16, literal(-1)))
          CFI (cfiCond10) CFA_SP SP+-2
          CFI (cfiCond10) CFA_XSP16 add(XSP16, 172)
          CFI Block cfiCond11 Using cfiCommon0
          CFI (cfiCond11) Function pt_ZclReadGetProxyEntry
          CFI (cfiCond11) Conditional ??CrossCallReturnLabel_24
          CFI (cfiCond11) R6 load(1, XDATA, add(CFA_XSP16, literal(-24)))
          CFI (cfiCond11) VB load(1, XDATA, add(CFA_XSP16, literal(-23)))
          CFI (cfiCond11) V0 load(1, XDATA, add(CFA_XSP16, literal(-22)))
          CFI (cfiCond11) V1 load(1, XDATA, add(CFA_XSP16, literal(-21)))
          CFI (cfiCond11) V2 load(1, XDATA, add(CFA_XSP16, literal(-20)))
          CFI (cfiCond11) V3 load(1, XDATA, add(CFA_XSP16, literal(-19)))
          CFI (cfiCond11) V4 load(1, XDATA, add(CFA_XSP16, literal(-18)))
          CFI (cfiCond11) V5 load(1, XDATA, add(CFA_XSP16, literal(-17)))
          CFI (cfiCond11) V6 load(1, XDATA, add(CFA_XSP16, literal(-16)))
          CFI (cfiCond11) V7 load(1, XDATA, add(CFA_XSP16, literal(-15)))
          CFI (cfiCond11) V8 load(1, XDATA, add(CFA_XSP16, literal(-14)))
          CFI (cfiCond11) V9 load(1, XDATA, add(CFA_XSP16, literal(-13)))
          CFI (cfiCond11) V10 load(1, XDATA, add(CFA_XSP16, literal(-12)))
          CFI (cfiCond11) V11 load(1, XDATA, add(CFA_XSP16, literal(-11)))
          CFI (cfiCond11) V12 load(1, XDATA, add(CFA_XSP16, literal(-10)))
          CFI (cfiCond11) V13 load(1, XDATA, add(CFA_XSP16, literal(-9)))
          CFI (cfiCond11) V14 load(1, XDATA, add(CFA_XSP16, literal(-8)))
          CFI (cfiCond11) V15 load(1, XDATA, add(CFA_XSP16, literal(-7)))
          CFI (cfiCond11) R7 load(1, XDATA, add(CFA_XSP16, literal(-6)))
          CFI (cfiCond11) ?RET_LOW load(1, XDATA, add(CFA_XSP16, literal(-5)))
          CFI (cfiCond11) ?RET_HIGH load(1, XDATA, add(CFA_XSP16, literal(-4)))
          CFI (cfiCond11) ?BRET_EXT load(1, XDATA, add(CFA_XSP16, literal(-3)))
          CFI (cfiCond11) DPL0 load(1, XDATA, add(CFA_XSP16, literal(-2)))
          CFI (cfiCond11) DPH0 load(1, XDATA, add(CFA_XSP16, literal(-1)))
          CFI (cfiCond11) CFA_SP SP+-2
          CFI (cfiCond11) CFA_XSP16 add(XSP16, 172)
          CFI Block cfiCond12 Using cfiCommon0
          CFI (cfiCond12) Function pt_ZclReadGetProxyEntry
          CFI (cfiCond12) Conditional ??CrossCallReturnLabel_25
          CFI (cfiCond12) R6 load(1, XDATA, add(CFA_XSP16, literal(-24)))
          CFI (cfiCond12) VB load(1, XDATA, add(CFA_XSP16, literal(-23)))
          CFI (cfiCond12) V0 load(1, XDATA, add(CFA_XSP16, literal(-22)))
          CFI (cfiCond12) V1 load(1, XDATA, add(CFA_XSP16, literal(-21)))
          CFI (cfiCond12) V2 load(1, XDATA, add(CFA_XSP16, literal(-20)))
          CFI (cfiCond12) V3 load(1, XDATA, add(CFA_XSP16, literal(-19)))
          CFI (cfiCond12) V4 load(1, XDATA, add(CFA_XSP16, literal(-18)))
          CFI (cfiCond12) V5 load(1, XDATA, add(CFA_XSP16, literal(-17)))
          CFI (cfiCond12) V6 load(1, XDATA, add(CFA_XSP16, literal(-16)))
          CFI (cfiCond12) V7 load(1, XDATA, add(CFA_XSP16, literal(-15)))
          CFI (cfiCond12) V8 load(1, XDATA, add(CFA_XSP16, literal(-14)))
          CFI (cfiCond12) V9 load(1, XDATA, add(CFA_XSP16, literal(-13)))
          CFI (cfiCond12) V10 load(1, XDATA, add(CFA_XSP16, literal(-12)))
          CFI (cfiCond12) V11 load(1, XDATA, add(CFA_XSP16, literal(-11)))
          CFI (cfiCond12) V12 load(1, XDATA, add(CFA_XSP16, literal(-10)))
          CFI (cfiCond12) V13 load(1, XDATA, add(CFA_XSP16, literal(-9)))
          CFI (cfiCond12) V14 load(1, XDATA, add(CFA_XSP16, literal(-8)))
          CFI (cfiCond12) V15 load(1, XDATA, add(CFA_XSP16, literal(-7)))
          CFI (cfiCond12) R7 load(1, XDATA, add(CFA_XSP16, literal(-6)))
          CFI (cfiCond12) ?RET_LOW load(1, XDATA, add(CFA_XSP16, literal(-5)))
          CFI (cfiCond12) ?RET_HIGH load(1, XDATA, add(CFA_XSP16, literal(-4)))
          CFI (cfiCond12) ?BRET_EXT load(1, XDATA, add(CFA_XSP16, literal(-3)))
          CFI (cfiCond12) DPL0 load(1, XDATA, add(CFA_XSP16, literal(-2)))
          CFI (cfiCond12) DPH0 load(1, XDATA, add(CFA_XSP16, literal(-1)))
          CFI (cfiCond12) CFA_SP SP+-2
          CFI (cfiCond12) CFA_XSP16 add(XSP16, 172)
          CFI Block cfiPicker13 Using cfiCommon1
          CFI (cfiPicker13) NoFunction
          CFI (cfiPicker13) Picker
        MOV       R2,DPL
        MOV       R3,DPH
          CFI EndBlock cfiCond1
          CFI EndBlock cfiCond2
          CFI EndBlock cfiCond3
          CFI EndBlock cfiCond4
          CFI EndBlock cfiCond5
          CFI EndBlock cfiCond6
          CFI EndBlock cfiCond7
          CFI EndBlock cfiCond8
          CFI EndBlock cfiCond9
          CFI EndBlock cfiCond10
          CFI EndBlock cfiCond11
          CFI EndBlock cfiCond12
          CFI EndBlock cfiPicker13
        REQUIRE ??Subroutine10_0
        ; // Fall through to label ??Subroutine10_0

        RSEG BANKED_CODE:HUGECODE:NOROOT(0)
??Subroutine10_0:
          CFI Block cfiCond14 Using cfiCommon0
          CFI Function gp_PairingUpdateProxyTlb
          CFI Conditional ??CrossCallReturnLabel_26
          CFI R6 load(1, XDATA, add(CFA_XSP16, literal(-20)))
          CFI VB load(1, XDATA, add(CFA_XSP16, literal(-19)))
          CFI V0 load(1, XDATA, add(CFA_XSP16, literal(-18)))
          CFI V1 load(1, XDATA, add(CFA_XSP16, literal(-17)))
          CFI V2 load(1, XDATA, add(CFA_XSP16, literal(-16)))
          CFI V3 load(1, XDATA, add(CFA_XSP16, literal(-15)))
          CFI V4 load(1, XDATA, add(CFA_XSP16, literal(-14)))
          CFI V5 load(1, XDATA, add(CFA_XSP16, literal(-13)))
          CFI V6 load(1, XDATA, add(CFA_XSP16, literal(-12)))
          CFI V7 load(1, XDATA, add(CFA_XSP16, literal(-11)))
          CFI V8 load(1, XDATA, add(CFA_XSP16, literal(-10)))
          CFI V9 load(1, XDATA, add(CFA_XSP16, literal(-9)))
          CFI V10 load(1, XDATA, add(CFA_XSP16, literal(-8)))
          CFI V11 load(1, XDATA, add(CFA_XSP16, literal(-7)))
          CFI R7 load(1, XDATA, add(CFA_XSP16, literal(-6)))
          CFI ?RET_LOW load(1, XDATA, add(CFA_XSP16, literal(-5)))
          CFI ?RET_HIGH load(1, XDATA, add(CFA_XSP16, literal(-4)))
          CFI ?BRET_EXT load(1, XDATA, add(CFA_XSP16, literal(-3)))
          CFI DPL0 load(1, XDATA, add(CFA_XSP16, literal(-2)))
          CFI DPH0 load(1, XDATA, add(CFA_XSP16, literal(-1)))
          CFI CFA_SP SP+-2
          CFI CFA_XSP16 add(XSP16, 94)
          CFI Block cfiCond15 Using cfiCommon0
          CFI (cfiCond15) Function gp_PairingUpdateProxyTlb
          CFI (cfiCond15) Conditional ??CrossCallReturnLabel_27
          CFI (cfiCond15) R6 load(1, XDATA, add(CFA_XSP16, literal(-20)))
          CFI (cfiCond15) VB load(1, XDATA, add(CFA_XSP16, literal(-19)))
          CFI (cfiCond15) V0 load(1, XDATA, add(CFA_XSP16, literal(-18)))
          CFI (cfiCond15) V1 load(1, XDATA, add(CFA_XSP16, literal(-17)))
          CFI (cfiCond15) V2 load(1, XDATA, add(CFA_XSP16, literal(-16)))
          CFI (cfiCond15) V3 load(1, XDATA, add(CFA_XSP16, literal(-15)))
          CFI (cfiCond15) V4 load(1, XDATA, add(CFA_XSP16, literal(-14)))
          CFI (cfiCond15) V5 load(1, XDATA, add(CFA_XSP16, literal(-13)))
          CFI (cfiCond15) V6 load(1, XDATA, add(CFA_XSP16, literal(-12)))
          CFI (cfiCond15) V7 load(1, XDATA, add(CFA_XSP16, literal(-11)))
          CFI (cfiCond15) V8 load(1, XDATA, add(CFA_XSP16, literal(-10)))
          CFI (cfiCond15) V9 load(1, XDATA, add(CFA_XSP16, literal(-9)))
          CFI (cfiCond15) V10 load(1, XDATA, add(CFA_XSP16, literal(-8)))
          CFI (cfiCond15) V11 load(1, XDATA, add(CFA_XSP16, literal(-7)))
          CFI (cfiCond15) R7 load(1, XDATA, add(CFA_XSP16, literal(-6)))
          CFI (cfiCond15) ?RET_LOW load(1, XDATA, add(CFA_XSP16, literal(-5)))
          CFI (cfiCond15) ?RET_HIGH load(1, XDATA, add(CFA_XSP16, literal(-4)))
          CFI (cfiCond15) ?BRET_EXT load(1, XDATA, add(CFA_XSP16, literal(-3)))
          CFI (cfiCond15) DPL0 load(1, XDATA, add(CFA_XSP16, literal(-2)))
          CFI (cfiCond15) DPH0 load(1, XDATA, add(CFA_XSP16, literal(-1)))
          CFI (cfiCond15) CFA_SP SP+-2
          CFI (cfiCond15) CFA_XSP16 add(XSP16, 94)
          CFI Block cfiCond16 Using cfiCommon0
          CFI (cfiCond16) Function gp_PairingUpdateProxyTlb
          CFI (cfiCond16) Conditional ??CrossCallReturnLabel_28
          CFI (cfiCond16) R6 load(1, XDATA, add(CFA_XSP16, literal(-20)))
          CFI (cfiCond16) VB load(1, XDATA, add(CFA_XSP16, literal(-19)))
          CFI (cfiCond16) V0 load(1, XDATA, add(CFA_XSP16, literal(-18)))
          CFI (cfiCond16) V1 load(1, XDATA, add(CFA_XSP16, literal(-17)))
          CFI (cfiCond16) V2 load(1, XDATA, add(CFA_XSP16, literal(-16)))
          CFI (cfiCond16) V3 load(1, XDATA, add(CFA_XSP16, literal(-15)))
          CFI (cfiCond16) V4 load(1, XDATA, add(CFA_XSP16, literal(-14)))
          CFI (cfiCond16) V5 load(1, XDATA, add(CFA_XSP16, literal(-13)))
          CFI (cfiCond16) V6 load(1, XDATA, add(CFA_XSP16, literal(-12)))
          CFI (cfiCond16) V7 load(1, XDATA, add(CFA_XSP16, literal(-11)))
          CFI (cfiCond16) V8 load(1, XDATA, add(CFA_XSP16, literal(-10)))
          CFI (cfiCond16) V9 load(1, XDATA, add(CFA_XSP16, literal(-9)))
          CFI (cfiCond16) V10 load(1, XDATA, add(CFA_XSP16, literal(-8)))
          CFI (cfiCond16) V11 load(1, XDATA, add(CFA_XSP16, literal(-7)))
          CFI (cfiCond16) R7 load(1, XDATA, add(CFA_XSP16, literal(-6)))
          CFI (cfiCond16) ?RET_LOW load(1, XDATA, add(CFA_XSP16, literal(-5)))
          CFI (cfiCond16) ?RET_HIGH load(1, XDATA, add(CFA_XSP16, literal(-4)))
          CFI (cfiCond16) ?BRET_EXT load(1, XDATA, add(CFA_XSP16, literal(-3)))
          CFI (cfiCond16) DPL0 load(1, XDATA, add(CFA_XSP16, literal(-2)))
          CFI (cfiCond16) DPH0 load(1, XDATA, add(CFA_XSP16, literal(-1)))
          CFI (cfiCond16) CFA_SP SP+-2
          CFI (cfiCond16) CFA_XSP16 add(XSP16, 94)
          CFI Block cfiCond17 Using cfiCommon0
          CFI (cfiCond17) Function gp_PairingUpdateProxyTlb
          CFI (cfiCond17) Conditional ??CrossCallReturnLabel_29
          CFI (cfiCond17) R6 load(1, XDATA, add(CFA_XSP16, literal(-20)))
          CFI (cfiCond17) VB load(1, XDATA, add(CFA_XSP16, literal(-19)))
          CFI (cfiCond17) V0 load(1, XDATA, add(CFA_XSP16, literal(-18)))
          CFI (cfiCond17) V1 load(1, XDATA, add(CFA_XSP16, literal(-17)))
          CFI (cfiCond17) V2 load(1, XDATA, add(CFA_XSP16, literal(-16)))
          CFI (cfiCond17) V3 load(1, XDATA, add(CFA_XSP16, literal(-15)))
          CFI (cfiCond17) V4 load(1, XDATA, add(CFA_XSP16, literal(-14)))
          CFI (cfiCond17) V5 load(1, XDATA, add(CFA_XSP16, literal(-13)))
          CFI (cfiCond17) V6 load(1, XDATA, add(CFA_XSP16, literal(-12)))
          CFI (cfiCond17) V7 load(1, XDATA, add(CFA_XSP16, literal(-11)))
          CFI (cfiCond17) V8 load(1, XDATA, add(CFA_XSP16, literal(-10)))
          CFI (cfiCond17) V9 load(1, XDATA, add(CFA_XSP16, literal(-9)))
          CFI (cfiCond17) V10 load(1, XDATA, add(CFA_XSP16, literal(-8)))
          CFI (cfiCond17) V11 load(1, XDATA, add(CFA_XSP16, literal(-7)))
          CFI (cfiCond17) R7 load(1, XDATA, add(CFA_XSP16, literal(-6)))
          CFI (cfiCond17) ?RET_LOW load(1, XDATA, add(CFA_XSP16, literal(-5)))
          CFI (cfiCond17) ?RET_HIGH load(1, XDATA, add(CFA_XSP16, literal(-4)))
          CFI (cfiCond17) ?BRET_EXT load(1, XDATA, add(CFA_XSP16, literal(-3)))
          CFI (cfiCond17) DPL0 load(1, XDATA, add(CFA_XSP16, literal(-2)))
          CFI (cfiCond17) DPH0 load(1, XDATA, add(CFA_XSP16, literal(-1)))
          CFI (cfiCond17) CFA_SP SP+-2
          CFI (cfiCond17) CFA_XSP16 add(XSP16, 94)
          CFI Block cfiCond18 Using cfiCommon0
          CFI (cfiCond18) Function gp_PairingUpdateProxyTlb
          CFI (cfiCond18) Conditional ??CrossCallReturnLabel_30
          CFI (cfiCond18) R6 load(1, XDATA, add(CFA_XSP16, literal(-20)))
          CFI (cfiCond18) VB load(1, XDATA, add(CFA_XSP16, literal(-19)))
          CFI (cfiCond18) V0 load(1, XDATA, add(CFA_XSP16, literal(-18)))
          CFI (cfiCond18) V1 load(1, XDATA, add(CFA_XSP16, literal(-17)))
          CFI (cfiCond18) V2 load(1, XDATA, add(CFA_XSP16, literal(-16)))
          CFI (cfiCond18) V3 load(1, XDATA, add(CFA_XSP16, literal(-15)))
          CFI (cfiCond18) V4 load(1, XDATA, add(CFA_XSP16, literal(-14)))
          CFI (cfiCond18) V5 load(1, XDATA, add(CFA_XSP16, literal(-13)))
          CFI (cfiCond18) V6 load(1, XDATA, add(CFA_XSP16, literal(-12)))
          CFI (cfiCond18) V7 load(1, XDATA, add(CFA_XSP16, literal(-11)))
          CFI (cfiCond18) V8 load(1, XDATA, add(CFA_XSP16, literal(-10)))
          CFI (cfiCond18) V9 load(1, XDATA, add(CFA_XSP16, literal(-9)))
          CFI (cfiCond18) V10 load(1, XDATA, add(CFA_XSP16, literal(-8)))
          CFI (cfiCond18) V11 load(1, XDATA, add(CFA_XSP16, literal(-7)))
          CFI (cfiCond18) R7 load(1, XDATA, add(CFA_XSP16, literal(-6)))
          CFI (cfiCond18) ?RET_LOW load(1, XDATA, add(CFA_XSP16, literal(-5)))
          CFI (cfiCond18) ?RET_HIGH load(1, XDATA, add(CFA_XSP16, literal(-4)))
          CFI (cfiCond18) ?BRET_EXT load(1, XDATA, add(CFA_XSP16, literal(-3)))
          CFI (cfiCond18) DPL0 load(1, XDATA, add(CFA_XSP16, literal(-2)))
          CFI (cfiCond18) DPH0 load(1, XDATA, add(CFA_XSP16, literal(-1)))
          CFI (cfiCond18) CFA_SP SP+-2
          CFI (cfiCond18) CFA_XSP16 add(XSP16, 94)
          CFI Block cfiCond19 Using cfiCommon0
          CFI (cfiCond19) Function gp_PairingUpdateProxyTlb
          CFI (cfiCond19) Conditional ??CrossCallReturnLabel_31
          CFI (cfiCond19) R6 load(1, XDATA, add(CFA_XSP16, literal(-20)))
          CFI (cfiCond19) VB load(1, XDATA, add(CFA_XSP16, literal(-19)))
          CFI (cfiCond19) V0 load(1, XDATA, add(CFA_XSP16, literal(-18)))
          CFI (cfiCond19) V1 load(1, XDATA, add(CFA_XSP16, literal(-17)))
          CFI (cfiCond19) V2 load(1, XDATA, add(CFA_XSP16, literal(-16)))
          CFI (cfiCond19) V3 load(1, XDATA, add(CFA_XSP16, literal(-15)))
          CFI (cfiCond19) V4 load(1, XDATA, add(CFA_XSP16, literal(-14)))
          CFI (cfiCond19) V5 load(1, XDATA, add(CFA_XSP16, literal(-13)))
          CFI (cfiCond19) V6 load(1, XDATA, add(CFA_XSP16, literal(-12)))
          CFI (cfiCond19) V7 load(1, XDATA, add(CFA_XSP16, literal(-11)))
          CFI (cfiCond19) V8 load(1, XDATA, add(CFA_XSP16, literal(-10)))
          CFI (cfiCond19) V9 load(1, XDATA, add(CFA_XSP16, literal(-9)))
          CFI (cfiCond19) V10 load(1, XDATA, add(CFA_XSP16, literal(-8)))
          CFI (cfiCond19) V11 load(1, XDATA, add(CFA_XSP16, literal(-7)))
          CFI (cfiCond19) R7 load(1, XDATA, add(CFA_XSP16, literal(-6)))
          CFI (cfiCond19) ?RET_LOW load(1, XDATA, add(CFA_XSP16, literal(-5)))
          CFI (cfiCond19) ?RET_HIGH load(1, XDATA, add(CFA_XSP16, literal(-4)))
          CFI (cfiCond19) ?BRET_EXT load(1, XDATA, add(CFA_XSP16, literal(-3)))
          CFI (cfiCond19) DPL0 load(1, XDATA, add(CFA_XSP16, literal(-2)))
          CFI (cfiCond19) DPH0 load(1, XDATA, add(CFA_XSP16, literal(-1)))
          CFI (cfiCond19) CFA_SP SP+-2
          CFI (cfiCond19) CFA_XSP16 add(XSP16, 94)
          CFI Block cfiCond20 Using cfiCommon0
          CFI (cfiCond20) Function gp_PairingUpdateProxyTlb
          CFI (cfiCond20) Conditional ??CrossCallReturnLabel_32
          CFI (cfiCond20) R6 load(1, XDATA, add(CFA_XSP16, literal(-20)))
          CFI (cfiCond20) VB load(1, XDATA, add(CFA_XSP16, literal(-19)))
          CFI (cfiCond20) V0 load(1, XDATA, add(CFA_XSP16, literal(-18)))
          CFI (cfiCond20) V1 load(1, XDATA, add(CFA_XSP16, literal(-17)))
          CFI (cfiCond20) V2 load(1, XDATA, add(CFA_XSP16, literal(-16)))
          CFI (cfiCond20) V3 load(1, XDATA, add(CFA_XSP16, literal(-15)))
          CFI (cfiCond20) V4 load(1, XDATA, add(CFA_XSP16, literal(-14)))
          CFI (cfiCond20) V5 load(1, XDATA, add(CFA_XSP16, literal(-13)))
          CFI (cfiCond20) V6 load(1, XDATA, add(CFA_XSP16, literal(-12)))
          CFI (cfiCond20) V7 load(1, XDATA, add(CFA_XSP16, literal(-11)))
          CFI (cfiCond20) V8 load(1, XDATA, add(CFA_XSP16, literal(-10)))
          CFI (cfiCond20) V9 load(1, XDATA, add(CFA_XSP16, literal(-9)))
          CFI (cfiCond20) V10 load(1, XDATA, add(CFA_XSP16, literal(-8)))
          CFI (cfiCond20) V11 load(1, XDATA, add(CFA_XSP16, literal(-7)))
          CFI (cfiCond20) R7 load(1, XDATA, add(CFA_XSP16, literal(-6)))
          CFI (cfiCond20) ?RET_LOW load(1, XDATA, add(CFA_XSP16, literal(-5)))
          CFI (cfiCond20) ?RET_HIGH load(1, XDATA, add(CFA_XSP16, literal(-4)))
          CFI (cfiCond20) ?BRET_EXT load(1, XDATA, add(CFA_XSP16, literal(-3)))
          CFI (cfiCond20) DPL0 load(1, XDATA, add(CFA_XSP16, literal(-2)))
          CFI (cfiCond20) DPH0 load(1, XDATA, add(CFA_XSP16, literal(-1)))
          CFI (cfiCond20) CFA_SP SP+-2
          CFI (cfiCond20) CFA_XSP16 add(XSP16, 94)
          CFI Block cfiCond21 Using cfiCommon0
          CFI (cfiCond21) Function gp_PairingUpdateProxyTlb
          CFI (cfiCond21) Conditional ??CrossCallReturnLabel_33
          CFI (cfiCond21) R6 load(1, XDATA, add(CFA_XSP16, literal(-20)))
          CFI (cfiCond21) VB load(1, XDATA, add(CFA_XSP16, literal(-19)))
          CFI (cfiCond21) V0 load(1, XDATA, add(CFA_XSP16, literal(-18)))
          CFI (cfiCond21) V1 load(1, XDATA, add(CFA_XSP16, literal(-17)))
          CFI (cfiCond21) V2 load(1, XDATA, add(CFA_XSP16, literal(-16)))
          CFI (cfiCond21) V3 load(1, XDATA, add(CFA_XSP16, literal(-15)))
          CFI (cfiCond21) V4 load(1, XDATA, add(CFA_XSP16, literal(-14)))
          CFI (cfiCond21) V5 load(1, XDATA, add(CFA_XSP16, literal(-13)))
          CFI (cfiCond21) V6 load(1, XDATA, add(CFA_XSP16, literal(-12)))
          CFI (cfiCond21) V7 load(1, XDATA, add(CFA_XSP16, literal(-11)))
          CFI (cfiCond21) V8 load(1, XDATA, add(CFA_XSP16, literal(-10)))
          CFI (cfiCond21) V9 load(1, XDATA, add(CFA_XSP16, literal(-9)))
          CFI (cfiCond21) V10 load(1, XDATA, add(CFA_XSP16, literal(-8)))
          CFI (cfiCond21) V11 load(1, XDATA, add(CFA_XSP16, literal(-7)))
          CFI (cfiCond21) R7 load(1, XDATA, add(CFA_XSP16, literal(-6)))
          CFI (cfiCond21) ?RET_LOW load(1, XDATA, add(CFA_XSP16, literal(-5)))
          CFI (cfiCond21) ?RET_HIGH load(1, XDATA, add(CFA_XSP16, literal(-4)))
          CFI (cfiCond21) ?BRET_EXT load(1, XDATA, add(CFA_XSP16, literal(-3)))
          CFI (cfiCond21) DPL0 load(1, XDATA, add(CFA_XSP16, literal(-2)))
          CFI (cfiCond21) DPH0 load(1, XDATA, add(CFA_XSP16, literal(-1)))
          CFI (cfiCond21) CFA_SP SP+-2
          CFI (cfiCond21) CFA_XSP16 add(XSP16, 94)
          CFI Block cfiCond22 Using cfiCommon0
          CFI (cfiCond22) Function gp_PairingUpdateProxyTlb
          CFI (cfiCond22) Conditional ??CrossCallReturnLabel_34
          CFI (cfiCond22) R6 load(1, XDATA, add(CFA_XSP16, literal(-20)))
          CFI (cfiCond22) VB load(1, XDATA, add(CFA_XSP16, literal(-19)))
          CFI (cfiCond22) V0 load(1, XDATA, add(CFA_XSP16, literal(-18)))
          CFI (cfiCond22) V1 load(1, XDATA, add(CFA_XSP16, literal(-17)))
          CFI (cfiCond22) V2 load(1, XDATA, add(CFA_XSP16, literal(-16)))
          CFI (cfiCond22) V3 load(1, XDATA, add(CFA_XSP16, literal(-15)))
          CFI (cfiCond22) V4 load(1, XDATA, add(CFA_XSP16, literal(-14)))
          CFI (cfiCond22) V5 load(1, XDATA, add(CFA_XSP16, literal(-13)))
          CFI (cfiCond22) V6 load(1, XDATA, add(CFA_XSP16, literal(-12)))
          CFI (cfiCond22) V7 load(1, XDATA, add(CFA_XSP16, literal(-11)))
          CFI (cfiCond22) V8 load(1, XDATA, add(CFA_XSP16, literal(-10)))
          CFI (cfiCond22) V9 load(1, XDATA, add(CFA_XSP16, literal(-9)))
          CFI (cfiCond22) V10 load(1, XDATA, add(CFA_XSP16, literal(-8)))
          CFI (cfiCond22) V11 load(1, XDATA, add(CFA_XSP16, literal(-7)))
          CFI (cfiCond22) R7 load(1, XDATA, add(CFA_XSP16, literal(-6)))
          CFI (cfiCond22) ?RET_LOW load(1, XDATA, add(CFA_XSP16, literal(-5)))
          CFI (cfiCond22) ?RET_HIGH load(1, XDATA, add(CFA_XSP16, literal(-4)))
          CFI (cfiCond22) ?BRET_EXT load(1, XDATA, add(CFA_XSP16, literal(-3)))
          CFI (cfiCond22) DPL0 load(1, XDATA, add(CFA_XSP16, literal(-2)))
          CFI (cfiCond22) DPH0 load(1, XDATA, add(CFA_XSP16, literal(-1)))
          CFI (cfiCond22) CFA_SP SP+-2
          CFI (cfiCond22) CFA_XSP16 add(XSP16, 94)
          CFI Block cfiCond23 Using cfiCommon0
          CFI (cfiCond23) Function gp_PairingUpdateProxyTlb
          CFI (cfiCond23) Conditional ??CrossCallReturnLabel_35
          CFI (cfiCond23) R6 load(1, XDATA, add(CFA_XSP16, literal(-20)))
          CFI (cfiCond23) VB load(1, XDATA, add(CFA_XSP16, literal(-19)))
          CFI (cfiCond23) V0 load(1, XDATA, add(CFA_XSP16, literal(-18)))
          CFI (cfiCond23) V1 load(1, XDATA, add(CFA_XSP16, literal(-17)))
          CFI (cfiCond23) V2 load(1, XDATA, add(CFA_XSP16, literal(-16)))
          CFI (cfiCond23) V3 load(1, XDATA, add(CFA_XSP16, literal(-15)))
          CFI (cfiCond23) V4 load(1, XDATA, add(CFA_XSP16, literal(-14)))
          CFI (cfiCond23) V5 load(1, XDATA, add(CFA_XSP16, literal(-13)))
          CFI (cfiCond23) V6 load(1, XDATA, add(CFA_XSP16, literal(-12)))
          CFI (cfiCond23) V7 load(1, XDATA, add(CFA_XSP16, literal(-11)))
          CFI (cfiCond23) V8 load(1, XDATA, add(CFA_XSP16, literal(-10)))
          CFI (cfiCond23) V9 load(1, XDATA, add(CFA_XSP16, literal(-9)))
          CFI (cfiCond23) V10 load(1, XDATA, add(CFA_XSP16, literal(-8)))
          CFI (cfiCond23) V11 load(1, XDATA, add(CFA_XSP16, literal(-7)))
          CFI (cfiCond23) R7 load(1, XDATA, add(CFA_XSP16, literal(-6)))
          CFI (cfiCond23) ?RET_LOW load(1, XDATA, add(CFA_XSP16, literal(-5)))
          CFI (cfiCond23) ?RET_HIGH load(1, XDATA, add(CFA_XSP16, literal(-4)))
          CFI (cfiCond23) ?BRET_EXT load(1, XDATA, add(CFA_XSP16, literal(-3)))
          CFI (cfiCond23) DPL0 load(1, XDATA, add(CFA_XSP16, literal(-2)))
          CFI (cfiCond23) DPH0 load(1, XDATA, add(CFA_XSP16, literal(-1)))
          CFI (cfiCond23) CFA_SP SP+-2
          CFI (cfiCond23) CFA_XSP16 add(XSP16, 94)
          CFI Block cfiCond24 Using cfiCommon0
          CFI (cfiCond24) Function gp_PairingUpdateProxyTlb
          CFI (cfiCond24) Conditional ??CrossCallReturnLabel_36
          CFI (cfiCond24) R6 load(1, XDATA, add(CFA_XSP16, literal(-20)))
          CFI (cfiCond24) VB load(1, XDATA, add(CFA_XSP16, literal(-19)))
          CFI (cfiCond24) V0 load(1, XDATA, add(CFA_XSP16, literal(-18)))
          CFI (cfiCond24) V1 load(1, XDATA, add(CFA_XSP16, literal(-17)))
          CFI (cfiCond24) V2 load(1, XDATA, add(CFA_XSP16, literal(-16)))
          CFI (cfiCond24) V3 load(1, XDATA, add(CFA_XSP16, literal(-15)))
          CFI (cfiCond24) V4 load(1, XDATA, add(CFA_XSP16, literal(-14)))
          CFI (cfiCond24) V5 load(1, XDATA, add(CFA_XSP16, literal(-13)))
          CFI (cfiCond24) V6 load(1, XDATA, add(CFA_XSP16, literal(-12)))
          CFI (cfiCond24) V7 load(1, XDATA, add(CFA_XSP16, literal(-11)))
          CFI (cfiCond24) V8 load(1, XDATA, add(CFA_XSP16, literal(-10)))
          CFI (cfiCond24) V9 load(1, XDATA, add(CFA_XSP16, literal(-9)))
          CFI (cfiCond24) V10 load(1, XDATA, add(CFA_XSP16, literal(-8)))
          CFI (cfiCond24) V11 load(1, XDATA, add(CFA_XSP16, literal(-7)))
          CFI (cfiCond24) R7 load(1, XDATA, add(CFA_XSP16, literal(-6)))
          CFI (cfiCond24) ?RET_LOW load(1, XDATA, add(CFA_XSP16, literal(-5)))
          CFI (cfiCond24) ?RET_HIGH load(1, XDATA, add(CFA_XSP16, literal(-4)))
          CFI (cfiCond24) ?BRET_EXT load(1, XDATA, add(CFA_XSP16, literal(-3)))
          CFI (cfiCond24) DPL0 load(1, XDATA, add(CFA_XSP16, literal(-2)))
          CFI (cfiCond24) DPH0 load(1, XDATA, add(CFA_XSP16, literal(-1)))
          CFI (cfiCond24) CFA_SP SP+-2
          CFI (cfiCond24) CFA_XSP16 add(XSP16, 94)
          CFI Block cfiCond25 Using cfiCommon0
          CFI (cfiCond25) Function gp_PairingUpdateProxyTlb
          CFI (cfiCond25) Conditional ??CrossCallReturnLabel_37
          CFI (cfiCond25) R6 load(1, XDATA, add(CFA_XSP16, literal(-20)))
          CFI (cfiCond25) VB load(1, XDATA, add(CFA_XSP16, literal(-19)))
          CFI (cfiCond25) V0 load(1, XDATA, add(CFA_XSP16, literal(-18)))
          CFI (cfiCond25) V1 load(1, XDATA, add(CFA_XSP16, literal(-17)))
          CFI (cfiCond25) V2 load(1, XDATA, add(CFA_XSP16, literal(-16)))
          CFI (cfiCond25) V3 load(1, XDATA, add(CFA_XSP16, literal(-15)))
          CFI (cfiCond25) V4 load(1, XDATA, add(CFA_XSP16, literal(-14)))
          CFI (cfiCond25) V5 load(1, XDATA, add(CFA_XSP16, literal(-13)))
          CFI (cfiCond25) V6 load(1, XDATA, add(CFA_XSP16, literal(-12)))
          CFI (cfiCond25) V7 load(1, XDATA, add(CFA_XSP16, literal(-11)))
          CFI (cfiCond25) V8 load(1, XDATA, add(CFA_XSP16, literal(-10)))
          CFI (cfiCond25) V9 load(1, XDATA, add(CFA_XSP16, literal(-9)))
          CFI (cfiCond25) V10 load(1, XDATA, add(CFA_XSP16, literal(-8)))
          CFI (cfiCond25) V11 load(1, XDATA, add(CFA_XSP16, literal(-7)))
          CFI (cfiCond25) R7 load(1, XDATA, add(CFA_XSP16, literal(-6)))
          CFI (cfiCond25) ?RET_LOW load(1, XDATA, add(CFA_XSP16, literal(-5)))
          CFI (cfiCond25) ?RET_HIGH load(1, XDATA, add(CFA_XSP16, literal(-4)))
          CFI (cfiCond25) ?BRET_EXT load(1, XDATA, add(CFA_XSP16, literal(-3)))
          CFI (cfiCond25) DPL0 load(1, XDATA, add(CFA_XSP16, literal(-2)))
          CFI (cfiCond25) DPH0 load(1, XDATA, add(CFA_XSP16, literal(-1)))
          CFI (cfiCond25) CFA_SP SP+-2
          CFI (cfiCond25) CFA_XSP16 add(XSP16, 94)
          CFI Block cfiCond26 Using cfiCommon0
          CFI (cfiCond26) Function gp_PairingUpdateProxyTlb
          CFI (cfiCond26) Conditional ??CrossCallReturnLabel_38
          CFI (cfiCond26) R6 load(1, XDATA, add(CFA_XSP16, literal(-20)))
          CFI (cfiCond26) VB load(1, XDATA, add(CFA_XSP16, literal(-19)))
          CFI (cfiCond26) V0 load(1, XDATA, add(CFA_XSP16, literal(-18)))
          CFI (cfiCond26) V1 load(1, XDATA, add(CFA_XSP16, literal(-17)))
          CFI (cfiCond26) V2 load(1, XDATA, add(CFA_XSP16, literal(-16)))
          CFI (cfiCond26) V3 load(1, XDATA, add(CFA_XSP16, literal(-15)))
          CFI (cfiCond26) V4 load(1, XDATA, add(CFA_XSP16, literal(-14)))
          CFI (cfiCond26) V5 load(1, XDATA, add(CFA_XSP16, literal(-13)))
          CFI (cfiCond26) V6 load(1, XDATA, add(CFA_XSP16, literal(-12)))
          CFI (cfiCond26) V7 load(1, XDATA, add(CFA_XSP16, literal(-11)))
          CFI (cfiCond26) V8 load(1, XDATA, add(CFA_XSP16, literal(-10)))
          CFI (cfiCond26) V9 load(1, XDATA, add(CFA_XSP16, literal(-9)))
          CFI (cfiCond26) V10 load(1, XDATA, add(CFA_XSP16, literal(-8)))
          CFI (cfiCond26) V11 load(1, XDATA, add(CFA_XSP16, literal(-7)))
          CFI (cfiCond26) R7 load(1, XDATA, add(CFA_XSP16, literal(-6)))
          CFI (cfiCond26) ?RET_LOW load(1, XDATA, add(CFA_XSP16, literal(-5)))
          CFI (cfiCond26) ?RET_HIGH load(1, XDATA, add(CFA_XSP16, literal(-4)))
          CFI (cfiCond26) ?BRET_EXT load(1, XDATA, add(CFA_XSP16, literal(-3)))
          CFI (cfiCond26) DPL0 load(1, XDATA, add(CFA_XSP16, literal(-2)))
          CFI (cfiCond26) DPH0 load(1, XDATA, add(CFA_XSP16, literal(-1)))
          CFI (cfiCond26) CFA_SP SP+-2
          CFI (cfiCond26) CFA_XSP16 add(XSP16, 94)
          CFI Block cfiCond27 Using cfiCommon0
          CFI (cfiCond27) Function gp_PairingUpdateProxyTlb
          CFI (cfiCond27) Conditional ??CrossCallReturnLabel_39
          CFI (cfiCond27) R6 load(1, XDATA, add(CFA_XSP16, literal(-20)))
          CFI (cfiCond27) VB load(1, XDATA, add(CFA_XSP16, literal(-19)))
          CFI (cfiCond27) V0 load(1, XDATA, add(CFA_XSP16, literal(-18)))
          CFI (cfiCond27) V1 load(1, XDATA, add(CFA_XSP16, literal(-17)))
          CFI (cfiCond27) V2 load(1, XDATA, add(CFA_XSP16, literal(-16)))
          CFI (cfiCond27) V3 load(1, XDATA, add(CFA_XSP16, literal(-15)))
          CFI (cfiCond27) V4 load(1, XDATA, add(CFA_XSP16, literal(-14)))
          CFI (cfiCond27) V5 load(1, XDATA, add(CFA_XSP16, literal(-13)))
          CFI (cfiCond27) V6 load(1, XDATA, add(CFA_XSP16, literal(-12)))
          CFI (cfiCond27) V7 load(1, XDATA, add(CFA_XSP16, literal(-11)))
          CFI (cfiCond27) V8 load(1, XDATA, add(CFA_XSP16, literal(-10)))
          CFI (cfiCond27) V9 load(1, XDATA, add(CFA_XSP16, literal(-9)))
          CFI (cfiCond27) V10 load(1, XDATA, add(CFA_XSP16, literal(-8)))
          CFI (cfiCond27) V11 load(1, XDATA, add(CFA_XSP16, literal(-7)))
          CFI (cfiCond27) R7 load(1, XDATA, add(CFA_XSP16, literal(-6)))
          CFI (cfiCond27) ?RET_LOW load(1, XDATA, add(CFA_XSP16, literal(-5)))
          CFI (cfiCond27) ?RET_HIGH load(1, XDATA, add(CFA_XSP16, literal(-4)))
          CFI (cfiCond27) ?BRET_EXT load(1, XDATA, add(CFA_XSP16, literal(-3)))
          CFI (cfiCond27) DPL0 load(1, XDATA, add(CFA_XSP16, literal(-2)))
          CFI (cfiCond27) DPH0 load(1, XDATA, add(CFA_XSP16, literal(-1)))
          CFI (cfiCond27) CFA_SP SP+-2
          CFI (cfiCond27) CFA_XSP16 add(XSP16, 94)
          CFI Block cfiCond28 Using cfiCommon0
          CFI (cfiCond28) Function gp_PairingUpdateProxyTlb
          CFI (cfiCond28) Conditional ??CrossCallReturnLabel_40
          CFI (cfiCond28) R6 load(1, XDATA, add(CFA_XSP16, literal(-20)))
          CFI (cfiCond28) VB load(1, XDATA, add(CFA_XSP16, literal(-19)))
          CFI (cfiCond28) V0 load(1, XDATA, add(CFA_XSP16, literal(-18)))
          CFI (cfiCond28) V1 load(1, XDATA, add(CFA_XSP16, literal(-17)))
          CFI (cfiCond28) V2 load(1, XDATA, add(CFA_XSP16, literal(-16)))
          CFI (cfiCond28) V3 load(1, XDATA, add(CFA_XSP16, literal(-15)))
          CFI (cfiCond28) V4 load(1, XDATA, add(CFA_XSP16, literal(-14)))
          CFI (cfiCond28) V5 load(1, XDATA, add(CFA_XSP16, literal(-13)))
          CFI (cfiCond28) V6 load(1, XDATA, add(CFA_XSP16, literal(-12)))
          CFI (cfiCond28) V7 load(1, XDATA, add(CFA_XSP16, literal(-11)))
          CFI (cfiCond28) V8 load(1, XDATA, add(CFA_XSP16, literal(-10)))
          CFI (cfiCond28) V9 load(1, XDATA, add(CFA_XSP16, literal(-9)))
          CFI (cfiCond28) V10 load(1, XDATA, add(CFA_XSP16, literal(-8)))
          CFI (cfiCond28) V11 load(1, XDATA, add(CFA_XSP16, literal(-7)))
          CFI (cfiCond28) R7 load(1, XDATA, add(CFA_XSP16, literal(-6)))
          CFI (cfiCond28) ?RET_LOW load(1, XDATA, add(CFA_XSP16, literal(-5)))
          CFI (cfiCond28) ?RET_HIGH load(1, XDATA, add(CFA_XSP16, literal(-4)))
          CFI (cfiCond28) ?BRET_EXT load(1, XDATA, add(CFA_XSP16, literal(-3)))
          CFI (cfiCond28) DPL0 load(1, XDATA, add(CFA_XSP16, literal(-2)))
          CFI (cfiCond28) DPH0 load(1, XDATA, add(CFA_XSP16, literal(-1)))
          CFI (cfiCond28) CFA_SP SP+-2
          CFI (cfiCond28) CFA_XSP16 add(XSP16, 94)
          CFI Block cfiCond29 Using cfiCommon0
          CFI (cfiCond29) Function pt_ZclReadGetProxyEntry
          CFI (cfiCond29) Conditional ??CrossCallReturnLabel_14
          CFI (cfiCond29) R6 load(1, XDATA, add(CFA_XSP16, literal(-24)))
          CFI (cfiCond29) VB load(1, XDATA, add(CFA_XSP16, literal(-23)))
          CFI (cfiCond29) V0 load(1, XDATA, add(CFA_XSP16, literal(-22)))
          CFI (cfiCond29) V1 load(1, XDATA, add(CFA_XSP16, literal(-21)))
          CFI (cfiCond29) V2 load(1, XDATA, add(CFA_XSP16, literal(-20)))
          CFI (cfiCond29) V3 load(1, XDATA, add(CFA_XSP16, literal(-19)))
          CFI (cfiCond29) V4 load(1, XDATA, add(CFA_XSP16, literal(-18)))
          CFI (cfiCond29) V5 load(1, XDATA, add(CFA_XSP16, literal(-17)))
          CFI (cfiCond29) V6 load(1, XDATA, add(CFA_XSP16, literal(-16)))
          CFI (cfiCond29) V7 load(1, XDATA, add(CFA_XSP16, literal(-15)))
          CFI (cfiCond29) V8 load(1, XDATA, add(CFA_XSP16, literal(-14)))
          CFI (cfiCond29) V9 load(1, XDATA, add(CFA_XSP16, literal(-13)))
          CFI (cfiCond29) V10 load(1, XDATA, add(CFA_XSP16, literal(-12)))
          CFI (cfiCond29) V11 load(1, XDATA, add(CFA_XSP16, literal(-11)))
          CFI (cfiCond29) V12 load(1, XDATA, add(CFA_XSP16, literal(-10)))
          CFI (cfiCond29) V13 load(1, XDATA, add(CFA_XSP16, literal(-9)))
          CFI (cfiCond29) V14 load(1, XDATA, add(CFA_XSP16, literal(-8)))
          CFI (cfiCond29) V15 load(1, XDATA, add(CFA_XSP16, literal(-7)))
          CFI (cfiCond29) R7 load(1, XDATA, add(CFA_XSP16, literal(-6)))
          CFI (cfiCond29) ?RET_LOW load(1, XDATA, add(CFA_XSP16, literal(-5)))
          CFI (cfiCond29) ?RET_HIGH load(1, XDATA, add(CFA_XSP16, literal(-4)))
          CFI (cfiCond29) ?BRET_EXT load(1, XDATA, add(CFA_XSP16, literal(-3)))
          CFI (cfiCond29) DPL0 load(1, XDATA, add(CFA_XSP16, literal(-2)))
          CFI (cfiCond29) DPH0 load(1, XDATA, add(CFA_XSP16, literal(-1)))
          CFI (cfiCond29) CFA_SP SP+-2
          CFI (cfiCond29) CFA_XSP16 add(XSP16, 172)
          CFI Block cfiCond30 Using cfiCommon0
          CFI (cfiCond30) Function pt_ZclReadGetProxyEntry
          CFI (cfiCond30) Conditional ??CrossCallReturnLabel_15
          CFI (cfiCond30) R6 load(1, XDATA, add(CFA_XSP16, literal(-24)))
          CFI (cfiCond30) VB load(1, XDATA, add(CFA_XSP16, literal(-23)))
          CFI (cfiCond30) V0 load(1, XDATA, add(CFA_XSP16, literal(-22)))
          CFI (cfiCond30) V1 load(1, XDATA, add(CFA_XSP16, literal(-21)))
          CFI (cfiCond30) V2 load(1, XDATA, add(CFA_XSP16, literal(-20)))
          CFI (cfiCond30) V3 load(1, XDATA, add(CFA_XSP16, literal(-19)))
          CFI (cfiCond30) V4 load(1, XDATA, add(CFA_XSP16, literal(-18)))
          CFI (cfiCond30) V5 load(1, XDATA, add(CFA_XSP16, literal(-17)))
          CFI (cfiCond30) V6 load(1, XDATA, add(CFA_XSP16, literal(-16)))
          CFI (cfiCond30) V7 load(1, XDATA, add(CFA_XSP16, literal(-15)))
          CFI (cfiCond30) V8 load(1, XDATA, add(CFA_XSP16, literal(-14)))
          CFI (cfiCond30) V9 load(1, XDATA, add(CFA_XSP16, literal(-13)))
          CFI (cfiCond30) V10 load(1, XDATA, add(CFA_XSP16, literal(-12)))
          CFI (cfiCond30) V11 load(1, XDATA, add(CFA_XSP16, literal(-11)))
          CFI (cfiCond30) V12 load(1, XDATA, add(CFA_XSP16, literal(-10)))
          CFI (cfiCond30) V13 load(1, XDATA, add(CFA_XSP16, literal(-9)))
          CFI (cfiCond30) V14 load(1, XDATA, add(CFA_XSP16, literal(-8)))
          CFI (cfiCond30) V15 load(1, XDATA, add(CFA_XSP16, literal(-7)))
          CFI (cfiCond30) R7 load(1, XDATA, add(CFA_XSP16, literal(-6)))
          CFI (cfiCond30) ?RET_LOW load(1, XDATA, add(CFA_XSP16, literal(-5)))
          CFI (cfiCond30) ?RET_HIGH load(1, XDATA, add(CFA_XSP16, literal(-4)))
          CFI (cfiCond30) ?BRET_EXT load(1, XDATA, add(CFA_XSP16, literal(-3)))
          CFI (cfiCond30) DPL0 load(1, XDATA, add(CFA_XSP16, literal(-2)))
          CFI (cfiCond30) DPH0 load(1, XDATA, add(CFA_XSP16, literal(-1)))
          CFI (cfiCond30) CFA_SP SP+-2
          CFI (cfiCond30) CFA_XSP16 add(XSP16, 172)
          CFI Block cfiCond31 Using cfiCommon0
          CFI (cfiCond31) Function pt_ZclReadGetProxyEntry
          CFI (cfiCond31) Conditional ??CrossCallReturnLabel_16
          CFI (cfiCond31) R6 load(1, XDATA, add(CFA_XSP16, literal(-24)))
          CFI (cfiCond31) VB load(1, XDATA, add(CFA_XSP16, literal(-23)))
          CFI (cfiCond31) V0 load(1, XDATA, add(CFA_XSP16, literal(-22)))
          CFI (cfiCond31) V1 load(1, XDATA, add(CFA_XSP16, literal(-21)))
          CFI (cfiCond31) V2 load(1, XDATA, add(CFA_XSP16, literal(-20)))
          CFI (cfiCond31) V3 load(1, XDATA, add(CFA_XSP16, literal(-19)))
          CFI (cfiCond31) V4 load(1, XDATA, add(CFA_XSP16, literal(-18)))
          CFI (cfiCond31) V5 load(1, XDATA, add(CFA_XSP16, literal(-17)))
          CFI (cfiCond31) V6 load(1, XDATA, add(CFA_XSP16, literal(-16)))
          CFI (cfiCond31) V7 load(1, XDATA, add(CFA_XSP16, literal(-15)))
          CFI (cfiCond31) V8 load(1, XDATA, add(CFA_XSP16, literal(-14)))
          CFI (cfiCond31) V9 load(1, XDATA, add(CFA_XSP16, literal(-13)))
          CFI (cfiCond31) V10 load(1, XDATA, add(CFA_XSP16, literal(-12)))
          CFI (cfiCond31) V11 load(1, XDATA, add(CFA_XSP16, literal(-11)))
          CFI (cfiCond31) V12 load(1, XDATA, add(CFA_XSP16, literal(-10)))
          CFI (cfiCond31) V13 load(1, XDATA, add(CFA_XSP16, literal(-9)))
          CFI (cfiCond31) V14 load(1, XDATA, add(CFA_XSP16, literal(-8)))
          CFI (cfiCond31) V15 load(1, XDATA, add(CFA_XSP16, literal(-7)))
          CFI (cfiCond31) R7 load(1, XDATA, add(CFA_XSP16, literal(-6)))
          CFI (cfiCond31) ?RET_LOW load(1, XDATA, add(CFA_XSP16, literal(-5)))
          CFI (cfiCond31) ?RET_HIGH load(1, XDATA, add(CFA_XSP16, literal(-4)))
          CFI (cfiCond31) ?BRET_EXT load(1, XDATA, add(CFA_XSP16, literal(-3)))
          CFI (cfiCond31) DPL0 load(1, XDATA, add(CFA_XSP16, literal(-2)))
          CFI (cfiCond31) DPH0 load(1, XDATA, add(CFA_XSP16, literal(-1)))
          CFI (cfiCond31) CFA_SP SP+-2
          CFI (cfiCond31) CFA_XSP16 add(XSP16, 172)
          CFI Block cfiCond32 Using cfiCommon0
          CFI (cfiCond32) Function pt_ZclReadGetProxyEntry
          CFI (cfiCond32) Conditional ??CrossCallReturnLabel_17
          CFI (cfiCond32) R6 load(1, XDATA, add(CFA_XSP16, literal(-24)))
          CFI (cfiCond32) VB load(1, XDATA, add(CFA_XSP16, literal(-23)))
          CFI (cfiCond32) V0 load(1, XDATA, add(CFA_XSP16, literal(-22)))
          CFI (cfiCond32) V1 load(1, XDATA, add(CFA_XSP16, literal(-21)))
          CFI (cfiCond32) V2 load(1, XDATA, add(CFA_XSP16, literal(-20)))
          CFI (cfiCond32) V3 load(1, XDATA, add(CFA_XSP16, literal(-19)))
          CFI (cfiCond32) V4 load(1, XDATA, add(CFA_XSP16, literal(-18)))
          CFI (cfiCond32) V5 load(1, XDATA, add(CFA_XSP16, literal(-17)))
          CFI (cfiCond32) V6 load(1, XDATA, add(CFA_XSP16, literal(-16)))
          CFI (cfiCond32) V7 load(1, XDATA, add(CFA_XSP16, literal(-15)))
          CFI (cfiCond32) V8 load(1, XDATA, add(CFA_XSP16, literal(-14)))
          CFI (cfiCond32) V9 load(1, XDATA, add(CFA_XSP16, literal(-13)))
          CFI (cfiCond32) V10 load(1, XDATA, add(CFA_XSP16, literal(-12)))
          CFI (cfiCond32) V11 load(1, XDATA, add(CFA_XSP16, literal(-11)))
          CFI (cfiCond32) V12 load(1, XDATA, add(CFA_XSP16, literal(-10)))
          CFI (cfiCond32) V13 load(1, XDATA, add(CFA_XSP16, literal(-9)))
          CFI (cfiCond32) V14 load(1, XDATA, add(CFA_XSP16, literal(-8)))
          CFI (cfiCond32) V15 load(1, XDATA, add(CFA_XSP16, literal(-7)))
          CFI (cfiCond32) R7 load(1, XDATA, add(CFA_XSP16, literal(-6)))
          CFI (cfiCond32) ?RET_LOW load(1, XDATA, add(CFA_XSP16, literal(-5)))
          CFI (cfiCond32) ?RET_HIGH load(1, XDATA, add(CFA_XSP16, literal(-4)))
          CFI (cfiCond32) ?BRET_EXT load(1, XDATA, add(CFA_XSP16, literal(-3)))
          CFI (cfiCond32) DPL0 load(1, XDATA, add(CFA_XSP16, literal(-2)))
          CFI (cfiCond32) DPH0 load(1, XDATA, add(CFA_XSP16, literal(-1)))
          CFI (cfiCond32) CFA_SP SP+-2
          CFI (cfiCond32) CFA_XSP16 add(XSP16, 172)
          CFI Block cfiCond33 Using cfiCommon0
          CFI (cfiCond33) Function pt_ZclReadGetProxyEntry
          CFI (cfiCond33) Conditional ??CrossCallReturnLabel_18
          CFI (cfiCond33) R6 load(1, XDATA, add(CFA_XSP16, literal(-24)))
          CFI (cfiCond33) VB load(1, XDATA, add(CFA_XSP16, literal(-23)))
          CFI (cfiCond33) V0 load(1, XDATA, add(CFA_XSP16, literal(-22)))
          CFI (cfiCond33) V1 load(1, XDATA, add(CFA_XSP16, literal(-21)))
          CFI (cfiCond33) V2 load(1, XDATA, add(CFA_XSP16, literal(-20)))
          CFI (cfiCond33) V3 load(1, XDATA, add(CFA_XSP16, literal(-19)))
          CFI (cfiCond33) V4 load(1, XDATA, add(CFA_XSP16, literal(-18)))
          CFI (cfiCond33) V5 load(1, XDATA, add(CFA_XSP16, literal(-17)))
          CFI (cfiCond33) V6 load(1, XDATA, add(CFA_XSP16, literal(-16)))
          CFI (cfiCond33) V7 load(1, XDATA, add(CFA_XSP16, literal(-15)))
          CFI (cfiCond33) V8 load(1, XDATA, add(CFA_XSP16, literal(-14)))
          CFI (cfiCond33) V9 load(1, XDATA, add(CFA_XSP16, literal(-13)))
          CFI (cfiCond33) V10 load(1, XDATA, add(CFA_XSP16, literal(-12)))
          CFI (cfiCond33) V11 load(1, XDATA, add(CFA_XSP16, literal(-11)))
          CFI (cfiCond33) V12 load(1, XDATA, add(CFA_XSP16, literal(-10)))
          CFI (cfiCond33) V13 load(1, XDATA, add(CFA_XSP16, literal(-9)))
          CFI (cfiCond33) V14 load(1, XDATA, add(CFA_XSP16, literal(-8)))
          CFI (cfiCond33) V15 load(1, XDATA, add(CFA_XSP16, literal(-7)))
          CFI (cfiCond33) R7 load(1, XDATA, add(CFA_XSP16, literal(-6)))
          CFI (cfiCond33) ?RET_LOW load(1, XDATA, add(CFA_XSP16, literal(-5)))
          CFI (cfiCond33) ?RET_HIGH load(1, XDATA, add(CFA_XSP16, literal(-4)))
          CFI (cfiCond33) ?BRET_EXT load(1, XDATA, add(CFA_XSP16, literal(-3)))
          CFI (cfiCond33) DPL0 load(1, XDATA, add(CFA_XSP16, literal(-2)))
          CFI (cfiCond33) DPH0 load(1, XDATA, add(CFA_XSP16, literal(-1)))
          CFI (cfiCond33) CFA_SP SP+-2
          CFI (cfiCond33) CFA_XSP16 add(XSP16, 172)
          CFI Block cfiCond34 Using cfiCommon0
          CFI (cfiCond34) Function pt_ZclReadGetProxyEntry
          CFI (cfiCond34) Conditional ??CrossCallReturnLabel_19
          CFI (cfiCond34) R6 load(1, XDATA, add(CFA_XSP16, literal(-24)))
          CFI (cfiCond34) VB load(1, XDATA, add(CFA_XSP16, literal(-23)))
          CFI (cfiCond34) V0 load(1, XDATA, add(CFA_XSP16, literal(-22)))
          CFI (cfiCond34) V1 load(1, XDATA, add(CFA_XSP16, literal(-21)))
          CFI (cfiCond34) V2 load(1, XDATA, add(CFA_XSP16, literal(-20)))
          CFI (cfiCond34) V3 load(1, XDATA, add(CFA_XSP16, literal(-19)))
          CFI (cfiCond34) V4 load(1, XDATA, add(CFA_XSP16, literal(-18)))
          CFI (cfiCond34) V5 load(1, XDATA, add(CFA_XSP16, literal(-17)))
          CFI (cfiCond34) V6 load(1, XDATA, add(CFA_XSP16, literal(-16)))
          CFI (cfiCond34) V7 load(1, XDATA, add(CFA_XSP16, literal(-15)))
          CFI (cfiCond34) V8 load(1, XDATA, add(CFA_XSP16, literal(-14)))
          CFI (cfiCond34) V9 load(1, XDATA, add(CFA_XSP16, literal(-13)))
          CFI (cfiCond34) V10 load(1, XDATA, add(CFA_XSP16, literal(-12)))
          CFI (cfiCond34) V11 load(1, XDATA, add(CFA_XSP16, literal(-11)))
          CFI (cfiCond34) V12 load(1, XDATA, add(CFA_XSP16, literal(-10)))
          CFI (cfiCond34) V13 load(1, XDATA, add(CFA_XSP16, literal(-9)))
          CFI (cfiCond34) V14 load(1, XDATA, add(CFA_XSP16, literal(-8)))
          CFI (cfiCond34) V15 load(1, XDATA, add(CFA_XSP16, literal(-7)))
          CFI (cfiCond34) R7 load(1, XDATA, add(CFA_XSP16, literal(-6)))
          CFI (cfiCond34) ?RET_LOW load(1, XDATA, add(CFA_XSP16, literal(-5)))
          CFI (cfiCond34) ?RET_HIGH load(1, XDATA, add(CFA_XSP16, literal(-4)))
          CFI (cfiCond34) ?BRET_EXT load(1, XDATA, add(CFA_XSP16, literal(-3)))
          CFI (cfiCond34) DPL0 load(1, XDATA, add(CFA_XSP16, literal(-2)))
          CFI (cfiCond34) DPH0 load(1, XDATA, add(CFA_XSP16, literal(-1)))
          CFI (cfiCond34) CFA_SP SP+-2
          CFI (cfiCond34) CFA_XSP16 add(XSP16, 172)
          CFI Block cfiCond35 Using cfiCommon0
          CFI (cfiCond35) Function pt_ZclReadGetProxyEntry
          CFI (cfiCond35) Conditional ??CrossCallReturnLabel_20
          CFI (cfiCond35) R6 load(1, XDATA, add(CFA_XSP16, literal(-24)))
          CFI (cfiCond35) VB load(1, XDATA, add(CFA_XSP16, literal(-23)))
          CFI (cfiCond35) V0 load(1, XDATA, add(CFA_XSP16, literal(-22)))
          CFI (cfiCond35) V1 load(1, XDATA, add(CFA_XSP16, literal(-21)))
          CFI (cfiCond35) V2 load(1, XDATA, add(CFA_XSP16, literal(-20)))
          CFI (cfiCond35) V3 load(1, XDATA, add(CFA_XSP16, literal(-19)))
          CFI (cfiCond35) V4 load(1, XDATA, add(CFA_XSP16, literal(-18)))
          CFI (cfiCond35) V5 load(1, XDATA, add(CFA_XSP16, literal(-17)))
          CFI (cfiCond35) V6 load(1, XDATA, add(CFA_XSP16, literal(-16)))
          CFI (cfiCond35) V7 load(1, XDATA, add(CFA_XSP16, literal(-15)))
          CFI (cfiCond35) V8 load(1, XDATA, add(CFA_XSP16, literal(-14)))
          CFI (cfiCond35) V9 load(1, XDATA, add(CFA_XSP16, literal(-13)))
          CFI (cfiCond35) V10 load(1, XDATA, add(CFA_XSP16, literal(-12)))
          CFI (cfiCond35) V11 load(1, XDATA, add(CFA_XSP16, literal(-11)))
          CFI (cfiCond35) V12 load(1, XDATA, add(CFA_XSP16, literal(-10)))
          CFI (cfiCond35) V13 load(1, XDATA, add(CFA_XSP16, literal(-9)))
          CFI (cfiCond35) V14 load(1, XDATA, add(CFA_XSP16, literal(-8)))
          CFI (cfiCond35) V15 load(1, XDATA, add(CFA_XSP16, literal(-7)))
          CFI (cfiCond35) R7 load(1, XDATA, add(CFA_XSP16, literal(-6)))
          CFI (cfiCond35) ?RET_LOW load(1, XDATA, add(CFA_XSP16, literal(-5)))
          CFI (cfiCond35) ?RET_HIGH load(1, XDATA, add(CFA_XSP16, literal(-4)))
          CFI (cfiCond35) ?BRET_EXT load(1, XDATA, add(CFA_XSP16, literal(-3)))
          CFI (cfiCond35) DPL0 load(1, XDATA, add(CFA_XSP16, literal(-2)))
          CFI (cfiCond35) DPH0 load(1, XDATA, add(CFA_XSP16, literal(-1)))
          CFI (cfiCond35) CFA_SP SP+-2
          CFI (cfiCond35) CFA_XSP16 add(XSP16, 172)
          CFI Block cfiCond36 Using cfiCommon0
          CFI (cfiCond36) Function pt_ZclReadGetProxyEntry
          CFI (cfiCond36) Conditional ??CrossCallReturnLabel_21
          CFI (cfiCond36) R6 load(1, XDATA, add(CFA_XSP16, literal(-24)))
          CFI (cfiCond36) VB load(1, XDATA, add(CFA_XSP16, literal(-23)))
          CFI (cfiCond36) V0 load(1, XDATA, add(CFA_XSP16, literal(-22)))
          CFI (cfiCond36) V1 load(1, XDATA, add(CFA_XSP16, literal(-21)))
          CFI (cfiCond36) V2 load(1, XDATA, add(CFA_XSP16, literal(-20)))
          CFI (cfiCond36) V3 load(1, XDATA, add(CFA_XSP16, literal(-19)))
          CFI (cfiCond36) V4 load(1, XDATA, add(CFA_XSP16, literal(-18)))
          CFI (cfiCond36) V5 load(1, XDATA, add(CFA_XSP16, literal(-17)))
          CFI (cfiCond36) V6 load(1, XDATA, add(CFA_XSP16, literal(-16)))
          CFI (cfiCond36) V7 load(1, XDATA, add(CFA_XSP16, literal(-15)))
          CFI (cfiCond36) V8 load(1, XDATA, add(CFA_XSP16, literal(-14)))
          CFI (cfiCond36) V9 load(1, XDATA, add(CFA_XSP16, literal(-13)))
          CFI (cfiCond36) V10 load(1, XDATA, add(CFA_XSP16, literal(-12)))
          CFI (cfiCond36) V11 load(1, XDATA, add(CFA_XSP16, literal(-11)))
          CFI (cfiCond36) V12 load(1, XDATA, add(CFA_XSP16, literal(-10)))
          CFI (cfiCond36) V13 load(1, XDATA, add(CFA_XSP16, literal(-9)))
          CFI (cfiCond36) V14 load(1, XDATA, add(CFA_XSP16, literal(-8)))
          CFI (cfiCond36) V15 load(1, XDATA, add(CFA_XSP16, literal(-7)))
          CFI (cfiCond36) R7 load(1, XDATA, add(CFA_XSP16, literal(-6)))
          CFI (cfiCond36) ?RET_LOW load(1, XDATA, add(CFA_XSP16, literal(-5)))
          CFI (cfiCond36) ?RET_HIGH load(1, XDATA, add(CFA_XSP16, literal(-4)))
          CFI (cfiCond36) ?BRET_EXT load(1, XDATA, add(CFA_XSP16, literal(-3)))
          CFI (cfiCond36) DPL0 load(1, XDATA, add(CFA_XSP16, literal(-2)))
          CFI (cfiCond36) DPH0 load(1, XDATA, add(CFA_XSP16, literal(-1)))
          CFI (cfiCond36) CFA_SP SP+-2
          CFI (cfiCond36) CFA_XSP16 add(XSP16, 172)
          CFI Block cfiCond37 Using cfiCommon0
          CFI (cfiCond37) Function pt_ZclReadGetProxyEntry
          CFI (cfiCond37) Conditional ??CrossCallReturnLabel_22
          CFI (cfiCond37) R6 load(1, XDATA, add(CFA_XSP16, literal(-24)))
          CFI (cfiCond37) VB load(1, XDATA, add(CFA_XSP16, literal(-23)))
          CFI (cfiCond37) V0 load(1, XDATA, add(CFA_XSP16, literal(-22)))
          CFI (cfiCond37) V1 load(1, XDATA, add(CFA_XSP16, literal(-21)))
          CFI (cfiCond37) V2 load(1, XDATA, add(CFA_XSP16, literal(-20)))
          CFI (cfiCond37) V3 load(1, XDATA, add(CFA_XSP16, literal(-19)))
          CFI (cfiCond37) V4 load(1, XDATA, add(CFA_XSP16, literal(-18)))
          CFI (cfiCond37) V5 load(1, XDATA, add(CFA_XSP16, literal(-17)))
          CFI (cfiCond37) V6 load(1, XDATA, add(CFA_XSP16, literal(-16)))
          CFI (cfiCond37) V7 load(1, XDATA, add(CFA_XSP16, literal(-15)))
          CFI (cfiCond37) V8 load(1, XDATA, add(CFA_XSP16, literal(-14)))
          CFI (cfiCond37) V9 load(1, XDATA, add(CFA_XSP16, literal(-13)))
          CFI (cfiCond37) V10 load(1, XDATA, add(CFA_XSP16, literal(-12)))
          CFI (cfiCond37) V11 load(1, XDATA, add(CFA_XSP16, literal(-11)))
          CFI (cfiCond37) V12 load(1, XDATA, add(CFA_XSP16, literal(-10)))
          CFI (cfiCond37) V13 load(1, XDATA, add(CFA_XSP16, literal(-9)))
          CFI (cfiCond37) V14 load(1, XDATA, add(CFA_XSP16, literal(-8)))
          CFI (cfiCond37) V15 load(1, XDATA, add(CFA_XSP16, literal(-7)))
          CFI (cfiCond37) R7 load(1, XDATA, add(CFA_XSP16, literal(-6)))
          CFI (cfiCond37) ?RET_LOW load(1, XDATA, add(CFA_XSP16, literal(-5)))
          CFI (cfiCond37) ?RET_HIGH load(1, XDATA, add(CFA_XSP16, literal(-4)))
          CFI (cfiCond37) ?BRET_EXT load(1, XDATA, add(CFA_XSP16, literal(-3)))
          CFI (cfiCond37) DPL0 load(1, XDATA, add(CFA_XSP16, literal(-2)))
          CFI (cfiCond37) DPH0 load(1, XDATA, add(CFA_XSP16, literal(-1)))
          CFI (cfiCond37) CFA_SP SP+-2
          CFI (cfiCond37) CFA_XSP16 add(XSP16, 172)
          CFI Block cfiCond38 Using cfiCommon0
          CFI (cfiCond38) Function pt_ZclReadGetProxyEntry
          CFI (cfiCond38) Conditional ??CrossCallReturnLabel_23
          CFI (cfiCond38) R6 load(1, XDATA, add(CFA_XSP16, literal(-24)))
          CFI (cfiCond38) VB load(1, XDATA, add(CFA_XSP16, literal(-23)))
          CFI (cfiCond38) V0 load(1, XDATA, add(CFA_XSP16, literal(-22)))
          CFI (cfiCond38) V1 load(1, XDATA, add(CFA_XSP16, literal(-21)))
          CFI (cfiCond38) V2 load(1, XDATA, add(CFA_XSP16, literal(-20)))
          CFI (cfiCond38) V3 load(1, XDATA, add(CFA_XSP16, literal(-19)))
          CFI (cfiCond38) V4 load(1, XDATA, add(CFA_XSP16, literal(-18)))
          CFI (cfiCond38) V5 load(1, XDATA, add(CFA_XSP16, literal(-17)))
          CFI (cfiCond38) V6 load(1, XDATA, add(CFA_XSP16, literal(-16)))
          CFI (cfiCond38) V7 load(1, XDATA, add(CFA_XSP16, literal(-15)))
          CFI (cfiCond38) V8 load(1, XDATA, add(CFA_XSP16, literal(-14)))
          CFI (cfiCond38) V9 load(1, XDATA, add(CFA_XSP16, literal(-13)))
          CFI (cfiCond38) V10 load(1, XDATA, add(CFA_XSP16, literal(-12)))
          CFI (cfiCond38) V11 load(1, XDATA, add(CFA_XSP16, literal(-11)))
          CFI (cfiCond38) V12 load(1, XDATA, add(CFA_XSP16, literal(-10)))
          CFI (cfiCond38) V13 load(1, XDATA, add(CFA_XSP16, literal(-9)))
          CFI (cfiCond38) V14 load(1, XDATA, add(CFA_XSP16, literal(-8)))
          CFI (cfiCond38) V15 load(1, XDATA, add(CFA_XSP16, literal(-7)))
          CFI (cfiCond38) R7 load(1, XDATA, add(CFA_XSP16, literal(-6)))
          CFI (cfiCond38) ?RET_LOW load(1, XDATA, add(CFA_XSP16, literal(-5)))
          CFI (cfiCond38) ?RET_HIGH load(1, XDATA, add(CFA_XSP16, literal(-4)))
          CFI (cfiCond38) ?BRET_EXT load(1, XDATA, add(CFA_XSP16, literal(-3)))
          CFI (cfiCond38) DPL0 load(1, XDATA, add(CFA_XSP16, literal(-2)))
          CFI (cfiCond38) DPH0 load(1, XDATA, add(CFA_XSP16, literal(-1)))
          CFI (cfiCond38) CFA_SP SP+-2
          CFI (cfiCond38) CFA_XSP16 add(XSP16, 172)
          CFI Block cfiCond39 Using cfiCommon0
          CFI (cfiCond39) Function pt_ZclReadGetProxyEntry
          CFI (cfiCond39) Conditional ??CrossCallReturnLabel_24
          CFI (cfiCond39) R6 load(1, XDATA, add(CFA_XSP16, literal(-24)))
          CFI (cfiCond39) VB load(1, XDATA, add(CFA_XSP16, literal(-23)))
          CFI (cfiCond39) V0 load(1, XDATA, add(CFA_XSP16, literal(-22)))
          CFI (cfiCond39) V1 load(1, XDATA, add(CFA_XSP16, literal(-21)))
          CFI (cfiCond39) V2 load(1, XDATA, add(CFA_XSP16, literal(-20)))
          CFI (cfiCond39) V3 load(1, XDATA, add(CFA_XSP16, literal(-19)))
          CFI (cfiCond39) V4 load(1, XDATA, add(CFA_XSP16, literal(-18)))
          CFI (cfiCond39) V5 load(1, XDATA, add(CFA_XSP16, literal(-17)))
          CFI (cfiCond39) V6 load(1, XDATA, add(CFA_XSP16, literal(-16)))
          CFI (cfiCond39) V7 load(1, XDATA, add(CFA_XSP16, literal(-15)))
          CFI (cfiCond39) V8 load(1, XDATA, add(CFA_XSP16, literal(-14)))
          CFI (cfiCond39) V9 load(1, XDATA, add(CFA_XSP16, literal(-13)))
          CFI (cfiCond39) V10 load(1, XDATA, add(CFA_XSP16, literal(-12)))
          CFI (cfiCond39) V11 load(1, XDATA, add(CFA_XSP16, literal(-11)))
          CFI (cfiCond39) V12 load(1, XDATA, add(CFA_XSP16, literal(-10)))
          CFI (cfiCond39) V13 load(1, XDATA, add(CFA_XSP16, literal(-9)))
          CFI (cfiCond39) V14 load(1, XDATA, add(CFA_XSP16, literal(-8)))
          CFI (cfiCond39) V15 load(1, XDATA, add(CFA_XSP16, literal(-7)))
          CFI (cfiCond39) R7 load(1, XDATA, add(CFA_XSP16, literal(-6)))
          CFI (cfiCond39) ?RET_LOW load(1, XDATA, add(CFA_XSP16, literal(-5)))
          CFI (cfiCond39) ?RET_HIGH load(1, XDATA, add(CFA_XSP16, literal(-4)))
          CFI (cfiCond39) ?BRET_EXT load(1, XDATA, add(CFA_XSP16, literal(-3)))
          CFI (cfiCond39) DPL0 load(1, XDATA, add(CFA_XSP16, literal(-2)))
          CFI (cfiCond39) DPH0 load(1, XDATA, add(CFA_XSP16, literal(-1)))
          CFI (cfiCond39) CFA_SP SP+-2
          CFI (cfiCond39) CFA_XSP16 add(XSP16, 172)
          CFI Block cfiCond40 Using cfiCommon0
          CFI (cfiCond40) Function pt_ZclReadGetProxyEntry
          CFI (cfiCond40) Conditional ??CrossCallReturnLabel_25
          CFI (cfiCond40) R6 load(1, XDATA, add(CFA_XSP16, literal(-24)))
          CFI (cfiCond40) VB load(1, XDATA, add(CFA_XSP16, literal(-23)))
          CFI (cfiCond40) V0 load(1, XDATA, add(CFA_XSP16, literal(-22)))
          CFI (cfiCond40) V1 load(1, XDATA, add(CFA_XSP16, literal(-21)))
          CFI (cfiCond40) V2 load(1, XDATA, add(CFA_XSP16, literal(-20)))
          CFI (cfiCond40) V3 load(1, XDATA, add(CFA_XSP16, literal(-19)))
          CFI (cfiCond40) V4 load(1, XDATA, add(CFA_XSP16, literal(-18)))
          CFI (cfiCond40) V5 load(1, XDATA, add(CFA_XSP16, literal(-17)))
          CFI (cfiCond40) V6 load(1, XDATA, add(CFA_XSP16, literal(-16)))
          CFI (cfiCond40) V7 load(1, XDATA, add(CFA_XSP16, literal(-15)))
          CFI (cfiCond40) V8 load(1, XDATA, add(CFA_XSP16, literal(-14)))
          CFI (cfiCond40) V9 load(1, XDATA, add(CFA_XSP16, literal(-13)))
          CFI (cfiCond40) V10 load(1, XDATA, add(CFA_XSP16, literal(-12)))
          CFI (cfiCond40) V11 load(1, XDATA, add(CFA_XSP16, literal(-11)))
          CFI (cfiCond40) V12 load(1, XDATA, add(CFA_XSP16, literal(-10)))
          CFI (cfiCond40) V13 load(1, XDATA, add(CFA_XSP16, literal(-9)))
          CFI (cfiCond40) V14 load(1, XDATA, add(CFA_XSP16, literal(-8)))
          CFI (cfiCond40) V15 load(1, XDATA, add(CFA_XSP16, literal(-7)))
          CFI (cfiCond40) R7 load(1, XDATA, add(CFA_XSP16, literal(-6)))
          CFI (cfiCond40) ?RET_LOW load(1, XDATA, add(CFA_XSP16, literal(-5)))
          CFI (cfiCond40) ?RET_HIGH load(1, XDATA, add(CFA_XSP16, literal(-4)))
          CFI (cfiCond40) ?BRET_EXT load(1, XDATA, add(CFA_XSP16, literal(-3)))
          CFI (cfiCond40) DPL0 load(1, XDATA, add(CFA_XSP16, literal(-2)))
          CFI (cfiCond40) DPH0 load(1, XDATA, add(CFA_XSP16, literal(-1)))
          CFI (cfiCond40) CFA_SP SP+-2
          CFI (cfiCond40) CFA_XSP16 add(XSP16, 172)
          CFI Block cfiPicker41 Using cfiCommon1
          CFI (cfiPicker41) NoFunction
          CFI (cfiPicker41) Picker
        LCALL     `??gp_PopulateProxyTblEntry::?relay`; Banked call to: gp_PopulateProxyTblEntry
        MOV       A,#0x2
        RET
          CFI EndBlock cfiCond14
          CFI EndBlock cfiCond15
          CFI EndBlock cfiCond16
          CFI EndBlock cfiCond17
          CFI EndBlock cfiCond18
          CFI EndBlock cfiCond19
          CFI EndBlock cfiCond20
          CFI EndBlock cfiCond21
          CFI EndBlock cfiCond22
          CFI EndBlock cfiCond23
          CFI EndBlock cfiCond24
          CFI EndBlock cfiCond25
          CFI EndBlock cfiCond26
          CFI EndBlock cfiCond27
          CFI EndBlock cfiCond28
          CFI EndBlock cfiCond29
          CFI EndBlock cfiCond30
          CFI EndBlock cfiCond31
          CFI EndBlock cfiCond32
          CFI EndBlock cfiCond33
          CFI EndBlock cfiCond34
          CFI EndBlock cfiCond35
          CFI EndBlock cfiCond36
          CFI EndBlock cfiCond37
          CFI EndBlock cfiCond38
          CFI EndBlock cfiCond39
          CFI EndBlock cfiCond40
          CFI EndBlock cfiPicker41

        RSEG BANKED_CODE:HUGECODE:NOROOT(0)
?Subroutine2:
          CFI Block cfiCond42 Using cfiCommon0
          CFI Function pt_ZclReadGetProxyEntry
          CFI Conditional ??CrossCallReturnLabel_3
          CFI R6 load(1, XDATA, add(CFA_XSP16, literal(-24)))
          CFI VB load(1, XDATA, add(CFA_XSP16, literal(-23)))
          CFI V0 load(1, XDATA, add(CFA_XSP16, literal(-22)))
          CFI V1 load(1, XDATA, add(CFA_XSP16, literal(-21)))
          CFI V2 load(1, XDATA, add(CFA_XSP16, literal(-20)))
          CFI V3 load(1, XDATA, add(CFA_XSP16, literal(-19)))
          CFI V4 load(1, XDATA, add(CFA_XSP16, literal(-18)))
          CFI V5 load(1, XDATA, add(CFA_XSP16, literal(-17)))
          CFI V6 load(1, XDATA, add(CFA_XSP16, literal(-16)))
          CFI V7 load(1, XDATA, add(CFA_XSP16, literal(-15)))
          CFI V8 load(1, XDATA, add(CFA_XSP16, literal(-14)))
          CFI V9 load(1, XDATA, add(CFA_XSP16, literal(-13)))
          CFI V10 load(1, XDATA, add(CFA_XSP16, literal(-12)))
          CFI V11 load(1, XDATA, add(CFA_XSP16, literal(-11)))
          CFI V12 load(1, XDATA, add(CFA_XSP16, literal(-10)))
          CFI V13 load(1, XDATA, add(CFA_XSP16, literal(-9)))
          CFI V14 load(1, XDATA, add(CFA_XSP16, literal(-8)))
          CFI V15 load(1, XDATA, add(CFA_XSP16, literal(-7)))
          CFI R7 load(1, XDATA, add(CFA_XSP16, literal(-6)))
          CFI ?RET_LOW load(1, XDATA, add(CFA_XSP16, literal(-5)))
          CFI ?RET_HIGH load(1, XDATA, add(CFA_XSP16, literal(-4)))
          CFI ?BRET_EXT load(1, XDATA, add(CFA_XSP16, literal(-3)))
          CFI DPL0 load(1, XDATA, add(CFA_XSP16, literal(-2)))
          CFI DPH0 load(1, XDATA, add(CFA_XSP16, literal(-1)))
          CFI CFA_SP SP+-2
          CFI CFA_XSP16 add(XSP16, 170)
          CFI Block cfiCond43 Using cfiCommon0
          CFI (cfiCond43) Function pt_ZclReadGetProxyEntry
          CFI (cfiCond43) Conditional ??CrossCallReturnLabel_4
          CFI (cfiCond43) R6 load(1, XDATA, add(CFA_XSP16, literal(-24)))
          CFI (cfiCond43) VB load(1, XDATA, add(CFA_XSP16, literal(-23)))
          CFI (cfiCond43) V0 load(1, XDATA, add(CFA_XSP16, literal(-22)))
          CFI (cfiCond43) V1 load(1, XDATA, add(CFA_XSP16, literal(-21)))
          CFI (cfiCond43) V2 load(1, XDATA, add(CFA_XSP16, literal(-20)))
          CFI (cfiCond43) V3 load(1, XDATA, add(CFA_XSP16, literal(-19)))
          CFI (cfiCond43) V4 load(1, XDATA, add(CFA_XSP16, literal(-18)))
          CFI (cfiCond43) V5 load(1, XDATA, add(CFA_XSP16, literal(-17)))
          CFI (cfiCond43) V6 load(1, XDATA, add(CFA_XSP16, literal(-16)))
          CFI (cfiCond43) V7 load(1, XDATA, add(CFA_XSP16, literal(-15)))
          CFI (cfiCond43) V8 load(1, XDATA, add(CFA_XSP16, literal(-14)))
          CFI (cfiCond43) V9 load(1, XDATA, add(CFA_XSP16, literal(-13)))
          CFI (cfiCond43) V10 load(1, XDATA, add(CFA_XSP16, literal(-12)))
          CFI (cfiCond43) V11 load(1, XDATA, add(CFA_XSP16, literal(-11)))
          CFI (cfiCond43) V12 load(1, XDATA, add(CFA_XSP16, literal(-10)))
          CFI (cfiCond43) V13 load(1, XDATA, add(CFA_XSP16, literal(-9)))
          CFI (cfiCond43) V14 load(1, XDATA, add(CFA_XSP16, literal(-8)))
          CFI (cfiCond43) V15 load(1, XDATA, add(CFA_XSP16, literal(-7)))
          CFI (cfiCond43) R7 load(1, XDATA, add(CFA_XSP16, literal(-6)))
          CFI (cfiCond43) ?RET_LOW load(1, XDATA, add(CFA_XSP16, literal(-5)))
          CFI (cfiCond43) ?RET_HIGH load(1, XDATA, add(CFA_XSP16, literal(-4)))
          CFI (cfiCond43) ?BRET_EXT load(1, XDATA, add(CFA_XSP16, literal(-3)))
          CFI (cfiCond43) DPL0 load(1, XDATA, add(CFA_XSP16, literal(-2)))
          CFI (cfiCond43) DPH0 load(1, XDATA, add(CFA_XSP16, literal(-1)))
          CFI (cfiCond43) CFA_SP SP+-2
          CFI (cfiCond43) CFA_XSP16 add(XSP16, 170)
          CFI Block cfiPicker44 Using cfiCommon1
          CFI (cfiPicker44) NoFunction
          CFI (cfiPicker44) Picker
        CLR       A
        LCALL     ?Subroutine9 & 0xFFFF
??CrossCallReturnLabel_12:
        MOV       R0,A
        INC       A
        MOVX      @DPTR,A
        MOV       A,#0x47
        RET
          CFI EndBlock cfiCond42
          CFI EndBlock cfiCond43
          CFI EndBlock cfiPicker44
//  257 
//  258 /*********************************************************************
//  259  * @fn      zclGpp_ReadWriteAttrCB
//  260  *
//  261  * @brief   Handle Diagnostics attributes.
//  262  *
//  263  * @param   clusterId - cluster that attribute belongs to
//  264  * @param   attrId - attribute to be read or written
//  265  * @param   oper - ZCL_OPER_LEN, ZCL_OPER_READ, or ZCL_OPER_WRITE
//  266  * @param   pValue - pointer to attribute value, OTA endian
//  267  * @param   pLen - length of attribute value read, native endian
//  268  *
//  269  * @return  status
//  270  */

        RSEG BANKED_CODE:HUGECODE:NOROOT(0)
//  271 ZStatus_t zclGpp_ReadWriteAttrCB( uint16 clusterId, uint16 attrId, uint8 oper,
zclGpp_ReadWriteAttrCB:
          CFI Block cfiBlock45 Using cfiCommon0
          CFI Function zclGpp_ReadWriteAttrCB
        CODE
//  272                                          uint8 *pValue, uint16 *pLen )
//  273 {
        FUNCALL zclGpp_ReadWriteAttrCB, pt_ZclReadGetProxyEntry
        LOCFRAME ISTACK, 0, STACK
        LOCFRAME PSTACK, 0, STACK
        LOCFRAME XSTACK, 14, STACK
        LOCFRAME IOVERLAY, 0, STATIC
        LOCFRAME DOVERLAY, 0, STATIC
        ARGFRAME ISTACK, 0, STACK
        ARGFRAME PSTACK, 0, STACK
        ARGFRAME XSTACK, 14, STACK
        ARGFRAME IOVERLAY, 0, STATIC
        ARGFRAME DOVERLAY, 0, STATIC
        REQUIRE ?V0
        REQUIRE ?V1
        REQUIRE ?V2
        REQUIRE ?V3
        MOV       A,#-0xc
        LCALL     ?BANKED_ENTER_XDATA
          CFI DPH0 load(1, XDATA, add(CFA_XSP16, literal(-1)))
          CFI DPL0 load(1, XDATA, add(CFA_XSP16, literal(-2)))
          CFI ?BRET_EXT load(1, XDATA, add(CFA_XSP16, literal(-3)))
          CFI ?RET_HIGH load(1, XDATA, add(CFA_XSP16, literal(-4)))
          CFI ?RET_LOW load(1, XDATA, add(CFA_XSP16, literal(-5)))
          CFI R7 load(1, XDATA, add(CFA_XSP16, literal(-6)))
          CFI V3 load(1, XDATA, add(CFA_XSP16, literal(-7)))
          CFI V2 load(1, XDATA, add(CFA_XSP16, literal(-8)))
          CFI V1 load(1, XDATA, add(CFA_XSP16, literal(-9)))
          CFI V0 load(1, XDATA, add(CFA_XSP16, literal(-10)))
          CFI VB load(1, XDATA, add(CFA_XSP16, literal(-11)))
          CFI R6 load(1, XDATA, add(CFA_XSP16, literal(-12)))
          CFI CFA_SP SP+0
          CFI CFA_XSP16 add(XSP16, 12)
        ; Saved register size: 12
        ; Auto size: 0
        MOV       ?V1,R1
//  274   ZStatus_t status = ZSuccess;
        MOV       R1,#0x0
//  275   uint16 proxyTableIndex;
//  276   uint8 i;
//  277 
//  278   switch ( oper )
        MOV       A,?V1
        JZ        ??zclGpp_ReadWriteAttrCB_0
        DEC       A
        JZ        ??zclGpp_ReadWriteAttrCB_0
        DEC       A
        JZ        ??zclGpp_ReadWriteAttrCB_1
        SJMP      ??zclGpp_ReadWriteAttrCB_2
//  279   {
//  280     case ZCL_OPER_LEN:
//  281     case ZCL_OPER_READ:
//  282       if ( attrId == ATTRID_GP_PROXY_TABLE )
??zclGpp_ReadWriteAttrCB_0:
        MOV       A,#0x11
        XRL       A,R4
        ORL       A,R5
        JNZ       ??zclGpp_ReadWriteAttrCB_2
//  283       { 
//  284         for ( i = 0; i <= GPP_MAX_PROXY_TABLE_ENTRIES ; i++ )
        MOV       ?V0,#0x0
        MOV       A,#0xc
        LCALL     ?XSTACK_DISP0_8
        MOVX      A,@DPTR
        MOV       R6,A
        INC       DPTR
        MOVX      A,@DPTR
        MOV       R7,A
        MOV       A,#0xe
        LCALL     ?XSTACK_DISP0_8
        MOVX      A,@DPTR
        MOV       ?V2,A
        INC       DPTR
        MOVX      A,@DPTR
        MOV       ?V3,A
//  285         {
//  286           proxyTableIndex = ZCD_NV_PROXY_TABLE_START + i;
//  287           
//  288           status = pt_ZclReadGetProxyEntry ( proxyTableIndex, pValue, (uint8*)pLen );
??zclGpp_ReadWriteAttrCB_3:
        ; Setup parameters for call to function pt_ZclReadGetProxyEntry
        MOV       R0,#?V2
        LCALL     ?PUSH_XSTACK_I_TWO
          CFI CFA_XSP16 add(XSP16, 14)
        MOV       A,R6
        MOV       R4,A
        MOV       A,R7
        MOV       R5,A
        MOV       A,?V0
        ADD       A,#0x10
        MOV       R2,A
        CLR       A
        ADDC      A,#0x3
        MOV       R3,A
        LCALL     `??pt_ZclReadGetProxyEntry::?relay`; Banked call to: pt_ZclReadGetProxyEntry
        MOV       A,#0x2
        LCALL     ?DEALLOC_XSTACK8
          CFI CFA_XSP16 add(XSP16, 12)
        MOV       A,R1
        MOV       R1,A
//  289           if ( status != ZSuccess )
        JNZ       ??zclGpp_ReadWriteAttrCB_1
//  290           {
//  291             status = ZFailure;
//  292             break;
//  293           }
//  294         }
        INC       ?V0
        MOV       A,?V0
        CLR       C
        SUBB      A,#0x6
        JNC       ??zclGpp_ReadWriteAttrCB_2
        SJMP      ??zclGpp_ReadWriteAttrCB_3
//  295         
//  296       }
//  297       break;
//  298 
//  299     case ZCL_OPER_WRITE:
//  300       status = ZFailure;
??zclGpp_ReadWriteAttrCB_1:
        MOV       R1,#0x1
//  301       break;
//  302   }
//  303 
//  304   return ( status );
??zclGpp_ReadWriteAttrCB_2:
        MOV       R7,#0x4
        LJMP      ?BANKED_LEAVE_XDATA
//  305 }
          CFI EndBlock cfiBlock45
//  306 
//  307  /*********************************************************************
//  308  * @fn          gp_pairingSetProxyTblOptions
//  309  *
//  310  * @brief       Function to fill the options pramenter in a Proxy Table entry
//  311  *              from a GP Pairing Command
//  312  *
//  313  * @param       pBitField - pointer to the bit field.
//  314  *              bit       - position of the bit to set in the given bitfield.
//  315  *
//  316  * @return      
//  317  */

        RSEG BANKED_CODE:HUGECODE:NOROOT(0)
//  318 static uint16 gp_pairingSetProxyTblOptions ( uint32 pairingOpt )
gp_pairingSetProxyTblOptions:
          CFI Block cfiBlock46 Using cfiCommon0
          CFI Function gp_pairingSetProxyTblOptions
        CODE
//  319 {
        REQUIRE ?V0
        REQUIRE ?V1
        REQUIRE ?V2
        REQUIRE ?V3
        REQUIRE ?V4
        REQUIRE ?V5
        REQUIRE ?V6
        REQUIRE ?V7
        MOV       A,#-0x10
        LCALL     ?BANKED_ENTER_XDATA
          CFI DPH0 load(1, XDATA, add(CFA_XSP16, literal(-1)))
          CFI DPL0 load(1, XDATA, add(CFA_XSP16, literal(-2)))
          CFI ?BRET_EXT load(1, XDATA, add(CFA_XSP16, literal(-3)))
          CFI ?RET_HIGH load(1, XDATA, add(CFA_XSP16, literal(-4)))
          CFI ?RET_LOW load(1, XDATA, add(CFA_XSP16, literal(-5)))
          CFI R7 load(1, XDATA, add(CFA_XSP16, literal(-6)))
          CFI V7 load(1, XDATA, add(CFA_XSP16, literal(-7)))
          CFI V6 load(1, XDATA, add(CFA_XSP16, literal(-8)))
          CFI V5 load(1, XDATA, add(CFA_XSP16, literal(-9)))
          CFI V4 load(1, XDATA, add(CFA_XSP16, literal(-10)))
          CFI V3 load(1, XDATA, add(CFA_XSP16, literal(-11)))
          CFI V2 load(1, XDATA, add(CFA_XSP16, literal(-12)))
          CFI V1 load(1, XDATA, add(CFA_XSP16, literal(-13)))
          CFI V0 load(1, XDATA, add(CFA_XSP16, literal(-14)))
          CFI VB load(1, XDATA, add(CFA_XSP16, literal(-15)))
          CFI R6 load(1, XDATA, add(CFA_XSP16, literal(-16)))
          CFI CFA_SP SP+0
          CFI CFA_XSP16 add(XSP16, 16)
        ; Saved register size: 16
        ; Auto size: 2
        MOV       A,#-0x2
        LCALL     ?ALLOC_XSTACK8
          CFI CFA_XSP16 add(XSP16, 18)
        MOV       ?V4,R2
        MOV       ?V5,R3
        MOV       ?V6,R4
        MOV       ?V7,R5
//  320   uint8  proxyOpt[2] = {0x00, 0x00};
        MOV       DPTR,#`?<Constant {0, 0}>`
        MOV       R4,?XSP + 0
        MOV       R5,?XSP + 1
        MOV       A,#0x2
        LCALL     ?MOVE_LONG8_XDATA_XDATA
//  321   uint16 opt = 0; 
//  322   
//  323   PAIRING_PROXY_TBL_SET_APPLICATION_ID(( uint8* )&proxyOpt[0], pairingOpt);
//  324   PROXY_TBL_SET_ENTRY_ACTIVE( &proxyOpt[0] );
//  325   PROXY_TBL_SET_ENTRY_VALID( &proxyOpt[0] );
        MOV       ?V0,R2
        MOV       A,R2
        ANL       A,#0x7
        MOV       R0,A
        MOV       DPL,?XSP + 0
        MOV       DPH,?XSP + 1
        MOVX      A,@DPTR
        ANL       A,#0xf8
        ORL       A,R0
        ORL       A,#0x18
        MOVX      @DPTR,A
//  326   PAIRING_PROXY_TBL_SET_MAC_SEQ_CAP(( uint16* )&proxyOpt, pairingOpt);
        ANL       A,#0xdf
        MOV       R2,A
        INC       DPTR
        MOVX      A,@DPTR
        MOV       R3,A
        MOV       ?V1,?V5
        MOV       A,#0x3
        MOV       R0,#?V0
        LCALL     ?US_SHR
        MOV       A,?V0
        ANL       A,#0x20
        MOV       R0,A
        MOV       A,R2
        ORL       A,R0
        MOV       DPL,?XSP + 0
        MOV       DPH,?XSP + 1
        MOVX      @DPTR,A
        INC       DPTR
        MOV       A,R3
        MOVX      @DPTR,A
//  327   
//  328   if ( GP_IS_COMMUNICATION_MODE_LIGHT_UNICAST( pairingOpt ) )
        MOV       ?V0,?V4
        MOV       A,?V0
        SWAP      A
        RRC       A
        ANL       A,#0x7
        ANL       A,#0x3
        MOV       R1,A
        MOV       A,#0x3
        XRL       A,R1
        MOV       DPL,?XSP + 0
        MOV       DPH,?XSP + 1
        JNZ       ??gp_pairingSetProxyTblOptions_0
//  329   {
//  330     PROXY_TBL_SET_LIGHTWIGHT_UNICAST( &proxyOpt[0] );
        MOVX      A,@DPTR
        SETB      0xE0 /* A   */.6
        MOVX      @DPTR,A
//  331   }
//  332   else
//  333   {
//  334     PROXY_TBL_CLR_LIGHTWIGHT_UNICAST( &proxyOpt[0] );
//  335   }
//  336   if ( GP_IS_COMMUNICATION_MODE_GRPCAST_DGROUP_ID( pairingOpt ) )
//  337   {
//  338     PROXY_TBL_SET_DGROUP( &proxyOpt[0] );
//  339   }
//  340   else
//  341   {
//  342     PROXY_TBL_CLR_DGROUP( &proxyOpt[0] );
??gp_pairingSetProxyTblOptions_1:
        MOVX      A,@DPTR
        CLR       0xE0 /* A   */.7
        MOVX      @DPTR,A
//  343   }
//  344   if ( GP_IS_COMMUNICATION_MODE_GRPCAST_GROUP_ID( pairingOpt ) )
        MOV       A,#0x2
        XRL       A,R1
        JNZ       ??gp_pairingSetProxyTblOptions_2
//  345   {
//  346     PROXY_TBL_SET_CGROUP( &proxyOpt[1] );
        MOV       A,#0x1
        LCALL     ?XSTACK_DISP0_8
        MOVX      A,@DPTR
        SETB      0xE0 /* A   */.0
        SJMP      ??gp_pairingSetProxyTblOptions_3
//  347   }
??gp_pairingSetProxyTblOptions_0:
        MOVX      A,@DPTR
        CLR       0xE0 /* A   */.6
        MOVX      @DPTR,A
        MOV       A,#0x1
        XRL       A,R1
        JNZ       ??gp_pairingSetProxyTblOptions_1
        MOVX      A,@DPTR
        SETB      0xE0 /* A   */.7
        MOVX      @DPTR,A
//  348   else
//  349   {
//  350     PROXY_TBL_CLR_CGROUP( &proxyOpt[1] );
??gp_pairingSetProxyTblOptions_2:
        MOV       A,#0x1
        LCALL     ?XSTACK_DISP0_8
        MOVX      A,@DPTR
        CLR       0xE0 /* A   */.0
??gp_pairingSetProxyTblOptions_3:
        MOVX      @DPTR,A
//  351   }
//  352   
//  353   // FALSE by default
//  354   PROXY_TBL_CLR_FIRST_TO_FORWARD( &proxyOpt[1] );
//  355   
//  356   // The InRange sub-field, if set to 0b1, indicates that this GPD is in range 
//  357   // of this proxy. The default value is FALSE
//  358   PROXY_TBL_CLR_IN_RANGE( &proxyOpt[1] );
        MOVX      A,@DPTR
        ANL       A,#0xf9
        MOVX      @DPTR,A
//  359   // The GPDfixed sub-field, if set to 0b1, indicates portability capabilities 
//  360   if ( GP_GET_GPD_FIXED_BIT( pairingOpt ) )
        MOV       A,?V0
        ANL       A,#0x80
        JZ        ??gp_pairingSetProxyTblOptions_4
//  361   {
//  362     PROXY_TBL_SET_GPD_FIXED( &proxyOpt[1] );
        MOVX      A,@DPTR
        SETB      0xE0 /* A   */.3
        SJMP      ??gp_pairingSetProxyTblOptions_5
//  363   }
//  364   else
//  365   {
//  366     PROXY_TBL_CLR_GPD_FIXED( &proxyOpt[1] );
??gp_pairingSetProxyTblOptions_4:
        MOVX      A,@DPTR
        CLR       0xE0 /* A   */.3
??gp_pairingSetProxyTblOptions_5:
        MOVX      @DPTR,A
//  367   }
//  368   
//  369   if ( GP_IS_COMMUNICATION_MODE_FULL_UNICAST( pairingOpt ) )
        MOV       A,R1
        JNZ       ??gp_pairingSetProxyTblOptions_6
//  370   {
//  371     PROXY_TBL_SET_HAS_ALL_ROUTES( &proxyOpt[1] );
        MOVX      A,@DPTR
        SETB      0xE0 /* A   */.4
        SJMP      ??gp_pairingSetProxyTblOptions_7
//  372   }
//  373   else
//  374   {
//  375     PROXY_TBL_CLR_HAS_ALL_ROUTES( &proxyOpt[1] );
??gp_pairingSetProxyTblOptions_6:
        MOVX      A,@DPTR
        CLR       0xE0 /* A   */.4
??gp_pairingSetProxyTblOptions_7:
        MOVX      @DPTR,A
//  376   }
//  377   if ( (GP_ALIAS ( pairingOpt )) && (!GP_IS_COMMUNICATION_MODE_GRPCAST_GROUP_ID( pairingOpt )) )
        MOV       ?V1,?V5
        MOV       ?V2,?V6
        MOV       ?V3,?V7
        MOV       DPTR,#__Constant_10000
        MOV       R0,#?V0
        LCALL     ?L_AND_X
        MOV       A,?V0
        ORL       A,?V1
        ORL       A,?V2
        ORL       A,?V3
        JZ        ??gp_pairingSetProxyTblOptions_8
        MOV       A,#0x2
        XRL       A,R1
        JZ        ??gp_pairingSetProxyTblOptions_8
//  378   {
//  379     PROXY_TBL_SET_ASSIGNED_ALIAS( &proxyOpt[1] );
        MOV       A,#0x1
        LCALL     ?XSTACK_DISP0_8
        MOVX      A,@DPTR
        SETB      0xE0 /* A   */.5
        SJMP      ??gp_pairingSetProxyTblOptions_9
//  380   }
//  381   else
//  382   {
//  383     PROXY_TBL_CLR_ASSIGNED_ALIAS( &proxyOpt[1]);
??gp_pairingSetProxyTblOptions_8:
        MOV       A,#0x1
        LCALL     ?XSTACK_DISP0_8
        MOVX      A,@DPTR
        CLR       0xE0 /* A   */.5
??gp_pairingSetProxyTblOptions_9:
        MOVX      @DPTR,A
//  384   }
//  385   if ( GP_GET_SEC_LEVEL( pairingOpt ) > 1 )
        MOV       A,#0x9
        MOV       R0,#?V4
        LCALL     ?US_SHR
        MOV       A,?V4
        ANL       A,#0x3
        CLR       C
        SUBB      A,#0x2
        MOVX      A,@DPTR
        JC        ??gp_pairingSetProxyTblOptions_10
//  386   {
//  387     PROXY_TBL_SET_SEC_USE( &proxyOpt[1] );
        SETB      0xE0 /* A   */.6
        SJMP      ??gp_pairingSetProxyTblOptions_11
//  388   }
//  389   else
//  390   {
//  391     PROXY_TBL_CLR_SEC_USE( &proxyOpt[1] );
??gp_pairingSetProxyTblOptions_10:
        CLR       0xE0 /* A   */.6
??gp_pairingSetProxyTblOptions_11:
        MOVX      @DPTR,A
//  392   }
//  393   PROXY_TBL_SET_OPT_EXT( &proxyOpt[1] );
//  394   PROXY_TBL_CLR_OPT_EXT( &proxyOpt[1] );
        MOVX      A,@DPTR
        CLR       0xE0 /* A   */.7
        LCALL     ?Subroutine9 & 0xFFFF
//  395   
//  396   opt |= ( ( proxyOpt[0] ) & 0x00FF );
//  397   opt |= ( ( ( proxyOpt[1] ) <<  8 ) & 0xFF00 );
//  398     
//  399   return opt;
??CrossCallReturnLabel_13:
        MOV       R2,A
        MOV       A,#0x1
        LCALL     ?XSTACK_DISP0_8
        MOVX      A,@DPTR
        MOV       R3,A
        MOV       A,#0x2
        LCALL     ?DEALLOC_XSTACK8
          CFI CFA_XSP16 add(XSP16, 16)
        MOV       R7,#0x8
        LJMP      ?BANKED_LEAVE_XDATA
//  400 }
          CFI EndBlock cfiBlock46

        RSEG BANKED_CODE:HUGECODE:NOROOT(0)
?Subroutine9:
          CFI Block cfiCond47 Using cfiCommon0
          CFI Function pt_ZclReadGetProxyEntry
          CFI Conditional ??CrossCallReturnLabel_12, ??CrossCallReturnLabel_3
          CFI R6 load(1, XDATA, add(CFA_XSP16, literal(-24)))
          CFI VB load(1, XDATA, add(CFA_XSP16, literal(-23)))
          CFI V0 load(1, XDATA, add(CFA_XSP16, literal(-22)))
          CFI V1 load(1, XDATA, add(CFA_XSP16, literal(-21)))
          CFI V2 load(1, XDATA, add(CFA_XSP16, literal(-20)))
          CFI V3 load(1, XDATA, add(CFA_XSP16, literal(-19)))
          CFI V4 load(1, XDATA, add(CFA_XSP16, literal(-18)))
          CFI V5 load(1, XDATA, add(CFA_XSP16, literal(-17)))
          CFI V6 load(1, XDATA, add(CFA_XSP16, literal(-16)))
          CFI V7 load(1, XDATA, add(CFA_XSP16, literal(-15)))
          CFI V8 load(1, XDATA, add(CFA_XSP16, literal(-14)))
          CFI V9 load(1, XDATA, add(CFA_XSP16, literal(-13)))
          CFI V10 load(1, XDATA, add(CFA_XSP16, literal(-12)))
          CFI V11 load(1, XDATA, add(CFA_XSP16, literal(-11)))
          CFI V12 load(1, XDATA, add(CFA_XSP16, literal(-10)))
          CFI V13 load(1, XDATA, add(CFA_XSP16, literal(-9)))
          CFI V14 load(1, XDATA, add(CFA_XSP16, literal(-8)))
          CFI V15 load(1, XDATA, add(CFA_XSP16, literal(-7)))
          CFI R7 load(1, XDATA, add(CFA_XSP16, literal(-6)))
          CFI ?RET_LOW load(1, XDATA, add(CFA_XSP16, literal(-5)))
          CFI ?RET_HIGH load(1, XDATA, add(CFA_XSP16, literal(-4)))
          CFI ?BRET_EXT load(1, XDATA, add(CFA_XSP16, literal(-3)))
          CFI DPL0 load(1, XDATA, add(CFA_XSP16, literal(-2)))
          CFI DPH0 load(1, XDATA, add(CFA_XSP16, literal(-1)))
          CFI CFA_SP SP+-4
          CFI CFA_XSP16 add(XSP16, 170)
          CFI Block cfiCond48 Using cfiCommon0
          CFI (cfiCond48) Function pt_ZclReadGetProxyEntry
          CFI (cfiCond48) Conditional ??CrossCallReturnLabel_12, ??CrossCallReturnLabel_4
          CFI (cfiCond48) R6 load(1, XDATA, add(CFA_XSP16, literal(-24)))
          CFI (cfiCond48) VB load(1, XDATA, add(CFA_XSP16, literal(-23)))
          CFI (cfiCond48) V0 load(1, XDATA, add(CFA_XSP16, literal(-22)))
          CFI (cfiCond48) V1 load(1, XDATA, add(CFA_XSP16, literal(-21)))
          CFI (cfiCond48) V2 load(1, XDATA, add(CFA_XSP16, literal(-20)))
          CFI (cfiCond48) V3 load(1, XDATA, add(CFA_XSP16, literal(-19)))
          CFI (cfiCond48) V4 load(1, XDATA, add(CFA_XSP16, literal(-18)))
          CFI (cfiCond48) V5 load(1, XDATA, add(CFA_XSP16, literal(-17)))
          CFI (cfiCond48) V6 load(1, XDATA, add(CFA_XSP16, literal(-16)))
          CFI (cfiCond48) V7 load(1, XDATA, add(CFA_XSP16, literal(-15)))
          CFI (cfiCond48) V8 load(1, XDATA, add(CFA_XSP16, literal(-14)))
          CFI (cfiCond48) V9 load(1, XDATA, add(CFA_XSP16, literal(-13)))
          CFI (cfiCond48) V10 load(1, XDATA, add(CFA_XSP16, literal(-12)))
          CFI (cfiCond48) V11 load(1, XDATA, add(CFA_XSP16, literal(-11)))
          CFI (cfiCond48) V12 load(1, XDATA, add(CFA_XSP16, literal(-10)))
          CFI (cfiCond48) V13 load(1, XDATA, add(CFA_XSP16, literal(-9)))
          CFI (cfiCond48) V14 load(1, XDATA, add(CFA_XSP16, literal(-8)))
          CFI (cfiCond48) V15 load(1, XDATA, add(CFA_XSP16, literal(-7)))
          CFI (cfiCond48) R7 load(1, XDATA, add(CFA_XSP16, literal(-6)))
          CFI (cfiCond48) ?RET_LOW load(1, XDATA, add(CFA_XSP16, literal(-5)))
          CFI (cfiCond48) ?RET_HIGH load(1, XDATA, add(CFA_XSP16, literal(-4)))
          CFI (cfiCond48) ?BRET_EXT load(1, XDATA, add(CFA_XSP16, literal(-3)))
          CFI (cfiCond48) DPL0 load(1, XDATA, add(CFA_XSP16, literal(-2)))
          CFI (cfiCond48) DPH0 load(1, XDATA, add(CFA_XSP16, literal(-1)))
          CFI (cfiCond48) CFA_SP SP+-4
          CFI (cfiCond48) CFA_XSP16 add(XSP16, 170)
          CFI Block cfiCond49 Using cfiCommon0
          CFI (cfiCond49) Function gp_pairingSetProxyTblOptions
          CFI (cfiCond49) Conditional ??CrossCallReturnLabel_13
          CFI (cfiCond49) R6 load(1, XDATA, add(CFA_XSP16, literal(-16)))
          CFI (cfiCond49) VB load(1, XDATA, add(CFA_XSP16, literal(-15)))
          CFI (cfiCond49) V0 load(1, XDATA, add(CFA_XSP16, literal(-14)))
          CFI (cfiCond49) V1 load(1, XDATA, add(CFA_XSP16, literal(-13)))
          CFI (cfiCond49) V2 load(1, XDATA, add(CFA_XSP16, literal(-12)))
          CFI (cfiCond49) V3 load(1, XDATA, add(CFA_XSP16, literal(-11)))
          CFI (cfiCond49) V4 load(1, XDATA, add(CFA_XSP16, literal(-10)))
          CFI (cfiCond49) V5 load(1, XDATA, add(CFA_XSP16, literal(-9)))
          CFI (cfiCond49) V6 load(1, XDATA, add(CFA_XSP16, literal(-8)))
          CFI (cfiCond49) V7 load(1, XDATA, add(CFA_XSP16, literal(-7)))
          CFI (cfiCond49) R7 load(1, XDATA, add(CFA_XSP16, literal(-6)))
          CFI (cfiCond49) ?RET_LOW load(1, XDATA, add(CFA_XSP16, literal(-5)))
          CFI (cfiCond49) ?RET_HIGH load(1, XDATA, add(CFA_XSP16, literal(-4)))
          CFI (cfiCond49) ?BRET_EXT load(1, XDATA, add(CFA_XSP16, literal(-3)))
          CFI (cfiCond49) DPL0 load(1, XDATA, add(CFA_XSP16, literal(-2)))
          CFI (cfiCond49) DPH0 load(1, XDATA, add(CFA_XSP16, literal(-1)))
          CFI (cfiCond49) CFA_SP SP+-2
          CFI (cfiCond49) CFA_XSP16 add(XSP16, 18)
          CFI Block cfiPicker50 Using cfiCommon1
          CFI (cfiPicker50) NoFunction
          CFI (cfiPicker50) Picker
        MOVX      @DPTR,A
        MOV       DPL,?XSP + 0
        MOV       DPH,?XSP + 1
        MOVX      A,@DPTR
        RET
          CFI EndBlock cfiCond47
          CFI EndBlock cfiCond48
          CFI EndBlock cfiCond49
          CFI EndBlock cfiPicker50
//  401 
//  402 /*********************************************************************
//  403  * @fn          gp_PairingUpdateProxyTlb
//  404  *
//  405  * @brief       General function fill the proxy table vector
//  406  *
//  407  * @param       
//  408  *
//  409  * @return      
//  410  */

        RSEG BANKED_CODE:HUGECODE:NOROOT(0)
//  411 void gp_PairingUpdateProxyTlb( gpPairingCmd_t* payload )
gp_PairingUpdateProxyTlb:
          CFI Block cfiBlock51 Using cfiCommon0
          CFI Function gp_PairingUpdateProxyTlb
        CODE
//  412 {
        FUNCALL gp_PairingUpdateProxyTlb, gp_ResetProxyBasicTblEntry
        LOCFRAME ISTACK, 0, STACK
        LOCFRAME PSTACK, 0, STACK
        LOCFRAME XSTACK, 92, STACK
        LOCFRAME IOVERLAY, 0, STATIC
        LOCFRAME DOVERLAY, 0, STATIC
        ARGFRAME ISTACK, 0, STACK
        ARGFRAME PSTACK, 0, STACK
        ARGFRAME XSTACK, 92, STACK
        ARGFRAME IOVERLAY, 0, STATIC
        ARGFRAME DOVERLAY, 0, STATIC
        FUNCALL gp_PairingUpdateProxyTlb, gp_pairingSetProxyTblOptions
        LOCFRAME ISTACK, 0, STACK
        LOCFRAME PSTACK, 0, STACK
        LOCFRAME XSTACK, 92, STACK
        LOCFRAME IOVERLAY, 0, STATIC
        LOCFRAME DOVERLAY, 0, STATIC
        ARGFRAME ISTACK, 0, STACK
        ARGFRAME PSTACK, 0, STACK
        ARGFRAME XSTACK, 92, STACK
        ARGFRAME IOVERLAY, 0, STATIC
        ARGFRAME DOVERLAY, 0, STATIC
        FUNCALL gp_PairingUpdateProxyTlb, gp_PopulateProxyTblEntry
        LOCFRAME ISTACK, 0, STACK
        LOCFRAME PSTACK, 0, STACK
        LOCFRAME XSTACK, 94, STACK
        LOCFRAME IOVERLAY, 0, STATIC
        LOCFRAME DOVERLAY, 0, STATIC
        ARGFRAME ISTACK, 0, STACK
        ARGFRAME PSTACK, 0, STACK
        ARGFRAME XSTACK, 94, STACK
        ARGFRAME IOVERLAY, 0, STATIC
        ARGFRAME DOVERLAY, 0, STATIC
        FUNCALL gp_PairingUpdateProxyTlb, gp_PopulateProxyTblEntry
        LOCFRAME ISTACK, 0, STACK
        LOCFRAME PSTACK, 0, STACK
        LOCFRAME XSTACK, 94, STACK
        LOCFRAME IOVERLAY, 0, STATIC
        LOCFRAME DOVERLAY, 0, STATIC
        ARGFRAME ISTACK, 0, STACK
        ARGFRAME PSTACK, 0, STACK
        ARGFRAME XSTACK, 94, STACK
        ARGFRAME IOVERLAY, 0, STATIC
        ARGFRAME DOVERLAY, 0, STATIC
        FUNCALL gp_PairingUpdateProxyTlb, gp_PopulateProxyTblEntry
        LOCFRAME ISTACK, 0, STACK
        LOCFRAME PSTACK, 0, STACK
        LOCFRAME XSTACK, 94, STACK
        LOCFRAME IOVERLAY, 0, STATIC
        LOCFRAME DOVERLAY, 0, STATIC
        ARGFRAME ISTACK, 0, STACK
        ARGFRAME PSTACK, 0, STACK
        ARGFRAME XSTACK, 94, STACK
        ARGFRAME IOVERLAY, 0, STATIC
        ARGFRAME DOVERLAY, 0, STATIC
        FUNCALL gp_PairingUpdateProxyTlb, gp_PopulateProxyTblEntry
        LOCFRAME ISTACK, 0, STACK
        LOCFRAME PSTACK, 0, STACK
        LOCFRAME XSTACK, 94, STACK
        LOCFRAME IOVERLAY, 0, STATIC
        LOCFRAME DOVERLAY, 0, STATIC
        ARGFRAME ISTACK, 0, STACK
        ARGFRAME PSTACK, 0, STACK
        ARGFRAME XSTACK, 94, STACK
        ARGFRAME IOVERLAY, 0, STATIC
        ARGFRAME DOVERLAY, 0, STATIC
        FUNCALL gp_PairingUpdateProxyTlb, gp_PopulateProxyTblEntry
        LOCFRAME ISTACK, 0, STACK
        LOCFRAME PSTACK, 0, STACK
        LOCFRAME XSTACK, 94, STACK
        LOCFRAME IOVERLAY, 0, STATIC
        LOCFRAME DOVERLAY, 0, STATIC
        ARGFRAME ISTACK, 0, STACK
        ARGFRAME PSTACK, 0, STACK
        ARGFRAME XSTACK, 94, STACK
        ARGFRAME IOVERLAY, 0, STATIC
        ARGFRAME DOVERLAY, 0, STATIC
        FUNCALL gp_PairingUpdateProxyTlb, gp_PopulateProxyTblEntry
        LOCFRAME ISTACK, 0, STACK
        LOCFRAME PSTACK, 0, STACK
        LOCFRAME XSTACK, 94, STACK
        LOCFRAME IOVERLAY, 0, STATIC
        LOCFRAME DOVERLAY, 0, STATIC
        ARGFRAME ISTACK, 0, STACK
        ARGFRAME PSTACK, 0, STACK
        ARGFRAME XSTACK, 94, STACK
        ARGFRAME IOVERLAY, 0, STATIC
        ARGFRAME DOVERLAY, 0, STATIC
        FUNCALL gp_PairingUpdateProxyTlb, osal_memcpy
        LOCFRAME ISTACK, 0, STACK
        LOCFRAME PSTACK, 0, STACK
        LOCFRAME XSTACK, 95, STACK
        LOCFRAME IOVERLAY, 0, STATIC
        LOCFRAME DOVERLAY, 0, STATIC
        ARGFRAME ISTACK, 0, STACK
        ARGFRAME PSTACK, 0, STACK
        ARGFRAME XSTACK, 95, STACK
        ARGFRAME IOVERLAY, 0, STATIC
        ARGFRAME DOVERLAY, 0, STATIC
        FUNCALL gp_PairingUpdateProxyTlb, gp_PopulateProxyTblEntry
        LOCFRAME ISTACK, 0, STACK
        LOCFRAME PSTACK, 0, STACK
        LOCFRAME XSTACK, 94, STACK
        LOCFRAME IOVERLAY, 0, STATIC
        LOCFRAME DOVERLAY, 0, STATIC
        ARGFRAME ISTACK, 0, STACK
        ARGFRAME PSTACK, 0, STACK
        ARGFRAME XSTACK, 94, STACK
        ARGFRAME IOVERLAY, 0, STATIC
        ARGFRAME DOVERLAY, 0, STATIC
        FUNCALL gp_PairingUpdateProxyTlb, gp_PopulateProxyTblEntry
        LOCFRAME ISTACK, 0, STACK
        LOCFRAME PSTACK, 0, STACK
        LOCFRAME XSTACK, 94, STACK
        LOCFRAME IOVERLAY, 0, STATIC
        LOCFRAME DOVERLAY, 0, STATIC
        ARGFRAME ISTACK, 0, STACK
        ARGFRAME PSTACK, 0, STACK
        ARGFRAME XSTACK, 94, STACK
        ARGFRAME IOVERLAY, 0, STATIC
        ARGFRAME DOVERLAY, 0, STATIC
        FUNCALL gp_PairingUpdateProxyTlb, gp_PopulateProxyTblEntry
        LOCFRAME ISTACK, 0, STACK
        LOCFRAME PSTACK, 0, STACK
        LOCFRAME XSTACK, 94, STACK
        LOCFRAME IOVERLAY, 0, STATIC
        LOCFRAME DOVERLAY, 0, STATIC
        ARGFRAME ISTACK, 0, STACK
        ARGFRAME PSTACK, 0, STACK
        ARGFRAME XSTACK, 94, STACK
        ARGFRAME IOVERLAY, 0, STATIC
        ARGFRAME DOVERLAY, 0, STATIC
        FUNCALL gp_PairingUpdateProxyTlb, gp_PopulateProxyTblEntry
        LOCFRAME ISTACK, 0, STACK
        LOCFRAME PSTACK, 0, STACK
        LOCFRAME XSTACK, 94, STACK
        LOCFRAME IOVERLAY, 0, STATIC
        LOCFRAME DOVERLAY, 0, STATIC
        ARGFRAME ISTACK, 0, STACK
        ARGFRAME PSTACK, 0, STACK
        ARGFRAME XSTACK, 94, STACK
        ARGFRAME IOVERLAY, 0, STATIC
        ARGFRAME DOVERLAY, 0, STATIC
        FUNCALL gp_PairingUpdateProxyTlb, osal_memset
        LOCFRAME ISTACK, 0, STACK
        LOCFRAME PSTACK, 0, STACK
        LOCFRAME XSTACK, 92, STACK
        LOCFRAME IOVERLAY, 0, STATIC
        LOCFRAME DOVERLAY, 0, STATIC
        ARGFRAME ISTACK, 0, STACK
        ARGFRAME PSTACK, 0, STACK
        ARGFRAME XSTACK, 92, STACK
        ARGFRAME IOVERLAY, 0, STATIC
        ARGFRAME DOVERLAY, 0, STATIC
        FUNCALL gp_PairingUpdateProxyTlb, gp_PopulateProxyTblEntry
        LOCFRAME ISTACK, 0, STACK
        LOCFRAME PSTACK, 0, STACK
        LOCFRAME XSTACK, 94, STACK
        LOCFRAME IOVERLAY, 0, STATIC
        LOCFRAME DOVERLAY, 0, STATIC
        ARGFRAME ISTACK, 0, STACK
        ARGFRAME PSTACK, 0, STACK
        ARGFRAME XSTACK, 94, STACK
        ARGFRAME IOVERLAY, 0, STATIC
        ARGFRAME DOVERLAY, 0, STATIC
        FUNCALL gp_PairingUpdateProxyTlb, gp_PopulateProxyTblEntry
        LOCFRAME ISTACK, 0, STACK
        LOCFRAME PSTACK, 0, STACK
        LOCFRAME XSTACK, 94, STACK
        LOCFRAME IOVERLAY, 0, STATIC
        LOCFRAME DOVERLAY, 0, STATIC
        ARGFRAME ISTACK, 0, STACK
        ARGFRAME PSTACK, 0, STACK
        ARGFRAME XSTACK, 94, STACK
        ARGFRAME IOVERLAY, 0, STATIC
        ARGFRAME DOVERLAY, 0, STATIC
        FUNCALL gp_PairingUpdateProxyTlb, osal_memset
        LOCFRAME ISTACK, 0, STACK
        LOCFRAME PSTACK, 0, STACK
        LOCFRAME XSTACK, 92, STACK
        LOCFRAME IOVERLAY, 0, STATIC
        LOCFRAME DOVERLAY, 0, STATIC
        ARGFRAME ISTACK, 0, STACK
        ARGFRAME PSTACK, 0, STACK
        ARGFRAME XSTACK, 92, STACK
        ARGFRAME IOVERLAY, 0, STATIC
        ARGFRAME DOVERLAY, 0, STATIC
        FUNCALL gp_PairingUpdateProxyTlb, gp_PopulateProxyTblEntry
        LOCFRAME ISTACK, 0, STACK
        LOCFRAME PSTACK, 0, STACK
        LOCFRAME XSTACK, 94, STACK
        LOCFRAME IOVERLAY, 0, STATIC
        LOCFRAME DOVERLAY, 0, STATIC
        ARGFRAME ISTACK, 0, STACK
        ARGFRAME PSTACK, 0, STACK
        ARGFRAME XSTACK, 94, STACK
        ARGFRAME IOVERLAY, 0, STATIC
        ARGFRAME DOVERLAY, 0, STATIC
        FUNCALL gp_PairingUpdateProxyTlb, gp_PopulateProxyTblEntry
        LOCFRAME ISTACK, 0, STACK
        LOCFRAME PSTACK, 0, STACK
        LOCFRAME XSTACK, 94, STACK
        LOCFRAME IOVERLAY, 0, STATIC
        LOCFRAME DOVERLAY, 0, STATIC
        ARGFRAME ISTACK, 0, STACK
        ARGFRAME PSTACK, 0, STACK
        ARGFRAME XSTACK, 94, STACK
        ARGFRAME IOVERLAY, 0, STATIC
        ARGFRAME DOVERLAY, 0, STATIC
        FUNCALL gp_PairingUpdateProxyTlb, gp_PopulateProxyTblEntry
        LOCFRAME ISTACK, 0, STACK
        LOCFRAME PSTACK, 0, STACK
        LOCFRAME XSTACK, 94, STACK
        LOCFRAME IOVERLAY, 0, STATIC
        LOCFRAME DOVERLAY, 0, STATIC
        ARGFRAME ISTACK, 0, STACK
        ARGFRAME PSTACK, 0, STACK
        ARGFRAME XSTACK, 94, STACK
        ARGFRAME IOVERLAY, 0, STATIC
        ARGFRAME DOVERLAY, 0, STATIC
        FUNCALL gp_PairingUpdateProxyTlb, gp_PopulateProxyTblEntry
        LOCFRAME ISTACK, 0, STACK
        LOCFRAME PSTACK, 0, STACK
        LOCFRAME XSTACK, 94, STACK
        LOCFRAME IOVERLAY, 0, STATIC
        LOCFRAME DOVERLAY, 0, STATIC
        ARGFRAME ISTACK, 0, STACK
        ARGFRAME PSTACK, 0, STACK
        ARGFRAME XSTACK, 94, STACK
        ARGFRAME IOVERLAY, 0, STATIC
        ARGFRAME DOVERLAY, 0, STATIC
        FUNCALL gp_PairingUpdateProxyTlb, gp_PopulateProxyTblEntry
        LOCFRAME ISTACK, 0, STACK
        LOCFRAME PSTACK, 0, STACK
        LOCFRAME XSTACK, 94, STACK
        LOCFRAME IOVERLAY, 0, STATIC
        LOCFRAME DOVERLAY, 0, STATIC
        ARGFRAME ISTACK, 0, STACK
        ARGFRAME PSTACK, 0, STACK
        ARGFRAME XSTACK, 94, STACK
        ARGFRAME IOVERLAY, 0, STATIC
        ARGFRAME DOVERLAY, 0, STATIC
        FUNCALL gp_PairingUpdateProxyTlb, gp_PopulateProxyTblEntry
        LOCFRAME ISTACK, 0, STACK
        LOCFRAME PSTACK, 0, STACK
        LOCFRAME XSTACK, 94, STACK
        LOCFRAME IOVERLAY, 0, STATIC
        LOCFRAME DOVERLAY, 0, STATIC
        ARGFRAME ISTACK, 0, STACK
        ARGFRAME PSTACK, 0, STACK
        ARGFRAME XSTACK, 94, STACK
        ARGFRAME IOVERLAY, 0, STATIC
        ARGFRAME DOVERLAY, 0, STATIC
        FUNCALL gp_PairingUpdateProxyTlb, osal_memcpy
        LOCFRAME ISTACK, 0, STACK
        LOCFRAME PSTACK, 0, STACK
        LOCFRAME XSTACK, 95, STACK
        LOCFRAME IOVERLAY, 0, STATIC
        LOCFRAME DOVERLAY, 0, STATIC
        ARGFRAME ISTACK, 0, STACK
        ARGFRAME PSTACK, 0, STACK
        ARGFRAME XSTACK, 95, STACK
        ARGFRAME IOVERLAY, 0, STATIC
        ARGFRAME DOVERLAY, 0, STATIC
        FUNCALL gp_PairingUpdateProxyTlb, osal_memcpy
        LOCFRAME ISTACK, 0, STACK
        LOCFRAME PSTACK, 0, STACK
        LOCFRAME XSTACK, 95, STACK
        LOCFRAME IOVERLAY, 0, STATIC
        LOCFRAME DOVERLAY, 0, STATIC
        ARGFRAME ISTACK, 0, STACK
        ARGFRAME PSTACK, 0, STACK
        ARGFRAME XSTACK, 95, STACK
        ARGFRAME IOVERLAY, 0, STATIC
        ARGFRAME DOVERLAY, 0, STATIC
        FUNCALL gp_PairingUpdateProxyTlb, gp_UpdateProxyTlb
        LOCFRAME ISTACK, 0, STACK
        LOCFRAME PSTACK, 0, STACK
        LOCFRAME XSTACK, 92, STACK
        LOCFRAME IOVERLAY, 0, STATIC
        LOCFRAME DOVERLAY, 0, STATIC
        ARGFRAME ISTACK, 0, STACK
        ARGFRAME PSTACK, 0, STACK
        ARGFRAME XSTACK, 92, STACK
        ARGFRAME IOVERLAY, 0, STATIC
        ARGFRAME DOVERLAY, 0, STATIC
        REQUIRE ?V0
        REQUIRE ?V1
        REQUIRE ?V2
        REQUIRE ?V3
        REQUIRE ?V4
        REQUIRE ?V6
        REQUIRE ?V7
        REQUIRE ?V8
        REQUIRE ?V9
        REQUIRE ?V10
        REQUIRE ?V11
        MOV       A,#-0x14
        LCALL     ?BANKED_ENTER_XDATA
          CFI DPH0 load(1, XDATA, add(CFA_XSP16, literal(-1)))
          CFI DPL0 load(1, XDATA, add(CFA_XSP16, literal(-2)))
          CFI ?BRET_EXT load(1, XDATA, add(CFA_XSP16, literal(-3)))
          CFI ?RET_HIGH load(1, XDATA, add(CFA_XSP16, literal(-4)))
          CFI ?RET_LOW load(1, XDATA, add(CFA_XSP16, literal(-5)))
          CFI R7 load(1, XDATA, add(CFA_XSP16, literal(-6)))
          CFI V11 load(1, XDATA, add(CFA_XSP16, literal(-7)))
          CFI V10 load(1, XDATA, add(CFA_XSP16, literal(-8)))
          CFI V9 load(1, XDATA, add(CFA_XSP16, literal(-9)))
          CFI V8 load(1, XDATA, add(CFA_XSP16, literal(-10)))
          CFI V7 load(1, XDATA, add(CFA_XSP16, literal(-11)))
          CFI V6 load(1, XDATA, add(CFA_XSP16, literal(-12)))
          CFI V5 load(1, XDATA, add(CFA_XSP16, literal(-13)))
          CFI V4 load(1, XDATA, add(CFA_XSP16, literal(-14)))
          CFI V3 load(1, XDATA, add(CFA_XSP16, literal(-15)))
          CFI V2 load(1, XDATA, add(CFA_XSP16, literal(-16)))
          CFI V1 load(1, XDATA, add(CFA_XSP16, literal(-17)))
          CFI V0 load(1, XDATA, add(CFA_XSP16, literal(-18)))
          CFI VB load(1, XDATA, add(CFA_XSP16, literal(-19)))
          CFI R6 load(1, XDATA, add(CFA_XSP16, literal(-20)))
          CFI CFA_SP SP+0
          CFI CFA_XSP16 add(XSP16, 20)
        ; Saved register size: 20
        ; Auto size: 72
        MOV       A,#-0x48
        LCALL     ?ALLOC_XSTACK8
          CFI CFA_XSP16 add(XSP16, 92)
        MOV       A,R2
        MOV       R6,A
        MOV       A,R3
        MOV       R7,A
//  413   uint8  entryVector[PROXY_TBL_ENTRY_LEN];
//  414   uint8  entryLen = 0;
        MOV       DPL,?XSP + 0
        MOV       DPH,?XSP + 1
        CLR       A
        MOVX      @DPTR,A
//  415   uint8  addSink;
//  416   uint8  newSinkGroup = 0;
//  417   uint16 entryOptions = 0;
        MOV       A,#0x3
        LCALL     ?XSTACK_DISP0_8
        CLR       A
        MOVX      @DPTR,A
        INC       DPTR
        MOVX      @DPTR,A
//  418   uint8  securityOpt = 0;
        MOV       A,#0x2
        LCALL     ?XSTACK_DISP0_8
        CLR       A
        MOVX      @DPTR,A
//  419   uint8  searchCounter = 0x0A;
        INC       A
        LCALL     ?XSTACK_DISP0_8
        MOV       A,#0xa
        MOVX      @DPTR,A
//  420   uint16 invalidAlias = 0xFFFF;
        MOV       A,#0x5
        LCALL     ?XSTACK_DISP0_8
        MOV       A,#-0x1
        MOVX      @DPTR,A
        INC       DPTR
        MOVX      @DPTR,A
//  421   
//  422   gp_ResetProxyBasicTblEntry(entryVector);
        ; Setup parameters for call to function gp_ResetProxyBasicTblEntry
        MOV       A,#0x7
        LCALL     ?XSTACK_DISP101_8
        LCALL     `??gp_ResetProxyBasicTblEntry::?relay`; Banked call to: gp_ResetProxyBasicTblEntry
//  423   
//  424   addSink = GP_ADD_SINK( payload->options );
        MOV       DPL,R6
        MOV       DPH,R7
        MOV       R0,#?V8
        LCALL     ?L_MOV_X
        MOV       ?V0,?V8
        MOV       A,?V0
        RRC       A
        RRC       A
        RRC       A
        ANL       A,#0x1f
        ANL       A,#0x1
        MOV       ?V4,A
//  425   
//  426   entryOptions = gp_pairingSetProxyTblOptions( payload->options );
        ; Setup parameters for call to function gp_pairingSetProxyTblOptions
        MOV       R2,?V8
        MOV       R3,?V9
        MOV       R4,?V10
        MOV       R5,?V11
        LCALL     `??gp_pairingSetProxyTblOptions::?relay`; Banked call to: gp_pairingSetProxyTblOptions
        MOV       A,#0x3
        LCALL     ?XSTACK_DISP0_8
        MOV       A,R2
        MOVX      @DPTR,A
        INC       DPTR
        MOV       A,R3
        LCALL     ?Subroutine1 & 0xFFFF
//  427   gp_PopulateProxyTblEntry( ( uint8* )&entryOptions, sizeof( entryOptions ), entryVector, &entryLen );
??CrossCallReturnLabel_0:
        LCALL     ?PUSH_XSTACK_I_TWO
          CFI CFA_XSP16 add(XSP16, 94)
        MOV       A,#0x9
        LCALL     ?XSTACK_DISP102_8
        MOV       R1,#0x2
        MOV       A,#0x5
        LCALL     ?XSTACK_DISP101_8
        LCALL     ??Subroutine10_0 & 0xFFFF
??CrossCallReturnLabel_26:
        LCALL     ?DEALLOC_XSTACK8
          CFI CFA_XSP16 add(XSP16, 92)
        MOV       DPL,R6
        MOV       DPH,R7
        MOV       R0,#?V0
        LCALL     ?L_MOV_X
        MOV       A,?V0
        ANL       A,#0x7
        MOV       R0,A
        JNZ       ??gp_PairingUpdateProxyTlb_0
//  428     
//  429   // Options bitfield
//  430   // If Application Id bitfield is 0b000
//  431   if( GP_IS_APPLICATION_ID_GPD( payload->options ) )
//  432   {        
//  433     // Populate GPD ID
//  434     entryLen += sizeof( uint32 );
        MOV       DPL,?XSP + 0
        MOV       DPH,?XSP + 1
        MOVX      A,@DPTR
        ADD       A,#0x4
        LCALL     ?Subroutine1 & 0xFFFF
//  435     gp_PopulateProxyTblEntry( ( uint8* )&payload->gpdId, sizeof( payload->gpdId ), entryVector, &entryLen );
//  436   }
??CrossCallReturnLabel_1:
        LCALL     ?PUSH_XSTACK_I_TWO
          CFI CFA_XSP16 add(XSP16, 94)
        MOV       A,#0x9
        LCALL     ?XSTACK_DISP102_8
        MOV       R1,#0x4
        SJMP      ??gp_PairingUpdateProxyTlb_1
          CFI CFA_XSP16 add(XSP16, 92)
//  437   // If Application Id bitfield is 0b010
//  438   else if( GP_IS_APPLICATION_ID_IEEE( payload->options ) )
??gp_PairingUpdateProxyTlb_0:
        MOV       A,#0x2
        XRL       A,R0
        JNZ       ??gp_PairingUpdateProxyTlb_2
//  439   {   
//  440     gp_PopulateProxyTblEntry( payload->gpdIEEE, Z_EXTADDR_LEN, entryVector, &entryLen );
        ; Setup parameters for call to function gp_PopulateProxyTblEntry
        MOV       R0,?XSP + 0
        MOV       R1,?XSP + 1
        MOV       ?V0,R0
        MOV       ?V1,R1
        MOV       R0,#?V0
        LCALL     ?PUSH_XSTACK_I_TWO
          CFI CFA_XSP16 add(XSP16, 94)
        MOV       A,#0x9
        LCALL     ?XSTACK_DISP102_8
        MOV       R1,#0x8
??gp_PairingUpdateProxyTlb_1:
        MOV       A,R6
        ADD       A,R1
        MOV       R2,A
        CLR       A
        ADDC      A,R7
        MOV       R3,A
//  441   }
        LCALL     ??Subroutine10_0 & 0xFFFF
??CrossCallReturnLabel_27:
        LCALL     ?DEALLOC_XSTACK8
          CFI CFA_XSP16 add(XSP16, 92)
//  442   
//  443    gp_PopulateProxyTblEntry( ( uint8* )&payload->ep, sizeof( payload->ep ), entryVector, &entryLen );
??gp_PairingUpdateProxyTlb_2:
        ; Setup parameters for call to function gp_PopulateProxyTblEntry
        MOV       R0,?XSP + 0
        MOV       R1,?XSP + 1
        MOV       ?V0,R0
        MOV       ?V1,R1
        MOV       R0,#?V0
        LCALL     ?PUSH_XSTACK_I_TWO
          CFI CFA_XSP16 add(XSP16, 94)
        MOV       A,#0x9
        LCALL     ?XSTACK_DISP102_8
        MOV       R1,#0x1
        MOV       A,R6
        ADD       A,#0x10
        MOV       R2,A
        CLR       A
        ADDC      A,R7
        MOV       R3,A
        LCALL     ??Subroutine10_0 & 0xFFFF
??CrossCallReturnLabel_28:
        LCALL     ?DEALLOC_XSTACK8
          CFI CFA_XSP16 add(XSP16, 92)
//  444 
//  445   if( !GP_IS_COMMUNICATION_MODE_GRPCAST_GROUP_ID( payload->options ) )
        MOV       A,R6
        ADD       A,#0x32
        MOV       ?V6,A
        CLR       A
        ADDC      A,R7
        MOV       ?V7,A
        MOV       DPL,R6
        MOV       DPH,R7
        MOV       R0,#?V0
        LCALL     ?L_MOV_X
        MOV       A,?V0
        SWAP      A
        RRC       A
        ANL       A,#0x7
        ANL       A,#0x3
        XRL       A,#0x2
        MOV       R0,?XSP + 0
        MOV       R1,?XSP + 1
        MOV       ?V0,R0
        MOV       ?V1,R1
        MOV       R0,#?V0
        JZ        ??gp_PairingUpdateProxyTlb_3
//  446   {
//  447     gp_PopulateProxyTblEntry( ( uint8* )&payload->assignedAlias, sizeof( payload->assignedAlias ), entryVector, &entryLen );
        ; Setup parameters for call to function gp_PopulateProxyTblEntry
        LCALL     ?PUSH_XSTACK_I_TWO
          CFI CFA_XSP16 add(XSP16, 94)
        MOV       A,#0x9
        LCALL     ?XSTACK_DISP102_8
        MOV       R1,#0x2
        MOV       R2,?V6
        MOV       R3,?V7
        SJMP      ??gp_PairingUpdateProxyTlb_4
          CFI CFA_XSP16 add(XSP16, 92)
//  448   }
//  449   else
//  450   {
//  451     gp_PopulateProxyTblEntry( ( uint8* )&invalidAlias, sizeof( uint16 ), entryVector, &entryLen );
??gp_PairingUpdateProxyTlb_3:
        ; Setup parameters for call to function gp_PopulateProxyTblEntry
        LCALL     ?PUSH_XSTACK_I_TWO
          CFI CFA_XSP16 add(XSP16, 94)
        MOV       A,#0x9
        LCALL     ?XSTACK_DISP102_8
        MOV       R1,#0x2
        MOV       A,#0x7
        LCALL     ?XSTACK_DISP101_8
//  452   }
??gp_PairingUpdateProxyTlb_4:
        LCALL     ??Subroutine10_0 & 0xFFFF
??CrossCallReturnLabel_29:
        LCALL     ?DEALLOC_XSTACK8
          CFI CFA_XSP16 add(XSP16, 92)
//  453 
//  454 
//  455   //Security options
//  456   securityOpt |= GP_GET_SEC_LEVEL( payload->options );
//  457   securityOpt |= GP_GET_SEC_KEY_TYPE (payload->options ) << GP_OPT_SEC_LEVEL_LEN;
        MOV       DPL,R6
        MOV       DPH,R7
        MOV       R0,#?V0
        LCALL     ?L_MOV_X
        MOV       ?V8,?V0
        MOV       ?V9,?V1
        MOV       A,#0xb
        MOV       R0,#?V8
        LCALL     ?US_SHR
        MOV       A,?V8
        RLC       A
        RLC       A
        ANL       A,#0xfc
        ANL       A,#0x1c
        MOV       R1,A
        MOV       A,#0x9
        MOV       R0,#?V0
        LCALL     ?US_SHR
        MOV       A,?V0
        ANL       A,#0x3
        ORL       A,R1
        MOV       R0,A
        MOV       A,#0x2
        LCALL     ?XSTACK_DISP0_8
        MOVX      A,@DPTR
        ORL       A,R0
        MOVX      @DPTR,A
//  458   osal_memcpy( &entryVector[entryLen], &securityOpt, sizeof ( uint8 ) );
        ; Setup parameters for call to function osal_memcpy
        MOV       A,#0x2
        LCALL     ?XSTACK_DISP100_8
        MOV       ?V0,R0
        MOV       ?V1,R1
        MOV       ?V2,#0x0
        MOV       R0,#?V0
        LCALL     ?PUSH_XSTACK_I_THREE
          CFI CFA_XSP16 add(XSP16, 95)
        MOV       R4,#0x1
        MOV       R5,#0x0
        MOV       A,#0x3
        LCALL     ?XSTACK_DISP0_8
        MOVX      A,@DPTR
        MOV       R0,A
        MOV       A,#0xa
        LCALL     ?XSTACK_DISP0_8
        LCALL     ?Subroutine6 & 0xFFFF
??CrossCallReturnLabel_8:
        LCALL     ??Subroutine11_0 & 0xFFFF
??CrossCallReturnLabel_59:
        LCALL     ?DEALLOC_XSTACK8
          CFI CFA_XSP16 add(XSP16, 92)
//  459   entryLen += sizeof ( uint8 );
        MOV       DPL,?XSP + 0
        MOV       DPH,?XSP + 1
        MOVX      A,@DPTR
        INC       A
        LCALL     ?Subroutine1 & 0xFFFF
//  460 
//  461   gp_PopulateProxyTblEntry( ( uint8* )&payload->gpdSecCounter, sizeof( payload->gpdSecCounter ), entryVector, &entryLen );
??CrossCallReturnLabel_2:
        LCALL     ?PUSH_XSTACK_I_TWO
          CFI CFA_XSP16 add(XSP16, 94)
        MOV       A,#0x9
        LCALL     ?XSTACK_DISP102_8
        MOV       R1,#0x4
        MOV       A,R6
        ADD       A,#0x1e
        MOV       R2,A
        CLR       A
        ADDC      A,R7
        MOV       R3,A
        LCALL     ??Subroutine10_0 & 0xFFFF
??CrossCallReturnLabel_30:
        LCALL     ?DEALLOC_XSTACK8
          CFI CFA_XSP16 add(XSP16, 92)
//  462   gp_PopulateProxyTblEntry( ( uint8* )&payload->gpdKey, SEC_KEY_LEN, entryVector, &entryLen );
        ; Setup parameters for call to function gp_PopulateProxyTblEntry
        MOV       R0,#?V0
        LCALL     ?PUSH_XSTACK_I_TWO
          CFI CFA_XSP16 add(XSP16, 94)
        MOV       A,#0x9
        LCALL     ?XSTACK_DISP102_8
        MOV       R1,#0x10
        MOV       A,R6
        ADD       A,#0x22
        MOV       R2,A
        CLR       A
        ADDC      A,R7
        MOV       R3,A
        LCALL     ??Subroutine10_0 & 0xFFFF
??CrossCallReturnLabel_31:
        LCALL     ?DEALLOC_XSTACK8
          CFI CFA_XSP16 add(XSP16, 92)
//  463   
//  464   gp_PopulateProxyTblEntry( payload->sinkIEEE, Z_EXTADDR_LEN, entryVector, &entryLen );
        MOV       A,R6
        ADD       A,#0x11
        LCALL     ?Subroutine8 & 0xFFFF
??CrossCallReturnLabel_10:
        LCALL     ?PUSH_XSTACK_I_TWO
          CFI CFA_XSP16 add(XSP16, 94)
        MOV       A,#0x9
        LCALL     ?XSTACK_DISP102_8
        MOV       R1,#0x8
        MOV       R2,?V0
        MOV       R3,?V1
        LCALL     ??Subroutine10_0 & 0xFFFF
??CrossCallReturnLabel_32:
        LCALL     ?DEALLOC_XSTACK8
          CFI CFA_XSP16 add(XSP16, 92)
//  465   gp_PopulateProxyTblEntry( ( uint8* )&payload->sinkNwkAddr, sizeof( payload->sinkNwkAddr ), entryVector, &entryLen );
        MOV       A,R6
        ADD       A,#0x19
        MOV       ?V2,A
        CLR       A
        ADDC      A,R7
        MOV       ?V3,A
        ; Setup parameters for call to function gp_PopulateProxyTblEntry
        MOV       R0,?XSP + 0
        MOV       R1,?XSP + 1
        MOV       ?V8,R0
        MOV       ?V9,R1
        MOV       R0,#?V8
        LCALL     ?PUSH_XSTACK_I_TWO
          CFI CFA_XSP16 add(XSP16, 94)
        MOV       A,#0x9
        LCALL     ?XSTACK_DISP102_8
        MOV       R1,#0x2
        MOV       R2,?V2
        MOV       R3,?V3
        LCALL     ??Subroutine10_0 & 0xFFFF
??CrossCallReturnLabel_33:
        LCALL     ?DEALLOC_XSTACK8
          CFI CFA_XSP16 add(XSP16, 92)
//  466   // to add the invalid entries
//  467   osal_memset ( &payload->sinkIEEE, 0xFF, Z_EXTADDR_LEN );
        ; Setup parameters for call to function osal_memset
        MOV       R4,#0x8
        MOV       R5,#0x0
        MOV       R1,#-0x1
        MOV       R2,?V0
        MOV       R3,?V1
        LCALL     `??osal_memset::?relay`; Banked call to: osal_memset
//  468   payload->sinkNwkAddr = 0xFFFF;
        MOV       DPL,?V2
        MOV       DPH,?V3
        MOV       A,#-0x1
        MOVX      @DPTR,A
        INC       DPTR
        MOVX      @DPTR,A
//  469   gp_PopulateProxyTblEntry( payload->sinkIEEE, Z_EXTADDR_LEN, entryVector, &entryLen );
        ; Setup parameters for call to function gp_PopulateProxyTblEntry
        MOV       R0,#?V8
        LCALL     ?PUSH_XSTACK_I_TWO
          CFI CFA_XSP16 add(XSP16, 94)
        MOV       A,#0x9
        LCALL     ?XSTACK_DISP102_8
        MOV       R1,#0x8
        MOV       R2,?V0
        MOV       R3,?V1
        LCALL     ??Subroutine10_0 & 0xFFFF
??CrossCallReturnLabel_34:
        LCALL     ?DEALLOC_XSTACK8
          CFI CFA_XSP16 add(XSP16, 92)
//  470   gp_PopulateProxyTblEntry( ( uint8* )&payload->sinkNwkAddr, sizeof( payload->sinkNwkAddr ), entryVector, &entryLen );
        ; Setup parameters for call to function gp_PopulateProxyTblEntry
        MOV       R0,?XSP + 0
        MOV       R1,?XSP + 1
        MOV       ?V0,R0
        MOV       ?V1,R1
        MOV       R0,#?V0
        LCALL     ?PUSH_XSTACK_I_TWO
          CFI CFA_XSP16 add(XSP16, 94)
        MOV       A,#0x9
        LCALL     ?XSTACK_DISP102_8
        MOV       R1,#0x2
        MOV       R2,?V2
        MOV       R3,?V3
        LCALL     ??Subroutine10_0 & 0xFFFF
??CrossCallReturnLabel_35:
        LCALL     ?DEALLOC_XSTACK8
          CFI CFA_XSP16 add(XSP16, 92)
//  471   
//  472   newSinkGroup = PROXY_TBL_GET_DGROUP( entryOptions & 0x00FF );
//  473   newSinkGroup |= PROXY_TBL_GET_CGROUP( ( entryOptions & 0xFF00 ) >> 8 );
//  474   osal_memset( &entryVector[entryLen], newSinkGroup, sizeof ( uint8 ) );
        ; Setup parameters for call to function osal_memset
        MOV       R4,#0x1
        MOV       R5,#0x0
        MOV       A,#0x3
        LCALL     ?XSTACK_DISP0_8
        INC       DPTR
        MOVX      A,@DPTR
        ANL       A,#0x1
        MOV       R2,A
        MOV       A,#0x3
        LCALL     ?XSTACK_DISP0_8
        MOVX      A,@DPTR
        RLC       A
        RLC       A
        ANL       A,#0x1
        ORL       A,R2
        MOV       R1,A
        MOV       DPL,?XSP + 0
        MOV       DPH,?XSP + 1
        MOVX      A,@DPTR
        MOV       R2,A
        MOV       A,#0x7
        LCALL     ?XSTACK_DISP0_8
        MOV       A,DPL
        ADD       A,R2
        MOV       R2,A
        CLR       A
        ADDC      A,DPH
        MOV       R3,A
        LCALL     `??osal_memset::?relay`; Banked call to: osal_memset
//  475   entryLen++;
        MOV       DPL,?XSP + 0
        MOV       DPH,?XSP + 1
        MOVX      A,@DPTR
        INC       A
        MOVX      @DPTR,A
//  476   
//  477   gp_PopulateProxyTblEntry( ( uint8* )&payload->sinkGroupID, sizeof( payload->sinkGroupID ), entryVector, &entryLen );
        MOV       A,R6
        ADD       A,#0x1b
        LCALL     ?Subroutine8 & 0xFFFF
??CrossCallReturnLabel_11:
        LCALL     ?PUSH_XSTACK_I_TWO
          CFI CFA_XSP16 add(XSP16, 94)
        MOV       A,#0x9
        LCALL     ?XSTACK_DISP102_8
        MOV       R1,#0x2
        MOV       R2,?V0
        MOV       R3,?V1
        LCALL     ??Subroutine10_0 & 0xFFFF
??CrossCallReturnLabel_36:
        LCALL     ?DEALLOC_XSTACK8
          CFI CFA_XSP16 add(XSP16, 92)
        MOV       DPL,R6
        MOV       DPH,R7
        MOV       R0,#?V8
        LCALL     ?L_MOV_X
        MOV       A,?V8
        SWAP      A
        RRC       A
        ANL       A,#0x7
        ANL       A,#0x3
        MOV       R0,A
        MOV       A,#0x2
        XRL       A,R0
        JZ        ??gp_PairingUpdateProxyTlb_5
        MOV       A,#0x1
        XRL       A,R0
        JNZ       ??gp_PairingUpdateProxyTlb_6
//  478   if( GP_IS_COMMUNICATION_MODE_GRPCAST_GROUP_ID( payload->options ) || GP_IS_COMMUNICATION_MODE_GRPCAST_DGROUP_ID( payload->options ) )
//  479   {
//  480     gp_PopulateProxyTblEntry( ( uint8* )&payload->assignedAlias, sizeof( payload->assignedAlias ), entryVector, &entryLen );
??gp_PairingUpdateProxyTlb_5:
        ; Setup parameters for call to function gp_PopulateProxyTblEntry
        MOV       R0,#?V2
        LCALL     ?PUSH_XSTACK_I_TWO
          CFI CFA_XSP16 add(XSP16, 94)
        MOV       A,#0x9
        LCALL     ?XSTACK_DISP102_8
        MOV       R1,#0x2
        MOV       R2,?V6
        MOV       R3,?V7
        SJMP      ??gp_PairingUpdateProxyTlb_7
          CFI CFA_XSP16 add(XSP16, 92)
//  481   }
//  482   else
//  483   {
//  484     gp_PopulateProxyTblEntry( ( uint8* )&invalidAlias, sizeof ( uint16 ), entryVector, &entryLen );
??gp_PairingUpdateProxyTlb_6:
        ; Setup parameters for call to function gp_PopulateProxyTblEntry
        MOV       R0,#?V2
        LCALL     ?PUSH_XSTACK_I_TWO
          CFI CFA_XSP16 add(XSP16, 94)
        MOV       A,#0x9
        LCALL     ?XSTACK_DISP102_8
        MOV       R1,#0x2
        MOV       A,#0x7
        LCALL     ?XSTACK_DISP101_8
//  485   }
??gp_PairingUpdateProxyTlb_7:
        LCALL     ??Subroutine10_0 & 0xFFFF
??CrossCallReturnLabel_37:
        LCALL     ?DEALLOC_XSTACK8
          CFI CFA_XSP16 add(XSP16, 92)
//  486   // to add the invalid entries
//  487   payload->sinkGroupID = 0xFFFF;
        MOV       DPL,?V0
        MOV       DPH,?V1
        MOV       A,#-0x1
        MOVX      @DPTR,A
        INC       DPTR
        MOVX      @DPTR,A
//  488   gp_PopulateProxyTblEntry( ( uint8* )&payload->sinkGroupID, sizeof( payload->sinkGroupID ), entryVector, &entryLen );
        ; Setup parameters for call to function gp_PopulateProxyTblEntry
        MOV       R0,#?V2
        LCALL     ?PUSH_XSTACK_I_TWO
          CFI CFA_XSP16 add(XSP16, 94)
        MOV       A,#0x9
        LCALL     ?XSTACK_DISP102_8
        MOV       R1,#0x2
        MOV       R2,?V0
        MOV       R3,?V1
        LCALL     ??Subroutine10_0 & 0xFFFF
??CrossCallReturnLabel_38:
        LCALL     ?DEALLOC_XSTACK8
          CFI CFA_XSP16 add(XSP16, 92)
//  489   gp_PopulateProxyTblEntry( ( uint8* )&invalidAlias, sizeof ( uint16 ), entryVector, &entryLen );
        ; Setup parameters for call to function gp_PopulateProxyTblEntry
        MOV       R0,?XSP + 0
        MOV       R1,?XSP + 1
        MOV       ?V0,R0
        MOV       ?V1,R1
        MOV       R0,#?V0
        LCALL     ?PUSH_XSTACK_I_TWO
          CFI CFA_XSP16 add(XSP16, 94)
        MOV       A,#0x9
        LCALL     ?XSTACK_DISP102_8
        MOV       R1,#0x2
        MOV       A,#0x7
        LCALL     ?XSTACK_DISP101_8
        LCALL     ??Subroutine10_0 & 0xFFFF
??CrossCallReturnLabel_39:
        LCALL     ?DEALLOC_XSTACK8
          CFI CFA_XSP16 add(XSP16, 92)
//  490 
//  491   
//  492   gp_PopulateProxyTblEntry( &payload->forwardingRadius, sizeof( payload->forwardingRadius ), entryVector, &entryLen );
        ; Setup parameters for call to function gp_PopulateProxyTblEntry
        MOV       R0,#?V0
        LCALL     ?PUSH_XSTACK_I_TWO
          CFI CFA_XSP16 add(XSP16, 94)
        MOV       A,#0x9
        LCALL     ?XSTACK_DISP102_8
        MOV       R1,#0x1
        MOV       A,R6
        ADD       A,#0x34
        MOV       R2,A
        CLR       A
        ADDC      A,R7
        MOV       R3,A
        LCALL     ??Subroutine10_0 & 0xFFFF
??CrossCallReturnLabel_40:
        LCALL     ?DEALLOC_XSTACK8
          CFI CFA_XSP16 add(XSP16, 92)
//  493  
//  494   if ( ( PROXY_TBL_GET_ENTRY_ACTIVE( entryVector[0] ) == 0 ) && ( PROXY_TBL_GET_ENTRY_VALID( entryVector[0] ) == 0) )
        MOV       DPL,?XSP + 0
        MOV       DPH,?XSP + 1
        MOVX      A,@DPTR
        MOV       R0,A
        MOV       A,#0x7
        LCALL     ?XSTACK_DISP0_8
        LCALL     ?Subroutine6 & 0xFFFF
??CrossCallReturnLabel_9:
        MOV       A,#0x1
        LCALL     ?XSTACK_DISP100_8
        MOV       ?V0,R0
        MOV       ?V1,R1
        MOV       ?V2,#0x0
        MOVX      A,@DPTR
        ANL       A,#0x18
        JZ        ??gp_PairingUpdateProxyTlb_8
//  495   {
//  496     osal_memcpy( &entryVector[entryLen], &searchCounter, sizeof ( uint8 ) );
        ; Setup parameters for call to function osal_memcpy
//  497   }
//  498   else
//  499   {
//  500     searchCounter = 0xFF;
        MOV       A,#0x1
        LCALL     ?XSTACK_DISP0_8
        MOV       A,#-0x1
        MOVX      @DPTR,A
//  501     osal_memcpy( &entryVector[entryLen], &searchCounter, sizeof ( uint8 ) );
        ; Setup parameters for call to function osal_memcpy
??gp_PairingUpdateProxyTlb_8:
        MOV       R0,#?V0
        LCALL     ?PUSH_XSTACK_I_THREE
          CFI CFA_XSP16 add(XSP16, 95)
        MOV       R4,#0x1
        MOV       R5,#0x0
//  502   }
        LCALL     ??Subroutine11_0 & 0xFFFF
??CrossCallReturnLabel_60:
        LCALL     ?DEALLOC_XSTACK8
          CFI CFA_XSP16 add(XSP16, 92)
//  503   // Update the proxy table
//  504   gp_UpdateProxyTlb( entryVector, addSink );
        ; Setup parameters for call to function gp_UpdateProxyTlb
        MOV       R1,?V4
        MOV       A,#0x7
        LCALL     ?XSTACK_DISP101_8
        LCALL     `??gp_UpdateProxyTlb::?relay`; Banked call to: gp_UpdateProxyTlb
//  505 }
        MOV       A,#0x48
        LCALL     ?DEALLOC_XSTACK8
          CFI CFA_XSP16 add(XSP16, 20)
        MOV       R7,#0xc
        LJMP      ?BANKED_LEAVE_XDATA
          CFI EndBlock cfiBlock51

        RSEG BANKED_CODE:HUGECODE:NOROOT(0)
?Subroutine8:
          CFI Block cfiCond52 Using cfiCommon0
          CFI Function gp_PairingUpdateProxyTlb
          CFI Conditional ??CrossCallReturnLabel_10
          CFI R6 load(1, XDATA, add(CFA_XSP16, literal(-20)))
          CFI VB load(1, XDATA, add(CFA_XSP16, literal(-19)))
          CFI V0 load(1, XDATA, add(CFA_XSP16, literal(-18)))
          CFI V1 load(1, XDATA, add(CFA_XSP16, literal(-17)))
          CFI V2 load(1, XDATA, add(CFA_XSP16, literal(-16)))
          CFI V3 load(1, XDATA, add(CFA_XSP16, literal(-15)))
          CFI V4 load(1, XDATA, add(CFA_XSP16, literal(-14)))
          CFI V5 load(1, XDATA, add(CFA_XSP16, literal(-13)))
          CFI V6 load(1, XDATA, add(CFA_XSP16, literal(-12)))
          CFI V7 load(1, XDATA, add(CFA_XSP16, literal(-11)))
          CFI V8 load(1, XDATA, add(CFA_XSP16, literal(-10)))
          CFI V9 load(1, XDATA, add(CFA_XSP16, literal(-9)))
          CFI V10 load(1, XDATA, add(CFA_XSP16, literal(-8)))
          CFI V11 load(1, XDATA, add(CFA_XSP16, literal(-7)))
          CFI R7 load(1, XDATA, add(CFA_XSP16, literal(-6)))
          CFI ?RET_LOW load(1, XDATA, add(CFA_XSP16, literal(-5)))
          CFI ?RET_HIGH load(1, XDATA, add(CFA_XSP16, literal(-4)))
          CFI ?BRET_EXT load(1, XDATA, add(CFA_XSP16, literal(-3)))
          CFI DPL0 load(1, XDATA, add(CFA_XSP16, literal(-2)))
          CFI DPH0 load(1, XDATA, add(CFA_XSP16, literal(-1)))
          CFI CFA_SP SP+-2
          CFI CFA_XSP16 add(XSP16, 92)
          CFI Block cfiCond53 Using cfiCommon0
          CFI (cfiCond53) Function gp_PairingUpdateProxyTlb
          CFI (cfiCond53) Conditional ??CrossCallReturnLabel_11
          CFI (cfiCond53) R6 load(1, XDATA, add(CFA_XSP16, literal(-20)))
          CFI (cfiCond53) VB load(1, XDATA, add(CFA_XSP16, literal(-19)))
          CFI (cfiCond53) V0 load(1, XDATA, add(CFA_XSP16, literal(-18)))
          CFI (cfiCond53) V1 load(1, XDATA, add(CFA_XSP16, literal(-17)))
          CFI (cfiCond53) V2 load(1, XDATA, add(CFA_XSP16, literal(-16)))
          CFI (cfiCond53) V3 load(1, XDATA, add(CFA_XSP16, literal(-15)))
          CFI (cfiCond53) V4 load(1, XDATA, add(CFA_XSP16, literal(-14)))
          CFI (cfiCond53) V5 load(1, XDATA, add(CFA_XSP16, literal(-13)))
          CFI (cfiCond53) V6 load(1, XDATA, add(CFA_XSP16, literal(-12)))
          CFI (cfiCond53) V7 load(1, XDATA, add(CFA_XSP16, literal(-11)))
          CFI (cfiCond53) V8 load(1, XDATA, add(CFA_XSP16, literal(-10)))
          CFI (cfiCond53) V9 load(1, XDATA, add(CFA_XSP16, literal(-9)))
          CFI (cfiCond53) V10 load(1, XDATA, add(CFA_XSP16, literal(-8)))
          CFI (cfiCond53) V11 load(1, XDATA, add(CFA_XSP16, literal(-7)))
          CFI (cfiCond53) R7 load(1, XDATA, add(CFA_XSP16, literal(-6)))
          CFI (cfiCond53) ?RET_LOW load(1, XDATA, add(CFA_XSP16, literal(-5)))
          CFI (cfiCond53) ?RET_HIGH load(1, XDATA, add(CFA_XSP16, literal(-4)))
          CFI (cfiCond53) ?BRET_EXT load(1, XDATA, add(CFA_XSP16, literal(-3)))
          CFI (cfiCond53) DPL0 load(1, XDATA, add(CFA_XSP16, literal(-2)))
          CFI (cfiCond53) DPH0 load(1, XDATA, add(CFA_XSP16, literal(-1)))
          CFI (cfiCond53) CFA_SP SP+-2
          CFI (cfiCond53) CFA_XSP16 add(XSP16, 92)
          CFI Block cfiPicker54 Using cfiCommon1
          CFI (cfiPicker54) NoFunction
          CFI (cfiPicker54) Picker
        MOV       ?V0,A
        CLR       A
        ADDC      A,R7
        MOV       ?V1,A
        ; Setup parameters for call to function gp_PopulateProxyTblEntry
        ; Setup parameters for call to function gp_PopulateProxyTblEntry
        MOV       R0,?XSP + 0
        MOV       R1,?XSP + 1
        MOV       ?V2,R0
        MOV       ?V3,R1
        MOV       R0,#?V2
        RET
          CFI EndBlock cfiCond52
          CFI EndBlock cfiCond53
          CFI EndBlock cfiPicker54

        RSEG BANKED_CODE:HUGECODE:NOROOT(0)
?Subroutine6:
          CFI Block cfiCond55 Using cfiCommon0
          CFI Function pt_ZclReadGetProxyEntry
          CFI Conditional ??CrossCallReturnLabel_7
          CFI R6 load(1, XDATA, add(CFA_XSP16, literal(-24)))
          CFI VB load(1, XDATA, add(CFA_XSP16, literal(-23)))
          CFI V0 load(1, XDATA, add(CFA_XSP16, literal(-22)))
          CFI V1 load(1, XDATA, add(CFA_XSP16, literal(-21)))
          CFI V2 load(1, XDATA, add(CFA_XSP16, literal(-20)))
          CFI V3 load(1, XDATA, add(CFA_XSP16, literal(-19)))
          CFI V4 load(1, XDATA, add(CFA_XSP16, literal(-18)))
          CFI V5 load(1, XDATA, add(CFA_XSP16, literal(-17)))
          CFI V6 load(1, XDATA, add(CFA_XSP16, literal(-16)))
          CFI V7 load(1, XDATA, add(CFA_XSP16, literal(-15)))
          CFI V8 load(1, XDATA, add(CFA_XSP16, literal(-14)))
          CFI V9 load(1, XDATA, add(CFA_XSP16, literal(-13)))
          CFI V10 load(1, XDATA, add(CFA_XSP16, literal(-12)))
          CFI V11 load(1, XDATA, add(CFA_XSP16, literal(-11)))
          CFI V12 load(1, XDATA, add(CFA_XSP16, literal(-10)))
          CFI V13 load(1, XDATA, add(CFA_XSP16, literal(-9)))
          CFI V14 load(1, XDATA, add(CFA_XSP16, literal(-8)))
          CFI V15 load(1, XDATA, add(CFA_XSP16, literal(-7)))
          CFI R7 load(1, XDATA, add(CFA_XSP16, literal(-6)))
          CFI ?RET_LOW load(1, XDATA, add(CFA_XSP16, literal(-5)))
          CFI ?RET_HIGH load(1, XDATA, add(CFA_XSP16, literal(-4)))
          CFI ?BRET_EXT load(1, XDATA, add(CFA_XSP16, literal(-3)))
          CFI DPL0 load(1, XDATA, add(CFA_XSP16, literal(-2)))
          CFI DPH0 load(1, XDATA, add(CFA_XSP16, literal(-1)))
          CFI CFA_SP SP+-2
          CFI CFA_XSP16 add(XSP16, 173)
          CFI Block cfiCond56 Using cfiCommon0
          CFI (cfiCond56) Function gp_PairingUpdateProxyTlb
          CFI (cfiCond56) Conditional ??CrossCallReturnLabel_8
          CFI (cfiCond56) R6 load(1, XDATA, add(CFA_XSP16, literal(-20)))
          CFI (cfiCond56) VB load(1, XDATA, add(CFA_XSP16, literal(-19)))
          CFI (cfiCond56) V0 load(1, XDATA, add(CFA_XSP16, literal(-18)))
          CFI (cfiCond56) V1 load(1, XDATA, add(CFA_XSP16, literal(-17)))
          CFI (cfiCond56) V2 load(1, XDATA, add(CFA_XSP16, literal(-16)))
          CFI (cfiCond56) V3 load(1, XDATA, add(CFA_XSP16, literal(-15)))
          CFI (cfiCond56) V4 load(1, XDATA, add(CFA_XSP16, literal(-14)))
          CFI (cfiCond56) V5 load(1, XDATA, add(CFA_XSP16, literal(-13)))
          CFI (cfiCond56) V6 load(1, XDATA, add(CFA_XSP16, literal(-12)))
          CFI (cfiCond56) V7 load(1, XDATA, add(CFA_XSP16, literal(-11)))
          CFI (cfiCond56) V8 load(1, XDATA, add(CFA_XSP16, literal(-10)))
          CFI (cfiCond56) V9 load(1, XDATA, add(CFA_XSP16, literal(-9)))
          CFI (cfiCond56) V10 load(1, XDATA, add(CFA_XSP16, literal(-8)))
          CFI (cfiCond56) V11 load(1, XDATA, add(CFA_XSP16, literal(-7)))
          CFI (cfiCond56) R7 load(1, XDATA, add(CFA_XSP16, literal(-6)))
          CFI (cfiCond56) ?RET_LOW load(1, XDATA, add(CFA_XSP16, literal(-5)))
          CFI (cfiCond56) ?RET_HIGH load(1, XDATA, add(CFA_XSP16, literal(-4)))
          CFI (cfiCond56) ?BRET_EXT load(1, XDATA, add(CFA_XSP16, literal(-3)))
          CFI (cfiCond56) DPL0 load(1, XDATA, add(CFA_XSP16, literal(-2)))
          CFI (cfiCond56) DPH0 load(1, XDATA, add(CFA_XSP16, literal(-1)))
          CFI (cfiCond56) CFA_SP SP+-2
          CFI (cfiCond56) CFA_XSP16 add(XSP16, 95)
          CFI Block cfiCond57 Using cfiCommon0
          CFI (cfiCond57) Function gp_PairingUpdateProxyTlb
          CFI (cfiCond57) Conditional ??CrossCallReturnLabel_9
          CFI (cfiCond57) R6 load(1, XDATA, add(CFA_XSP16, literal(-20)))
          CFI (cfiCond57) VB load(1, XDATA, add(CFA_XSP16, literal(-19)))
          CFI (cfiCond57) V0 load(1, XDATA, add(CFA_XSP16, literal(-18)))
          CFI (cfiCond57) V1 load(1, XDATA, add(CFA_XSP16, literal(-17)))
          CFI (cfiCond57) V2 load(1, XDATA, add(CFA_XSP16, literal(-16)))
          CFI (cfiCond57) V3 load(1, XDATA, add(CFA_XSP16, literal(-15)))
          CFI (cfiCond57) V4 load(1, XDATA, add(CFA_XSP16, literal(-14)))
          CFI (cfiCond57) V5 load(1, XDATA, add(CFA_XSP16, literal(-13)))
          CFI (cfiCond57) V6 load(1, XDATA, add(CFA_XSP16, literal(-12)))
          CFI (cfiCond57) V7 load(1, XDATA, add(CFA_XSP16, literal(-11)))
          CFI (cfiCond57) V8 load(1, XDATA, add(CFA_XSP16, literal(-10)))
          CFI (cfiCond57) V9 load(1, XDATA, add(CFA_XSP16, literal(-9)))
          CFI (cfiCond57) V10 load(1, XDATA, add(CFA_XSP16, literal(-8)))
          CFI (cfiCond57) V11 load(1, XDATA, add(CFA_XSP16, literal(-7)))
          CFI (cfiCond57) R7 load(1, XDATA, add(CFA_XSP16, literal(-6)))
          CFI (cfiCond57) ?RET_LOW load(1, XDATA, add(CFA_XSP16, literal(-5)))
          CFI (cfiCond57) ?RET_HIGH load(1, XDATA, add(CFA_XSP16, literal(-4)))
          CFI (cfiCond57) ?BRET_EXT load(1, XDATA, add(CFA_XSP16, literal(-3)))
          CFI (cfiCond57) DPL0 load(1, XDATA, add(CFA_XSP16, literal(-2)))
          CFI (cfiCond57) DPH0 load(1, XDATA, add(CFA_XSP16, literal(-1)))
          CFI (cfiCond57) CFA_SP SP+-2
          CFI (cfiCond57) CFA_XSP16 add(XSP16, 92)
          CFI Block cfiPicker58 Using cfiCommon1
          CFI (cfiPicker58) NoFunction
          CFI (cfiPicker58) Picker
        MOV       A,DPL
        ADD       A,R0
        MOV       R2,A
        CLR       A
        ADDC      A,DPH
        MOV       R3,A
        RET
          CFI EndBlock cfiCond55
          CFI EndBlock cfiCond56
          CFI EndBlock cfiCond57
          CFI EndBlock cfiPicker58

        RSEG BANKED_CODE:HUGECODE:NOROOT(0)
?Subroutine1:
          CFI Block cfiCond59 Using cfiCommon0
          CFI Function gp_PairingUpdateProxyTlb
          CFI Conditional ??CrossCallReturnLabel_0
          CFI R6 load(1, XDATA, add(CFA_XSP16, literal(-20)))
          CFI VB load(1, XDATA, add(CFA_XSP16, literal(-19)))
          CFI V0 load(1, XDATA, add(CFA_XSP16, literal(-18)))
          CFI V1 load(1, XDATA, add(CFA_XSP16, literal(-17)))
          CFI V2 load(1, XDATA, add(CFA_XSP16, literal(-16)))
          CFI V3 load(1, XDATA, add(CFA_XSP16, literal(-15)))
          CFI V4 load(1, XDATA, add(CFA_XSP16, literal(-14)))
          CFI V5 load(1, XDATA, add(CFA_XSP16, literal(-13)))
          CFI V6 load(1, XDATA, add(CFA_XSP16, literal(-12)))
          CFI V7 load(1, XDATA, add(CFA_XSP16, literal(-11)))
          CFI V8 load(1, XDATA, add(CFA_XSP16, literal(-10)))
          CFI V9 load(1, XDATA, add(CFA_XSP16, literal(-9)))
          CFI V10 load(1, XDATA, add(CFA_XSP16, literal(-8)))
          CFI V11 load(1, XDATA, add(CFA_XSP16, literal(-7)))
          CFI R7 load(1, XDATA, add(CFA_XSP16, literal(-6)))
          CFI ?RET_LOW load(1, XDATA, add(CFA_XSP16, literal(-5)))
          CFI ?RET_HIGH load(1, XDATA, add(CFA_XSP16, literal(-4)))
          CFI ?BRET_EXT load(1, XDATA, add(CFA_XSP16, literal(-3)))
          CFI DPL0 load(1, XDATA, add(CFA_XSP16, literal(-2)))
          CFI DPH0 load(1, XDATA, add(CFA_XSP16, literal(-1)))
          CFI CFA_SP SP+-2
          CFI CFA_XSP16 add(XSP16, 92)
          CFI Block cfiCond60 Using cfiCommon0
          CFI (cfiCond60) Function gp_PairingUpdateProxyTlb
          CFI (cfiCond60) Conditional ??CrossCallReturnLabel_1
          CFI (cfiCond60) R6 load(1, XDATA, add(CFA_XSP16, literal(-20)))
          CFI (cfiCond60) VB load(1, XDATA, add(CFA_XSP16, literal(-19)))
          CFI (cfiCond60) V0 load(1, XDATA, add(CFA_XSP16, literal(-18)))
          CFI (cfiCond60) V1 load(1, XDATA, add(CFA_XSP16, literal(-17)))
          CFI (cfiCond60) V2 load(1, XDATA, add(CFA_XSP16, literal(-16)))
          CFI (cfiCond60) V3 load(1, XDATA, add(CFA_XSP16, literal(-15)))
          CFI (cfiCond60) V4 load(1, XDATA, add(CFA_XSP16, literal(-14)))
          CFI (cfiCond60) V5 load(1, XDATA, add(CFA_XSP16, literal(-13)))
          CFI (cfiCond60) V6 load(1, XDATA, add(CFA_XSP16, literal(-12)))
          CFI (cfiCond60) V7 load(1, XDATA, add(CFA_XSP16, literal(-11)))
          CFI (cfiCond60) V8 load(1, XDATA, add(CFA_XSP16, literal(-10)))
          CFI (cfiCond60) V9 load(1, XDATA, add(CFA_XSP16, literal(-9)))
          CFI (cfiCond60) V10 load(1, XDATA, add(CFA_XSP16, literal(-8)))
          CFI (cfiCond60) V11 load(1, XDATA, add(CFA_XSP16, literal(-7)))
          CFI (cfiCond60) R7 load(1, XDATA, add(CFA_XSP16, literal(-6)))
          CFI (cfiCond60) ?RET_LOW load(1, XDATA, add(CFA_XSP16, literal(-5)))
          CFI (cfiCond60) ?RET_HIGH load(1, XDATA, add(CFA_XSP16, literal(-4)))
          CFI (cfiCond60) ?BRET_EXT load(1, XDATA, add(CFA_XSP16, literal(-3)))
          CFI (cfiCond60) DPL0 load(1, XDATA, add(CFA_XSP16, literal(-2)))
          CFI (cfiCond60) DPH0 load(1, XDATA, add(CFA_XSP16, literal(-1)))
          CFI (cfiCond60) CFA_SP SP+-2
          CFI (cfiCond60) CFA_XSP16 add(XSP16, 92)
          CFI Block cfiCond61 Using cfiCommon0
          CFI (cfiCond61) Function gp_PairingUpdateProxyTlb
          CFI (cfiCond61) Conditional ??CrossCallReturnLabel_2
          CFI (cfiCond61) R6 load(1, XDATA, add(CFA_XSP16, literal(-20)))
          CFI (cfiCond61) VB load(1, XDATA, add(CFA_XSP16, literal(-19)))
          CFI (cfiCond61) V0 load(1, XDATA, add(CFA_XSP16, literal(-18)))
          CFI (cfiCond61) V1 load(1, XDATA, add(CFA_XSP16, literal(-17)))
          CFI (cfiCond61) V2 load(1, XDATA, add(CFA_XSP16, literal(-16)))
          CFI (cfiCond61) V3 load(1, XDATA, add(CFA_XSP16, literal(-15)))
          CFI (cfiCond61) V4 load(1, XDATA, add(CFA_XSP16, literal(-14)))
          CFI (cfiCond61) V5 load(1, XDATA, add(CFA_XSP16, literal(-13)))
          CFI (cfiCond61) V6 load(1, XDATA, add(CFA_XSP16, literal(-12)))
          CFI (cfiCond61) V7 load(1, XDATA, add(CFA_XSP16, literal(-11)))
          CFI (cfiCond61) V8 load(1, XDATA, add(CFA_XSP16, literal(-10)))
          CFI (cfiCond61) V9 load(1, XDATA, add(CFA_XSP16, literal(-9)))
          CFI (cfiCond61) V10 load(1, XDATA, add(CFA_XSP16, literal(-8)))
          CFI (cfiCond61) V11 load(1, XDATA, add(CFA_XSP16, literal(-7)))
          CFI (cfiCond61) R7 load(1, XDATA, add(CFA_XSP16, literal(-6)))
          CFI (cfiCond61) ?RET_LOW load(1, XDATA, add(CFA_XSP16, literal(-5)))
          CFI (cfiCond61) ?RET_HIGH load(1, XDATA, add(CFA_XSP16, literal(-4)))
          CFI (cfiCond61) ?BRET_EXT load(1, XDATA, add(CFA_XSP16, literal(-3)))
          CFI (cfiCond61) DPL0 load(1, XDATA, add(CFA_XSP16, literal(-2)))
          CFI (cfiCond61) DPH0 load(1, XDATA, add(CFA_XSP16, literal(-1)))
          CFI (cfiCond61) CFA_SP SP+-2
          CFI (cfiCond61) CFA_XSP16 add(XSP16, 92)
          CFI Block cfiPicker62 Using cfiCommon1
          CFI (cfiPicker62) NoFunction
          CFI (cfiPicker62) Picker
        MOVX      @DPTR,A
        ; Setup parameters for call to function gp_PopulateProxyTblEntry
        ; Setup parameters for call to function gp_PopulateProxyTblEntry
        ; Setup parameters for call to function gp_PopulateProxyTblEntry
        MOV       R0,?XSP + 0
        MOV       R1,?XSP + 1
        MOV       ?V0,R0
        MOV       ?V1,R1
        MOV       R0,#?V0
        RET
          CFI EndBlock cfiCond59
          CFI EndBlock cfiCond60
          CFI EndBlock cfiCond61
          CFI EndBlock cfiPicker62
//  506 
//  507 /*********************************************************************
//  508  * @fn          gp_UpdateProxyTlb
//  509  *
//  510  * @brief       To update the proxy table NV vectors
//  511  *
//  512  * @param       pNpEntryew - New entry array to be added
//  513  *
//  514  * @return
//  515  */

        RSEG BANKED_CODE:HUGECODE:NOROOT(0)
//  516 uint8 gp_UpdateProxyTlb( uint8* pEntry, uint8 addSink )
gp_UpdateProxyTlb:
          CFI Block cfiBlock63 Using cfiCommon0
          CFI Function gp_UpdateProxyTlb
        CODE
//  517 {
        FUNCALL gp_UpdateProxyTlb, osal_memcpy
        LOCFRAME ISTACK, 0, STACK
        LOCFRAME PSTACK, 0, STACK
        LOCFRAME XSTACK, 278, STACK
        LOCFRAME IOVERLAY, 0, STATIC
        LOCFRAME DOVERLAY, 0, STATIC
        ARGFRAME ISTACK, 0, STACK
        ARGFRAME PSTACK, 0, STACK
        ARGFRAME XSTACK, 278, STACK
        ARGFRAME IOVERLAY, 0, STATIC
        ARGFRAME DOVERLAY, 0, STATIC
        FUNCALL gp_UpdateProxyTlb, gp_getProxyTableByIndex
        LOCFRAME ISTACK, 0, STACK
        LOCFRAME PSTACK, 0, STACK
        LOCFRAME XSTACK, 275, STACK
        LOCFRAME IOVERLAY, 0, STATIC
        LOCFRAME DOVERLAY, 0, STATIC
        ARGFRAME ISTACK, 0, STACK
        ARGFRAME PSTACK, 0, STACK
        ARGFRAME XSTACK, 275, STACK
        ARGFRAME IOVERLAY, 0, STATIC
        ARGFRAME DOVERLAY, 0, STATIC
        FUNCALL gp_UpdateProxyTlb, osal_nv_write
        LOCFRAME ISTACK, 0, STACK
        LOCFRAME PSTACK, 0, STACK
        LOCFRAME XSTACK, 279, STACK
        LOCFRAME IOVERLAY, 0, STATIC
        LOCFRAME DOVERLAY, 0, STATIC
        ARGFRAME ISTACK, 0, STACK
        ARGFRAME PSTACK, 0, STACK
        ARGFRAME XSTACK, 279, STACK
        ARGFRAME IOVERLAY, 0, STATIC
        ARGFRAME DOVERLAY, 0, STATIC
        FUNCALL gp_UpdateProxyTlb, osal_memcmp
        LOCFRAME ISTACK, 0, STACK
        LOCFRAME PSTACK, 0, STACK
        LOCFRAME XSTACK, 278, STACK
        LOCFRAME IOVERLAY, 0, STATIC
        LOCFRAME DOVERLAY, 0, STATIC
        ARGFRAME ISTACK, 0, STACK
        ARGFRAME PSTACK, 0, STACK
        ARGFRAME XSTACK, 278, STACK
        ARGFRAME IOVERLAY, 0, STATIC
        ARGFRAME DOVERLAY, 0, STATIC
        FUNCALL gp_UpdateProxyTlb, osal_memcmp
        LOCFRAME ISTACK, 0, STACK
        LOCFRAME PSTACK, 0, STACK
        LOCFRAME XSTACK, 278, STACK
        LOCFRAME IOVERLAY, 0, STATIC
        LOCFRAME DOVERLAY, 0, STATIC
        ARGFRAME ISTACK, 0, STACK
        ARGFRAME PSTACK, 0, STACK
        ARGFRAME XSTACK, 278, STACK
        ARGFRAME IOVERLAY, 0, STATIC
        ARGFRAME DOVERLAY, 0, STATIC
        FUNCALL gp_UpdateProxyTlb, osal_memcmp
        LOCFRAME ISTACK, 0, STACK
        LOCFRAME PSTACK, 0, STACK
        LOCFRAME XSTACK, 278, STACK
        LOCFRAME IOVERLAY, 0, STATIC
        LOCFRAME DOVERLAY, 0, STATIC
        ARGFRAME ISTACK, 0, STACK
        ARGFRAME PSTACK, 0, STACK
        ARGFRAME XSTACK, 278, STACK
        ARGFRAME IOVERLAY, 0, STATIC
        ARGFRAME DOVERLAY, 0, STATIC
        FUNCALL gp_UpdateProxyTlb, osal_memcpy
        LOCFRAME ISTACK, 0, STACK
        LOCFRAME PSTACK, 0, STACK
        LOCFRAME XSTACK, 278, STACK
        LOCFRAME IOVERLAY, 0, STATIC
        LOCFRAME DOVERLAY, 0, STATIC
        ARGFRAME ISTACK, 0, STACK
        ARGFRAME PSTACK, 0, STACK
        ARGFRAME XSTACK, 278, STACK
        ARGFRAME IOVERLAY, 0, STATIC
        ARGFRAME DOVERLAY, 0, STATIC
        FUNCALL gp_UpdateProxyTlb, osal_nv_read
        LOCFRAME ISTACK, 0, STACK
        LOCFRAME PSTACK, 0, STACK
        LOCFRAME XSTACK, 279, STACK
        LOCFRAME IOVERLAY, 0, STATIC
        LOCFRAME DOVERLAY, 0, STATIC
        ARGFRAME ISTACK, 0, STACK
        ARGFRAME PSTACK, 0, STACK
        ARGFRAME XSTACK, 279, STACK
        ARGFRAME IOVERLAY, 0, STATIC
        ARGFRAME DOVERLAY, 0, STATIC
        FUNCALL gp_UpdateProxyTlb, osal_memcmp
        LOCFRAME ISTACK, 0, STACK
        LOCFRAME PSTACK, 0, STACK
        LOCFRAME XSTACK, 278, STACK
        LOCFRAME IOVERLAY, 0, STATIC
        LOCFRAME DOVERLAY, 0, STATIC
        ARGFRAME ISTACK, 0, STACK
        ARGFRAME PSTACK, 0, STACK
        ARGFRAME XSTACK, 278, STACK
        ARGFRAME IOVERLAY, 0, STATIC
        ARGFRAME DOVERLAY, 0, STATIC
        FUNCALL gp_UpdateProxyTlb, gp_ResetProxyBasicTblEntry
        LOCFRAME ISTACK, 0, STACK
        LOCFRAME PSTACK, 0, STACK
        LOCFRAME XSTACK, 275, STACK
        LOCFRAME IOVERLAY, 0, STATIC
        LOCFRAME DOVERLAY, 0, STATIC
        ARGFRAME ISTACK, 0, STACK
        ARGFRAME PSTACK, 0, STACK
        ARGFRAME XSTACK, 275, STACK
        ARGFRAME IOVERLAY, 0, STATIC
        ARGFRAME DOVERLAY, 0, STATIC
        FUNCALL gp_UpdateProxyTlb, osal_nv_write
        LOCFRAME ISTACK, 0, STACK
        LOCFRAME PSTACK, 0, STACK
        LOCFRAME XSTACK, 279, STACK
        LOCFRAME IOVERLAY, 0, STATIC
        LOCFRAME DOVERLAY, 0, STATIC
        ARGFRAME ISTACK, 0, STACK
        ARGFRAME PSTACK, 0, STACK
        ARGFRAME XSTACK, 279, STACK
        ARGFRAME IOVERLAY, 0, STATIC
        ARGFRAME DOVERLAY, 0, STATIC
        FUNCALL gp_UpdateProxyTlb, pt_updateLightweightUnicastSink
        LOCFRAME ISTACK, 0, STACK
        LOCFRAME PSTACK, 0, STACK
        LOCFRAME XSTACK, 275, STACK
        LOCFRAME IOVERLAY, 0, STATIC
        LOCFRAME DOVERLAY, 0, STATIC
        ARGFRAME ISTACK, 0, STACK
        ARGFRAME PSTACK, 0, STACK
        ARGFRAME XSTACK, 275, STACK
        ARGFRAME IOVERLAY, 0, STATIC
        ARGFRAME DOVERLAY, 0, STATIC
        FUNCALL gp_UpdateProxyTlb, osal_memcpy
        LOCFRAME ISTACK, 0, STACK
        LOCFRAME PSTACK, 0, STACK
        LOCFRAME XSTACK, 278, STACK
        LOCFRAME IOVERLAY, 0, STATIC
        LOCFRAME DOVERLAY, 0, STATIC
        ARGFRAME ISTACK, 0, STACK
        ARGFRAME PSTACK, 0, STACK
        ARGFRAME XSTACK, 278, STACK
        ARGFRAME IOVERLAY, 0, STATIC
        ARGFRAME DOVERLAY, 0, STATIC
        FUNCALL gp_UpdateProxyTlb, osal_memcpy
        LOCFRAME ISTACK, 0, STACK
        LOCFRAME PSTACK, 0, STACK
        LOCFRAME XSTACK, 278, STACK
        LOCFRAME IOVERLAY, 0, STATIC
        LOCFRAME DOVERLAY, 0, STATIC
        ARGFRAME ISTACK, 0, STACK
        ARGFRAME PSTACK, 0, STACK
        ARGFRAME XSTACK, 278, STACK
        ARGFRAME IOVERLAY, 0, STATIC
        ARGFRAME DOVERLAY, 0, STATIC
        FUNCALL gp_UpdateProxyTlb, osal_memcpy
        LOCFRAME ISTACK, 0, STACK
        LOCFRAME PSTACK, 0, STACK
        LOCFRAME XSTACK, 278, STACK
        LOCFRAME IOVERLAY, 0, STATIC
        LOCFRAME DOVERLAY, 0, STATIC
        ARGFRAME ISTACK, 0, STACK
        ARGFRAME PSTACK, 0, STACK
        ARGFRAME XSTACK, 278, STACK
        ARGFRAME IOVERLAY, 0, STATIC
        ARGFRAME DOVERLAY, 0, STATIC
        FUNCALL gp_UpdateProxyTlb, osal_memcpy
        LOCFRAME ISTACK, 0, STACK
        LOCFRAME PSTACK, 0, STACK
        LOCFRAME XSTACK, 278, STACK
        LOCFRAME IOVERLAY, 0, STATIC
        LOCFRAME DOVERLAY, 0, STATIC
        ARGFRAME ISTACK, 0, STACK
        ARGFRAME PSTACK, 0, STACK
        ARGFRAME XSTACK, 278, STACK
        ARGFRAME IOVERLAY, 0, STATIC
        ARGFRAME DOVERLAY, 0, STATIC
        FUNCALL gp_UpdateProxyTlb, osal_nv_write
        LOCFRAME ISTACK, 0, STACK
        LOCFRAME PSTACK, 0, STACK
        LOCFRAME XSTACK, 279, STACK
        LOCFRAME IOVERLAY, 0, STATIC
        LOCFRAME DOVERLAY, 0, STATIC
        ARGFRAME ISTACK, 0, STACK
        ARGFRAME PSTACK, 0, STACK
        ARGFRAME XSTACK, 279, STACK
        ARGFRAME IOVERLAY, 0, STATIC
        ARGFRAME DOVERLAY, 0, STATIC
        FUNCALL gp_UpdateProxyTlb, osal_memcmp
        LOCFRAME ISTACK, 0, STACK
        LOCFRAME PSTACK, 0, STACK
        LOCFRAME XSTACK, 278, STACK
        LOCFRAME IOVERLAY, 0, STATIC
        LOCFRAME DOVERLAY, 0, STATIC
        ARGFRAME ISTACK, 0, STACK
        ARGFRAME PSTACK, 0, STACK
        ARGFRAME XSTACK, 278, STACK
        ARGFRAME IOVERLAY, 0, STATIC
        ARGFRAME DOVERLAY, 0, STATIC
        FUNCALL gp_UpdateProxyTlb, osal_memcmp
        LOCFRAME ISTACK, 0, STACK
        LOCFRAME PSTACK, 0, STACK
        LOCFRAME XSTACK, 278, STACK
        LOCFRAME IOVERLAY, 0, STATIC
        LOCFRAME DOVERLAY, 0, STATIC
        ARGFRAME ISTACK, 0, STACK
        ARGFRAME PSTACK, 0, STACK
        ARGFRAME XSTACK, 278, STACK
        ARGFRAME IOVERLAY, 0, STATIC
        ARGFRAME DOVERLAY, 0, STATIC
        FUNCALL gp_UpdateProxyTlb, osal_memcmp
        LOCFRAME ISTACK, 0, STACK
        LOCFRAME PSTACK, 0, STACK
        LOCFRAME XSTACK, 278, STACK
        LOCFRAME IOVERLAY, 0, STATIC
        LOCFRAME DOVERLAY, 0, STATIC
        ARGFRAME ISTACK, 0, STACK
        ARGFRAME PSTACK, 0, STACK
        ARGFRAME XSTACK, 278, STACK
        ARGFRAME IOVERLAY, 0, STATIC
        ARGFRAME DOVERLAY, 0, STATIC
        FUNCALL gp_UpdateProxyTlb, NLME_ReportAddressConflict
        LOCFRAME ISTACK, 0, STACK
        LOCFRAME PSTACK, 0, STACK
        LOCFRAME XSTACK, 275, STACK
        LOCFRAME IOVERLAY, 0, STATIC
        LOCFRAME DOVERLAY, 0, STATIC
        ARGFRAME ISTACK, 0, STACK
        ARGFRAME PSTACK, 0, STACK
        ARGFRAME XSTACK, 275, STACK
        ARGFRAME IOVERLAY, 0, STATIC
        ARGFRAME DOVERLAY, 0, STATIC
        FUNCALL gp_UpdateProxyTlb, pt_addSinkGroup
        LOCFRAME ISTACK, 0, STACK
        LOCFRAME PSTACK, 0, STACK
        LOCFRAME XSTACK, 275, STACK
        LOCFRAME IOVERLAY, 0, STATIC
        LOCFRAME DOVERLAY, 0, STATIC
        ARGFRAME ISTACK, 0, STACK
        ARGFRAME PSTACK, 0, STACK
        ARGFRAME XSTACK, 275, STACK
        ARGFRAME IOVERLAY, 0, STATIC
        ARGFRAME DOVERLAY, 0, STATIC
        REQUIRE ?V0
        REQUIRE ?V1
        REQUIRE ?V2
        REQUIRE ?V3
        REQUIRE ?V4
        REQUIRE ?V5
        REQUIRE ?V6
        MOV       A,#-0xf
        LCALL     ?BANKED_ENTER_XDATA
          CFI DPH0 load(1, XDATA, add(CFA_XSP16, literal(-1)))
          CFI DPL0 load(1, XDATA, add(CFA_XSP16, literal(-2)))
          CFI ?BRET_EXT load(1, XDATA, add(CFA_XSP16, literal(-3)))
          CFI ?RET_HIGH load(1, XDATA, add(CFA_XSP16, literal(-4)))
          CFI ?RET_LOW load(1, XDATA, add(CFA_XSP16, literal(-5)))
          CFI R7 load(1, XDATA, add(CFA_XSP16, literal(-6)))
          CFI V6 load(1, XDATA, add(CFA_XSP16, literal(-7)))
          CFI V5 load(1, XDATA, add(CFA_XSP16, literal(-8)))
          CFI V4 load(1, XDATA, add(CFA_XSP16, literal(-9)))
          CFI V3 load(1, XDATA, add(CFA_XSP16, literal(-10)))
          CFI V2 load(1, XDATA, add(CFA_XSP16, literal(-11)))
          CFI V1 load(1, XDATA, add(CFA_XSP16, literal(-12)))
          CFI V0 load(1, XDATA, add(CFA_XSP16, literal(-13)))
          CFI VB load(1, XDATA, add(CFA_XSP16, literal(-14)))
          CFI R6 load(1, XDATA, add(CFA_XSP16, literal(-15)))
          CFI CFA_SP SP+0
          CFI CFA_XSP16 add(XSP16, 15)
        ; Saved register size: 15
        ; Auto size: 260
        MOV       DPL,#-0x4
        MOV       DPH,#-0x2
        LCALL     ?ADD_XSTACK_DISP0_16
          CFI CFA_XSP16 add(XSP16, 275)
        MOV       ?V3,R1
//  518   uint8 i;
//  519   uint8 newEntry[PROXY_TBL_ENTRY_LEN];
//  520   uint8 currEntry[PROXY_TBL_ENTRY_LEN];
//  521   uint16 proxyTableIndex;
//  522   uint8 status;
//  523   
//  524   // Copy the new entry pointer to array
//  525   osal_memcpy( &newEntry, pEntry, PROXY_TBL_ENTRY_LEN );
        ; Setup parameters for call to function osal_memcpy
        MOV       ?V0,R2
        MOV       ?V1,R3
        MOV       ?V2,#0x0
        MOV       R0,#?V0
        LCALL     ?PUSH_XSTACK_I_THREE
          CFI CFA_XSP16 add(XSP16, 278)
        MOV       R4,#0x41
        MOV       R5,#0x0
        MOV       A,#0x44
        LCALL     ?XSTACK_DISP101_8
        LCALL     ??Subroutine11_0 & 0xFFFF
??CrossCallReturnLabel_61:
        LCALL     ?DEALLOC_XSTACK8
          CFI CFA_XSP16 add(XSP16, 275)
//  526 
//  527   for ( i = 0; i <= GPP_MAX_PROXY_TABLE_ENTRIES ; i++ )
        MOV       R7,#0x0
//  528   {
//  529     proxyTableIndex = ZCD_NV_PROXY_TABLE_START + i;
??gp_UpdateProxyTlb_0:
        MOV       A,R7
        ADD       A,#0x10
        MOV       ?V0,A
        CLR       A
        ADDC      A,#0x3
        MOV       ?V1,A
//  530     status = gp_getProxyTableByIndex( proxyTableIndex, currEntry );
        ; Setup parameters for call to function gp_getProxyTableByIndex
        MOV       R4,?XSP + 0
        MOV       R5,?XSP + 1
        MOV       R2,?V0
        MOV       R3,A
        LCALL     ?Subroutine3 & 0xFFFF
//  531 
//  532     if ( status == NV_OPER_FAILED )
??CrossCallReturnLabel_6:
        JNZ       $+5
        LJMP      ??gp_UpdateProxyTlb_1 & 0xFFFF
//  533     {
//  534       // FAIL
//  535       return status;
//  536     }
//  537     
//  538     // if the entry is empty
//  539     if ( ( status == NV_INVALID_DATA ) && ( addSink == TRUE ) )
        MOV       A,#0xd
        XRL       A,R6
        JZ        $+5
        LJMP      ??gp_UpdateProxyTlb_2 & 0xFFFF
        MOV       A,#0x1
        XRL       A,?V3
        JZ        $+5
        LJMP      ??gp_UpdateProxyTlb_2 & 0xFFFF
//  540     {
//  541       // Save new entry
//  542       status = osal_nv_write( proxyTableIndex, 0,
//  543                            PROXY_TBL_ENTRY_LEN, newEntry );
        ; Setup parameters for call to function osal_nv_write
        MOV       A,#0x41
        LCALL     ?XSTACK_DISP100_8
        MOV       ?V4,R0
        MOV       ?V5,R1
        MOV       R0,#?V4
        LCALL     ?PUSH_XSTACK_I_TWO
          CFI CFA_XSP16 add(XSP16, 277)
        MOV       ?V4,#0x41
        MOV       ?V5,#0x0
        MOV       R0,#?V4
        LCALL     ?PUSH_XSTACK_I_TWO
          CFI CFA_XSP16 add(XSP16, 279)
        MOV       R4,#0x0
        MOV       R5,#0x0
        MOV       R2,?V0
        MOV       R3,?V1
        LCALL     `??osal_nv_write::?relay`; Banked call to: osal_nv_write
        MOV       A,#0x4
        LCALL     ?DEALLOC_XSTACK8
          CFI CFA_XSP16 add(XSP16, 275)
        MOV       A,R1
        MOV       R6,A
//  544       
//  545       if ( osal_memcmp( &_NIB.nwkDevAddress, &newEntry[PROXY_TBL_ENTRY_ALIAS], sizeof( uint16 ) )        ||
//  546            osal_memcmp( &_NIB.nwkDevAddress, &newEntry[PROXY_TBL_ENTRY_1ST_GRP_ADDR], sizeof( uint16 ) ) ||
//  547            osal_memcmp( &_NIB.nwkDevAddress, &newEntry[PROXY_TBL_ENTRY_2ND_GRP_ADDR], sizeof( uint16 ) )   )
        MOV       ?V0,#(_NIB + 20) & 0xff
        MOV       ?V1,#((_NIB + 20) >> 8) & 0xff
        ; Setup parameters for call to function osal_memcmp
        MOV       A,#0x4c
        LCALL     ?XSTACK_DISP0_8
        MOV       R1,DPL
        MOV       R2,DPH
        MOV       ?V4,R1
        MOV       ?V5,R2
        MOV       ?V6,#0x0
        MOV       R0,#?V4
        LCALL     ?PUSH_XSTACK_I_THREE
          CFI CFA_XSP16 add(XSP16, 278)
        LCALL     ?Subroutine7 & 0xFFFF
//  548       {
//  549         NLME_ReportAddressConflict( _NIB.nwkDevAddress, TRUE );  
//  550       }
//  551       return status;
//  552     }
??CrossCallReturnLabel_70:
        LCALL     ?DEALLOC_XSTACK8
          CFI CFA_XSP16 add(XSP16, 275)
        MOV       A,R1
        JZ        $+5
        LJMP      ??gp_UpdateProxyTlb_3 & 0xFFFF
        ; Setup parameters for call to function osal_memcmp
        MOV       A,#0x78
        LCALL     ?XSTACK_DISP0_8
        MOV       R1,DPL
        MOV       R2,DPH
        MOV       ?V4,R1
        MOV       ?V5,R2
        MOV       R0,#?V4
        LCALL     ?PUSH_XSTACK_I_THREE
          CFI CFA_XSP16 add(XSP16, 278)
        LCALL     ?Subroutine7 & 0xFFFF
??CrossCallReturnLabel_71:
        LCALL     ?DEALLOC_XSTACK8
          CFI CFA_XSP16 add(XSP16, 275)
        MOV       A,R1
        JZ        $+5
        LJMP      ??gp_UpdateProxyTlb_3 & 0xFFFF
        ; Setup parameters for call to function osal_memcmp
        MOV       A,#0x7c
        LCALL     ?XSTACK_DISP0_8
        MOV       R1,DPL
        MOV       R2,DPH
        MOV       ?V4,R1
        MOV       ?V5,R2
        MOV       R0,#?V4
        LCALL     ?PUSH_XSTACK_I_THREE
          CFI CFA_XSP16 add(XSP16, 278)
        LCALL     ?Subroutine7 & 0xFFFF
??CrossCallReturnLabel_72:
        LCALL     ?DEALLOC_XSTACK8
          CFI CFA_XSP16 add(XSP16, 275)
        MOV       A,R1
        JZ        $+5
        LJMP      ??gp_UpdateProxyTlb_3 & 0xFFFF
        LJMP      ??gp_UpdateProxyTlb_1 & 0xFFFF
//  553     
//  554     if ( pt_lookForGpd( proxyTableIndex, newEntry ) )
??gp_UpdateProxyTlb_2:
        ; Setup parameters for call to function osal_memcpy
        MOV       A,#0x41
        LCALL     ?XSTACK_DISP100_8
        MOV       ?V4,R0
        MOV       ?V5,R1
        MOV       ?V6,#0x0
        MOV       R0,#?V4
        LCALL     ?PUSH_XSTACK_I_THREE
          CFI CFA_XSP16 add(XSP16, 278)
        MOV       R4,#0x41
        MOV       R5,#0x0
        MOV       A,#-0x3a
        LCALL     ?XSTACK_DISP101_8
        LCALL     ??Subroutine11_0 & 0xFFFF
??CrossCallReturnLabel_69:
        LCALL     ?DEALLOC_XSTACK8
          CFI CFA_XSP16 add(XSP16, 275)
        ; Setup parameters for call to function osal_nv_read
        MOV       A,#-0x7e
        LCALL     ?XSTACK_DISP100_8
        MOV       ?V4,R0
        MOV       ?V5,R1
        MOV       R0,#?V4
        LCALL     ?PUSH_XSTACK_I_TWO
          CFI CFA_XSP16 add(XSP16, 277)
        MOV       ?V4,#0x41
        MOV       ?V5,#0x0
        MOV       R0,#?V4
        LCALL     ?PUSH_XSTACK_I_TWO
          CFI CFA_XSP16 add(XSP16, 279)
        MOV       R4,#0x0
        MOV       R5,#0x0
        MOV       R2,?V0
        MOV       R3,?V1
        LCALL     `??osal_nv_read::?relay`; Banked call to: osal_nv_read
        MOV       A,#0x4
        LCALL     ?DEALLOC_XSTACK8
          CFI CFA_XSP16 add(XSP16, 275)
        MOV       A,R1
        JNZ       ??gp_UpdateProxyTlb_4
        MOV       A,#-0x3d
        LCALL     ?XSTACK_DISP0_8
        MOVX      A,@DPTR
        ANL       A,#0x7
        MOV       R0,A
        MOV       A,#-0x7e
        LCALL     ?XSTACK_DISP0_8
        MOVX      A,@DPTR
        ANL       A,#0x7
        XRL       A,R0
        JNZ       ??gp_UpdateProxyTlb_4
        ; Setup parameters for call to function osal_memcmp
        MOV       A,#-0x7c
        LCALL     ?XSTACK_DISP0_8
        MOV       R1,DPL
        MOV       R2,DPH
        MOV       ?V4,R1
        MOV       ?V5,R2
        MOV       R0,#?V4
        LCALL     ?PUSH_XSTACK_I_THREE
          CFI CFA_XSP16 add(XSP16, 278)
        MOV       R4,#0x8
        MOV       R5,#0x0
        MOV       A,#-0x38
        LCALL     ?XSTACK_DISP0_8
        MOV       R1,DPL
        MOV       R2,DPH
        MOV       R3,#0x0
        LCALL     ??Subroutine13_0 & 0xFFFF
??CrossCallReturnLabel_91:
        LCALL     ?DEALLOC_XSTACK8
          CFI CFA_XSP16 add(XSP16, 275)
        MOV       A,R1
        JNZ       ??gp_UpdateProxyTlb_5
//  555     {
//  556       // Entry found
//  557       break;
//  558     }
//  559     
//  560     if ( i >= GPP_MAX_PROXY_TABLE_ENTRIES )
??gp_UpdateProxyTlb_4:
        MOV       A,R7
        CLR       C
        SUBB      A,#0x5
        JC        ??gp_UpdateProxyTlb_6
//  561     {
//  562       // No space for new entries
//  563       return FAILURE;
        MOV       R1,#0x1
        LJMP      ??gp_UpdateProxyTlb_7 & 0xFFFF
//  564     }
//  565   }
??gp_UpdateProxyTlb_6:
        INC       R7
        MOV       A,R7
        CLR       C
        SUBB      A,#0x6
        JNC       $+5
        LJMP      ??gp_UpdateProxyTlb_0 & 0xFFFF
//  566   
//  567   // Remove the entry
//  568   if ( addSink == FALSE )
??gp_UpdateProxyTlb_5:
        MOV       A,?V3
        JNZ       ??gp_UpdateProxyTlb_8
//  569   {
//  570     gp_ResetProxyBasicTblEntry( currEntry );
        ; Setup parameters for call to function gp_ResetProxyBasicTblEntry
        MOV       R2,?XSP + 0
        MOV       R3,?XSP + 1
        LCALL     `??gp_ResetProxyBasicTblEntry::?relay`; Banked call to: gp_ResetProxyBasicTblEntry
//  571     
//  572     status = osal_nv_write( proxyTableIndex, 0,
//  573                      PROXY_TBL_ENTRY_LEN, currEntry );
        ; Setup parameters for call to function osal_nv_write
        MOV       R0,?XSP + 0
        MOV       R1,?XSP + 1
        MOV       ?V4,R0
        MOV       ?V5,R1
        MOV       R0,#?V4
        LCALL     ?PUSH_XSTACK_I_TWO
          CFI CFA_XSP16 add(XSP16, 277)
        MOV       ?V4,#0x41
        MOV       ?V5,#0x0
        MOV       R0,#?V4
        LCALL     ?PUSH_XSTACK_I_TWO
          CFI CFA_XSP16 add(XSP16, 279)
        MOV       R4,#0x0
        MOV       R5,#0x0
        MOV       R2,?V0
        MOV       R3,?V1
        LCALL     `??osal_nv_write::?relay`; Banked call to: osal_nv_write
        MOV       A,#0x4
        LCALL     ?DEALLOC_XSTACK8
          CFI CFA_XSP16 add(XSP16, 275)
        MOV       A,R1
        MOV       R6,A
        LJMP      ??gp_UpdateProxyTlb_1 & 0xFFFF
//  574     return status;
//  575   }
//  576 
//  577   if ( PROXY_TBL_GET_LIGHTWIGHT_UNICAST( newEntry[PROXY_TBL_ENTRY_OPT] ) )
??gp_UpdateProxyTlb_8:
        MOV       A,#0x41
        LCALL     ?XSTACK_DISP0_8
        MOVX      A,@DPTR
        MOV       C,0xE0 /* A   */.6
        JC        $+5
        LJMP      ??gp_UpdateProxyTlb_9 & 0xFFFF
//  578   {
//  579     if ( ( !pt_updateLightweightUnicastSink( newEntry, currEntry, addSink ) ) )
        ; Setup parameters for call to function pt_updateLightweightUnicastSink
        MOV       R1,?V3
        MOV       R4,?XSP + 0
        MOV       R5,?XSP + 1
        MOV       A,#0x41
        LCALL     ?XSTACK_DISP101_8
        LCALL     `??pt_updateLightweightUnicastSink::?relay`; Banked call to: pt_updateLightweightUnicastSink
        MOV       A,R1
        JNZ       $+5
        LJMP      ??gp_UpdateProxyTlb_10 & 0xFFFF
//  580     {
//  581       // The entry is full
//  582       return NV_BAD_ITEM_LEN;
//  583     }
//  584   }
//  585   else if ( PROXY_TBL_GET_CGROUP( newEntry[PROXY_TBL_ENTRY_OPT + 1] ) )
//  586   {
//  587     if ( ( !pt_addSinkGroup( newEntry, currEntry ) ) )
//  588     {
//  589       // The entry is full
//  590       return NV_BAD_ITEM_LEN;
//  591     }
//  592   }
//  593 
//  594   if ( pt_getAlias( newEntry ) )
??gp_UpdateProxyTlb_11:
        MOV       A,#0x42
        LCALL     ?XSTACK_DISP0_8
        MOVX      A,@DPTR
        MOV       C,0xE0 /* A   */.5
        JNC       ??gp_UpdateProxyTlb_12
//  595   {
//  596     osal_memcpy( &currEntry[PROXY_TBL_ENTRY_ALIAS], &newEntry[PROXY_TBL_ENTRY_ALIAS], sizeof ( uint16 ) );
        ; Setup parameters for call to function osal_memcpy
        MOV       A,#0x4c
        LCALL     ?XSTACK_DISP0_8
        MOV       R1,DPL
        MOV       R2,DPH
        MOV       ?V4,R1
        MOV       ?V5,R2
        MOV       R0,#?V4
        LCALL     ?PUSH_XSTACK_I_THREE
          CFI CFA_XSP16 add(XSP16, 278)
        MOV       R4,#0x2
        MOV       R5,#0x0
        MOV       A,#0xe
        LCALL     ?XSTACK_DISP0_8
        LCALL     ?Subroutine4 & 0xFFFF
//  597   }
??CrossCallReturnLabel_41:
        LCALL     ?DEALLOC_XSTACK8
          CFI CFA_XSP16 add(XSP16, 275)
//  598     
//  599   if ( pt_getSecurity( newEntry ) )
??gp_UpdateProxyTlb_12:
        MOV       A,#0x42
        LCALL     ?XSTACK_DISP0_8
        MOVX      A,@DPTR
        MOV       C,0xE0 /* A   */.6
        JNC       ??gp_UpdateProxyTlb_13
//  600   {
//  601     PROXY_TBL_SET_SEC_USE( &currEntry[PROXY_TBL_ENTRY_OPT + 1] );
        MOV       A,#0x1
        LCALL     ?XSTACK_DISP0_8
        MOVX      A,@DPTR
        SETB      0xE0 /* A   */.6
        MOVX      @DPTR,A
//  602     osal_memcpy( &currEntry[PROXY_TBL_ENTRY_SEC_OPT], &newEntry[PROXY_TBL_ENTRY_SEC_OPT], sizeof ( uint8 ) );
        ; Setup parameters for call to function osal_memcpy
        MOV       A,#0x4e
        LCALL     ?XSTACK_DISP0_8
        MOV       R1,DPL
        MOV       R2,DPH
        MOV       ?V4,R1
        MOV       ?V5,R2
        MOV       R0,#?V4
        LCALL     ?PUSH_XSTACK_I_THREE
          CFI CFA_XSP16 add(XSP16, 278)
        MOV       R4,#0x1
        MOV       R5,#0x0
        MOV       A,#0x10
        LCALL     ?XSTACK_DISP0_8
        LCALL     ?Subroutine4 & 0xFFFF
??CrossCallReturnLabel_42:
        LCALL     ?DEALLOC_XSTACK8
          CFI CFA_XSP16 add(XSP16, 275)
//  603     osal_memcpy( &currEntry[PROXY_TBL_ENTRY_GPD_KEY], &newEntry[PROXY_TBL_ENTRY_GPD_KEY], SEC_KEY_LEN );
        ; Setup parameters for call to function osal_memcpy
        MOV       A,#0x53
        LCALL     ?XSTACK_DISP0_8
        MOV       R1,DPL
        MOV       R2,DPH
        MOV       ?V4,R1
        MOV       ?V5,R2
        MOV       R0,#?V4
        LCALL     ?PUSH_XSTACK_I_THREE
          CFI CFA_XSP16 add(XSP16, 278)
        MOV       R4,#0x10
        MOV       R5,#0x0
        MOV       A,#0x15
        LCALL     ?XSTACK_DISP0_8
        LCALL     ?Subroutine4 & 0xFFFF
//  604   }
??CrossCallReturnLabel_43:
        LCALL     ?DEALLOC_XSTACK8
          CFI CFA_XSP16 add(XSP16, 275)
//  605          
//  606   if ( pt_getSecFrameCounterCapabilities( newEntry ) )
??gp_UpdateProxyTlb_13:
        MOV       A,#0x41
        LCALL     ?XSTACK_DISP0_8
        MOVX      A,@DPTR
        MOV       C,0xE0 /* A   */.5
        JNC       ??gp_UpdateProxyTlb_14
//  607   {
//  608     PROXY_TBL_SET_SEC_CAP( &currEntry[PROXY_TBL_ENTRY_OPT] );
        MOV       DPL,?XSP + 0
        MOV       DPH,?XSP + 1
        MOVX      A,@DPTR
        SETB      0xE0 /* A   */.5
        MOVX      @DPTR,A
//  609   }
//  610   
//  611   osal_memcpy( &currEntry[PROXY_TBL_ENTRY_SEC_FRAME], &newEntry[PROXY_TBL_ENTRY_SEC_FRAME], sizeof ( uint32 ) );
??gp_UpdateProxyTlb_14:
        ; Setup parameters for call to function osal_memcpy
        MOV       A,#0x4f
        LCALL     ?XSTACK_DISP0_8
        MOV       R1,DPL
        MOV       R2,DPH
        MOV       ?V4,R1
        MOV       ?V5,R2
        MOV       R0,#?V4
        LCALL     ?PUSH_XSTACK_I_THREE
          CFI CFA_XSP16 add(XSP16, 278)
        MOV       R4,#0x4
        MOV       R5,#0x0
        MOV       A,#0x11
        LCALL     ?XSTACK_DISP0_8
        LCALL     ?Subroutine4 & 0xFFFF
??CrossCallReturnLabel_44:
        LCALL     ?DEALLOC_XSTACK8
          CFI CFA_XSP16 add(XSP16, 275)
//  612 
//  613   currEntry[PROXY_TBL_ENTRY_GRP_RAD] = newEntry[PROXY_TBL_ENTRY_GRP_RAD];
        MOV       A,#-0x80
        LCALL     ?XSTACK_DISP0_8
        MOVX      A,@DPTR
        PUSH      A
          CFI CFA_SP SP+-1
        MOV       A,#0x3f
        LCALL     ?XSTACK_DISP0_8
        POP       A
          CFI CFA_SP SP+0
        MOVX      @DPTR,A
//  614     
//  615   currEntry[PROXY_TBL_ENTRY_SEARCH_COUNTER] = newEntry[PROXY_TBL_ENTRY_SEARCH_COUNTER];
        MOV       A,#-0x7f
        LCALL     ?XSTACK_DISP0_8
        MOVX      A,@DPTR
        PUSH      A
          CFI CFA_SP SP+-1
        MOV       A,#0x40
        LCALL     ?XSTACK_DISP0_8
        POP       A
          CFI CFA_SP SP+0
        MOVX      @DPTR,A
//  616    
//  617   status = osal_nv_write( proxyTableIndex, 0,
//  618                      PROXY_TBL_ENTRY_LEN, currEntry );
        ; Setup parameters for call to function osal_nv_write
        MOV       R0,?XSP + 0
        MOV       R1,?XSP + 1
        MOV       ?V4,R0
        MOV       ?V5,R1
        MOV       R0,#?V4
        LCALL     ?PUSH_XSTACK_I_TWO
          CFI CFA_XSP16 add(XSP16, 277)
        MOV       ?V4,#0x41
        MOV       ?V5,#0x0
        MOV       R0,#?V4
        LCALL     ?PUSH_XSTACK_I_TWO
          CFI CFA_XSP16 add(XSP16, 279)
        MOV       R4,#0x0
        MOV       R5,#0x0
        MOV       R2,?V0
        MOV       R3,?V1
        LCALL     `??osal_nv_write::?relay`; Banked call to: osal_nv_write
        MOV       A,#0x4
        LCALL     ?DEALLOC_XSTACK8
          CFI CFA_XSP16 add(XSP16, 275)
        MOV       A,R1
        MOV       R6,A
//  619   
//  620   if ( osal_memcmp( &_NIB.nwkDevAddress, &currEntry[PROXY_TBL_ENTRY_ALIAS], sizeof( uint16 ) )        ||
//  621        osal_memcmp( &_NIB.nwkDevAddress, &currEntry[PROXY_TBL_ENTRY_1ST_GRP_ADDR], sizeof( uint16 ) ) ||
//  622        osal_memcmp( &_NIB.nwkDevAddress, &currEntry[PROXY_TBL_ENTRY_2ND_GRP_ADDR], sizeof( uint16 ) )   )
        MOV       ?V0,#(_NIB + 20) & 0xff
        MOV       ?V1,#((_NIB + 20) >> 8) & 0xff
        ; Setup parameters for call to function osal_memcmp
        MOV       A,#0xb
        LCALL     ?XSTACK_DISP0_8
        MOV       R1,DPL
        MOV       R2,DPH
        MOV       ?V4,R1
        MOV       ?V5,R2
        MOV       R0,#?V4
        LCALL     ?PUSH_XSTACK_I_THREE
          CFI CFA_XSP16 add(XSP16, 278)
        LCALL     ?Subroutine7 & 0xFFFF
??CrossCallReturnLabel_73:
        LCALL     ?DEALLOC_XSTACK8
          CFI CFA_XSP16 add(XSP16, 275)
        MOV       A,R1
        JNZ       ??gp_UpdateProxyTlb_3
        ; Setup parameters for call to function osal_memcmp
        MOV       A,#0x37
        LCALL     ?XSTACK_DISP0_8
        MOV       R1,DPL
        MOV       R2,DPH
        MOV       ?V4,R1
        MOV       ?V5,R2
        MOV       R0,#?V4
        LCALL     ?PUSH_XSTACK_I_THREE
          CFI CFA_XSP16 add(XSP16, 278)
