///////////////////////////////////////////////////////////////////////////////
//
// IAR C/C++ Compiler V10.30.1.6000 for 8051              18/Apr/2021  13:22:03
// Copyright 2004-2018 IAR Systems AB.
// Evaluation license - IAR Embedded Workbench for 8051, Evaluation edition 10.30
//
//    Core               =  plain
//    Code model         =  banked
//    Data model         =  large
//    Calling convention =  xdata reentrant
//    Constant location  =  data_rom
//    Dptr setup         =  1,16
//                          
//    Source file        =  
//        C:\Texas Instruments\Z-Stack 3.0.2-20210417T211827Z-001\Z-Stack
//        3.0.2\Components\stack\zcl\zcl_green_power.c
//    Command line       =  
//        -f C:\users\slavko\Temp\EWf264.tmp ("C:\Texas Instruments\Z-Stack
//        3.0.2-20210417T211827Z-001\Z-Stack
//        3.0.2\Components\stack\zcl\zcl_green_power.c" -D SECURE=1 -D
//        TC_LINKKEY_JOIN -D NV_INIT -D NV_RESTORE -D xZTOOL_P1 -D xMT_TASK -D
//        xMT_APP_FUNC -D xMT_SYS_FUNC -D xMT_ZDO_FUNC -D xMT_ZDO_MGMT -D
//        xMT_APP_CNF_FUNC -D LEGACY_LCD_DEBUG -D LCD_SUPPORTED=DEBUG -D
//        MULTICAST_ENABLED=FALSE -D ZCL_READ -D ZCL_WRITE -D ZCL_BASIC -D
//        ZCL_IDENTIFY -D ZCL_SCENES -D ZCL_GROUPS -lC "C:\Texas
//        Instruments\Z-Stack 3.0.2-20210417T211827Z-001\Z-Stack
//        3.0.2\Projects\zstack\HomeAutomation\GenericApp\CC2530DB\CoordinatorEB\List"
//        -lA "C:\Texas Instruments\Z-Stack 3.0.2-20210417T211827Z-001\Z-Stack
//        3.0.2\Projects\zstack\HomeAutomation\GenericApp\CC2530DB\CoordinatorEB\List"
//        --diag_suppress Pe001,Pa010 -o "C:\Texas Instruments\Z-Stack
//        3.0.2-20210417T211827Z-001\Z-Stack
//        3.0.2\Projects\zstack\HomeAutomation\GenericApp\CC2530DB\CoordinatorEB\Obj"
//        -e --debug --core=plain --dptr=16,1 --data_model=large
//        --code_model=banked --calling_convention=xdata_reentrant
//        --place_constants=data_rom --nr_virtual_regs 16 -f "C:\Texas
//        Instruments\Z-Stack 3.0.2-20210417T211827Z-001\Z-Stack
//        3.0.2\Projects\zstack\HomeAutomation\GenericApp\CC2530DB\..\..\..\Tools\CC2530DB\f8wCoord.cfg"
//        (-DCPU32MHZ -DROOT=__near_func -DMAC_CFG_APP_PENDING_QUEUE=TRUE
//        -DMAC_CFG_TX_DATA_MAX=5 -DMAC_CFG_TX_MAX=8 -DMAC_CFG_RX_MAX=5
//        -DZDO_COORDINATOR -DRTR_NWK) -f "C:\Texas Instruments\Z-Stack
//        3.0.2-20210417T211827Z-001\Z-Stack
//        3.0.2\Projects\zstack\HomeAutomation\GenericApp\CC2530DB\..\..\..\Tools\CC2530DB\f8wConfig.cfg"
//        (-DZIGBEEPRO -DSECURE=1 -DZG_SECURE_DYNAMIC=0 -DREFLECTOR
//        -DDEFAULT_CHANLIST=0x00000800 -DZDAPP_CONFIG_PAN_ID=0xFFFF
//        -DNWK_START_DELAY=100 -DEXTENDED_JOINING_RANDOM_MASK=0x007F
//        -DBEACON_REQUEST_DELAY=100 -DBEACON_REQ_DELAY_MASK=0x00FF
//        -DLINK_STATUS_JITTER_MASK=0x007F -DROUTE_EXPIRY_TIME=30
//        -DAPSC_ACK_WAIT_DURATION_POLLED=3000 -DNWK_INDIRECT_MSG_TIMEOUT=7
//        -DMAX_RREQ_ENTRIES=8 -DAPSC_MAX_FRAME_RETRIES=3
//        -DNWK_MAX_DATA_RETRIES=2 -DMAX_POLL_FAILURE_RETRIES=2 -DMAX_BCAST=9
//        -DAPS_MAX_GROUPS=16 -DMAX_RTG_ENTRIES=40 -DNWK_MAX_BINDING_ENTRIES=4
//        -DMAX_BINDING_CLUSTER_IDS=4 -DDEFAULT_KEY={0}
//        -DMAC_MAX_FRAME_SIZE=116 -DZDNWKMGR_MIN_TRANSMISSIONS=20
//        "-DCONST=const __code" -DGENERIC=__generic -DRFD_RCVC_ALWAYS_ON=FALSE
//        -DPOLL_RATE=1000 -DQUEUED_POLL_RATE=100 -DRESPONSE_POLL_RATE=100
//        -DREJOIN_POLL_RATE=440 -DREJOIN_BACKOFF=900000 -DREJOIN_SCAN=900000
//        -DENABLE_LED4_DISABLE_S1) -f "C:\Texas Instruments\Z-Stack
//        3.0.2-20210417T211827Z-001\Z-Stack
//        3.0.2\Projects\zstack\HomeAutomation\GenericApp\CC2530DB\..\..\..\Tools\CC2530DB\f8wZCL.cfg"
//        -I "C:\Texas Instruments\Z-Stack 3.0.2-20210417T211827Z-001\Z-Stack
//        3.0.2\Projects\zstack\HomeAutomation\GenericApp\CC2530DB\" -I
//        "C:\Texas Instruments\Z-Stack 3.0.2-20210417T211827Z-001\Z-Stack
//        3.0.2\Projects\zstack\HomeAutomation\GenericApp\CC2530DB\..\Source\"
//        -I "C:\Texas Instruments\Z-Stack 3.0.2-20210417T211827Z-001\Z-Stack
//        3.0.2\Projects\zstack\HomeAutomation\GenericApp\CC2530DB\..\..\Source\"
//        -I "C:\Texas Instruments\Z-Stack 3.0.2-20210417T211827Z-001\Z-Stack
//        3.0.2\Projects\zstack\HomeAutomation\GenericApp\CC2530DB\..\..\..\ZMain\TI2530DB\"
//        -I "C:\Texas Instruments\Z-Stack 3.0.2-20210417T211827Z-001\Z-Stack
//        3.0.2\Projects\zstack\HomeAutomation\GenericApp\CC2530DB\..\..\..\..\..\Components\hal\include\"
//        -I "C:\Texas Instruments\Z-Stack 3.0.2-20210417T211827Z-001\Z-Stack
//        3.0.2\Projects\zstack\HomeAutomation\GenericApp\CC2530DB\..\..\..\..\..\Components\hal\target\CC2530EB\"
//        -I "C:\Texas Instruments\Z-Stack 3.0.2-20210417T211827Z-001\Z-Stack
//        3.0.2\Projects\zstack\HomeAutomation\GenericApp\CC2530DB\..\..\..\..\..\Components\mac\include\"
//        -I "C:\Texas Instruments\Z-Stack 3.0.2-20210417T211827Z-001\Z-Stack
//        3.0.2\Projects\zstack\HomeAutomation\GenericApp\CC2530DB\..\..\..\..\..\Components\mac\high_level\"
//        -I "C:\Texas Instruments\Z-Stack 3.0.2-20210417T211827Z-001\Z-Stack
//        3.0.2\Projects\zstack\HomeAutomation\GenericApp\CC2530DB\..\..\..\..\..\Components\mac\low_level\srf04\"
//        -I "C:\Texas Instruments\Z-Stack 3.0.2-20210417T211827Z-001\Z-Stack
//        3.0.2\Projects\zstack\HomeAutomation\GenericApp\CC2530DB\..\..\..\..\..\Components\mac\low_level\srf04\single_chip\"
//        -I "C:\Texas Instruments\Z-Stack 3.0.2-20210417T211827Z-001\Z-Stack
//        3.0.2\Projects\zstack\HomeAutomation\GenericApp\CC2530DB\..\..\..\..\..\Components\mt\"
//        -I "C:\Texas Instruments\Z-Stack 3.0.2-20210417T211827Z-001\Z-Stack
//        3.0.2\Projects\zstack\HomeAutomation\GenericApp\CC2530DB\..\..\..\..\..\Components\osal\include\"
//        -I "C:\Texas Instruments\Z-Stack 3.0.2-20210417T211827Z-001\Z-Stack
//        3.0.2\Projects\zstack\HomeAutomation\GenericApp\CC2530DB\..\..\..\..\..\Components\services\saddr\"
//        -I "C:\Texas Instruments\Z-Stack 3.0.2-20210417T211827Z-001\Z-Stack
//        3.0.2\Projects\zstack\HomeAutomation\GenericApp\CC2530DB\..\..\..\..\..\Components\services\sdata\"
//        -I "C:\Texas Instruments\Z-Stack 3.0.2-20210417T211827Z-001\Z-Stack
//        3.0.2\Projects\zstack\HomeAutomation\GenericApp\CC2530DB\..\..\..\..\..\Components\stack\af\"
//        -I "C:\Texas Instruments\Z-Stack 3.0.2-20210417T211827Z-001\Z-Stack
//        3.0.2\Projects\zstack\HomeAutomation\GenericApp\CC2530DB\..\..\..\..\..\Components\stack\bdb\"
//        -I "C:\Texas Instruments\Z-Stack 3.0.2-20210417T211827Z-001\Z-Stack
//        3.0.2\Projects\zstack\HomeAutomation\GenericApp\CC2530DB\..\..\..\..\..\Components\stack\gp\"
//        -I "C:\Texas Instruments\Z-Stack 3.0.2-20210417T211827Z-001\Z-Stack
//        3.0.2\Projects\zstack\HomeAutomation\GenericApp\CC2530DB\..\..\..\..\..\Components\stack\nwk\"
//        -I "C:\Texas Instruments\Z-Stack 3.0.2-20210417T211827Z-001\Z-Stack
//        3.0.2\Projects\zstack\HomeAutomation\GenericApp\CC2530DB\..\..\..\..\..\Components\stack\sapi\"
//        -I "C:\Texas Instruments\Z-Stack 3.0.2-20210417T211827Z-001\Z-Stack
//        3.0.2\Projects\zstack\HomeAutomation\GenericApp\CC2530DB\..\..\..\..\..\Components\stack\sec\"
//        -I "C:\Texas Instruments\Z-Stack 3.0.2-20210417T211827Z-001\Z-Stack
//        3.0.2\Projects\zstack\HomeAutomation\GenericApp\CC2530DB\..\..\..\..\..\Components\stack\sys\"
//        -I "C:\Texas Instruments\Z-Stack 3.0.2-20210417T211827Z-001\Z-Stack
//        3.0.2\Projects\zstack\HomeAutomation\GenericApp\CC2530DB\..\..\..\..\..\Components\stack\zcl\"
//        -I "C:\Texas Instruments\Z-Stack 3.0.2-20210417T211827Z-001\Z-Stack
//        3.0.2\Projects\zstack\HomeAutomation\GenericApp\CC2530DB\..\..\..\..\..\Components\stack\zdo\"
//        -I "C:\Texas Instruments\Z-Stack 3.0.2-20210417T211827Z-001\Z-Stack
//        3.0.2\Projects\zstack\HomeAutomation\GenericApp\CC2530DB\..\..\..\..\..\Components\zmac\"
//        -I "C:\Texas Instruments\Z-Stack 3.0.2-20210417T211827Z-001\Z-Stack
//        3.0.2\Projects\zstack\HomeAutomation\GenericApp\CC2530DB\..\..\..\..\..\Components\zmac\f8w\"
//        -Ohz --require_prototypes)
//    Locale             =  English_USA.1252
//    List file          =  
//        C:\Texas Instruments\Z-Stack 3.0.2-20210417T211827Z-001\Z-Stack
//        3.0.2\Projects\zstack\HomeAutomation\GenericApp\CC2530DB\CoordinatorEB\List\zcl_green_power.s51
//
///////////////////////////////////////////////////////////////////////////////

        NAME zcl_green_power

        RTMODEL "__SystemLibrary", "CLib"
        RTMODEL "__calling_convention", "xdata_reentrant"
        RTMODEL "__code_model", "banked"
        RTMODEL "__core", "plain"
        RTMODEL "__data_model", "large"
        RTMODEL "__dptr_size", "16"
        RTMODEL "__extended_stack", "disabled"
        RTMODEL "__location_for_constants", "data"
        RTMODEL "__number_of_dptrs", "1"
        RTMODEL "__register_banks", "*"
        RTMODEL "__rt_version", "1"

        RSEG DOVERLAY:DATA:NOROOT(0)
        RSEG IOVERLAY:IDATA:NOROOT(0)
        RSEG ISTACK:IDATA:NOROOT(0)
        RSEG PSTACK:XDATA:NOROOT(0)
        RSEG XSTACK:XDATA:NOROOT(0)

        EXTERN ?V0
        EXTERN ?V2
        EXTERN ?V3
        EXTERN ?V1
        EXTERN ?V4
        EXTERN ?V5
        EXTERN ?V6
        EXTERN ?V7
        EXTERN ?V8
        EXTERN ?V9
        EXTERN ?V10
        EXTERN ?V11
        EXTERN ?V12
        EXTERN ?V13
        EXTERN ?V14
        EXTERN ?V15
        EXTERN ?ALLOC_XSTACK8
        EXTERN ?BANKED_ENTER_XDATA
        EXTERN ?BANKED_LEAVE_XDATA
        EXTERN ?BDISPATCH
        EXTERN ?BRET
        EXTERN ?CALL_IND
        EXTERN ?DEALLOC_XSTACK8
        EXTERN ?MOVE_LONG8_XDATA_XDATA
        EXTERN ?PUSH_XSTACK8_X_FOUR
        EXTERN ?PUSH_XSTACK_I_ONE
        EXTERN ?PUSH_XSTACK_I_THREE
        EXTERN ?PUSH_XSTACK_I_TWO
        EXTERN ?XSP
        EXTERN ?XSTACK_DISP0_8
        EXTERN ?XSTACK_DISP100_8
        EXTERN ?XSTACK_DISP101_8
        EXTERN ?XSTACK_DISP102_8
        EXTERN __INIT_XDATA_Z

        PUBLIC `??gp_AddCmdPayloadMsgNode::?relay`
        FUNCTION `??gp_AddCmdPayloadMsgNode::?relay`,0203H
        PUBLIC `??gp_AddNotificationMsgNode::?relay`
        FUNCTION `??gp_AddNotificationMsgNode::?relay`,0203H
        PUBLIC `??gp_CmdPayloadMsgClean::?relay`
        FUNCTION `??gp_CmdPayloadMsgClean::?relay`,0203H
        PUBLIC `??gp_CreateCmdPayloadMsgList::?relay`
        FUNCTION `??gp_CreateCmdPayloadMsgList::?relay`,0203H
        PUBLIC `??gp_CreateNotificationMsgList::?relay`
        FUNCTION `??gp_CreateNotificationMsgList::?relay`,0203H
        PUBLIC `??gp_GetHeadCmdPayloadMsg::?relay`
        FUNCTION `??gp_GetHeadCmdPayloadMsg::?relay`,0203H
        PUBLIC `??gp_GetHeadNotificationMsg::?relay`
        FUNCTION `??gp_GetHeadNotificationMsg::?relay`,0203H
        PUBLIC `??gp_GetPHeadCmdPayload::?relay`
        FUNCTION `??gp_GetPHeadCmdPayload::?relay`,0203H
        PUBLIC `??gp_GetPHeadNotification::?relay`
        FUNCTION `??gp_GetPHeadNotification::?relay`,0203H
        PUBLIC `??gp_NotificationMsgClean::?relay`
        FUNCTION `??gp_NotificationMsgClean::?relay`,0203H
        PUBLIC `??gp_ResetProxyBasicTblEntry::?relay`
        FUNCTION `??gp_ResetProxyBasicTblEntry::?relay`,0203H
        FUNCTION `??gp_addPairedSinksToMsgQueue::?relay`,0203H
        FUNCTION `??zclGp_HdlIncoming::?relay`,0203H
        FUNCTION `??zclGp_ProcessInProxyBasic::?relay`,0203H
        PUBLIC `??zclGp_RegisterCmdCallbacks::?relay`
        FUNCTION `??zclGp_RegisterCmdCallbacks::?relay`,0203H
        PUBLIC `??zclGp_SendGpCommissioningNotificationCommand:`
        FUNCTION `??zclGp_SendGpCommissioningNotificationCommand:`,0203H
        PUBLIC `??zclGp_SendGpNotificationCommand::?relay`
        FUNCTION `??zclGp_SendGpNotificationCommand::?relay`,0203H
        PUBLIC `??zclGp_SendGpProxyTableResponse::?relay`
        FUNCTION `??zclGp_SendGpProxyTableResponse::?relay`,0203H
        PUBWEAK __Constant_32
        PUBLIC gp_AddCmdPayloadMsgNode
        FUNCTION gp_AddCmdPayloadMsgNode,0a1203H
        ARGFRAME XSTACK, 24, STACK
        ARGFRAME IOVERLAY, 0, STATIC
        ARGFRAME DOVERLAY, 0, STATIC
        LOCFRAME ISTACK, 1, STACK
        LOCFRAME XSTACK, 14, STACK
        PUBLIC gp_AddNotificationMsgNode
        FUNCTION gp_AddNotificationMsgNode,0a1203H
        ARGFRAME XSTACK, 105, STACK
        ARGFRAME IOVERLAY, 0, STATIC
        ARGFRAME DOVERLAY, 0, STATIC
        LOCFRAME XSTACK, 12, STACK
        PUBLIC gp_CmdPayloadMsgClean
        FUNCTION gp_CmdPayloadMsgClean,021203H
        ARGFRAME XSTACK, 12, STACK
        ARGFRAME IOVERLAY, 0, STATIC
        ARGFRAME DOVERLAY, 0, STATIC
        LOCFRAME XSTACK, 9, STACK
        PUBLIC gp_CreateCmdPayloadMsgList
        FUNCTION gp_CreateCmdPayloadMsgList,0a1203H
        ARGFRAME XSTACK, 14, STACK
        ARGFRAME IOVERLAY, 0, STATIC
        ARGFRAME DOVERLAY, 0, STATIC
        LOCFRAME XSTACK, 10, STACK
        PUBLIC gp_CreateNotificationMsgList
        FUNCTION gp_CreateNotificationMsgList,0a1203H
        ARGFRAME XSTACK, 12, STACK
        ARGFRAME IOVERLAY, 0, STATIC
        ARGFRAME DOVERLAY, 0, STATIC
        LOCFRAME XSTACK, 10, STACK
        PUBLIC gp_GetHeadCmdPayloadMsg
        FUNCTION gp_GetHeadCmdPayloadMsg,0203H
        ARGFRAME XSTACK, 0, STACK
        LOCFRAME ISTACK, 2, STACK
        PUBLIC gp_GetHeadNotificationMsg
        FUNCTION gp_GetHeadNotificationMsg,0203H
        ARGFRAME XSTACK, 0, STACK
        LOCFRAME ISTACK, 2, STACK
        PUBLIC gp_GetPHeadCmdPayload
        FUNCTION gp_GetPHeadCmdPayload,0203H
        ARGFRAME XSTACK, 0, STACK
        PUBLIC gp_GetPHeadNotification
        FUNCTION gp_GetPHeadNotification,0203H
        ARGFRAME XSTACK, 0, STACK
        PUBLIC gp_NotificationMsgClean
        FUNCTION gp_NotificationMsgClean,0a1203H
        ARGFRAME XSTACK, 0, STACK
        LOCFRAME XSTACK, 12, STACK
        PUBLIC gp_ResetProxyBasicTblEntry
        FUNCTION gp_ResetProxyBasicTblEntry,021203H
        ARGFRAME XSTACK, 0, STACK
        LOCFRAME XSTACK, 9, STACK
        FUNCTION gp_addPairedSinksToMsgQueue,0a1203H
        ARGFRAME XSTACK, 24, STACK
        ARGFRAME IOVERLAY, 0, STATIC
        ARGFRAME DOVERLAY, 0, STATIC
        LOCFRAME XSTACK, 108, STACK
        FUNCTION zclGp_HdlIncoming,021603H
        ARGFRAME XSTACK, 0, STACK
        LOCFRAME XSTACK, 9, STACK
        FUNCTION zclGp_ProcessInProxyBasic,0a1203H
        ARGFRAME XSTACK, 9, STACK
        ARGFRAME IOVERLAY, 0, STATIC
        ARGFRAME DOVERLAY, 0, STATIC
        LOCFRAME ISTACK, 1, STACK
        LOCFRAME XSTACK, 49, STACK
        PUBLIC zclGp_RegisterCmdCallbacks
        FUNCTION zclGp_RegisterCmdCallbacks,0a1203H
        ARGFRAME XSTACK, 0, STACK
        LOCFRAME ISTACK, 1, STACK
        LOCFRAME XSTACK, 14, STACK
        PUBLIC zclGp_SendGpCommissioningNotificationCommand
        FUNCTION zclGp_SendGpCommissioningNotificationCommand,0a1203H
        ARGFRAME XSTACK, 0, STACK
        LOCFRAME ISTACK, 1, STACK
        LOCFRAME XSTACK, 43, STACK
        PUBLIC zclGp_SendGpNotificationCommand
        FUNCTION zclGp_SendGpNotificationCommand,0a1203H
        ARGFRAME XSTACK, 0, STACK
        LOCFRAME ISTACK, 1, STACK
        LOCFRAME XSTACK, 28, STACK
        PUBLIC zclGp_SendGpProxyTableResponse
        FUNCTION zclGp_SendGpProxyTableResponse,0a1203H
        ARGFRAME XSTACK, 0, STACK
        LOCFRAME ISTACK, 1, STACK
        LOCFRAME XSTACK, 35, STACK
        
          CFI Names cfiNames0
          CFI StackFrame CFA_SP SP IDATA
          CFI StackFrame CFA_PSP16 PSP16 XDATA
          CFI StackFrame CFA_XSP16 XSP16 XDATA
          CFI StaticOverlayFrame CFA_IOVERLAY IOVERLAY
          CFI StaticOverlayFrame CFA_DOVERLAY DOVERLAY
          CFI Resource `PSW.CY`:1, `B.BR0`:1, `B.BR1`:1, `B.BR2`:1, `B.BR3`:1
          CFI Resource `B.BR4`:1, `B.BR5`:1, `B.BR6`:1, `B.BR7`:1, `VB.BR8`:1
          CFI Resource `VB.BR9`:1, `VB.BR10`:1, `VB.BR11`:1, `VB.BR12`:1
          CFI Resource `VB.BR13`:1, `VB.BR14`:1, `VB.BR15`:1, VB:8, B:8, A:8
          CFI Resource PSW:8, DPL0:8, DPH0:8, R0:8, R1:8, R2:8, R3:8, R4:8, R5:8
          CFI Resource R6:8, R7:8, V0:8, V1:8, V2:8, V3:8, V4:8, V5:8, V6:8, V7:8
          CFI Resource V8:8, V9:8, V10:8, V11:8, V12:8, V13:8, V14:8, V15:8, SP:8
          CFI Resource PSPH:8, PSPL:8, PSP16:16, XSPH:8, XSPL:8, XSP16:16
          CFI VirtualResource ?RET:24
          CFI Resource ?BRET_EXT:8
          CFI VirtualResource ?RET_HIGH:8, ?RET_LOW:8
          CFI ResourceParts PSP16 PSPH, PSPL
          CFI ResourceParts XSP16 XSPH, XSPL
          CFI ResourceParts ?RET ?BRET_EXT, ?RET_HIGH, ?RET_LOW
          CFI EndNames cfiNames0
        
          CFI Common cfiCommon0 Using cfiNames0
          CFI CodeAlign 1
          CFI DataAlign -1
          CFI ReturnAddress ?RET CODE
          CFI CFA_DOVERLAY Used
          CFI CFA_IOVERLAY Used
          CFI CFA_SP SP+-3
          CFI CFA_PSP16 PSP16+0
          CFI CFA_XSP16 XSP16+0
          CFI `PSW.CY` SameValue
          CFI `B.BR0` SameValue
          CFI `B.BR1` SameValue
          CFI `B.BR2` SameValue
          CFI `B.BR3` SameValue
          CFI `B.BR4` SameValue
          CFI `B.BR5` SameValue
          CFI `B.BR6` SameValue
          CFI `B.BR7` SameValue
          CFI `VB.BR8` SameValue
          CFI `VB.BR9` SameValue
          CFI `VB.BR10` SameValue
          CFI `VB.BR11` SameValue
          CFI `VB.BR12` SameValue
          CFI `VB.BR13` SameValue
          CFI `VB.BR14` SameValue
          CFI `VB.BR15` SameValue
          CFI VB SameValue
          CFI B Undefined
          CFI A Undefined
          CFI PSW SameValue
          CFI DPL0 SameValue
          CFI DPH0 SameValue
          CFI R0 Undefined
          CFI R1 Undefined
          CFI R2 Undefined
          CFI R3 Undefined
          CFI R4 Undefined
          CFI R5 Undefined
          CFI R6 SameValue
          CFI R7 SameValue
          CFI V0 SameValue
          CFI V1 SameValue
          CFI V2 SameValue
          CFI V3 SameValue
          CFI V4 SameValue
          CFI V5 SameValue
          CFI V6 SameValue
          CFI V7 SameValue
          CFI V8 SameValue
          CFI V9 SameValue
          CFI V10 SameValue
          CFI V11 SameValue
          CFI V12 SameValue
          CFI V13 SameValue
          CFI V14 SameValue
          CFI V15 SameValue
          CFI PSPH Undefined
          CFI PSPL Undefined
          CFI XSPH Undefined
          CFI XSPL Undefined
          CFI ?RET Concat
          CFI ?BRET_EXT Frame(CFA_SP, 3)
          CFI ?RET_HIGH Frame(CFA_SP, 2)
          CFI ?RET_LOW Frame(CFA_SP, 1)
          CFI EndCommon cfiCommon0
        
        
          CFI Common cfiCommon1 Using cfiNames0
          CFI CodeAlign 1
          CFI DataAlign -1
          CFI ReturnAddress ?RET CODE
          CFI CFA_DOVERLAY Used
          CFI CFA_IOVERLAY Used
          CFI CFA_SP SP+-2
          CFI CFA_PSP16 PSP16+0
          CFI CFA_XSP16 XSP16+0
          CFI `PSW.CY` SameValue
          CFI `B.BR0` SameValue
          CFI `B.BR1` SameValue
          CFI `B.BR2` SameValue
          CFI `B.BR3` SameValue
          CFI `B.BR4` SameValue
          CFI `B.BR5` SameValue
          CFI `B.BR6` SameValue
          CFI `B.BR7` SameValue
          CFI `VB.BR8` SameValue
          CFI `VB.BR9` SameValue
          CFI `VB.BR10` SameValue
          CFI `VB.BR11` SameValue
          CFI `VB.BR12` SameValue
          CFI `VB.BR13` SameValue
          CFI `VB.BR14` SameValue
          CFI `VB.BR15` SameValue
          CFI VB SameValue
          CFI B SameValue
          CFI A SameValue
          CFI PSW SameValue
          CFI DPL0 SameValue
          CFI DPH0 SameValue
          CFI R0 SameValue
          CFI R1 SameValue
          CFI R2 SameValue
          CFI R3 SameValue
          CFI R4 SameValue
          CFI R5 SameValue
          CFI R6 SameValue
          CFI R7 SameValue
          CFI V0 SameValue
          CFI V1 SameValue
          CFI V2 SameValue
          CFI V3 SameValue
          CFI V4 SameValue
          CFI V5 SameValue
          CFI V6 SameValue
          CFI V7 SameValue
          CFI V8 SameValue
          CFI V9 SameValue
          CFI V10 SameValue
          CFI V11 SameValue
          CFI V12 SameValue
          CFI V13 SameValue
          CFI V14 SameValue
          CFI V15 SameValue
          CFI PSPH Undefined
          CFI PSPL Undefined
          CFI XSPH Undefined
          CFI XSPL Undefined
          CFI ?RET Concat
          CFI ?BRET_EXT SameValue
          CFI ?RET_HIGH Frame(CFA_SP, 2)
          CFI ?RET_LOW Frame(CFA_SP, 1)
          CFI EndCommon cfiCommon1
        
bdb_getZCLFrameCounter SYMBOL "bdb_getZCLFrameCounter"
`??bdb_getZCLFrameCounter::?relay` SYMBOL "?relay", bdb_getZCLFrameCounter
gp_getProxyTableByIndex SYMBOL "gp_getProxyTableByIndex"
`??gp_getProxyTableByIndex::?relay` SYMBOL "?relay", gp_getProxyTableByIndex
osal_build_uint16   SYMBOL "osal_build_uint16"
`??osal_build_uint16::?relay` SYMBOL "?relay", osal_build_uint16
osal_mem_alloc      SYMBOL "osal_mem_alloc"
`??osal_mem_alloc::?relay` SYMBOL "?relay", osal_mem_alloc
osal_mem_free       SYMBOL "osal_mem_free"
`??osal_mem_free::?relay` SYMBOL "?relay", osal_mem_free
osal_memcmp         SYMBOL "osal_memcmp"
`??osal_memcmp::?relay` SYMBOL "?relay", osal_memcmp
osal_memcpy         SYMBOL "osal_memcpy"
`??osal_memcpy::?relay` SYMBOL "?relay", osal_memcpy
osal_memset         SYMBOL "osal_memset"
`??osal_memset::?relay` SYMBOL "?relay", osal_memset
osal_start_timerEx  SYMBOL "osal_start_timerEx"
`??osal_start_timerEx::?relay` SYMBOL "?relay", osal_start_timerEx
zcl_SendCommand     SYMBOL "zcl_SendCommand"
`??zcl_SendCommand::?relay` SYMBOL "?relay", zcl_SendCommand
zcl_SendDefaultRspCmd SYMBOL "zcl_SendDefaultRspCmd"
`??zcl_SendDefaultRspCmd::?relay` SYMBOL "?relay", zcl_SendDefaultRspCmd
zcl_registerPlugin  SYMBOL "zcl_registerPlugin"
`??zcl_registerPlugin::?relay` SYMBOL "?relay", zcl_registerPlugin
gp_AddCmdPayloadMsgNode SYMBOL "gp_AddCmdPayloadMsgNode"
`??gp_AddCmdPayloadMsgNode::?relay` SYMBOL "?relay", gp_AddCmdPayloadMsgNode
gp_AddNotificationMsgNode SYMBOL "gp_AddNotificationMsgNode"
`??gp_AddNotificationMsgNode::?relay` SYMBOL "?relay", gp_AddNotificationMsgNode
gp_CmdPayloadMsgClean SYMBOL "gp_CmdPayloadMsgClean"
`??gp_CmdPayloadMsgClean::?relay` SYMBOL "?relay", gp_CmdPayloadMsgClean
gp_CreateCmdPayloadMsgList SYMBOL "gp_CreateCmdPayloadMsgList"
`??gp_CreateCmdPayloadMsgList::?relay` SYMBOL "?relay", gp_CreateCmdPayloadMsgList
gp_CreateNotificationMsgList SYMBOL "gp_CreateNotificationMsgList"
`??gp_CreateNotificationMsgList::?relay` SYMBOL "?relay", gp_CreateNotificationMsgList
gp_GetHeadCmdPayloadMsg SYMBOL "gp_GetHeadCmdPayloadMsg"
`??gp_GetHeadCmdPayloadMsg::?relay` SYMBOL "?relay", gp_GetHeadCmdPayloadMsg
gp_GetHeadNotificationMsg SYMBOL "gp_GetHeadNotificationMsg"
`??gp_GetHeadNotificationMsg::?relay` SYMBOL "?relay", gp_GetHeadNotificationMsg
gp_GetPHeadCmdPayload SYMBOL "gp_GetPHeadCmdPayload"
`??gp_GetPHeadCmdPayload::?relay` SYMBOL "?relay", gp_GetPHeadCmdPayload
gp_GetPHeadNotification SYMBOL "gp_GetPHeadNotification"
`??gp_GetPHeadNotification::?relay` SYMBOL "?relay", gp_GetPHeadNotification
gp_NotificationMsgClean SYMBOL "gp_NotificationMsgClean"
`??gp_NotificationMsgClean::?relay` SYMBOL "?relay", gp_NotificationMsgClean
gp_ResetProxyBasicTblEntry SYMBOL "gp_ResetProxyBasicTblEntry"
`??gp_ResetProxyBasicTblEntry::?relay` SYMBOL "?relay", gp_ResetProxyBasicTblEntry
zclGp_RegisterCmdCallbacks SYMBOL "zclGp_RegisterCmdCallbacks"
`??zclGp_RegisterCmdCallbacks::?relay` SYMBOL "?relay", zclGp_RegisterCmdCallbacks
zclGp_SendGpCommissioningNotificationCommand SYMBOL "zclGp_SendGpCommissioningNotificationCommand"
`??zclGp_SendGpCommissioningNotificationCommand:` SYMBOL "?relay", zclGp_SendGpCommissioningNotificationCommand
zclGp_SendGpNotificationCommand SYMBOL "zclGp_SendGpNotificationCommand"
`??zclGp_SendGpNotificationCommand::?relay` SYMBOL "?relay", zclGp_SendGpNotificationCommand
zclGp_SendGpProxyTableResponse SYMBOL "zclGp_SendGpProxyTableResponse"
`??zclGp_SendGpProxyTableResponse::?relay` SYMBOL "?relay", zclGp_SendGpProxyTableResponse

        EXTERN `??bdb_getZCLFrameCounter::?relay`
        FUNCTION `??bdb_getZCLFrameCounter::?relay`,00H
        EXTERN `??gp_getProxyTableByIndex::?relay`
        FUNCTION `??gp_getProxyTableByIndex::?relay`,00H
        EXTERN `??osal_build_uint16::?relay`
        FUNCTION `??osal_build_uint16::?relay`,00H
        EXTERN `??osal_mem_alloc::?relay`
        FUNCTION `??osal_mem_alloc::?relay`,00H
        EXTERN `??osal_mem_free::?relay`
        FUNCTION `??osal_mem_free::?relay`,00H
        EXTERN `??osal_memcmp::?relay`
        FUNCTION `??osal_memcmp::?relay`,00H
        EXTERN `??osal_memcpy::?relay`
        FUNCTION `??osal_memcpy::?relay`,00H
        EXTERN `??osal_memset::?relay`
        FUNCTION `??osal_memset::?relay`,00H
        EXTERN `??osal_start_timerEx::?relay`
        FUNCTION `??osal_start_timerEx::?relay`,00H
        EXTERN `??zcl_SendCommand::?relay`
        FUNCTION `??zcl_SendCommand::?relay`,00H
        EXTERN `??zcl_SendDefaultRspCmd::?relay`
        FUNCTION `??zcl_SendDefaultRspCmd::?relay`,00H
        EXTERN `??zcl_registerPlugin::?relay`
        FUNCTION `??zcl_registerPlugin::?relay`,00H
        EXTERN _NIB
        EXTERN bdb_getZCLFrameCounter
        FUNCTION bdb_getZCLFrameCounter,0202H
        ARGFRAME ISTACK, 0, STACK
        ARGFRAME PSTACK, 0, STACK
        ARGFRAME XSTACK, 32, STACK
        ARGFRAME IOVERLAY, 0, STATIC
        ARGFRAME DOVERLAY, 0, STATIC
        EXTERN gp_commissionerAddress
        EXTERN gp_getProxyTableByIndex
        FUNCTION gp_getProxyTableByIndex,0202H
        ARGFRAME ISTACK, 0, STACK
        ARGFRAME PSTACK, 0, STACK
        ARGFRAME XSTACK, 105, STACK
        ARGFRAME IOVERLAY, 0, STATIC
        ARGFRAME DOVERLAY, 0, STATIC
        EXTERN osal_build_uint16
        FUNCTION osal_build_uint16,0202H
        ARGFRAME ISTACK, 0, STACK
        ARGFRAME PSTACK, 0, STACK
        ARGFRAME XSTACK, 42, STACK
        ARGFRAME IOVERLAY, 0, STATIC
        ARGFRAME DOVERLAY, 0, STATIC
        EXTERN osal_mem_alloc
        FUNCTION osal_mem_alloc,0202H
        ARGFRAME ISTACK, 0, STACK
        ARGFRAME PSTACK, 0, STACK
        ARGFRAME XSTACK, 32, STACK
        ARGFRAME IOVERLAY, 0, STATIC
        ARGFRAME DOVERLAY, 0, STATIC
        EXTERN osal_mem_free
        FUNCTION osal_mem_free,0202H
        ARGFRAME ISTACK, 0, STACK
        ARGFRAME PSTACK, 0, STACK
        ARGFRAME XSTACK, 32, STACK
        ARGFRAME IOVERLAY, 0, STATIC
        ARGFRAME DOVERLAY, 0, STATIC
        EXTERN osal_memcmp
        FUNCTION osal_memcmp,0202H
        ARGFRAME ISTACK, 0, STACK
        ARGFRAME PSTACK, 0, STACK
        ARGFRAME XSTACK, 108, STACK
        ARGFRAME IOVERLAY, 0, STATIC
        ARGFRAME DOVERLAY, 0, STATIC
        EXTERN osal_memcpy
        FUNCTION osal_memcpy,0202H
        ARGFRAME ISTACK, 0, STACK
        ARGFRAME PSTACK, 0, STACK
        ARGFRAME XSTACK, 108, STACK
        ARGFRAME IOVERLAY, 0, STATIC
        ARGFRAME DOVERLAY, 0, STATIC
        EXTERN osal_memset
        FUNCTION osal_memset,0202H
        ARGFRAME ISTACK, 0, STACK
        ARGFRAME PSTACK, 0, STACK
        ARGFRAME XSTACK, 9, STACK
        ARGFRAME IOVERLAY, 0, STATIC
        ARGFRAME DOVERLAY, 0, STATIC
        EXTERN osal_start_timerEx
        FUNCTION osal_start_timerEx,0202H
        ARGFRAME ISTACK, 0, STACK
        ARGFRAME PSTACK, 0, STACK
        ARGFRAME XSTACK, 28, STACK
        ARGFRAME IOVERLAY, 0, STATIC
        ARGFRAME DOVERLAY, 0, STATIC
        EXTERN zcl_InSeqNum
        EXTERN zcl_SendCommand
        FUNCTION zcl_SendCommand,0202H
        ARGFRAME ISTACK, 0, STACK
        ARGFRAME PSTACK, 0, STACK
        ARGFRAME XSTACK, 43, STACK
        ARGFRAME IOVERLAY, 0, STATIC
        ARGFRAME DOVERLAY, 0, STATIC
        EXTERN zcl_SendDefaultRspCmd
        FUNCTION zcl_SendDefaultRspCmd,0202H
        ARGFRAME ISTACK, 0, STACK
        ARGFRAME PSTACK, 0, STACK
        ARGFRAME XSTACK, 49, STACK
        ARGFRAME IOVERLAY, 0, STATIC
        ARGFRAME DOVERLAY, 0, STATIC
        EXTERN zcl_TaskID
        EXTERN zcl_registerPlugin
        FUNCTION zcl_registerPlugin,0202H
        ARGFRAME ISTACK, 0, STACK
        ARGFRAME PSTACK, 0, STACK
        ARGFRAME XSTACK, 14, STACK
        ARGFRAME IOVERLAY, 0, STATIC
        ARGFRAME DOVERLAY, 0, STATIC

// C:\Texas Instruments\Z-Stack 3.0.2-20210417T211827Z-001\Z-Stack 3.0.2\Components\stack\zcl\zcl_green_power.c
//    1 /**************************************************************************************************
//    2   Filename:       zcl_green_power.c
//    3   Revised:        $Date: 2015-09-10 09:36:48 -0700 (Thu, 10 Sep 2015) $
//    4   Revision:       $Revision: 44493 $
//    5 
//    6   Description:    Zigbee Cluster Library - General.  This application receives all
//    7                   ZCL messages and initially parses them before passing to application.
//    8 
//    9 
//   10   Copyright 2006-2015 Texas Instruments Incorporated. All rights reserved.
//   11 
//   12   IMPORTANT: Your use of this Software is limited to those specific rights
//   13   granted under the terms of a software license agreement between the user
//   14   who downloaded the software, his/her employer (which must be your employer)
//   15   and Texas Instruments Incorporated (the "License"). You may not use this
//   16   Software unless you agree to abide by the terms of the License. The License
//   17   limits your use, and you acknowledge, that the Software may not be modified,
//   18   copied or distributed unless embedded on a Texas Instruments microcontroller
//   19   or used solely and exclusively in conjunction with a Texas Instruments radio
//   20   frequency transceiver, which is integrated into your product. Other than for
//   21   the foregoing purpose, you may not use, reproduce, copy, prepare derivative
//   22   works of, modify, distribute, perform, display or sell this Software and/or
//   23   its documentation for any purpose.
//   24 
//   25   YOU FURTHER ACKNOWLEDGE AND AGREE THAT THE SOFTWARE AND DOCUMENTATION ARE
//   26   PROVIDED "AS IS" WITHOUT WARRANTY OF ANY KIND, EITHER EXPRESS OR IMPLIED,
//   27   INCLUDING WITHOUT LIMITATION, ANY WARRANTY OF MERCHANTABILITY, TITLE,
//   28   NON-INFRINGEMENT AND FITNESS FOR A PARTICULAR PURPOSE. IN NO EVENT SHALL
//   29   TEXAS INSTRUMENTS OR ITS LICENSORS BE LIABLE OR OBLIGATED UNDER CONTRACT,
//   30   NEGLIGENCE, STRICT LIABILITY, CONTRIBUTION, BREACH OF WARRANTY, OR OTHER
//   31   LEGAL EQUITABLE THEORY ANY DIRECT OR INDIRECT DAMAGES OR EXPENSES
//   32   INCLUDING BUT NOT LIMITED TO ANY INCIDENTAL, SPECIAL, INDIRECT, PUNITIVE
//   33   OR CONSEQUENTIAL DAMAGES, LOST PROFITS OR LOST DATA, COST OF PROCUREMENT
//   34   OF SUBSTITUTE GOODS, TECHNOLOGY, SERVICES, OR ANY CLAIMS BY THIRD PARTIES
//   35   (INCLUDING BUT NOT LIMITED TO ANY DEFENSE THEREOF), OR OTHER SIMILAR COSTS.
//   36 
//   37   Should you have any questions regarding your right to use this Software,
//   38   contact Texas Instruments Incorporated at www.TI.com.
//   39 **************************************************************************************************/
//   40 
//   41 
//   42 
//   43 /*********************************************************************
//   44  * INCLUDES
//   45  */
//   46 
//   47 #include "ZGlobals.h"  
//   48 #include "ZComDef.h"
//   49 #include "zcl.h"
//   50 #include "zcl_green_power.h"
//   51 #include "stub_aps.h"
//   52 #include "gp_common.h"
//   53 #include "bdb_interface.h"
//   54    
//   55 #if !defined (DISABLE_GREENPOWER_BASIC_PROXY) && (ZG_BUILD_RTR_TYPE)
//   56 
//   57 /*********************************************************************
//   58  * MACROS
//   59  */
//   60 
//   61 /*********************************************************************
//   62  * CONSTANTS
//   63  */
//   64 
//   65 //const static uint8 PROXY_BASIC_TBL_EMPTY_ENTRY[]  =  {0xFF, 0xFF, /* Options 16-bit bitmap */  \ 
//   66                                        0xFF, 0xFF, 0xFF, 0xFF, 0xFF, 0xFF, 0xFF, 0xFF, /*GPD ID Unsigned 32-bit integer/ IEEE address */  \ 
//   67                                        0x00, /* Endpoint Unsigned 8-bit integer */  \ 
//   68                                        0xFF, 0xFF, /* GPD Assigned Alias Unsigned 16-bit integer */  \ 
//   69                                        0xFF, /* Security Options 8-bit bitmap */  \ 
//   70                                        0xFF, 0xFF, 0xFF, 0xFF, /* GPD security frame counter Unsigned 32-bit Integer */  \ 
//   71                                        0xFF, 0xFF, 0xFF, 0xFF, 0xFF, 0xFF, 0xFF, 0xFF, 0xFF, 0xFF, 0xFF, 0xFF, 0xFF, 0xFF, 0xFF, 0xFF, /* GPD key Security key */  \ 
//   72                                        0x00, 0x00, 0x00, 0x00, 0x00, 0x00, 0x00, 0x00, 0x00, 0x00, /* Lightweight sink address list sequence of octets */  \ 
//   73                                        0x00, 0x00, 0x00, 0x00, 0x00, 0x00, 0x00, 0x00, 0x00, 0x00, \ 
//   74                                        0x00, /* Free group entries flag */  \ 
//   75                                        0x00, 0x00, 0x00, 0x00, /* Sink group list sequence of octets */  \ 
//   76                                        0x00, 0x00, 0x00, 0x00,  \ 
//   77                                        0x00, /* Groupcast radius Unsigned 8-bit integer */  \ 
//   78                                        0x00 /* Search Counter Unsigned 8-bit integer */  \ 
//   79                                       };   
//   80    
//   81 /*********************************************************************
//   82  * TYPEDEFS
//   83  */
//   84 
//   85 typedef struct zclGpCBRec
//   86 {
//   87   struct zclGpCBRec        *next;
//   88   uint8                     endpoint; // Used to link it into the endpoint descriptor
//   89   zclGp_AppCallbacks_t     *CBs;      // Pointer to Callback function
//   90 } zclGpCBRec_t;
//   91 
//   92 
//   93 /*********************************************************************
//   94  * GLOBAL VARIABLES
//   95  */
//   96 
//   97 /*********************************************************************
//   98  * GLOBAL FUNCTIONS
//   99  */
//  100 
//  101 /*********************************************************************
//  102  * LOCAL VARIABLES
//  103  */

        RSEG XDATA_Z:XDATA:NOROOT(0)
        DATA16
//  104 static zclGpCBRec_t *zclGpCBs = (zclGpCBRec_t *)NULL;
zclGpCBs:
        DS 2
        REQUIRE __INIT_XDATA_Z

        RSEG XDATA_Z:XDATA:NOROOT(0)
        DATA8
//  105 static uint8 zclGpPluginRegisted = FALSE;
zclGpPluginRegisted:
        DS 1
        REQUIRE __INIT_XDATA_Z

        RSEG XDATA_Z:XDATA:NOROOT(0)
        DATA16
//  106 static gpNotificationMsg_t *pNotificationMsgHead = NULL;
pNotificationMsgHead:
        DS 2
        REQUIRE __INIT_XDATA_Z

        RSEG XDATA_Z:XDATA:NOROOT(0)
        DATA16
//  107 static gpCmdPayloadMsg_t *pCmdPayloadMsgHead = NULL;
pCmdPayloadMsgHead:
        DS 2
        REQUIRE __INIT_XDATA_Z
//  108 
//  109 //static zclGenSceneItem_t *zclGenSceneTable = (zclGenSceneItem_t *)NULL;
//  110 
//  111 
//  112 /*********************************************************************
//  113  * LOCAL FUNCTIONS
//  114  */
//  115 static ZStatus_t zclGp_HdlIncoming( zclIncoming_t *pInMsg );
//  116 static ZStatus_t zclGp_HdlInSpecificCommands( zclIncoming_t *pInMsg );
//  117 static zclGp_AppCallbacks_t *zclGp_FindCallbacks( uint8 endpoint );
//  118 static uint8 gp_addPairedSinksToMsgQueue( uint8 appId, uint8 *pId, gpCmdPayloadMsg_t* pMsg );
//  119 
//  120 static ZStatus_t zclGp_ProcessInProxyBasic( zclIncoming_t *pInMsg, zclGp_AppCallbacks_t *pCBs );
//  121 
//  122 
//  123 /*********************************************************************
//  124  * @fn      zclGp_RegisterCmdCallbacks
//  125  *
//  126  * @brief   Register an applications command callbacks
//  127  *
//  128  * @param   endpoint - application's endpoint
//  129  * @param   callbacks - pointer to the callback record.
//  130  *
//  131  * @return  ZMemError if not able to allocate
//  132  */

        RSEG BANKED_CODE:HUGECODE:NOROOT(0)
//  133 ZStatus_t zclGp_RegisterCmdCallbacks( uint8 endpoint, zclGp_AppCallbacks_t *callbacks )
zclGp_RegisterCmdCallbacks:
          CFI Block cfiBlock0 Using cfiCommon0
          CFI Function zclGp_RegisterCmdCallbacks
        CODE
//  134 {
        FUNCALL zclGp_RegisterCmdCallbacks, zcl_registerPlugin
        LOCFRAME ISTACK, 0, STACK
        LOCFRAME PSTACK, 0, STACK
        LOCFRAME XSTACK, 14, STACK
        LOCFRAME IOVERLAY, 0, STATIC
        LOCFRAME DOVERLAY, 0, STATIC
        ARGFRAME ISTACK, 0, STACK
        ARGFRAME PSTACK, 0, STACK
        ARGFRAME XSTACK, 14, STACK
        ARGFRAME IOVERLAY, 0, STATIC
        ARGFRAME DOVERLAY, 0, STATIC
        FUNCALL zclGp_RegisterCmdCallbacks, osal_mem_alloc
        LOCFRAME ISTACK, 0, STACK
        LOCFRAME PSTACK, 0, STACK
        LOCFRAME XSTACK, 12, STACK
        LOCFRAME IOVERLAY, 0, STATIC
        LOCFRAME DOVERLAY, 0, STATIC
        ARGFRAME ISTACK, 0, STACK
        ARGFRAME PSTACK, 0, STACK
        ARGFRAME XSTACK, 12, STACK
        ARGFRAME IOVERLAY, 0, STATIC
        ARGFRAME DOVERLAY, 0, STATIC
        REQUIRE ?V0
        REQUIRE ?V2
        REQUIRE ?V3
        MOV       A,#-0xc
        LCALL     ?BANKED_ENTER_XDATA
          CFI DPH0 load(1, XDATA, add(CFA_XSP16, literal(-1)))
          CFI DPL0 load(1, XDATA, add(CFA_XSP16, literal(-2)))
          CFI ?BRET_EXT load(1, XDATA, add(CFA_XSP16, literal(-3)))
          CFI ?RET_HIGH load(1, XDATA, add(CFA_XSP16, literal(-4)))
          CFI ?RET_LOW load(1, XDATA, add(CFA_XSP16, literal(-5)))
          CFI R7 load(1, XDATA, add(CFA_XSP16, literal(-6)))
          CFI V3 load(1, XDATA, add(CFA_XSP16, literal(-7)))
          CFI V2 load(1, XDATA, add(CFA_XSP16, literal(-8)))
          CFI V1 load(1, XDATA, add(CFA_XSP16, literal(-9)))
          CFI V0 load(1, XDATA, add(CFA_XSP16, literal(-10)))
          CFI VB load(1, XDATA, add(CFA_XSP16, literal(-11)))
          CFI R6 load(1, XDATA, add(CFA_XSP16, literal(-12)))
          CFI CFA_SP SP+0
          CFI CFA_XSP16 add(XSP16, 12)
        ; Saved register size: 12
        ; Auto size: 0
        MOV       ?V0,R1
        MOV       A,R2
        MOV       R6,A
        MOV       A,R3
        MOV       R7,A
//  135   zclGpCBRec_t *pNewItem;
//  136   zclGpCBRec_t *pLoop;
//  137 
//  138   // Register as a ZCL Plugin
//  139   if ( zclGpPluginRegisted == FALSE )
        MOV       DPTR,#zclGpPluginRegisted
        MOVX      A,@DPTR
        JNZ       ??zclGp_RegisterCmdCallbacks_0
//  140   {
//  141     zcl_registerPlugin( ZCL_CLUSTER_ID_GREEN_POWER,
//  142                         ZCL_CLUSTER_ID_GREEN_POWER,
//  143                         zclGp_HdlIncoming );
        ; Setup parameters for call to function zcl_registerPlugin
        MOV       ?V2,#`??zclGp_HdlIncoming::?relay` & 0xff
        MOV       ?V3,#(`??zclGp_HdlIncoming::?relay` >> 8) & 0xff
        MOV       R0,#?V2
        LCALL     ?PUSH_XSTACK_I_TWO
          CFI CFA_XSP16 add(XSP16, 14)
        MOV       R4,#0x21
        MOV       R5,#0x0
        MOV       R2,#0x21
        MOV       R3,#0x0
        LCALL     `??zcl_registerPlugin::?relay`; Banked call to: zcl_registerPlugin
        MOV       A,#0x2
        LCALL     ?DEALLOC_XSTACK8
          CFI CFA_XSP16 add(XSP16, 12)
//  144 
//  145     zclGpPluginRegisted = TRUE;
        MOV       DPTR,#zclGpPluginRegisted
        MOV       A,#0x1
        MOVX      @DPTR,A
//  146   }
//  147 
//  148   // Fill in the new profile list
//  149   pNewItem = zcl_mem_alloc( sizeof( zclGpCBRec_t ) );
??zclGp_RegisterCmdCallbacks_0:
        ; Setup parameters for call to function osal_mem_alloc
        MOV       R2,#0x5
        MOV       R3,#0x0
        LCALL     `??osal_mem_alloc::?relay`; Banked call to: osal_mem_alloc
        MOV       ?V2,R2
        MOV       ?V3,R3
        MOV       R0,?V2
        MOV       R1,?V3
//  150   if ( pNewItem == NULL )
        MOV       A,R2
        ORL       A,R1
        JNZ       ??zclGp_RegisterCmdCallbacks_1
//  151     return (ZMemError);
        MOV       R1,#0x10
        SJMP      ??zclGp_RegisterCmdCallbacks_2
//  152 
//  153   pNewItem->next = (zclGpCBRec_t *)NULL;
??zclGp_RegisterCmdCallbacks_1:
        MOV       DPL,R2
        MOV       DPH,R3
        CLR       A
        MOVX      @DPTR,A
        INC       DPTR
        LCALL     ?Subroutine23 & 0xFFFF
//  154   pNewItem->endpoint = endpoint;
??CrossCallReturnLabel_27:
        MOV       A,?V0
        LCALL     ?Subroutine23 & 0xFFFF
//  155   pNewItem->CBs = callbacks;
??CrossCallReturnLabel_28:
        INC       DPTR
        MOV       A,R6
        MOVX      @DPTR,A
        INC       DPTR
        MOV       A,R7
        MOVX      @DPTR,A
//  156 
//  157   // Find spot in list
//  158   if (  zclGpCBs == NULL )
        MOV       DPTR,#zclGpCBs
        LCALL     ??Subroutine46_0 & 0xFFFF
??CrossCallReturnLabel_104:
        MOV       DPTR,#zclGpCBs
        JZ        ??zclGp_RegisterCmdCallbacks_3
//  159   {
//  160     zclGpCBs = pNewItem;
//  161   }
//  162   else
//  163   {
//  164     // Look for end of list
//  165     pLoop = zclGpCBs;
        MOVX      A,@DPTR
        MOV       R4,A
        INC       DPTR
        MOVX      A,@DPTR
        SJMP      ??zclGp_RegisterCmdCallbacks_4
//  166     while ( pLoop->next != NULL )
//  167       pLoop = pLoop->next;
??zclGp_RegisterCmdCallbacks_5:
        MOV       A,R2
        MOV       R4,A
        MOV       A,R3
??zclGp_RegisterCmdCallbacks_4:
        MOV       R5,A
        MOV       DPL,R4
        MOV       DPH,R5
        LCALL     ??Subroutine46_0 & 0xFFFF
??CrossCallReturnLabel_105:
        JNZ       ??zclGp_RegisterCmdCallbacks_5
//  168 
//  169     // Put new item at end of list
//  170     pLoop->next = pNewItem;
        MOV       DPL,R4
        MOV       DPH,R5
//  171   }
??zclGp_RegisterCmdCallbacks_3:
        LCALL     ?Subroutine22 & 0xFFFF
//  172 
//  173   return ( ZSuccess );
??CrossCallReturnLabel_18:
        MOV       R1,#0x0
??zclGp_RegisterCmdCallbacks_2:
          CFI EndBlock cfiBlock0
        REQUIRE ?Subroutine0
        ; // Fall through to label ?Subroutine0
//  174 }

        RSEG BANKED_CODE:HUGECODE:NOROOT(0)
?Subroutine0:
          CFI Block cfiBlock1 Using cfiCommon0
          CFI NoFunction
          CFI CFA_SP SP+0
          CFI CFA_XSP16 add(XSP16, 12)
          CFI VB load(1, XDATA, add(CFA_XSP16, literal(-11)))
          CFI DPL0 load(1, XDATA, add(CFA_XSP16, literal(-2)))
          CFI DPH0 load(1, XDATA, add(CFA_XSP16, literal(-1)))
          CFI R6 load(1, XDATA, add(CFA_XSP16, literal(-12)))
          CFI R7 load(1, XDATA, add(CFA_XSP16, literal(-6)))
          CFI V0 load(1, XDATA, add(CFA_XSP16, literal(-10)))
          CFI V1 load(1, XDATA, add(CFA_XSP16, literal(-9)))
          CFI V2 load(1, XDATA, add(CFA_XSP16, literal(-8)))
          CFI V3 load(1, XDATA, add(CFA_XSP16, literal(-7)))
          CFI ?BRET_EXT load(1, XDATA, add(CFA_XSP16, literal(-3)))
          CFI ?RET_HIGH load(1, XDATA, add(CFA_XSP16, literal(-4)))
          CFI ?RET_LOW load(1, XDATA, add(CFA_XSP16, literal(-5)))
        MOV       R7,#0x4
        LJMP      ?BANKED_LEAVE_XDATA
          CFI EndBlock cfiBlock1
//  175 
//  176 /*********************************************************************
//  177  * @fn      zclGp_FindCallbacks
//  178  *
//  179  * @brief   Find the callbacks for an endpoint
//  180  *
//  181  * @param   endpoint - endpoint to find the application callbacks for
//  182  *
//  183  * @return  pointer to the callbacks
//  184  */
//  185 static zclGp_AppCallbacks_t *zclGp_FindCallbacks( uint8 endpoint )
//  186 {
//  187   zclGpCBRec_t *pCBs;
//  188 
//  189   pCBs = zclGpCBs;
//  190   while ( pCBs )
//  191   {
//  192     if ( pCBs->endpoint == endpoint )
//  193       return ( pCBs->CBs );
//  194     pCBs = pCBs->next;
//  195   }
//  196   return ( (zclGp_AppCallbacks_t *)NULL );
//  197 }
//  198 
//  199 /*********************************************************************
//  200  * @fn      zclGp_HdlIncoming
//  201  *
//  202  * @brief   Callback from ZCL to process incoming Commands specific
//  203  *          to this cluster library or Profile commands for attributes
//  204  *          that aren't in the attribute list
//  205  *
//  206  *
//  207  * @param   pInMsg - pointer to the incoming message
//  208  *
//  209  * @return  ZStatus_t
//  210  */

        RSEG BANKED_CODE:HUGECODE:NOROOT(0)
//  211 static ZStatus_t zclGp_HdlIncoming( zclIncoming_t *pInMsg )
zclGp_HdlIncoming:
          CFI Block cfiBlock2 Using cfiCommon0
          CFI Function zclGp_HdlIncoming
        CODE
//  212 {
        FUNCALL zclGp_HdlIncoming, zclGp_ProcessInProxyBasic
        LOCFRAME ISTACK, 0, STACK
        LOCFRAME PSTACK, 0, STACK
        LOCFRAME XSTACK, 9, STACK
        LOCFRAME IOVERLAY, 0, STATIC
        LOCFRAME DOVERLAY, 0, STATIC
        ARGFRAME ISTACK, 0, STACK
        ARGFRAME PSTACK, 0, STACK
        ARGFRAME XSTACK, 9, STACK
        ARGFRAME IOVERLAY, 0, STATIC
        ARGFRAME DOVERLAY, 0, STATIC
        MOV       A,#-0x9
        LCALL     ?BANKED_ENTER_XDATA
          CFI DPH0 load(1, XDATA, add(CFA_XSP16, literal(-1)))
          CFI DPL0 load(1, XDATA, add(CFA_XSP16, literal(-2)))
          CFI ?BRET_EXT load(1, XDATA, add(CFA_XSP16, literal(-3)))
          CFI ?RET_HIGH load(1, XDATA, add(CFA_XSP16, literal(-4)))
          CFI ?RET_LOW load(1, XDATA, add(CFA_XSP16, literal(-5)))
          CFI R7 load(1, XDATA, add(CFA_XSP16, literal(-6)))
          CFI V0 load(1, XDATA, add(CFA_XSP16, literal(-7)))
          CFI VB load(1, XDATA, add(CFA_XSP16, literal(-8)))
          CFI R6 load(1, XDATA, add(CFA_XSP16, literal(-9)))
          CFI CFA_SP SP+0
          CFI CFA_XSP16 add(XSP16, 9)
        ; Saved register size: 9
        ; Auto size: 0
//  213   ZStatus_t stat = ZSuccess;
//  214 
//  215 #if defined ( INTER_PAN )
//  216   if ( StubAPS_InterPan( pInMsg->msg->srcAddr.panId, pInMsg->msg->srcAddr.endPoint ) )
//  217     return ( stat ); // Cluster not supported thru Inter-PAN
//  218 #endif
//  219   if ( zcl_ClusterCmd( pInMsg->hdr.fc.type ) )
        MOV       DPL,R2
        MOV       DPH,R3
        INC       DPTR
        INC       DPTR
        MOVX      A,@DPTR
        MOV       R0,A
        ANL       A,#0x3
        XRL       A,#0x1
        JNZ       ??zclGp_HdlIncoming_0
//  220   {
//  221     // Is this a manufacturer specific command?
//  222     if ( pInMsg->hdr.fc.manuSpecific == 0 )
        MOV       A,R0
        ANL       A,#0x4
        JNZ       ??zclGp_HdlIncoming_0
//  223     {
//  224       stat = zclGp_HdlInSpecificCommands( pInMsg );
        MOV       DPL,R2
        MOV       DPH,R3
        LCALL     ??Subroutine50_0 & 0xFFFF
//  225     }
//  226     else
//  227     {
//  228       // We don't support any manufacturer specific command.
//  229       stat = ZFailure;
//  230     }
//  231   }
??CrossCallReturnLabel_125:
        MOV       A,R0
        MOV       R6,A
        MOV       A,R1
        MOV       R7,A
        MOV       A,R0
        ADD       A,#0x14
        MOV       DPL,A
        CLR       A
        ADDC      A,R7
        MOV       DPH,A
        MOVX      A,@DPTR
        MOV       R4,A
        MOV       DPTR,#zclGpCBs
??zclGp_HdlIncoming_1:
        LCALL     ??Subroutine49_0 & 0xFFFF
??CrossCallReturnLabel_111:
        JZ        ??zclGp_HdlIncoming_0
        MOV       DPL,R0
        MOV       DPH,R1
        INC       DPTR
        INC       DPTR
        MOVX      A,@DPTR
        XRL       A,R4
        MOV       DPL,R0
        MOV       DPH,R1
        JNZ       ??zclGp_HdlIncoming_1
        LCALL     ?Subroutine18 & 0xFFFF
??CrossCallReturnLabel_57:
        MOV       A,R4
        ORL       A,R5
        JNZ       ??zclGp_HdlIncoming_2
??zclGp_HdlIncoming_0:
        MOV       R1,#0x1
        SJMP      ??zclGp_HdlIncoming_3
??zclGp_HdlIncoming_2:
        MOV       DPL,R6
        MOV       DPH,R7
        INC       DPTR
        INC       DPTR
        INC       DPTR
        INC       DPTR
        MOVX      A,@DPTR
        XRL       A,#0x21
        JNZ       ??zclGp_HdlIncoming_4
        INC       DPTR
        MOVX      A,@DPTR
??zclGp_HdlIncoming_4:
        JNZ       ??zclGp_HdlIncoming_5
        ; Setup parameters for call to function zclGp_ProcessInProxyBasic
        LCALL     `??zclGp_ProcessInProxyBasic::?relay`; Banked call to: zclGp_ProcessInProxyBasic
        MOV       A,R1
        SJMP      ??zclGp_HdlIncoming_6
??zclGp_HdlIncoming_5:
        MOV       A,#0x1
??zclGp_HdlIncoming_6:
        MOV       R1,A
//  232   else
//  233   {
//  234     // Handle all the normal (Read, Write...) commands -- should never get here
//  235     stat = ZFailure;
//  236   }
//  237   return ( stat );
??zclGp_HdlIncoming_3:
          CFI EndBlock cfiBlock2
        REQUIRE ?Subroutine1
        ; // Fall through to label ?Subroutine1
//  238 }

        RSEG BANKED_CODE:HUGECODE:NOROOT(0)
?Subroutine1:
          CFI Block cfiBlock3 Using cfiCommon0
          CFI NoFunction
          CFI CFA_SP SP+0
          CFI CFA_XSP16 add(XSP16, 9)
          CFI VB load(1, XDATA, add(CFA_XSP16, literal(-8)))
          CFI DPL0 load(1, XDATA, add(CFA_XSP16, literal(-2)))
          CFI DPH0 load(1, XDATA, add(CFA_XSP16, literal(-1)))
          CFI R6 load(1, XDATA, add(CFA_XSP16, literal(-9)))
          CFI R7 load(1, XDATA, add(CFA_XSP16, literal(-6)))
          CFI V0 load(1, XDATA, add(CFA_XSP16, literal(-7)))
          CFI ?BRET_EXT load(1, XDATA, add(CFA_XSP16, literal(-3)))
          CFI ?RET_HIGH load(1, XDATA, add(CFA_XSP16, literal(-4)))
          CFI ?RET_LOW load(1, XDATA, add(CFA_XSP16, literal(-5)))
        MOV       R7,#0x1
        LJMP      ?BANKED_LEAVE_XDATA
          CFI EndBlock cfiBlock3

        RSEG BANKED_CODE:HUGECODE:NOROOT(0)
?Subroutine18:
          CFI Block cfiCond4 Using cfiCommon0
          CFI Function zclGp_HdlIncoming
          CFI Conditional ??CrossCallReturnLabel_57
          CFI R6 load(1, XDATA, add(CFA_XSP16, literal(-9)))
          CFI VB load(1, XDATA, add(CFA_XSP16, literal(-8)))
          CFI V0 load(1, XDATA, add(CFA_XSP16, literal(-7)))
          CFI R7 load(1, XDATA, add(CFA_XSP16, literal(-6)))
          CFI ?RET_LOW load(1, XDATA, add(CFA_XSP16, literal(-5)))
          CFI ?RET_HIGH load(1, XDATA, add(CFA_XSP16, literal(-4)))
          CFI ?BRET_EXT load(1, XDATA, add(CFA_XSP16, literal(-3)))
          CFI DPL0 load(1, XDATA, add(CFA_XSP16, literal(-2)))
          CFI DPH0 load(1, XDATA, add(CFA_XSP16, literal(-1)))
          CFI CFA_SP SP+-2
          CFI CFA_XSP16 add(XSP16, 9)
          CFI Block cfiCond5 Using cfiCommon0
          CFI (cfiCond5) Function zclGp_ProcessInProxyBasic
          CFI (cfiCond5) Conditional ??CrossCallReturnLabel_58
          CFI (cfiCond5) R6 load(1, XDATA, add(CFA_XSP16, literal(-20)))
          CFI (cfiCond5) VB load(1, XDATA, add(CFA_XSP16, literal(-19)))
          CFI (cfiCond5) V0 load(1, XDATA, add(CFA_XSP16, literal(-18)))
          CFI (cfiCond5) V1 load(1, XDATA, add(CFA_XSP16, literal(-17)))
          CFI (cfiCond5) V2 load(1, XDATA, add(CFA_XSP16, literal(-16)))
          CFI (cfiCond5) V3 load(1, XDATA, add(CFA_XSP16, literal(-15)))
          CFI (cfiCond5) V4 load(1, XDATA, add(CFA_XSP16, literal(-14)))
          CFI (cfiCond5) V5 load(1, XDATA, add(CFA_XSP16, literal(-13)))
          CFI (cfiCond5) V6 load(1, XDATA, add(CFA_XSP16, literal(-12)))
          CFI (cfiCond5) V7 load(1, XDATA, add(CFA_XSP16, literal(-11)))
          CFI (cfiCond5) V8 load(1, XDATA, add(CFA_XSP16, literal(-10)))
          CFI (cfiCond5) V9 load(1, XDATA, add(CFA_XSP16, literal(-9)))
          CFI (cfiCond5) V10 load(1, XDATA, add(CFA_XSP16, literal(-8)))
          CFI (cfiCond5) V11 load(1, XDATA, add(CFA_XSP16, literal(-7)))
          CFI (cfiCond5) R7 load(1, XDATA, add(CFA_XSP16, literal(-6)))
          CFI (cfiCond5) ?RET_LOW load(1, XDATA, add(CFA_XSP16, literal(-5)))
          CFI (cfiCond5) ?RET_HIGH load(1, XDATA, add(CFA_XSP16, literal(-4)))
          CFI (cfiCond5) ?BRET_EXT load(1, XDATA, add(CFA_XSP16, literal(-3)))
          CFI (cfiCond5) DPL0 load(1, XDATA, add(CFA_XSP16, literal(-2)))
          CFI (cfiCond5) DPH0 load(1, XDATA, add(CFA_XSP16, literal(-1)))
          CFI (cfiCond5) CFA_SP SP+-2
          CFI (cfiCond5) CFA_XSP16 add(XSP16, 49)
          CFI Block cfiPicker6 Using cfiCommon1
          CFI (cfiPicker6) NoFunction
          CFI (cfiPicker6) Picker
        INC       DPTR
        INC       DPTR
        INC       DPTR
          CFI EndBlock cfiCond4
          CFI EndBlock cfiCond5
          CFI EndBlock cfiPicker6
        REQUIRE ??Subroutine37_0
        ; // Fall through to label ??Subroutine37_0

        RSEG BANKED_CODE:HUGECODE:NOROOT(0)
??Subroutine37_0:
          CFI Block cfiCond7 Using cfiCommon0
          CFI Function zclGp_SendGpProxyTableResponse
          CFI Conditional ??CrossCallReturnLabel_55
          CFI R6 load(1, XDATA, add(CFA_XSP16, literal(-22)))
          CFI VB load(1, XDATA, add(CFA_XSP16, literal(-21)))
          CFI V0 load(1, XDATA, add(CFA_XSP16, literal(-20)))
          CFI V1 load(1, XDATA, add(CFA_XSP16, literal(-19)))
          CFI V2 load(1, XDATA, add(CFA_XSP16, literal(-18)))
          CFI V3 load(1, XDATA, add(CFA_XSP16, literal(-17)))
          CFI V4 load(1, XDATA, add(CFA_XSP16, literal(-16)))
          CFI V5 load(1, XDATA, add(CFA_XSP16, literal(-15)))
          CFI V6 load(1, XDATA, add(CFA_XSP16, literal(-14)))
          CFI V7 load(1, XDATA, add(CFA_XSP16, literal(-13)))
          CFI V8 load(1, XDATA, add(CFA_XSP16, literal(-12)))
          CFI V9 load(1, XDATA, add(CFA_XSP16, literal(-11)))
          CFI V10 load(1, XDATA, add(CFA_XSP16, literal(-10)))
          CFI V11 load(1, XDATA, add(CFA_XSP16, literal(-9)))
          CFI V12 load(1, XDATA, add(CFA_XSP16, literal(-8)))
          CFI V13 load(1, XDATA, add(CFA_XSP16, literal(-7)))
          CFI R7 load(1, XDATA, add(CFA_XSP16, literal(-6)))
          CFI ?RET_LOW load(1, XDATA, add(CFA_XSP16, literal(-5)))
          CFI ?RET_HIGH load(1, XDATA, add(CFA_XSP16, literal(-4)))
          CFI ?BRET_EXT load(1, XDATA, add(CFA_XSP16, literal(-3)))
          CFI DPL0 load(1, XDATA, add(CFA_XSP16, literal(-2)))
          CFI DPH0 load(1, XDATA, add(CFA_XSP16, literal(-1)))
          CFI CFA_SP SP+-2
          CFI CFA_XSP16 add(XSP16, 27)
          CFI Block cfiCond8 Using cfiCommon0
          CFI (cfiCond8) Function gp_NotificationMsgClean
          CFI (cfiCond8) Conditional ??CrossCallReturnLabel_56
          CFI (cfiCond8) R6 load(1, XDATA, add(CFA_XSP16, literal(-12)))
          CFI (cfiCond8) VB load(1, XDATA, add(CFA_XSP16, literal(-11)))
          CFI (cfiCond8) V0 load(1, XDATA, add(CFA_XSP16, literal(-10)))
          CFI (cfiCond8) V1 load(1, XDATA, add(CFA_XSP16, literal(-9)))
          CFI (cfiCond8) V2 load(1, XDATA, add(CFA_XSP16, literal(-8)))
          CFI (cfiCond8) V3 load(1, XDATA, add(CFA_XSP16, literal(-7)))
          CFI (cfiCond8) R7 load(1, XDATA, add(CFA_XSP16, literal(-6)))
          CFI (cfiCond8) ?RET_LOW load(1, XDATA, add(CFA_XSP16, literal(-5)))
          CFI (cfiCond8) ?RET_HIGH load(1, XDATA, add(CFA_XSP16, literal(-4)))
          CFI (cfiCond8) ?BRET_EXT load(1, XDATA, add(CFA_XSP16, literal(-3)))
          CFI (cfiCond8) DPL0 load(1, XDATA, add(CFA_XSP16, literal(-2)))
          CFI (cfiCond8) DPH0 load(1, XDATA, add(CFA_XSP16, literal(-1)))
          CFI (cfiCond8) CFA_SP SP+-2
          CFI (cfiCond8) CFA_XSP16 add(XSP16, 12)
          CFI Block cfiCond9 Using cfiCommon0
          CFI (cfiCond9) Function zclGp_HdlIncoming
          CFI (cfiCond9) Conditional ??CrossCallReturnLabel_57
          CFI (cfiCond9) R6 load(1, XDATA, add(CFA_XSP16, literal(-9)))
          CFI (cfiCond9) VB load(1, XDATA, add(CFA_XSP16, literal(-8)))
          CFI (cfiCond9) V0 load(1, XDATA, add(CFA_XSP16, literal(-7)))
          CFI (cfiCond9) R7 load(1, XDATA, add(CFA_XSP16, literal(-6)))
          CFI (cfiCond9) ?RET_LOW load(1, XDATA, add(CFA_XSP16, literal(-5)))
          CFI (cfiCond9) ?RET_HIGH load(1, XDATA, add(CFA_XSP16, literal(-4)))
          CFI (cfiCond9) ?BRET_EXT load(1, XDATA, add(CFA_XSP16, literal(-3)))
          CFI (cfiCond9) DPL0 load(1, XDATA, add(CFA_XSP16, literal(-2)))
          CFI (cfiCond9) DPH0 load(1, XDATA, add(CFA_XSP16, literal(-1)))
          CFI (cfiCond9) CFA_SP SP+-2
          CFI (cfiCond9) CFA_XSP16 add(XSP16, 9)
          CFI Block cfiCond10 Using cfiCommon0
          CFI (cfiCond10) Function zclGp_ProcessInProxyBasic
          CFI (cfiCond10) Conditional ??CrossCallReturnLabel_58
          CFI (cfiCond10) R6 load(1, XDATA, add(CFA_XSP16, literal(-20)))
          CFI (cfiCond10) VB load(1, XDATA, add(CFA_XSP16, literal(-19)))
          CFI (cfiCond10) V0 load(1, XDATA, add(CFA_XSP16, literal(-18)))
          CFI (cfiCond10) V1 load(1, XDATA, add(CFA_XSP16, literal(-17)))
          CFI (cfiCond10) V2 load(1, XDATA, add(CFA_XSP16, literal(-16)))
          CFI (cfiCond10) V3 load(1, XDATA, add(CFA_XSP16, literal(-15)))
          CFI (cfiCond10) V4 load(1, XDATA, add(CFA_XSP16, literal(-14)))
          CFI (cfiCond10) V5 load(1, XDATA, add(CFA_XSP16, literal(-13)))
          CFI (cfiCond10) V6 load(1, XDATA, add(CFA_XSP16, literal(-12)))
          CFI (cfiCond10) V7 load(1, XDATA, add(CFA_XSP16, literal(-11)))
          CFI (cfiCond10) V8 load(1, XDATA, add(CFA_XSP16, literal(-10)))
          CFI (cfiCond10) V9 load(1, XDATA, add(CFA_XSP16, literal(-9)))
          CFI (cfiCond10) V10 load(1, XDATA, add(CFA_XSP16, literal(-8)))
          CFI (cfiCond10) V11 load(1, XDATA, add(CFA_XSP16, literal(-7)))
          CFI (cfiCond10) R7 load(1, XDATA, add(CFA_XSP16, literal(-6)))
          CFI (cfiCond10) ?RET_LOW load(1, XDATA, add(CFA_XSP16, literal(-5)))
          CFI (cfiCond10) ?RET_HIGH load(1, XDATA, add(CFA_XSP16, literal(-4)))
          CFI (cfiCond10) ?BRET_EXT load(1, XDATA, add(CFA_XSP16, literal(-3)))
          CFI (cfiCond10) DPL0 load(1, XDATA, add(CFA_XSP16, literal(-2)))
          CFI (cfiCond10) DPH0 load(1, XDATA, add(CFA_XSP16, literal(-1)))
          CFI (cfiCond10) CFA_SP SP+-2
          CFI (cfiCond10) CFA_XSP16 add(XSP16, 49)
          CFI Block cfiPicker11 Using cfiCommon1
          CFI (cfiPicker11) NoFunction
          CFI (cfiPicker11) Picker
        MOVX      A,@DPTR
        MOV       R4,A
        INC       DPTR
        MOVX      A,@DPTR
        MOV       R5,A
        RET
          CFI EndBlock cfiCond7
          CFI EndBlock cfiCond8
          CFI EndBlock cfiCond9
          CFI EndBlock cfiCond10
          CFI EndBlock cfiPicker11
//  239 
//  240 /*********************************************************************
//  241  * @fn      zclGp_HdlInSpecificCommands
//  242  *
//  243  * @brief   Callback from ZCL to process incoming Commands specific
//  244  *          to this cluster library
//  245 
//  246  * @param   pInMsg - pointer to the incoming message
//  247  *
//  248  * @return  ZStatus_t
//  249  */
//  250 static ZStatus_t zclGp_HdlInSpecificCommands( zclIncoming_t *pInMsg )
//  251 {
//  252   ZStatus_t stat;
//  253   zclGp_AppCallbacks_t *pCBs;
//  254 
//  255   // make sure endpoint exists
//  256   pCBs = zclGp_FindCallbacks( pInMsg->msg->endPoint );
//  257   if ( pCBs == NULL )
//  258     return ( ZFailure );
//  259 
//  260   switch ( pInMsg->msg->clusterId )
//  261   {
//  262     case ZCL_CLUSTER_ID_GREEN_POWER:
//  263       // Proxy Basic handler
//  264       stat = zclGp_ProcessInProxyBasic( pInMsg, pCBs );
//  265       break;
//  266 
//  267     default:
//  268       stat = ZFailure;
//  269       break;
//  270   }
//  271 
//  272   return ( stat );
//  273 }
//  274 
//  275 /*********************************************************************
//  276  * @fn      zclGp_ProcessInProxyBasic
//  277  *
//  278  * @brief   Process in the received client commands for the Proxy Basic.
//  279  *
//  280  * @param   pInMsg - pointer to the incoming message
//  281  *
//  282  * @return  ZStatus_t
//  283  */

        RSEG BANKED_CODE:HUGECODE:NOROOT(0)
//  284 static ZStatus_t zclGp_ProcessInProxyBasic( zclIncoming_t *pInMsg,
zclGp_ProcessInProxyBasic:
          CFI Block cfiBlock12 Using cfiCommon0
          CFI Function zclGp_ProcessInProxyBasic
        CODE
//  285                                           zclGp_AppCallbacks_t *pCBs )
//  286 {
        FUNCALL zclGp_ProcessInProxyBasic, zcl_SendDefaultRspCmd
        LOCFRAME ISTACK, 0, STACK
        LOCFRAME PSTACK, 0, STACK
        LOCFRAME XSTACK, 49, STACK
        LOCFRAME IOVERLAY, 0, STATIC
        LOCFRAME DOVERLAY, 0, STATIC
        ARGFRAME ISTACK, 0, STACK
        ARGFRAME PSTACK, 0, STACK
        ARGFRAME XSTACK, 49, STACK
        ARGFRAME IOVERLAY, 0, STATIC
        ARGFRAME DOVERLAY, 0, STATIC
        FUNCALL zclGp_ProcessInProxyBasic, osal_memcpy
        LOCFRAME ISTACK, 0, STACK
        LOCFRAME PSTACK, 0, STACK
        LOCFRAME XSTACK, 45, STACK
        LOCFRAME IOVERLAY, 0, STATIC
        LOCFRAME DOVERLAY, 0, STATIC
        ARGFRAME ISTACK, 0, STACK
        ARGFRAME PSTACK, 0, STACK
        ARGFRAME XSTACK, 45, STACK
        ARGFRAME IOVERLAY, 0, STATIC
        ARGFRAME DOVERLAY, 0, STATIC
        FUNCALL zclGp_ProcessInProxyBasic, osal_memcpy
        LOCFRAME ISTACK, 0, STACK
        LOCFRAME PSTACK, 0, STACK
        LOCFRAME XSTACK, 45, STACK
        LOCFRAME IOVERLAY, 0, STATIC
        LOCFRAME DOVERLAY, 0, STATIC
        ARGFRAME ISTACK, 0, STACK
        ARGFRAME PSTACK, 0, STACK
        ARGFRAME XSTACK, 45, STACK
        ARGFRAME IOVERLAY, 0, STATIC
        ARGFRAME DOVERLAY, 0, STATIC
        FUNCALL zclGp_ProcessInProxyBasic, osal_memcpy
        LOCFRAME ISTACK, 0, STACK
        LOCFRAME PSTACK, 0, STACK
        LOCFRAME XSTACK, 45, STACK
        LOCFRAME IOVERLAY, 0, STATIC
        LOCFRAME DOVERLAY, 0, STATIC
        ARGFRAME ISTACK, 0, STACK
        ARGFRAME PSTACK, 0, STACK
        ARGFRAME XSTACK, 45, STACK
        ARGFRAME IOVERLAY, 0, STATIC
        ARGFRAME DOVERLAY, 0, STATIC
        FUNCALL zclGp_ProcessInProxyBasic, osal_memcpy
        LOCFRAME ISTACK, 0, STACK
        LOCFRAME PSTACK, 0, STACK
        LOCFRAME XSTACK, 45, STACK
        LOCFRAME IOVERLAY, 0, STATIC
        LOCFRAME DOVERLAY, 0, STATIC
        ARGFRAME ISTACK, 0, STACK
        ARGFRAME PSTACK, 0, STACK
        ARGFRAME XSTACK, 45, STACK
        ARGFRAME IOVERLAY, 0, STATIC
        ARGFRAME DOVERLAY, 0, STATIC
        FUNCALL zclGp_ProcessInProxyBasic, osal_build_uint16
        LOCFRAME ISTACK, 0, STACK
        LOCFRAME PSTACK, 0, STACK
        LOCFRAME XSTACK, 42, STACK
        LOCFRAME IOVERLAY, 0, STATIC
        LOCFRAME DOVERLAY, 0, STATIC
        ARGFRAME ISTACK, 0, STACK
        ARGFRAME PSTACK, 0, STACK
        ARGFRAME XSTACK, 42, STACK
        ARGFRAME IOVERLAY, 0, STATIC
        ARGFRAME DOVERLAY, 0, STATIC
        FUNCALL zclGp_ProcessInProxyBasic, osal_memcpy
        LOCFRAME ISTACK, 0, STACK
        LOCFRAME PSTACK, 0, STACK
        LOCFRAME XSTACK, 45, STACK
        LOCFRAME IOVERLAY, 0, STATIC
        LOCFRAME DOVERLAY, 0, STATIC
        ARGFRAME ISTACK, 0, STACK
        ARGFRAME PSTACK, 0, STACK
        ARGFRAME XSTACK, 45, STACK
        ARGFRAME IOVERLAY, 0, STATIC
        ARGFRAME DOVERLAY, 0, STATIC
        REQUIRE ?V0
        REQUIRE ?V1
        REQUIRE ?V2
        REQUIRE ?V3
        REQUIRE ?V4
        REQUIRE ?V5
        REQUIRE ?V6
        REQUIRE ?V7
        REQUIRE ?V8
        REQUIRE ?V9
        REQUIRE ?V10
        REQUIRE ?V11
        MOV       A,#-0x14
        LCALL     ?BANKED_ENTER_XDATA
          CFI DPH0 load(1, XDATA, add(CFA_XSP16, literal(-1)))
          CFI DPL0 load(1, XDATA, add(CFA_XSP16, literal(-2)))
          CFI ?BRET_EXT load(1, XDATA, add(CFA_XSP16, literal(-3)))
          CFI ?RET_HIGH load(1, XDATA, add(CFA_XSP16, literal(-4)))
          CFI ?RET_LOW load(1, XDATA, add(CFA_XSP16, literal(-5)))
          CFI R7 load(1, XDATA, add(CFA_XSP16, literal(-6)))
          CFI V11 load(1, XDATA, add(CFA_XSP16, literal(-7)))
          CFI V10 load(1, XDATA, add(CFA_XSP16, literal(-8)))
          CFI V9 load(1, XDATA, add(CFA_XSP16, literal(-9)))
          CFI V8 load(1, XDATA, add(CFA_XSP16, literal(-10)))
          CFI V7 load(1, XDATA, add(CFA_XSP16, literal(-11)))
          CFI V6 load(1, XDATA, add(CFA_XSP16, literal(-12)))
          CFI V5 load(1, XDATA, add(CFA_XSP16, literal(-13)))
          CFI V4 load(1, XDATA, add(CFA_XSP16, literal(-14)))
          CFI V3 load(1, XDATA, add(CFA_XSP16, literal(-15)))
          CFI V2 load(1, XDATA, add(CFA_XSP16, literal(-16)))
          CFI V1 load(1, XDATA, add(CFA_XSP16, literal(-17)))
          CFI V0 load(1, XDATA, add(CFA_XSP16, literal(-18)))
          CFI VB load(1, XDATA, add(CFA_XSP16, literal(-19)))
          CFI R6 load(1, XDATA, add(CFA_XSP16, literal(-20)))
          CFI CFA_SP SP+0
          CFI CFA_XSP16 add(XSP16, 20)
        ; Saved register size: 20
        ; Auto size: 22
        MOV       A,#-0x16
        LCALL     ?ALLOC_XSTACK8
          CFI CFA_XSP16 add(XSP16, 42)
        MOV       A,R2
        MOV       R6,A
        MOV       A,R3
        MOV       R7,A
        MOV       ?V0,R4
        MOV       ?V1,R5
//  287   // Server side command handler
//  288   if ( zcl_ServerCmd( pInMsg->hdr.fc.direction ) )
        MOV       A,R2
        ADD       A,#0x6
        MOV       ?V2,A
        CLR       A
        ADDC      A,R7
        MOV       ?V3,A
        MOV       A,R2
        ADD       A,#0x7
        MOV       ?V6,A
        CLR       A
        ADDC      A,R7
        MOV       ?V7,A
        MOV       A,R2
        ADD       A,#0x2
        MOV       ?V4,A
        CLR       A
        ADDC      A,R7
        MOV       ?V5,A
        MOV       DPL,?V4
        MOV       DPH,A
        MOVX      A,@DPTR
        ANL       A,#0x8
        JNZ       ??zclGp_ProcessInProxyBasic_0
//  289   {
//  290     // Server side command handling is not supported
//  291     zclDefaultRspCmd_t defaultRspCmd;
//  292 
//  293     defaultRspCmd.commandID = pInMsg->hdr.commandID;
        MOV       DPL,?V6
        MOV       DPH,?V7
        MOVX      A,@DPTR
        PUSH      A
          CFI CFA_SP SP+-1
        MOV       A,#0x5
        LCALL     ?XSTACK_DISP0_8
        POP       A
          CFI CFA_SP SP+0
        MOVX      @DPTR,A
//  294     defaultRspCmd.statusCode = ZCL_STATUS_UNSUP_CLUSTER_COMMAND;
        MOV       A,#0x6
        LCALL     ?XSTACK_DISP0_8
        MOV       A,#-0x7f
        MOVX      @DPTR,A
//  295     zcl_SendDefaultRspCmd( pInMsg->msg->endPoint, &(pInMsg->msg->srcAddr),
//  296                            pInMsg->msg->clusterId, &defaultRspCmd,
//  297                            ZCL_FRAME_SERVER_CLIENT_DIR, true, 0, pInMsg->hdr.transSeqNum );
        MOV       DPL,R2
        MOV       DPH,R3
        MOVX      A,@DPTR
        MOV       ?V8,A
        INC       DPTR
        MOVX      A,@DPTR
        MOV       ?V9,A
        ; Setup parameters for call to function zcl_SendDefaultRspCmd
        MOV       DPL,?V2
        MOV       DPH,?V3
        MOVX      A,@DPTR
        MOV       ?V10,A
        MOV       R0,#?V10
        LCALL     ?PUSH_XSTACK_I_ONE
          CFI CFA_XSP16 add(XSP16, 43)
        CLR       A
        MOV       ?V10,A
        MOV       ?V11,A
        MOV       R0,#?V10
        LCALL     ?PUSH_XSTACK_I_TWO
          CFI CFA_XSP16 add(XSP16, 45)
        MOV       ?V10,#0x1
        MOV       R0,#?V10
        LCALL     ?PUSH_XSTACK_I_ONE
          CFI CFA_XSP16 add(XSP16, 46)
        MOV       R0,#?V10
        LCALL     ?PUSH_XSTACK_I_ONE
          CFI CFA_XSP16 add(XSP16, 47)
        MOV       A,#0xa
        LCALL     ?XSTACK_DISP100_8
        MOV       ?V10,R0
        MOV       ?V11,R1
        MOV       R0,#?V10
        LCALL     ?PUSH_XSTACK_I_TWO
          CFI CFA_XSP16 add(XSP16, 49)
        MOV       DPL,?V8
        MOV       DPH,?V9
        INC       DPTR
        LCALL     ?Subroutine18 & 0xFFFF
//  298   }
??CrossCallReturnLabel_58:
        MOV       A,?V8
        ADD       A,#0x6
        MOV       R2,A
        CLR       A
        ADDC      A,?V9
        MOV       R3,A
        MOV       A,?V8
        ADD       A,#0x14
        MOV       DPL,A
        CLR       A
        ADDC      A,?V9
        MOV       DPH,A
        MOVX      A,@DPTR
        MOV       R1,A
        LCALL     `??zcl_SendDefaultRspCmd::?relay`; Banked call to: zcl_SendDefaultRspCmd
        MOV       A,#0x7
        LCALL     ?DEALLOC_XSTACK8
          CFI CFA_XSP16 add(XSP16, 42)
//  299   // Client side command handler
//  300   if ( zcl_ClientCmd( pInMsg->hdr.fc.direction ) )
??zclGp_ProcessInProxyBasic_0:
        MOV       DPL,?V4
        MOV       DPH,?V5
        MOVX      A,@DPTR
        ANL       A,#0x8
        JNZ       $+5
        LJMP      ??zclGp_ProcessInProxyBasic_1 & 0xFFFF
//  301   {
//  302     switch ( pInMsg->hdr.commandID )
        MOV       A,R6
        ADD       A,#0x8
        MOV       ?V4,A
        CLR       A
        ADDC      A,R7
        MOV       ?V5,A
        MOV       DPL,?V6
        MOV       DPH,?V7
        MOVX      A,@DPTR
        DEC       A
        JZ        ??zclGp_ProcessInProxyBasic_2
        DEC       A
        JNZ       $+5
        LJMP      ??zclGp_ProcessInProxyBasic_3 & 0xFFFF
        ADD       A,#-0x4
        JNZ       $+5
        LJMP      ??zclGp_ProcessInProxyBasic_4 & 0xFFFF
        ADD       A,#-0x5
        JZ        ??zclGp_ProcessInProxyBasic_5
        LJMP      ??zclGp_ProcessInProxyBasic_1 & 0xFFFF
//  303     {
//  304       case COMMAND_GP_PAIRING:
//  305         if ( pCBs->pfnGpPairingCmd )
??zclGp_ProcessInProxyBasic_2:
        MOV       DPL,?V0
        MOV       DPH,?V1
        LCALL     ??Subroutine49_0 & 0xFFFF
??CrossCallReturnLabel_112:
        JNZ       $+5
        LJMP      ??zclGp_ProcessInProxyBasic_1 & 0xFFFF
//  306         {
//  307           zclGpPairing_t cmd;
//  308           
//  309           zcl_InSeqNum = pInMsg->hdr.transSeqNum;
        LCALL     ?Subroutine9 & 0xFFFF
//  310           
//  311           cmd.srcAddr = &(pInMsg->msg->srcAddr);
??CrossCallReturnLabel_2:
        MOV       A,#0xf
        LCALL     ?XSTACK_DISP0_8
        LCALL     ?Subroutine8 & 0xFFFF
//  312           osal_memcpy( cmd.options, (void*)pInMsg->pData, sizeof(cmd.options) );
??CrossCallReturnLabel_59:
        LCALL     ?PUSH_XSTACK_I_THREE
          CFI CFA_XSP16 add(XSP16, 45)
        MOV       R4,#0x3
        MOV       R5,#0x0
        MOV       A,#0x14
        LCALL     ?XSTACK_DISP0_8
        MOV       R2,DPL
        MOV       R3,DPH
        LCALL     ??Subroutine42_0 & 0xFFFF
??CrossCallReturnLabel_79:
        LCALL     ?DEALLOC_XSTACK8
          CFI CFA_XSP16 add(XSP16, 42)
//  313           pInMsg->pData += sizeof(cmd.options);  // Move data pointer after options field
        MOV       DPL,?V4
        MOV       DPH,?V5
        MOVX      A,@DPTR
        ADD       A,#0x3
        LCALL     ??Subroutine39_0 & 0xFFFF
//  314                     
//  315           if ( pInMsg->pData == NULL )
??CrossCallReturnLabel_65:
        JNZ       $+5
        LJMP      ??zclGp_ProcessInProxyBasic_6 & 0xFFFF
//  316           {
//  317             return ZFailure;
//  318           }
//  319           
//  320           cmd.pData = pInMsg->pData;
        MOV       A,#0x14
        LCALL     ?XSTACK_DISP0_8
        LCALL     ?Subroutine22 & 0xFFFF
//  321           pCBs->pfnGpPairingCmd( &cmd );
??CrossCallReturnLabel_19:
        ; Setup parameters for indirect call
        MOV       A,#0xf
        LJMP      ??zclGp_ProcessInProxyBasic_7 & 0xFFFF
//  322 
//  323         }
//  324         break;
//  325         
//  326       case COMMAND_GP_PROXY_TABLE_REQUEST:
//  327         if ( pCBs->pfnGpProxyTableReqCmd )
??zclGp_ProcessInProxyBasic_5:
        MOV       A,?V0
        ADD       A,#0x2
        MOV       ?V0,A
        JNC       ??zclGp_ProcessInProxyBasic_8
        INC       ?V1
??zclGp_ProcessInProxyBasic_8:
        MOV       DPL,A
        MOV       DPH,?V1
        LCALL     ??Subroutine49_0 & 0xFFFF
??CrossCallReturnLabel_113:
        JNZ       $+5
        LJMP      ??zclGp_ProcessInProxyBasic_1 & 0xFFFF
//  328         {
//  329           zclGpProxyTableRequest_t cmd;
//  330           
//  331           zcl_InSeqNum = pInMsg->hdr.transSeqNum;
        LCALL     ?Subroutine9 & 0xFFFF
//  332           
//  333           cmd.srcAddr = &(pInMsg->msg->srcAddr);
??CrossCallReturnLabel_3:
        MOV       DPL,?XSP + 0
        MOV       DPH,?XSP + 1
        LCALL     ?Subroutine8 & 0xFFFF
//  334           osal_memcpy( &cmd.options, (void*)pInMsg->pData, sizeof(cmd.options) );
??CrossCallReturnLabel_60:
        LCALL     ?PUSH_XSTACK_I_THREE
          CFI CFA_XSP16 add(XSP16, 45)
        MOV       R4,#0x1
        MOV       R5,#0x0
        MOV       A,#0x5
        LCALL     ?XSTACK_DISP0_8
        MOV       R2,DPL
        MOV       R3,DPH
        LCALL     ??Subroutine42_0 & 0xFFFF
??CrossCallReturnLabel_80:
        LCALL     ?DEALLOC_XSTACK8
          CFI CFA_XSP16 add(XSP16, 42)
//  335           pInMsg->pData += sizeof(cmd.options);  // Move data pointer after options field
        LCALL     ?Subroutine6 & 0xFFFF
//  336           
//  337           if ( pInMsg->pData == NULL )
??CrossCallReturnLabel_63:
        JNZ       $+5
        LJMP      ??zclGp_ProcessInProxyBasic_6 & 0xFFFF
//  338           {
//  339             return ZFailure;
//  340           }
//  341           
//  342           cmd.pData = (void*)pInMsg->pData;
        MOV       A,#0x3
        LCALL     ?XSTACK_DISP0_8
        SJMP      ??CrossCallReturnLabel_12
//  343           pCBs->pfnGpProxyTableReqCmd( &cmd );
//  344 
//  345         }
//  346         break;
//  347       case COMMAND_GP_PROXY_COMMISSIONING_MODE:
//  348         if(pCBs->pfnGpProxyCommissioningModeCmd)
??zclGp_ProcessInProxyBasic_3:
        MOV       A,?V0
        ADD       A,#0x4
        MOV       ?V0,A
        JNC       ??zclGp_ProcessInProxyBasic_9
        INC       ?V1
??zclGp_ProcessInProxyBasic_9:
        MOV       DPL,A
        MOV       DPH,?V1
        LCALL     ??Subroutine49_0 & 0xFFFF
??CrossCallReturnLabel_114:
        JNZ       $+5
        LJMP      ??zclGp_ProcessInProxyBasic_1 & 0xFFFF
//  349         {
//  350           zclGpProxyCommissioningMode_t cmd;
//  351 
//  352           osal_memcpy( &cmd.options, (void*)pInMsg->pData, sizeof(cmd.options) );
        ; Setup parameters for call to function osal_memcpy
        LCALL     ??Subroutine38_0 & 0xFFFF
??CrossCallReturnLabel_61:
        LCALL     ?PUSH_XSTACK_I_THREE
          CFI CFA_XSP16 add(XSP16, 45)
        MOV       R4,#0x1
        MOV       R5,#0x0
        MOV       A,#0x5
        LCALL     ?XSTACK_DISP0_8
        MOV       R2,DPL
        MOV       R3,DPH
        LCALL     ??Subroutine42_0 & 0xFFFF
??CrossCallReturnLabel_81:
        LCALL     ?DEALLOC_XSTACK8
          CFI CFA_XSP16 add(XSP16, 42)
//  353           pInMsg->pData += sizeof(cmd.options);  // Move data pointer after options field
        LCALL     ?Subroutine6 & 0xFFFF
//  354          
//  355           if ( pInMsg->pData == NULL )
??CrossCallReturnLabel_64:
        JNZ       $+5
        LJMP      ??zclGp_ProcessInProxyBasic_6 & 0xFFFF
//  356           {
//  357             return ZFailure;
//  358           }
//  359 
//  360           cmd.pData = (void*)pInMsg->pData;
        MOV       A,#0x3
        LCALL     ?XSTACK_DISP0_8
        LCALL     ?Subroutine22 & 0xFFFF
//  361 
//  362           if(pInMsg->msg->srcAddr.addrMode == afAddr16Bit)
??CrossCallReturnLabel_20:
        MOV       DPL,R6
        MOV       DPH,R7
        LCALL     ??Subroutine50_0 & 0xFFFF
??CrossCallReturnLabel_126:
        MOV       A,R0
        ADD       A,#0xe
        MOV       DPL,A
        CLR       A
        ADDC      A,R1
        MOV       DPH,A
        MOVX      A,@DPTR
        XRL       A,#0x2
        JNZ       ??CrossCallReturnLabel_21
//  363           {
//  364             cmd.srcAddr = pInMsg->msg->srcAddr.addr.shortAddr;
        MOV       DPL,R0
        MOV       DPH,R1
        INC       DPTR
        INC       DPTR
        INC       DPTR
        INC       DPTR
        INC       DPTR
        INC       DPTR
        LCALL     ?Subroutine16 & 0xFFFF
//  365           }
??CrossCallReturnLabel_12:
        LCALL     ?Subroutine22 & 0xFFFF
//  366           
//  367           pCBs->pfnGpProxyCommissioningModeCmd( &cmd );
??CrossCallReturnLabel_21:
        ; Setup parameters for indirect call
        MOV       R2,?XSP + 0
        MOV       R3,?XSP + 1
        LJMP      ??zclGp_ProcessInProxyBasic_10 & 0xFFFF
//  368         }
//  369         break;
//  370         case COMMAND_GP_RESPONSE:
//  371           
//  372           if(pCBs->pfnGpResponseCommand)
??zclGp_ProcessInProxyBasic_4:
        MOV       A,?V0
        ADD       A,#0x6
        MOV       ?V0,A
        JNC       ??zclGp_ProcessInProxyBasic_11
        INC       ?V1
??zclGp_ProcessInProxyBasic_11:
        MOV       DPL,A
        MOV       DPH,?V1
        LCALL     ??Subroutine49_0 & 0xFFFF
??CrossCallReturnLabel_115:
        JNZ       $+5
        LJMP      ??zclGp_ProcessInProxyBasic_1 & 0xFFFF
//  373           {
//  374             zclGpResponse_t cmd;
//  375 
//  376             osal_memcpy( &cmd.options, (void*)pInMsg->pData, sizeof(cmd.options) );
        ; Setup parameters for call to function osal_memcpy
        LCALL     ??Subroutine38_0 & 0xFFFF
??CrossCallReturnLabel_62:
        LCALL     ?PUSH_XSTACK_I_THREE
          CFI CFA_XSP16 add(XSP16, 45)
        MOV       R4,#0x1
        MOV       R5,#0x0
        MOV       A,#0xc
        LCALL     ?XSTACK_DISP0_8
        MOV       R2,DPL
        MOV       R3,DPH
        LCALL     ??Subroutine42_0 & 0xFFFF
??CrossCallReturnLabel_82:
        LCALL     ?DEALLOC_XSTACK8
          CFI CFA_XSP16 add(XSP16, 42)
//  377             pInMsg->pData += sizeof(cmd.options);  // Move data pointer after options field
        MOV       DPL,?V4
        MOV       DPH,?V5
        MOVX      A,@DPTR
        ADD       A,#0x1
        MOV       R2,A
        INC       DPTR
        MOVX      A,@DPTR
        ADDC      A,#0x0
        MOV       R3,A
        MOV       DPL,?V4
        MOV       DPH,?V5
        LCALL     ??Subroutine45_0 & 0xFFFF
//  378             
//  379             cmd.tempMasterShortAddr = osal_build_uint16(pInMsg->pData);
??CrossCallReturnLabel_98:
        ; Setup parameters for call to function osal_build_uint16
        LCALL     `??osal_build_uint16::?relay`; Banked call to: osal_build_uint16
        MOV       A,#0xa
        LCALL     ?XSTACK_DISP0_8
        LCALL     ??Subroutine45_0 & 0xFFFF
//  380             pInMsg->pData += sizeof(cmd.tempMasterShortAddr);  // Move data pointer after tempMaster field
??CrossCallReturnLabel_99:
        MOV       DPL,?V4
        MOV       DPH,?V5
        MOVX      A,@DPTR
        ADD       A,#0x2
        LCALL     ?Subroutine13 & 0xFFFF
//  381             
//  382             osal_memcpy( &cmd.tempMasterTxChannel, (void*)pInMsg->pData, sizeof(cmd.tempMasterTxChannel) );
??CrossCallReturnLabel_8:
        ; Setup parameters for call to function osal_memcpy
        MOV       ?V8,R0
        MOV       ?V9,R1
        MOV       R0,#?V8
        LCALL     ?PUSH_XSTACK_I_THREE
          CFI CFA_XSP16 add(XSP16, 45)
        MOV       R4,#0x1
        MOV       R5,#0x0
        MOV       A,#0xf
        LCALL     ?XSTACK_DISP0_8
        MOV       R2,DPL
        MOV       R3,DPH
        LCALL     ??Subroutine42_0 & 0xFFFF
??CrossCallReturnLabel_83:
        LCALL     ?DEALLOC_XSTACK8
          CFI CFA_XSP16 add(XSP16, 42)
//  383             pInMsg->pData += sizeof(cmd.tempMasterTxChannel);  // Move data pointer after options field
        MOV       DPL,?V4
        MOV       DPH,?V5
        MOVX      A,@DPTR
        ADD       A,#0x1
        LCALL     ?Subroutine13 & 0xFFFF
//  384             
//  385             cmd.dstAddr = pInMsg->msg->macDestAddr;  
??CrossCallReturnLabel_9:
        MOV       DPL,R6
        MOV       DPH,R7
        MOVX      A,@DPTR
        MOV       R2,A
        INC       DPTR
        MOVX      A,@DPTR
        XCH       A,R2
        ADD       A,#0x12
        MOV       DPL,A
        CLR       A
        ADDC      A,R2
        MOV       DPH,A
        LCALL     ??Subroutine51_0 & 0xFFFF
??CrossCallReturnLabel_128:
        MOV       A,#0x7
        LCALL     ?XSTACK_DISP0_8
        LCALL     ??Subroutine45_0 & 0xFFFF
//  386             
//  387             if ( pInMsg->pData == NULL )
??CrossCallReturnLabel_100:
        MOV       A,R0
        ORL       A,R1
        JNZ       ??zclGp_ProcessInProxyBasic_12
//  388             {
//  389               return ZFailure;
??zclGp_ProcessInProxyBasic_6:
        MOV       R1,#0x1
        SJMP      ??zclGp_ProcessInProxyBasic_13
//  390             }
//  391             cmd.pData = (void*)pInMsg->pData;
??zclGp_ProcessInProxyBasic_12:
        MOV       A,#0xd
        LCALL     ?XSTACK_DISP0_8
        LCALL     ?Subroutine22 & 0xFFFF
//  392 
//  393             pCBs->pfnGpResponseCommand( &cmd ); 
??CrossCallReturnLabel_22:
        ; Setup parameters for indirect call
        MOV       A,#0x7
??zclGp_ProcessInProxyBasic_7:
        LCALL     ?XSTACK_DISP101_8
??zclGp_ProcessInProxyBasic_10:
        MOV       DPL,?V0
        MOV       DPH,?V1
//  394           }
//  395         break;
//  396     }
//  397   }
        LCALL     ?Subroutine34 & 0xFFFF
??CrossCallReturnLabel_46:
        LCALL     ?CALL_IND
//  398 
//  399   return ( ZSuccess );
??zclGp_ProcessInProxyBasic_1:
        MOV       R1,#0x0
??zclGp_ProcessInProxyBasic_13:
        MOV       A,#0x16
          CFI EndBlock cfiBlock12
        REQUIRE ?Subroutine2
        ; // Fall through to label ?Subroutine2
//  400 }

        RSEG BANKED_CODE:HUGECODE:NOROOT(0)
?Subroutine2:
          CFI Block cfiBlock13 Using cfiCommon0
          CFI NoFunction
          CFI CFA_SP SP+0
          CFI CFA_XSP16 add(XSP16, 42)
          CFI VB load(1, XDATA, add(CFA_XSP16, literal(-19)))
          CFI DPL0 load(1, XDATA, add(CFA_XSP16, literal(-2)))
          CFI DPH0 load(1, XDATA, add(CFA_XSP16, literal(-1)))
          CFI R6 load(1, XDATA, add(CFA_XSP16, literal(-20)))
          CFI R7 load(1, XDATA, add(CFA_XSP16, literal(-6)))
          CFI V0 load(1, XDATA, add(CFA_XSP16, literal(-18)))
          CFI V1 load(1, XDATA, add(CFA_XSP16, literal(-17)))
          CFI V2 load(1, XDATA, add(CFA_XSP16, literal(-16)))
          CFI V3 load(1, XDATA, add(CFA_XSP16, literal(-15)))
          CFI V4 load(1, XDATA, add(CFA_XSP16, literal(-14)))
          CFI V5 load(1, XDATA, add(CFA_XSP16, literal(-13)))
          CFI V6 load(1, XDATA, add(CFA_XSP16, literal(-12)))
          CFI V7 load(1, XDATA, add(CFA_XSP16, literal(-11)))
          CFI V8 load(1, XDATA, add(CFA_XSP16, literal(-10)))
          CFI V9 load(1, XDATA, add(CFA_XSP16, literal(-9)))
          CFI V10 load(1, XDATA, add(CFA_XSP16, literal(-8)))
          CFI V11 load(1, XDATA, add(CFA_XSP16, literal(-7)))
          CFI ?BRET_EXT load(1, XDATA, add(CFA_XSP16, literal(-3)))
          CFI ?RET_HIGH load(1, XDATA, add(CFA_XSP16, literal(-4)))
          CFI ?RET_LOW load(1, XDATA, add(CFA_XSP16, literal(-5)))
          CFI Invalid
        LCALL     ?DEALLOC_XSTACK8
          CFI CFA_XSP16 add(XSP16, 20)
          CFI Valid
        MOV       R7,#0xc
        LJMP      ?BANKED_LEAVE_XDATA
          CFI EndBlock cfiBlock13

        RSEG BANKED_CODE:HUGECODE:NOROOT(0)
?Subroutine13:
          CFI Block cfiCond14 Using cfiCommon0
          CFI Function zclGp_ProcessInProxyBasic
          CFI Conditional ??CrossCallReturnLabel_8
          CFI R6 load(1, XDATA, add(CFA_XSP16, literal(-20)))
          CFI VB load(1, XDATA, add(CFA_XSP16, literal(-19)))
          CFI V0 load(1, XDATA, add(CFA_XSP16, literal(-18)))
          CFI V1 load(1, XDATA, add(CFA_XSP16, literal(-17)))
          CFI V2 load(1, XDATA, add(CFA_XSP16, literal(-16)))
          CFI V3 load(1, XDATA, add(CFA_XSP16, literal(-15)))
          CFI V4 load(1, XDATA, add(CFA_XSP16, literal(-14)))
          CFI V5 load(1, XDATA, add(CFA_XSP16, literal(-13)))
          CFI V6 load(1, XDATA, add(CFA_XSP16, literal(-12)))
          CFI V7 load(1, XDATA, add(CFA_XSP16, literal(-11)))
          CFI V8 load(1, XDATA, add(CFA_XSP16, literal(-10)))
          CFI V9 load(1, XDATA, add(CFA_XSP16, literal(-9)))
          CFI V10 load(1, XDATA, add(CFA_XSP16, literal(-8)))
          CFI V11 load(1, XDATA, add(CFA_XSP16, literal(-7)))
          CFI R7 load(1, XDATA, add(CFA_XSP16, literal(-6)))
          CFI ?RET_LOW load(1, XDATA, add(CFA_XSP16, literal(-5)))
          CFI ?RET_HIGH load(1, XDATA, add(CFA_XSP16, literal(-4)))
          CFI ?BRET_EXT load(1, XDATA, add(CFA_XSP16, literal(-3)))
          CFI DPL0 load(1, XDATA, add(CFA_XSP16, literal(-2)))
          CFI DPH0 load(1, XDATA, add(CFA_XSP16, literal(-1)))
          CFI CFA_SP SP+-2
          CFI CFA_XSP16 add(XSP16, 42)
          CFI Block cfiCond15 Using cfiCommon0
          CFI (cfiCond15) Function zclGp_ProcessInProxyBasic
          CFI (cfiCond15) Conditional ??CrossCallReturnLabel_9
          CFI (cfiCond15) R6 load(1, XDATA, add(CFA_XSP16, literal(-20)))
          CFI (cfiCond15) VB load(1, XDATA, add(CFA_XSP16, literal(-19)))
          CFI (cfiCond15) V0 load(1, XDATA, add(CFA_XSP16, literal(-18)))
          CFI (cfiCond15) V1 load(1, XDATA, add(CFA_XSP16, literal(-17)))
          CFI (cfiCond15) V2 load(1, XDATA, add(CFA_XSP16, literal(-16)))
          CFI (cfiCond15) V3 load(1, XDATA, add(CFA_XSP16, literal(-15)))
          CFI (cfiCond15) V4 load(1, XDATA, add(CFA_XSP16, literal(-14)))
          CFI (cfiCond15) V5 load(1, XDATA, add(CFA_XSP16, literal(-13)))
          CFI (cfiCond15) V6 load(1, XDATA, add(CFA_XSP16, literal(-12)))
          CFI (cfiCond15) V7 load(1, XDATA, add(CFA_XSP16, literal(-11)))
          CFI (cfiCond15) V8 load(1, XDATA, add(CFA_XSP16, literal(-10)))
          CFI (cfiCond15) V9 load(1, XDATA, add(CFA_XSP16, literal(-9)))
          CFI (cfiCond15) V10 load(1, XDATA, add(CFA_XSP16, literal(-8)))
          CFI (cfiCond15) V11 load(1, XDATA, add(CFA_XSP16, literal(-7)))
          CFI (cfiCond15) R7 load(1, XDATA, add(CFA_XSP16, literal(-6)))
          CFI (cfiCond15) ?RET_LOW load(1, XDATA, add(CFA_XSP16, literal(-5)))
          CFI (cfiCond15) ?RET_HIGH load(1, XDATA, add(CFA_XSP16, literal(-4)))
          CFI (cfiCond15) ?BRET_EXT load(1, XDATA, add(CFA_XSP16, literal(-3)))
          CFI (cfiCond15) DPL0 load(1, XDATA, add(CFA_XSP16, literal(-2)))
          CFI (cfiCond15) DPH0 load(1, XDATA, add(CFA_XSP16, literal(-1)))
          CFI (cfiCond15) CFA_SP SP+-2
          CFI (cfiCond15) CFA_XSP16 add(XSP16, 42)
          CFI Block cfiPicker16 Using cfiCommon1
          CFI (cfiPicker16) NoFunction
          CFI (cfiPicker16) Picker
        LCALL     ?Subroutine32 & 0xFFFF
??CrossCallReturnLabel_66:
        RET
          CFI EndBlock cfiCond14
          CFI EndBlock cfiCond15
          CFI EndBlock cfiPicker16

        RSEG BANKED_CODE:HUGECODE:NOROOT(0)
?Subroutine32:
          CFI Block cfiCond17 Using cfiCommon0
          CFI Function zclGp_ProcessInProxyBasic
          CFI Conditional ??CrossCallReturnLabel_66, ??CrossCallReturnLabel_8
          CFI R6 load(1, XDATA, add(CFA_XSP16, literal(-20)))
          CFI VB load(1, XDATA, add(CFA_XSP16, literal(-19)))
          CFI V0 load(1, XDATA, add(CFA_XSP16, literal(-18)))
          CFI V1 load(1, XDATA, add(CFA_XSP16, literal(-17)))
          CFI V2 load(1, XDATA, add(CFA_XSP16, literal(-16)))
          CFI V3 load(1, XDATA, add(CFA_XSP16, literal(-15)))
          CFI V4 load(1, XDATA, add(CFA_XSP16, literal(-14)))
          CFI V5 load(1, XDATA, add(CFA_XSP16, literal(-13)))
          CFI V6 load(1, XDATA, add(CFA_XSP16, literal(-12)))
          CFI V7 load(1, XDATA, add(CFA_XSP16, literal(-11)))
          CFI V8 load(1, XDATA, add(CFA_XSP16, literal(-10)))
          CFI V9 load(1, XDATA, add(CFA_XSP16, literal(-9)))
          CFI V10 load(1, XDATA, add(CFA_XSP16, literal(-8)))
          CFI V11 load(1, XDATA, add(CFA_XSP16, literal(-7)))
          CFI R7 load(1, XDATA, add(CFA_XSP16, literal(-6)))
          CFI ?RET_LOW load(1, XDATA, add(CFA_XSP16, literal(-5)))
          CFI ?RET_HIGH load(1, XDATA, add(CFA_XSP16, literal(-4)))
          CFI ?BRET_EXT load(1, XDATA, add(CFA_XSP16, literal(-3)))
          CFI DPL0 load(1, XDATA, add(CFA_XSP16, literal(-2)))
          CFI DPH0 load(1, XDATA, add(CFA_XSP16, literal(-1)))
          CFI CFA_SP SP+-4
          CFI CFA_XSP16 add(XSP16, 42)
          CFI Block cfiCond18 Using cfiCommon0
          CFI (cfiCond18) Function zclGp_ProcessInProxyBasic
          CFI (cfiCond18) Conditional ??CrossCallReturnLabel_66, ??CrossCallReturnLabel_9
          CFI (cfiCond18) R6 load(1, XDATA, add(CFA_XSP16, literal(-20)))
          CFI (cfiCond18) VB load(1, XDATA, add(CFA_XSP16, literal(-19)))
          CFI (cfiCond18) V0 load(1, XDATA, add(CFA_XSP16, literal(-18)))
          CFI (cfiCond18) V1 load(1, XDATA, add(CFA_XSP16, literal(-17)))
          CFI (cfiCond18) V2 load(1, XDATA, add(CFA_XSP16, literal(-16)))
          CFI (cfiCond18) V3 load(1, XDATA, add(CFA_XSP16, literal(-15)))
          CFI (cfiCond18) V4 load(1, XDATA, add(CFA_XSP16, literal(-14)))
          CFI (cfiCond18) V5 load(1, XDATA, add(CFA_XSP16, literal(-13)))
          CFI (cfiCond18) V6 load(1, XDATA, add(CFA_XSP16, literal(-12)))
          CFI (cfiCond18) V7 load(1, XDATA, add(CFA_XSP16, literal(-11)))
          CFI (cfiCond18) V8 load(1, XDATA, add(CFA_XSP16, literal(-10)))
          CFI (cfiCond18) V9 load(1, XDATA, add(CFA_XSP16, literal(-9)))
          CFI (cfiCond18) V10 load(1, XDATA, add(CFA_XSP16, literal(-8)))
          CFI (cfiCond18) V11 load(1, XDATA, add(CFA_XSP16, literal(-7)))
          CFI (cfiCond18) R7 load(1, XDATA, add(CFA_XSP16, literal(-6)))
          CFI (cfiCond18) ?RET_LOW load(1, XDATA, add(CFA_XSP16, literal(-5)))
          CFI (cfiCond18) ?RET_HIGH load(1, XDATA, add(CFA_XSP16, literal(-4)))
          CFI (cfiCond18) ?BRET_EXT load(1, XDATA, add(CFA_XSP16, literal(-3)))
          CFI (cfiCond18) DPL0 load(1, XDATA, add(CFA_XSP16, literal(-2)))
          CFI (cfiCond18) DPH0 load(1, XDATA, add(CFA_XSP16, literal(-1)))
          CFI (cfiCond18) CFA_SP SP+-4
          CFI (cfiCond18) CFA_XSP16 add(XSP16, 42)
          CFI Block cfiCond19 Using cfiCommon0
          CFI (cfiCond19) Function zclGp_ProcessInProxyBasic
          CFI (cfiCond19) Conditional ??CrossCallReturnLabel_67, ??CrossCallReturnLabel_63
          CFI (cfiCond19) R6 load(1, XDATA, add(CFA_XSP16, literal(-20)))
          CFI (cfiCond19) VB load(1, XDATA, add(CFA_XSP16, literal(-19)))
          CFI (cfiCond19) V0 load(1, XDATA, add(CFA_XSP16, literal(-18)))
          CFI (cfiCond19) V1 load(1, XDATA, add(CFA_XSP16, literal(-17)))
          CFI (cfiCond19) V2 load(1, XDATA, add(CFA_XSP16, literal(-16)))
          CFI (cfiCond19) V3 load(1, XDATA, add(CFA_XSP16, literal(-15)))
          CFI (cfiCond19) V4 load(1, XDATA, add(CFA_XSP16, literal(-14)))
          CFI (cfiCond19) V5 load(1, XDATA, add(CFA_XSP16, literal(-13)))
          CFI (cfiCond19) V6 load(1, XDATA, add(CFA_XSP16, literal(-12)))
          CFI (cfiCond19) V7 load(1, XDATA, add(CFA_XSP16, literal(-11)))
          CFI (cfiCond19) V8 load(1, XDATA, add(CFA_XSP16, literal(-10)))
          CFI (cfiCond19) V9 load(1, XDATA, add(CFA_XSP16, literal(-9)))
          CFI (cfiCond19) V10 load(1, XDATA, add(CFA_XSP16, literal(-8)))
          CFI (cfiCond19) V11 load(1, XDATA, add(CFA_XSP16, literal(-7)))
          CFI (cfiCond19) R7 load(1, XDATA, add(CFA_XSP16, literal(-6)))
          CFI (cfiCond19) ?RET_LOW load(1, XDATA, add(CFA_XSP16, literal(-5)))
          CFI (cfiCond19) ?RET_HIGH load(1, XDATA, add(CFA_XSP16, literal(-4)))
          CFI (cfiCond19) ?BRET_EXT load(1, XDATA, add(CFA_XSP16, literal(-3)))
          CFI (cfiCond19) DPL0 load(1, XDATA, add(CFA_XSP16, literal(-2)))
          CFI (cfiCond19) DPH0 load(1, XDATA, add(CFA_XSP16, literal(-1)))
          CFI (cfiCond19) CFA_SP SP+-4
          CFI (cfiCond19) CFA_XSP16 add(XSP16, 42)
          CFI Block cfiCond20 Using cfiCommon0
          CFI (cfiCond20) Function zclGp_ProcessInProxyBasic
          CFI (cfiCond20) Conditional ??CrossCallReturnLabel_67, ??CrossCallReturnLabel_64
          CFI (cfiCond20) R6 load(1, XDATA, add(CFA_XSP16, literal(-20)))
          CFI (cfiCond20) VB load(1, XDATA, add(CFA_XSP16, literal(-19)))
          CFI (cfiCond20) V0 load(1, XDATA, add(CFA_XSP16, literal(-18)))
          CFI (cfiCond20) V1 load(1, XDATA, add(CFA_XSP16, literal(-17)))
          CFI (cfiCond20) V2 load(1, XDATA, add(CFA_XSP16, literal(-16)))
          CFI (cfiCond20) V3 load(1, XDATA, add(CFA_XSP16, literal(-15)))
          CFI (cfiCond20) V4 load(1, XDATA, add(CFA_XSP16, literal(-14)))
          CFI (cfiCond20) V5 load(1, XDATA, add(CFA_XSP16, literal(-13)))
          CFI (cfiCond20) V6 load(1, XDATA, add(CFA_XSP16, literal(-12)))
          CFI (cfiCond20) V7 load(1, XDATA, add(CFA_XSP16, literal(-11)))
          CFI (cfiCond20) V8 load(1, XDATA, add(CFA_XSP16, literal(-10)))
          CFI (cfiCond20) V9 load(1, XDATA, add(CFA_XSP16, literal(-9)))
          CFI (cfiCond20) V10 load(1, XDATA, add(CFA_XSP16, literal(-8)))
          CFI (cfiCond20) V11 load(1, XDATA, add(CFA_XSP16, literal(-7)))
          CFI (cfiCond20) R7 load(1, XDATA, add(CFA_XSP16, literal(-6)))
          CFI (cfiCond20) ?RET_LOW load(1, XDATA, add(CFA_XSP16, literal(-5)))
          CFI (cfiCond20) ?RET_HIGH load(1, XDATA, add(CFA_XSP16, literal(-4)))
          CFI (cfiCond20) ?BRET_EXT load(1, XDATA, add(CFA_XSP16, literal(-3)))
          CFI (cfiCond20) DPL0 load(1, XDATA, add(CFA_XSP16, literal(-2)))
          CFI (cfiCond20) DPH0 load(1, XDATA, add(CFA_XSP16, literal(-1)))
          CFI (cfiCond20) CFA_SP SP+-4
          CFI (cfiCond20) CFA_XSP16 add(XSP16, 42)
          CFI Block cfiCond21 Using cfiCommon0
          CFI (cfiCond21) Function zclGp_ProcessInProxyBasic
          CFI (cfiCond21) Conditional ??CrossCallReturnLabel_67, ??CrossCallReturnLabel_65
          CFI (cfiCond21) R6 load(1, XDATA, add(CFA_XSP16, literal(-20)))
          CFI (cfiCond21) VB load(1, XDATA, add(CFA_XSP16, literal(-19)))
          CFI (cfiCond21) V0 load(1, XDATA, add(CFA_XSP16, literal(-18)))
          CFI (cfiCond21) V1 load(1, XDATA, add(CFA_XSP16, literal(-17)))
          CFI (cfiCond21) V2 load(1, XDATA, add(CFA_XSP16, literal(-16)))
          CFI (cfiCond21) V3 load(1, XDATA, add(CFA_XSP16, literal(-15)))
          CFI (cfiCond21) V4 load(1, XDATA, add(CFA_XSP16, literal(-14)))
          CFI (cfiCond21) V5 load(1, XDATA, add(CFA_XSP16, literal(-13)))
          CFI (cfiCond21) V6 load(1, XDATA, add(CFA_XSP16, literal(-12)))
          CFI (cfiCond21) V7 load(1, XDATA, add(CFA_XSP16, literal(-11)))
          CFI (cfiCond21) V8 load(1, XDATA, add(CFA_XSP16, literal(-10)))
          CFI (cfiCond21) V9 load(1, XDATA, add(CFA_XSP16, literal(-9)))
          CFI (cfiCond21) V10 load(1, XDATA, add(CFA_XSP16, literal(-8)))
          CFI (cfiCond21) V11 load(1, XDATA, add(CFA_XSP16, literal(-7)))
          CFI (cfiCond21) R7 load(1, XDATA, add(CFA_XSP16, literal(-6)))
          CFI (cfiCond21) ?RET_LOW load(1, XDATA, add(CFA_XSP16, literal(-5)))
          CFI (cfiCond21) ?RET_HIGH load(1, XDATA, add(CFA_XSP16, literal(-4)))
          CFI (cfiCond21) ?BRET_EXT load(1, XDATA, add(CFA_XSP16, literal(-3)))
          CFI (cfiCond21) DPL0 load(1, XDATA, add(CFA_XSP16, literal(-2)))
          CFI (cfiCond21) DPH0 load(1, XDATA, add(CFA_XSP16, literal(-1)))
          CFI (cfiCond21) CFA_SP SP+-4
          CFI (cfiCond21) CFA_XSP16 add(XSP16, 42)
          CFI Block cfiPicker22 Using cfiCommon1
          CFI (cfiPicker22) NoFunction
          CFI (cfiPicker22) Picker
        MOV       R0,A
        INC       DPTR
        MOVX      A,@DPTR
        ADDC      A,#0x0
        MOV       R1,A
        MOV       DPL,?V4
        MOV       DPH,?V5
        MOV       A,R0
        MOVX      @DPTR,A
        INC       DPTR
        MOV       A,R1
        MOVX      @DPTR,A
        RET
          CFI EndBlock cfiCond17
          CFI EndBlock cfiCond18
          CFI EndBlock cfiCond19
          CFI EndBlock cfiCond20
          CFI EndBlock cfiCond21
          CFI EndBlock cfiPicker22

        RSEG BANKED_CODE:HUGECODE:NOROOT(0)
?Subroutine9:
          CFI Block cfiCond23 Using cfiCommon0
          CFI Function zclGp_ProcessInProxyBasic
          CFI Conditional ??CrossCallReturnLabel_2
          CFI R6 load(1, XDATA, add(CFA_XSP16, literal(-20)))
          CFI VB load(1, XDATA, add(CFA_XSP16, literal(-19)))
          CFI V0 load(1, XDATA, add(CFA_XSP16, literal(-18)))
          CFI V1 load(1, XDATA, add(CFA_XSP16, literal(-17)))
          CFI V2 load(1, XDATA, add(CFA_XSP16, literal(-16)))
          CFI V3 load(1, XDATA, add(CFA_XSP16, literal(-15)))
          CFI V4 load(1, XDATA, add(CFA_XSP16, literal(-14)))
          CFI V5 load(1, XDATA, add(CFA_XSP16, literal(-13)))
          CFI V6 load(1, XDATA, add(CFA_XSP16, literal(-12)))
          CFI V7 load(1, XDATA, add(CFA_XSP16, literal(-11)))
          CFI V8 load(1, XDATA, add(CFA_XSP16, literal(-10)))
          CFI V9 load(1, XDATA, add(CFA_XSP16, literal(-9)))
          CFI V10 load(1, XDATA, add(CFA_XSP16, literal(-8)))
          CFI V11 load(1, XDATA, add(CFA_XSP16, literal(-7)))
          CFI R7 load(1, XDATA, add(CFA_XSP16, literal(-6)))
          CFI ?RET_LOW load(1, XDATA, add(CFA_XSP16, literal(-5)))
          CFI ?RET_HIGH load(1, XDATA, add(CFA_XSP16, literal(-4)))
          CFI ?BRET_EXT load(1, XDATA, add(CFA_XSP16, literal(-3)))
          CFI DPL0 load(1, XDATA, add(CFA_XSP16, literal(-2)))
          CFI DPH0 load(1, XDATA, add(CFA_XSP16, literal(-1)))
          CFI CFA_SP SP+-2
          CFI CFA_XSP16 add(XSP16, 42)
          CFI Block cfiCond24 Using cfiCommon0
          CFI (cfiCond24) Function zclGp_ProcessInProxyBasic
          CFI (cfiCond24) Conditional ??CrossCallReturnLabel_3
          CFI (cfiCond24) R6 load(1, XDATA, add(CFA_XSP16, literal(-20)))
          CFI (cfiCond24) VB load(1, XDATA, add(CFA_XSP16, literal(-19)))
          CFI (cfiCond24) V0 load(1, XDATA, add(CFA_XSP16, literal(-18)))
          CFI (cfiCond24) V1 load(1, XDATA, add(CFA_XSP16, literal(-17)))
          CFI (cfiCond24) V2 load(1, XDATA, add(CFA_XSP16, literal(-16)))
          CFI (cfiCond24) V3 load(1, XDATA, add(CFA_XSP16, literal(-15)))
          CFI (cfiCond24) V4 load(1, XDATA, add(CFA_XSP16, literal(-14)))
          CFI (cfiCond24) V5 load(1, XDATA, add(CFA_XSP16, literal(-13)))
          CFI (cfiCond24) V6 load(1, XDATA, add(CFA_XSP16, literal(-12)))
          CFI (cfiCond24) V7 load(1, XDATA, add(CFA_XSP16, literal(-11)))
          CFI (cfiCond24) V8 load(1, XDATA, add(CFA_XSP16, literal(-10)))
          CFI (cfiCond24) V9 load(1, XDATA, add(CFA_XSP16, literal(-9)))
          CFI (cfiCond24) V10 load(1, XDATA, add(CFA_XSP16, literal(-8)))
          CFI (cfiCond24) V11 load(1, XDATA, add(CFA_XSP16, literal(-7)))
          CFI (cfiCond24) R7 load(1, XDATA, add(CFA_XSP16, literal(-6)))
          CFI (cfiCond24) ?RET_LOW load(1, XDATA, add(CFA_XSP16, literal(-5)))
          CFI (cfiCond24) ?RET_HIGH load(1, XDATA, add(CFA_XSP16, literal(-4)))
          CFI (cfiCond24) ?BRET_EXT load(1, XDATA, add(CFA_XSP16, literal(-3)))
          CFI (cfiCond24) DPL0 load(1, XDATA, add(CFA_XSP16, literal(-2)))
          CFI (cfiCond24) DPH0 load(1, XDATA, add(CFA_XSP16, literal(-1)))
          CFI (cfiCond24) CFA_SP SP+-2
          CFI (cfiCond24) CFA_XSP16 add(XSP16, 42)
          CFI Block cfiPicker25 Using cfiCommon1
          CFI (cfiPicker25) NoFunction
          CFI (cfiPicker25) Picker
        MOV       DPL,?V2
        MOV       DPH,?V3
        MOVX      A,@DPTR
        MOV       DPTR,#zcl_InSeqNum
        LCALL     ?Subroutine35 & 0xFFFF
??CrossCallReturnLabel_48:
        MOVX      A,@DPTR
        ADD       A,#0x6
        MOV       R0,A
        INC       DPTR
        MOVX      A,@DPTR
        ADDC      A,#0x0
        MOV       R1,A
        RET
          CFI EndBlock cfiCond23
          CFI EndBlock cfiCond24
          CFI EndBlock cfiPicker25

        RSEG BANKED_CODE:HUGECODE:NOROOT(0)
?Subroutine8:
          CFI Block cfiCond26 Using cfiCommon0
          CFI Function zclGp_ProcessInProxyBasic
          CFI Conditional ??CrossCallReturnLabel_59
          CFI R6 load(1, XDATA, add(CFA_XSP16, literal(-20)))
          CFI VB load(1, XDATA, add(CFA_XSP16, literal(-19)))
          CFI V0 load(1, XDATA, add(CFA_XSP16, literal(-18)))
          CFI V1 load(1, XDATA, add(CFA_XSP16, literal(-17)))
          CFI V2 load(1, XDATA, add(CFA_XSP16, literal(-16)))
          CFI V3 load(1, XDATA, add(CFA_XSP16, literal(-15)))
          CFI V4 load(1, XDATA, add(CFA_XSP16, literal(-14)))
          CFI V5 load(1, XDATA, add(CFA_XSP16, literal(-13)))
          CFI V6 load(1, XDATA, add(CFA_XSP16, literal(-12)))
          CFI V7 load(1, XDATA, add(CFA_XSP16, literal(-11)))
          CFI V8 load(1, XDATA, add(CFA_XSP16, literal(-10)))
          CFI V9 load(1, XDATA, add(CFA_XSP16, literal(-9)))
          CFI V10 load(1, XDATA, add(CFA_XSP16, literal(-8)))
          CFI V11 load(1, XDATA, add(CFA_XSP16, literal(-7)))
          CFI R7 load(1, XDATA, add(CFA_XSP16, literal(-6)))
          CFI ?RET_LOW load(1, XDATA, add(CFA_XSP16, literal(-5)))
          CFI ?RET_HIGH load(1, XDATA, add(CFA_XSP16, literal(-4)))
          CFI ?BRET_EXT load(1, XDATA, add(CFA_XSP16, literal(-3)))
          CFI DPL0 load(1, XDATA, add(CFA_XSP16, literal(-2)))
          CFI DPH0 load(1, XDATA, add(CFA_XSP16, literal(-1)))
          CFI CFA_SP SP+-2
          CFI CFA_XSP16 add(XSP16, 42)
          CFI Block cfiCond27 Using cfiCommon0
          CFI (cfiCond27) Function zclGp_ProcessInProxyBasic
          CFI (cfiCond27) Conditional ??CrossCallReturnLabel_60
          CFI (cfiCond27) R6 load(1, XDATA, add(CFA_XSP16, literal(-20)))
          CFI (cfiCond27) VB load(1, XDATA, add(CFA_XSP16, literal(-19)))
          CFI (cfiCond27) V0 load(1, XDATA, add(CFA_XSP16, literal(-18)))
          CFI (cfiCond27) V1 load(1, XDATA, add(CFA_XSP16, literal(-17)))
          CFI (cfiCond27) V2 load(1, XDATA, add(CFA_XSP16, literal(-16)))
          CFI (cfiCond27) V3 load(1, XDATA, add(CFA_XSP16, literal(-15)))
          CFI (cfiCond27) V4 load(1, XDATA, add(CFA_XSP16, literal(-14)))
          CFI (cfiCond27) V5 load(1, XDATA, add(CFA_XSP16, literal(-13)))
          CFI (cfiCond27) V6 load(1, XDATA, add(CFA_XSP16, literal(-12)))
          CFI (cfiCond27) V7 load(1, XDATA, add(CFA_XSP16, literal(-11)))
          CFI (cfiCond27) V8 load(1, XDATA, add(CFA_XSP16, literal(-10)))
          CFI (cfiCond27) V9 load(1, XDATA, add(CFA_XSP16, literal(-9)))
          CFI (cfiCond27) V10 load(1, XDATA, add(CFA_XSP16, literal(-8)))
          CFI (cfiCond27) V11 load(1, XDATA, add(CFA_XSP16, literal(-7)))
          CFI (cfiCond27) R7 load(1, XDATA, add(CFA_XSP16, literal(-6)))
          CFI (cfiCond27) ?RET_LOW load(1, XDATA, add(CFA_XSP16, literal(-5)))
          CFI (cfiCond27) ?RET_HIGH load(1, XDATA, add(CFA_XSP16, literal(-4)))
          CFI (cfiCond27) ?BRET_EXT load(1, XDATA, add(CFA_XSP16, literal(-3)))
          CFI (cfiCond27) DPL0 load(1, XDATA, add(CFA_XSP16, literal(-2)))
          CFI (cfiCond27) DPH0 load(1, XDATA, add(CFA_XSP16, literal(-1)))
          CFI (cfiCond27) CFA_SP SP+-2
          CFI (cfiCond27) CFA_XSP16 add(XSP16, 42)
          CFI Block cfiPicker28 Using cfiCommon1
          CFI (cfiPicker28) NoFunction
          CFI (cfiPicker28) Picker
        MOV       A,R0
        MOVX      @DPTR,A
        INC       DPTR
        MOV       A,R1
        MOVX      @DPTR,A
          CFI EndBlock cfiCond26
          CFI EndBlock cfiCond27
          CFI EndBlock cfiPicker28
        ; Setup parameters for call to function osal_memcpy
        ; Setup parameters for call to function osal_memcpy
        REQUIRE ??Subroutine38_0
        ; // Fall through to label ??Subroutine38_0

        RSEG BANKED_CODE:HUGECODE:NOROOT(0)
??Subroutine38_0:
          CFI Block cfiCond29 Using cfiCommon0
          CFI Function zclGp_ProcessInProxyBasic
          CFI Conditional ??CrossCallReturnLabel_61
          CFI R6 load(1, XDATA, add(CFA_XSP16, literal(-20)))
          CFI VB load(1, XDATA, add(CFA_XSP16, literal(-19)))
          CFI V0 load(1, XDATA, add(CFA_XSP16, literal(-18)))
          CFI V1 load(1, XDATA, add(CFA_XSP16, literal(-17)))
          CFI V2 load(1, XDATA, add(CFA_XSP16, literal(-16)))
          CFI V3 load(1, XDATA, add(CFA_XSP16, literal(-15)))
          CFI V4 load(1, XDATA, add(CFA_XSP16, literal(-14)))
          CFI V5 load(1, XDATA, add(CFA_XSP16, literal(-13)))
          CFI V6 load(1, XDATA, add(CFA_XSP16, literal(-12)))
          CFI V7 load(1, XDATA, add(CFA_XSP16, literal(-11)))
          CFI V8 load(1, XDATA, add(CFA_XSP16, literal(-10)))
          CFI V9 load(1, XDATA, add(CFA_XSP16, literal(-9)))
          CFI V10 load(1, XDATA, add(CFA_XSP16, literal(-8)))
          CFI V11 load(1, XDATA, add(CFA_XSP16, literal(-7)))
          CFI R7 load(1, XDATA, add(CFA_XSP16, literal(-6)))
          CFI ?RET_LOW load(1, XDATA, add(CFA_XSP16, literal(-5)))
          CFI ?RET_HIGH load(1, XDATA, add(CFA_XSP16, literal(-4)))
          CFI ?BRET_EXT load(1, XDATA, add(CFA_XSP16, literal(-3)))
          CFI DPL0 load(1, XDATA, add(CFA_XSP16, literal(-2)))
          CFI DPH0 load(1, XDATA, add(CFA_XSP16, literal(-1)))
          CFI CFA_SP SP+-2
          CFI CFA_XSP16 add(XSP16, 42)
          CFI Block cfiCond30 Using cfiCommon0
          CFI (cfiCond30) Function zclGp_ProcessInProxyBasic
          CFI (cfiCond30) Conditional ??CrossCallReturnLabel_62
          CFI (cfiCond30) R6 load(1, XDATA, add(CFA_XSP16, literal(-20)))
          CFI (cfiCond30) VB load(1, XDATA, add(CFA_XSP16, literal(-19)))
          CFI (cfiCond30) V0 load(1, XDATA, add(CFA_XSP16, literal(-18)))
          CFI (cfiCond30) V1 load(1, XDATA, add(CFA_XSP16, literal(-17)))
          CFI (cfiCond30) V2 load(1, XDATA, add(CFA_XSP16, literal(-16)))
          CFI (cfiCond30) V3 load(1, XDATA, add(CFA_XSP16, literal(-15)))
          CFI (cfiCond30) V4 load(1, XDATA, add(CFA_XSP16, literal(-14)))
          CFI (cfiCond30) V5 load(1, XDATA, add(CFA_XSP16, literal(-13)))
          CFI (cfiCond30) V6 load(1, XDATA, add(CFA_XSP16, literal(-12)))
          CFI (cfiCond30) V7 load(1, XDATA, add(CFA_XSP16, literal(-11)))
          CFI (cfiCond30) V8 load(1, XDATA, add(CFA_XSP16, literal(-10)))
          CFI (cfiCond30) V9 load(1, XDATA, add(CFA_XSP16, literal(-9)))
          CFI (cfiCond30) V10 load(1, XDATA, add(CFA_XSP16, literal(-8)))
          CFI (cfiCond30) V11 load(1, XDATA, add(CFA_XSP16, literal(-7)))
          CFI (cfiCond30) R7 load(1, XDATA, add(CFA_XSP16, literal(-6)))
          CFI (cfiCond30) ?RET_LOW load(1, XDATA, add(CFA_XSP16, literal(-5)))
          CFI (cfiCond30) ?RET_HIGH load(1, XDATA, add(CFA_XSP16, literal(-4)))
          CFI (cfiCond30) ?BRET_EXT load(1, XDATA, add(CFA_XSP16, literal(-3)))
          CFI (cfiCond30) DPL0 load(1, XDATA, add(CFA_XSP16, literal(-2)))
          CFI (cfiCond30) DPH0 load(1, XDATA, add(CFA_XSP16, literal(-1)))
          CFI (cfiCond30) CFA_SP SP+-2
          CFI (cfiCond30) CFA_XSP16 add(XSP16, 42)
          CFI Block cfiCond31 Using cfiCommon0
          CFI (cfiCond31) Function zclGp_ProcessInProxyBasic
          CFI (cfiCond31) Conditional ??CrossCallReturnLabel_59
          CFI (cfiCond31) R6 load(1, XDATA, add(CFA_XSP16, literal(-20)))
          CFI (cfiCond31) VB load(1, XDATA, add(CFA_XSP16, literal(-19)))
          CFI (cfiCond31) V0 load(1, XDATA, add(CFA_XSP16, literal(-18)))
          CFI (cfiCond31) V1 load(1, XDATA, add(CFA_XSP16, literal(-17)))
          CFI (cfiCond31) V2 load(1, XDATA, add(CFA_XSP16, literal(-16)))
          CFI (cfiCond31) V3 load(1, XDATA, add(CFA_XSP16, literal(-15)))
          CFI (cfiCond31) V4 load(1, XDATA, add(CFA_XSP16, literal(-14)))
          CFI (cfiCond31) V5 load(1, XDATA, add(CFA_XSP16, literal(-13)))
          CFI (cfiCond31) V6 load(1, XDATA, add(CFA_XSP16, literal(-12)))
          CFI (cfiCond31) V7 load(1, XDATA, add(CFA_XSP16, literal(-11)))
          CFI (cfiCond31) V8 load(1, XDATA, add(CFA_XSP16, literal(-10)))
          CFI (cfiCond31) V9 load(1, XDATA, add(CFA_XSP16, literal(-9)))
          CFI (cfiCond31) V10 load(1, XDATA, add(CFA_XSP16, literal(-8)))
          CFI (cfiCond31) V11 load(1, XDATA, add(CFA_XSP16, literal(-7)))
          CFI (cfiCond31) R7 load(1, XDATA, add(CFA_XSP16, literal(-6)))
          CFI (cfiCond31) ?RET_LOW load(1, XDATA, add(CFA_XSP16, literal(-5)))
          CFI (cfiCond31) ?RET_HIGH load(1, XDATA, add(CFA_XSP16, literal(-4)))
          CFI (cfiCond31) ?BRET_EXT load(1, XDATA, add(CFA_XSP16, literal(-3)))
          CFI (cfiCond31) DPL0 load(1, XDATA, add(CFA_XSP16, literal(-2)))
          CFI (cfiCond31) DPH0 load(1, XDATA, add(CFA_XSP16, literal(-1)))
          CFI (cfiCond31) CFA_SP SP+-2
          CFI (cfiCond31) CFA_XSP16 add(XSP16, 42)
          CFI Block cfiCond32 Using cfiCommon0
          CFI (cfiCond32) Function zclGp_ProcessInProxyBasic
          CFI (cfiCond32) Conditional ??CrossCallReturnLabel_60
          CFI (cfiCond32) R6 load(1, XDATA, add(CFA_XSP16, literal(-20)))
          CFI (cfiCond32) VB load(1, XDATA, add(CFA_XSP16, literal(-19)))
          CFI (cfiCond32) V0 load(1, XDATA, add(CFA_XSP16, literal(-18)))
          CFI (cfiCond32) V1 load(1, XDATA, add(CFA_XSP16, literal(-17)))
          CFI (cfiCond32) V2 load(1, XDATA, add(CFA_XSP16, literal(-16)))
          CFI (cfiCond32) V3 load(1, XDATA, add(CFA_XSP16, literal(-15)))
          CFI (cfiCond32) V4 load(1, XDATA, add(CFA_XSP16, literal(-14)))
          CFI (cfiCond32) V5 load(1, XDATA, add(CFA_XSP16, literal(-13)))
          CFI (cfiCond32) V6 load(1, XDATA, add(CFA_XSP16, literal(-12)))
          CFI (cfiCond32) V7 load(1, XDATA, add(CFA_XSP16, literal(-11)))
          CFI (cfiCond32) V8 load(1, XDATA, add(CFA_XSP16, literal(-10)))
          CFI (cfiCond32) V9 load(1, XDATA, add(CFA_XSP16, literal(-9)))
          CFI (cfiCond32) V10 load(1, XDATA, add(CFA_XSP16, literal(-8)))
          CFI (cfiCond32) V11 load(1, XDATA, add(CFA_XSP16, literal(-7)))
          CFI (cfiCond32) R7 load(1, XDATA, add(CFA_XSP16, literal(-6)))
          CFI (cfiCond32) ?RET_LOW load(1, XDATA, add(CFA_XSP16, literal(-5)))
          CFI (cfiCond32) ?RET_HIGH load(1, XDATA, add(CFA_XSP16, literal(-4)))
          CFI (cfiCond32) ?BRET_EXT load(1, XDATA, add(CFA_XSP16, literal(-3)))
          CFI (cfiCond32) DPL0 load(1, XDATA, add(CFA_XSP16, literal(-2)))
          CFI (cfiCond32) DPH0 load(1, XDATA, add(CFA_XSP16, literal(-1)))
          CFI (cfiCond32) CFA_SP SP+-2
          CFI (cfiCond32) CFA_XSP16 add(XSP16, 42)
          CFI Block cfiPicker33 Using cfiCommon1
          CFI (cfiPicker33) NoFunction
          CFI (cfiPicker33) Picker
        MOV       DPL,?V4
        MOV       DPH,?V5
        MOVX      A,@DPTR
        MOV       ?V8,A
        INC       DPTR
        MOVX      A,@DPTR
        MOV       ?V9,A
        MOV       ?V10,#0x0
        MOV       R0,#?V8
        RET
          CFI EndBlock cfiCond29
          CFI EndBlock cfiCond30
          CFI EndBlock cfiCond31
          CFI EndBlock cfiCond32
          CFI EndBlock cfiPicker33

        RSEG BANKED_CODE:HUGECODE:NOROOT(0)
?Subroutine6:
          CFI Block cfiCond34 Using cfiCommon0
          CFI Function zclGp_ProcessInProxyBasic
          CFI Conditional ??CrossCallReturnLabel_63
          CFI R6 load(1, XDATA, add(CFA_XSP16, literal(-20)))
          CFI VB load(1, XDATA, add(CFA_XSP16, literal(-19)))
          CFI V0 load(1, XDATA, add(CFA_XSP16, literal(-18)))
          CFI V1 load(1, XDATA, add(CFA_XSP16, literal(-17)))
          CFI V2 load(1, XDATA, add(CFA_XSP16, literal(-16)))
          CFI V3 load(1, XDATA, add(CFA_XSP16, literal(-15)))
          CFI V4 load(1, XDATA, add(CFA_XSP16, literal(-14)))
          CFI V5 load(1, XDATA, add(CFA_XSP16, literal(-13)))
          CFI V6 load(1, XDATA, add(CFA_XSP16, literal(-12)))
          CFI V7 load(1, XDATA, add(CFA_XSP16, literal(-11)))
          CFI V8 load(1, XDATA, add(CFA_XSP16, literal(-10)))
          CFI V9 load(1, XDATA, add(CFA_XSP16, literal(-9)))
          CFI V10 load(1, XDATA, add(CFA_XSP16, literal(-8)))
          CFI V11 load(1, XDATA, add(CFA_XSP16, literal(-7)))
          CFI R7 load(1, XDATA, add(CFA_XSP16, literal(-6)))
          CFI ?RET_LOW load(1, XDATA, add(CFA_XSP16, literal(-5)))
          CFI ?RET_HIGH load(1, XDATA, add(CFA_XSP16, literal(-4)))
          CFI ?BRET_EXT load(1, XDATA, add(CFA_XSP16, literal(-3)))
          CFI DPL0 load(1, XDATA, add(CFA_XSP16, literal(-2)))
          CFI DPH0 load(1, XDATA, add(CFA_XSP16, literal(-1)))
          CFI CFA_SP SP+-2
          CFI CFA_XSP16 add(XSP16, 42)
          CFI Block cfiCond35 Using cfiCommon0
          CFI (cfiCond35) Function zclGp_ProcessInProxyBasic
          CFI (cfiCond35) Conditional ??CrossCallReturnLabel_64
          CFI (cfiCond35) R6 load(1, XDATA, add(CFA_XSP16, literal(-20)))
          CFI (cfiCond35) VB load(1, XDATA, add(CFA_XSP16, literal(-19)))
          CFI (cfiCond35) V0 load(1, XDATA, add(CFA_XSP16, literal(-18)))
          CFI (cfiCond35) V1 load(1, XDATA, add(CFA_XSP16, literal(-17)))
          CFI (cfiCond35) V2 load(1, XDATA, add(CFA_XSP16, literal(-16)))
          CFI (cfiCond35) V3 load(1, XDATA, add(CFA_XSP16, literal(-15)))
          CFI (cfiCond35) V4 load(1, XDATA, add(CFA_XSP16, literal(-14)))
          CFI (cfiCond35) V5 load(1, XDATA, add(CFA_XSP16, literal(-13)))
          CFI (cfiCond35) V6 load(1, XDATA, add(CFA_XSP16, literal(-12)))
          CFI (cfiCond35) V7 load(1, XDATA, add(CFA_XSP16, literal(-11)))
          CFI (cfiCond35) V8 load(1, XDATA, add(CFA_XSP16, literal(-10)))
          CFI (cfiCond35) V9 load(1, XDATA, add(CFA_XSP16, literal(-9)))
          CFI (cfiCond35) V10 load(1, XDATA, add(CFA_XSP16, literal(-8)))
          CFI (cfiCond35) V11 load(1, XDATA, add(CFA_XSP16, literal(-7)))
          CFI (cfiCond35) R7 load(1, XDATA, add(CFA_XSP16, literal(-6)))
          CFI (cfiCond35) ?RET_LOW load(1, XDATA, add(CFA_XSP16, literal(-5)))
          CFI (cfiCond35) ?RET_HIGH load(1, XDATA, add(CFA_XSP16, literal(-4)))
          CFI (cfiCond35) ?BRET_EXT load(1, XDATA, add(CFA_XSP16, literal(-3)))
          CFI (cfiCond35) DPL0 load(1, XDATA, add(CFA_XSP16, literal(-2)))
          CFI (cfiCond35) DPH0 load(1, XDATA, add(CFA_XSP16, literal(-1)))
          CFI (cfiCond35) CFA_SP SP+-2
          CFI (cfiCond35) CFA_XSP16 add(XSP16, 42)
          CFI Block cfiPicker36 Using cfiCommon1
          CFI (cfiPicker36) NoFunction
          CFI (cfiPicker36) Picker
        MOV       DPL,?V4
        MOV       DPH,?V5
        MOVX      A,@DPTR
        ADD       A,#0x1
          CFI EndBlock cfiCond34
          CFI EndBlock cfiCond35
          CFI EndBlock cfiPicker36
        REQUIRE ??Subroutine39_0
        ; // Fall through to label ??Subroutine39_0

        RSEG BANKED_CODE:HUGECODE:NOROOT(0)
??Subroutine39_0:
          CFI Block cfiCond37 Using cfiCommon0
          CFI Function zclGp_ProcessInProxyBasic
          CFI Conditional ??CrossCallReturnLabel_65
          CFI R6 load(1, XDATA, add(CFA_XSP16, literal(-20)))
          CFI VB load(1, XDATA, add(CFA_XSP16, literal(-19)))
          CFI V0 load(1, XDATA, add(CFA_XSP16, literal(-18)))
          CFI V1 load(1, XDATA, add(CFA_XSP16, literal(-17)))
          CFI V2 load(1, XDATA, add(CFA_XSP16, literal(-16)))
          CFI V3 load(1, XDATA, add(CFA_XSP16, literal(-15)))
          CFI V4 load(1, XDATA, add(CFA_XSP16, literal(-14)))
          CFI V5 load(1, XDATA, add(CFA_XSP16, literal(-13)))
          CFI V6 load(1, XDATA, add(CFA_XSP16, literal(-12)))
          CFI V7 load(1, XDATA, add(CFA_XSP16, literal(-11)))
          CFI V8 load(1, XDATA, add(CFA_XSP16, literal(-10)))
          CFI V9 load(1, XDATA, add(CFA_XSP16, literal(-9)))
          CFI V10 load(1, XDATA, add(CFA_XSP16, literal(-8)))
          CFI V11 load(1, XDATA, add(CFA_XSP16, literal(-7)))
          CFI R7 load(1, XDATA, add(CFA_XSP16, literal(-6)))
          CFI ?RET_LOW load(1, XDATA, add(CFA_XSP16, literal(-5)))
          CFI ?RET_HIGH load(1, XDATA, add(CFA_XSP16, literal(-4)))
          CFI ?BRET_EXT load(1, XDATA, add(CFA_XSP16, literal(-3)))
          CFI DPL0 load(1, XDATA, add(CFA_XSP16, literal(-2)))
          CFI DPH0 load(1, XDATA, add(CFA_XSP16, literal(-1)))
          CFI CFA_SP SP+-2
          CFI CFA_XSP16 add(XSP16, 42)
          CFI Block cfiCond38 Using cfiCommon0
          CFI (cfiCond38) Function zclGp_ProcessInProxyBasic
          CFI (cfiCond38) Conditional ??CrossCallReturnLabel_63
          CFI (cfiCond38) R6 load(1, XDATA, add(CFA_XSP16, literal(-20)))
          CFI (cfiCond38) VB load(1, XDATA, add(CFA_XSP16, literal(-19)))
          CFI (cfiCond38) V0 load(1, XDATA, add(CFA_XSP16, literal(-18)))
          CFI (cfiCond38) V1 load(1, XDATA, add(CFA_XSP16, literal(-17)))
          CFI (cfiCond38) V2 load(1, XDATA, add(CFA_XSP16, literal(-16)))
          CFI (cfiCond38) V3 load(1, XDATA, add(CFA_XSP16, literal(-15)))
          CFI (cfiCond38) V4 load(1, XDATA, add(CFA_XSP16, literal(-14)))
          CFI (cfiCond38) V5 load(1, XDATA, add(CFA_XSP16, literal(-13)))
          CFI (cfiCond38) V6 load(1, XDATA, add(CFA_XSP16, literal(-12)))
          CFI (cfiCond38) V7 load(1, XDATA, add(CFA_XSP16, literal(-11)))
          CFI (cfiCond38) V8 load(1, XDATA, add(CFA_XSP16, literal(-10)))
          CFI (cfiCond38) V9 load(1, XDATA, add(CFA_XSP16, literal(-9)))
          CFI (cfiCond38) V10 load(1, XDATA, add(CFA_XSP16, literal(-8)))
          CFI (cfiCond38) V11 load(1, XDATA, add(CFA_XSP16, literal(-7)))
          CFI (cfiCond38) R7 load(1, XDATA, add(CFA_XSP16, literal(-6)))
          CFI (cfiCond38) ?RET_LOW load(1, XDATA, add(CFA_XSP16, literal(-5)))
          CFI (cfiCond38) ?RET_HIGH load(1, XDATA, add(CFA_XSP16, literal(-4)))
          CFI (cfiCond38) ?BRET_EXT load(1, XDATA, add(CFA_XSP16, literal(-3)))
          CFI (cfiCond38) DPL0 load(1, XDATA, add(CFA_XSP16, literal(-2)))
          CFI (cfiCond38) DPH0 load(1, XDATA, add(CFA_XSP16, literal(-1)))
          CFI (cfiCond38) CFA_SP SP+-2
          CFI (cfiCond38) CFA_XSP16 add(XSP16, 42)
          CFI Block cfiCond39 Using cfiCommon0
          CFI (cfiCond39) Function zclGp_ProcessInProxyBasic
          CFI (cfiCond39) Conditional ??CrossCallReturnLabel_64
          CFI (cfiCond39) R6 load(1, XDATA, add(CFA_XSP16, literal(-20)))
          CFI (cfiCond39) VB load(1, XDATA, add(CFA_XSP16, literal(-19)))
          CFI (cfiCond39) V0 load(1, XDATA, add(CFA_XSP16, literal(-18)))
          CFI (cfiCond39) V1 load(1, XDATA, add(CFA_XSP16, literal(-17)))
          CFI (cfiCond39) V2 load(1, XDATA, add(CFA_XSP16, literal(-16)))
          CFI (cfiCond39) V3 load(1, XDATA, add(CFA_XSP16, literal(-15)))
          CFI (cfiCond39) V4 load(1, XDATA, add(CFA_XSP16, literal(-14)))
          CFI (cfiCond39) V5 load(1, XDATA, add(CFA_XSP16, literal(-13)))
          CFI (cfiCond39) V6 load(1, XDATA, add(CFA_XSP16, literal(-12)))
          CFI (cfiCond39) V7 load(1, XDATA, add(CFA_XSP16, literal(-11)))
          CFI (cfiCond39) V8 load(1, XDATA, add(CFA_XSP16, literal(-10)))
          CFI (cfiCond39) V9 load(1, XDATA, add(CFA_XSP16, literal(-9)))
          CFI (cfiCond39) V10 load(1, XDATA, add(CFA_XSP16, literal(-8)))
          CFI (cfiCond39) V11 load(1, XDATA, add(CFA_XSP16, literal(-7)))
          CFI (cfiCond39) R7 load(1, XDATA, add(CFA_XSP16, literal(-6)))
          CFI (cfiCond39) ?RET_LOW load(1, XDATA, add(CFA_XSP16, literal(-5)))
          CFI (cfiCond39) ?RET_HIGH load(1, XDATA, add(CFA_XSP16, literal(-4)))
          CFI (cfiCond39) ?BRET_EXT load(1, XDATA, add(CFA_XSP16, literal(-3)))
          CFI (cfiCond39) DPL0 load(1, XDATA, add(CFA_XSP16, literal(-2)))
          CFI (cfiCond39) DPH0 load(1, XDATA, add(CFA_XSP16, literal(-1)))
          CFI (cfiCond39) CFA_SP SP+-2
          CFI (cfiCond39) CFA_XSP16 add(XSP16, 42)
          CFI Block cfiPicker40 Using cfiCommon1
          CFI (cfiPicker40) NoFunction
          CFI (cfiPicker40) Picker
        LCALL     ?Subroutine32 & 0xFFFF
??CrossCallReturnLabel_67:
        MOV       A,R0
        ORL       A,R1
        RET
          CFI EndBlock cfiCond37
          CFI EndBlock cfiCond38
          CFI EndBlock cfiCond39
          CFI EndBlock cfiPicker40
//  401 
//  402 /*********************************************************************
//  403  * @fn      zclGp_SendGpNotificationCommand
//  404  *
//  405  * @brief   Send the Green Power Notification Command to a device
//  406  *
//  407  * @param   pCmd - Pointer to GP Notification Struct
//  408  *          secNum - Sequence number given by the GPDF  
//  409  *
//  410  * @return  ZStatus_t
//  411  */

        RSEG BANKED_CODE:HUGECODE:NOROOT(0)
//  412 ZStatus_t zclGp_SendGpNotificationCommand( gpNotificationCmd_t *pCmd, uint8 secNum )
zclGp_SendGpNotificationCommand:
          CFI Block cfiBlock41 Using cfiCommon0
          CFI Function zclGp_SendGpNotificationCommand
        CODE
//  413 {
        FUNCALL zclGp_SendGpNotificationCommand, osal_mem_alloc
        LOCFRAME ISTACK, 0, STACK
        LOCFRAME PSTACK, 0, STACK
        LOCFRAME XSTACK, 24, STACK
        LOCFRAME IOVERLAY, 0, STATIC
        LOCFRAME DOVERLAY, 0, STATIC
        ARGFRAME ISTACK, 0, STACK
        ARGFRAME PSTACK, 0, STACK
        ARGFRAME XSTACK, 24, STACK
        ARGFRAME IOVERLAY, 0, STATIC
        ARGFRAME DOVERLAY, 0, STATIC
        FUNCALL zclGp_SendGpNotificationCommand, osal_memcpy
        LOCFRAME ISTACK, 0, STACK
        LOCFRAME PSTACK, 0, STACK
        LOCFRAME XSTACK, 27, STACK
        LOCFRAME IOVERLAY, 0, STATIC
        LOCFRAME DOVERLAY, 0, STATIC
        ARGFRAME ISTACK, 0, STACK
        ARGFRAME PSTACK, 0, STACK
        ARGFRAME XSTACK, 27, STACK
        ARGFRAME IOVERLAY, 0, STATIC
        ARGFRAME DOVERLAY, 0, STATIC
        FUNCALL zclGp_SendGpNotificationCommand, osal_memcpy
        LOCFRAME ISTACK, 0, STACK
        LOCFRAME PSTACK, 0, STACK
        LOCFRAME XSTACK, 27, STACK
        LOCFRAME IOVERLAY, 0, STATIC
        LOCFRAME DOVERLAY, 0, STATIC
        ARGFRAME ISTACK, 0, STACK
        ARGFRAME PSTACK, 0, STACK
        ARGFRAME XSTACK, 27, STACK
        ARGFRAME IOVERLAY, 0, STATIC
        ARGFRAME DOVERLAY, 0, STATIC
        FUNCALL zclGp_SendGpNotificationCommand, osal_memcpy
        LOCFRAME ISTACK, 0, STACK
        LOCFRAME PSTACK, 0, STACK
        LOCFRAME XSTACK, 27, STACK
        LOCFRAME IOVERLAY, 0, STATIC
        LOCFRAME DOVERLAY, 0, STATIC
        ARGFRAME ISTACK, 0, STACK
        ARGFRAME PSTACK, 0, STACK
        ARGFRAME XSTACK, 27, STACK
        ARGFRAME IOVERLAY, 0, STATIC
        ARGFRAME DOVERLAY, 0, STATIC
        FUNCALL zclGp_SendGpNotificationCommand, osal_memcpy
        LOCFRAME ISTACK, 0, STACK
        LOCFRAME PSTACK, 0, STACK
        LOCFRAME XSTACK, 27, STACK
        LOCFRAME IOVERLAY, 0, STATIC
        LOCFRAME DOVERLAY, 0, STATIC
        ARGFRAME ISTACK, 0, STACK
        ARGFRAME PSTACK, 0, STACK
        ARGFRAME XSTACK, 27, STACK
        ARGFRAME IOVERLAY, 0, STATIC
        ARGFRAME DOVERLAY, 0, STATIC
        FUNCALL zclGp_SendGpNotificationCommand, osal_memcpy
        LOCFRAME ISTACK, 0, STACK
        LOCFRAME PSTACK, 0, STACK
        LOCFRAME XSTACK, 27, STACK
        LOCFRAME IOVERLAY, 0, STATIC
        LOCFRAME DOVERLAY, 0, STATIC
        ARGFRAME ISTACK, 0, STACK
        ARGFRAME PSTACK, 0, STACK
        ARGFRAME XSTACK, 27, STACK
        ARGFRAME IOVERLAY, 0, STATIC
        ARGFRAME DOVERLAY, 0, STATIC
        FUNCALL zclGp_SendGpNotificationCommand, osal_memcpy
        LOCFRAME ISTACK, 0, STACK
        LOCFRAME PSTACK, 0, STACK
        LOCFRAME XSTACK, 27, STACK
        LOCFRAME IOVERLAY, 0, STATIC
        LOCFRAME DOVERLAY, 0, STATIC
        ARGFRAME ISTACK, 0, STACK
        ARGFRAME PSTACK, 0, STACK
        ARGFRAME XSTACK, 27, STACK
        ARGFRAME IOVERLAY, 0, STATIC
        ARGFRAME DOVERLAY, 0, STATIC
        FUNCALL zclGp_SendGpNotificationCommand, gp_AddCmdPayloadMsgNode
        LOCFRAME ISTACK, 0, STACK
        LOCFRAME PSTACK, 0, STACK
        LOCFRAME XSTACK, 24, STACK
        LOCFRAME IOVERLAY, 0, STATIC
        LOCFRAME DOVERLAY, 0, STATIC
        ARGFRAME ISTACK, 0, STACK
        ARGFRAME PSTACK, 0, STACK
        ARGFRAME XSTACK, 24, STACK
        ARGFRAME IOVERLAY, 0, STATIC
        ARGFRAME DOVERLAY, 0, STATIC
        FUNCALL zclGp_SendGpNotificationCommand, gp_addPairedSinksToMsgQueue
        LOCFRAME ISTACK, 0, STACK
        LOCFRAME PSTACK, 0, STACK
        LOCFRAME XSTACK, 24, STACK
        LOCFRAME IOVERLAY, 0, STATIC
        LOCFRAME DOVERLAY, 0, STATIC
        ARGFRAME ISTACK, 0, STACK
        ARGFRAME PSTACK, 0, STACK
        ARGFRAME XSTACK, 24, STACK
        ARGFRAME IOVERLAY, 0, STATIC
        ARGFRAME DOVERLAY, 0, STATIC
        FUNCALL zclGp_SendGpNotificationCommand, osal_start_timerEx
        LOCFRAME ISTACK, 0, STACK
        LOCFRAME PSTACK, 0, STACK
        LOCFRAME XSTACK, 28, STACK
        LOCFRAME IOVERLAY, 0, STATIC
        LOCFRAME DOVERLAY, 0, STATIC
        ARGFRAME ISTACK, 0, STACK
        ARGFRAME PSTACK, 0, STACK
        ARGFRAME XSTACK, 28, STACK
        ARGFRAME IOVERLAY, 0, STATIC
        ARGFRAME DOVERLAY, 0, STATIC
        REQUIRE ?V0
        REQUIRE ?V1
        REQUIRE ?V2
        REQUIRE ?V3
        REQUIRE ?V4
        REQUIRE ?V5
        REQUIRE ?V6
        REQUIRE ?V7
        REQUIRE ?V8
        REQUIRE ?V9
        REQUIRE ?V10
        REQUIRE ?V11
        REQUIRE ?V12
        REQUIRE ?V13
        REQUIRE ?V14
        REQUIRE ?V15
        MOV       A,#-0x18
        LCALL     ?BANKED_ENTER_XDATA
          CFI DPH0 load(1, XDATA, add(CFA_XSP16, literal(-1)))
          CFI DPL0 load(1, XDATA, add(CFA_XSP16, literal(-2)))
          CFI ?BRET_EXT load(1, XDATA, add(CFA_XSP16, literal(-3)))
          CFI ?RET_HIGH load(1, XDATA, add(CFA_XSP16, literal(-4)))
          CFI ?RET_LOW load(1, XDATA, add(CFA_XSP16, literal(-5)))
          CFI R7 load(1, XDATA, add(CFA_XSP16, literal(-6)))
          CFI V15 load(1, XDATA, add(CFA_XSP16, literal(-7)))
          CFI V14 load(1, XDATA, add(CFA_XSP16, literal(-8)))
          CFI V13 load(1, XDATA, add(CFA_XSP16, literal(-9)))
          CFI V12 load(1, XDATA, add(CFA_XSP16, literal(-10)))
          CFI V11 load(1, XDATA, add(CFA_XSP16, literal(-11)))
          CFI V10 load(1, XDATA, add(CFA_XSP16, literal(-12)))
          CFI V9 load(1, XDATA, add(CFA_XSP16, literal(-13)))
          CFI V8 load(1, XDATA, add(CFA_XSP16, literal(-14)))
          CFI V7 load(1, XDATA, add(CFA_XSP16, literal(-15)))
          CFI V6 load(1, XDATA, add(CFA_XSP16, literal(-16)))
          CFI V5 load(1, XDATA, add(CFA_XSP16, literal(-17)))
          CFI V4 load(1, XDATA, add(CFA_XSP16, literal(-18)))
          CFI V3 load(1, XDATA, add(CFA_XSP16, literal(-19)))
          CFI V2 load(1, XDATA, add(CFA_XSP16, literal(-20)))
          CFI V1 load(1, XDATA, add(CFA_XSP16, literal(-21)))
          CFI V0 load(1, XDATA, add(CFA_XSP16, literal(-22)))
          CFI VB load(1, XDATA, add(CFA_XSP16, literal(-23)))
          CFI R6 load(1, XDATA, add(CFA_XSP16, literal(-24)))
          CFI CFA_SP SP+0
          CFI CFA_XSP16 add(XSP16, 24)
        ; Saved register size: 24
        ; Auto size: 0
        MOV       ?V0,R2
        MOV       ?V1,R3
        MOV       ?V14,R1
//  414   uint8 *buf = NULL;
//  415   uint8 *pBuf = NULL;
//  416   uint8 *pGpdId = NULL;
        MOV       ?V8,#0x0
        MOV       ?V9,#0x0
//  417   uint8 appId;
//  418   ZStatus_t status;
//  419   uint16 len = 11;  // options + GPD Sec Counter + Cmd ID + payloadLen + GPP Short Address + GPP-GPD link
        MOV       ?V2,#0xb
        MOV       DPL,R2
        MOV       DPH,R3
        MOVX      A,@DPTR
        ANL       A,#0x7
        MOV       R0,A
        JNZ       ??zclGp_SendGpNotificationCommand_0
//  420   gpCmdPayloadMsg_t *pCmdPayloadMsgCurr = NULL;
//  421   
//  422   // Check some stuff to calculate the packet len
//  423   // If Application Id bitfield is 0b000
//  424   if( GP_IS_APPLICATION_ID_GPD( pCmd->options ) )
//  425   {
//  426     len += 4;  // GPD ID
        MOV       ?V2,#0xf
        SJMP      ??zclGp_SendGpNotificationCommand_1
//  427   }
//  428   // If Application Id bitfield is 0b010
//  429   else if( GP_IS_APPLICATION_ID_IEEE( pCmd->options ) )
??zclGp_SendGpNotificationCommand_0:
        MOV       A,#0x2
        XRL       A,R0
        JNZ       ??zclGp_SendGpNotificationCommand_1
//  430   {
//  431     len += 9;  // IEEE addr + EP
        MOV       ?V2,#0x14
//  432   }
//  433   
//  434   // Length of the command payload
//  435   len += pCmd->payloadLen;
??zclGp_SendGpNotificationCommand_1:
        MOV       A,R2
        ADD       A,#0x14
        MOV       ?V10,A
        CLR       A
        ADDC      A,?V1
        MOV       ?V11,A
        MOV       DPL,?V10
        MOV       DPH,A
        MOVX      A,@DPTR
        MOV       R0,A
        MOV       A,?V2
        ADD       A,R0
        MOV       ?V2,A
        CLR       A
        ADDC      A,#0x0
//  436 
//  437   buf = zcl_mem_alloc( len );
        ; Setup parameters for call to function osal_mem_alloc
        MOV       R2,?V2
        MOV       R3,A
        LCALL     `??osal_mem_alloc::?relay`; Banked call to: osal_mem_alloc
        MOV       ?V12,R2
        MOV       ?V13,R3
//  438   if ( buf )
        MOV       A,R2
        ORL       A,R3
        JNZ       $+5
        LJMP      ??zclGp_SendGpNotificationCommand_2 & 0xFFFF
//  439   {
//  440     pBuf = buf;
//  441     
//  442     zcl_memcpy( pBuf, &pCmd->options, sizeof ( uint16 ) );
        ; Setup parameters for call to function osal_memcpy
        MOV       ?V4,?V0
        MOV       ?V5,?V1
        MOV       ?V6,#0x0
        MOV       R0,#?V4
        LCALL     ?PUSH_XSTACK_I_THREE
          CFI CFA_XSP16 add(XSP16, 27)
        MOV       R4,#0x2
        MOV       R5,#0x0
        LCALL     ??Subroutine42_0 & 0xFFFF
??CrossCallReturnLabel_84:
        LCALL     ?DEALLOC_XSTACK8
          CFI CFA_XSP16 add(XSP16, 24)
//  443     pBuf += sizeof ( uint16 );
        MOV       A,?V12
        ADD       A,#0x2
        MOV       R6,A
        CLR       A
        ADDC      A,?V13
        MOV       R7,A
        MOV       DPL,?V0
        MOV       DPH,?V1
        MOVX      A,@DPTR
        ANL       A,#0x7
        MOV       R0,A
        JNZ       ??zclGp_SendGpNotificationCommand_3
//  444     
//  445     // If Application Id bitfield is 0b000
//  446     if( GP_IS_APPLICATION_ID_GPD( pCmd->options ) )
//  447     {
//  448       zcl_memcpy( pBuf, &pCmd->gpdId, sizeof ( uint32 ) );
        MOV       A,?V0
        ADD       A,#0x2
        LCALL     ?Subroutine27 & 0xFFFF
??CrossCallReturnLabel_34:
        LCALL     ?PUSH_XSTACK_I_THREE
          CFI CFA_XSP16 add(XSP16, 27)
        LCALL     ?Subroutine25 & 0xFFFF
??CrossCallReturnLabel_68:
        LCALL     ?DEALLOC_XSTACK8
          CFI CFA_XSP16 add(XSP16, 24)
//  449       pGpdId = ( uint8* )&pCmd->gpdId;
//  450       appId = GP_OPT_APP_ID_GPD;
        MOV       ?V7,#0x0
//  451       pBuf += sizeof ( uint32 );
        MOV       A,R6
        ADD       A,#0x4
        SJMP      ??CrossCallReturnLabel_6
//  452     }
//  453     // If Application Id bitfield is 0b010
//  454     else if( GP_IS_APPLICATION_ID_IEEE( pCmd->options ) )
??zclGp_SendGpNotificationCommand_3:
        MOV       A,#0x2
        XRL       A,R0
        JNZ       ??zclGp_SendGpNotificationCommand_4
//  455     {
//  456       zcl_memcpy( pBuf, &pCmd->gpdIEEE, Z_EXTADDR_LEN );
        MOV       A,?V0
        ADD       A,#0x6
        LCALL     ?Subroutine27 & 0xFFFF
??CrossCallReturnLabel_35:
        LCALL     ?PUSH_XSTACK_I_THREE
          CFI CFA_XSP16 add(XSP16, 27)
        MOV       R4,#0x8
        LCALL     ??Subroutine40_0 & 0xFFFF
??CrossCallReturnLabel_72:
        LCALL     ?DEALLOC_XSTACK8
          CFI CFA_XSP16 add(XSP16, 24)
//  457       pGpdId = pCmd->gpdIEEE;
//  458       appId = GP_OPT_APP_ID_IEEE;
        MOV       ?V7,#0x2
//  459       pBuf += Z_EXTADDR_LEN;
//  460       *pBuf++ = pCmd->ep;
        MOV       A,?V0
        ADD       A,#0xe
        MOV       DPL,A
        CLR       A
        ADDC      A,?V1
        LCALL     ?Subroutine11 & 0xFFFF
//  461     }
??CrossCallReturnLabel_6:
        MOV       R6,A
        JNC       ??zclGp_SendGpNotificationCommand_4
        INC       R7
//  462     
//  463     zcl_memcpy( pBuf, &pCmd->gpdSecCounter, sizeof ( uint32 ) );
??zclGp_SendGpNotificationCommand_4:
        ; Setup parameters for call to function osal_memcpy
        MOV       A,?V0
        ADD       A,#0xf
        LCALL     ?Subroutine28 & 0xFFFF
??CrossCallReturnLabel_36:
        LCALL     ?PUSH_XSTACK_I_THREE
          CFI CFA_XSP16 add(XSP16, 27)
        LCALL     ?Subroutine25 & 0xFFFF
??CrossCallReturnLabel_69:
        LCALL     ?DEALLOC_XSTACK8
          CFI CFA_XSP16 add(XSP16, 24)
//  464     pBuf += sizeof ( uint32 );
//  465 
//  466     *pBuf++ = pCmd->cmdId;
        MOV       A,?V0
        ADD       A,#0x13
        MOV       DPL,A
        CLR       A
        ADDC      A,?V1
        LCALL     ?Subroutine7 & 0xFFFF
//  467     
//  468     *pBuf++ = pCmd->payloadLen;
??CrossCallReturnLabel_0:
        JNC       ??zclGp_SendGpNotificationCommand_5
        INC       R7
//  469     if ( pCmd->payloadLen > 0 )
??zclGp_SendGpNotificationCommand_5:
        MOV       DPL,?V10
        MOV       DPH,?V11
        MOVX      A,@DPTR
        MOV       R1,A
        JZ        ??CrossCallReturnLabel_14
//  470     {
//  471       zcl_memcpy( pBuf, &pCmd->cmdPayload, pCmd->payloadLen );
        ; Setup parameters for call to function osal_memcpy
        MOV       A,?V0
        ADD       A,#0x15
        LCALL     ?Subroutine28 & 0xFFFF
??CrossCallReturnLabel_37:
        LCALL     ?PUSH_XSTACK_I_THREE
          CFI CFA_XSP16 add(XSP16, 27)
        MOV       A,R1
        MOV       R4,A
        LCALL     ??Subroutine40_0 & 0xFFFF
??CrossCallReturnLabel_73:
        LCALL     ?DEALLOC_XSTACK8
          CFI CFA_XSP16 add(XSP16, 24)
//  472       pBuf += pCmd->payloadLen;
        LCALL     ?Subroutine20 & 0xFFFF
//  473     }
//  474     
//  475     zcl_memcpy( pBuf, &pCmd->gppShortAddr, sizeof ( uint16 ) );
??CrossCallReturnLabel_14:
        ; Setup parameters for call to function osal_memcpy
        MOV       A,?V0
        ADD       A,#0x17
        LCALL     ?Subroutine28 & 0xFFFF
??CrossCallReturnLabel_38:
        LCALL     ?PUSH_XSTACK_I_THREE
          CFI CFA_XSP16 add(XSP16, 27)
        MOV       R4,#0x2
        LCALL     ??Subroutine40_0 & 0xFFFF
??CrossCallReturnLabel_74:
        LCALL     ?DEALLOC_XSTACK8
          CFI CFA_XSP16 add(XSP16, 24)
//  476     pBuf += sizeof ( uint16 );
//  477     
//  478     *pBuf++ = pCmd->gppGpdLink;
        MOV       A,?V0
        ADD       A,#0x19
        MOV       DPL,A
        CLR       A
        ADDC      A,?V1
        LCALL     ?Subroutine21 & 0xFFFF
//  479     
//  480     pCmdPayloadMsgCurr = gp_AddCmdPayloadMsgNode ( &pCmdPayloadMsgHead, buf, len );
??CrossCallReturnLabel_16:
        ; Setup parameters for call to function gp_AddCmdPayloadMsgNode
        MOV       R1,?V2
        MOV       R4,?V12
        MOV       R5,?V13
        MOV       R2,#pCmdPayloadMsgHead & 0xff
        MOV       R3,#(pCmdPayloadMsgHead >> 8) & 0xff
        LCALL     `??gp_AddCmdPayloadMsgNode::?relay`; Banked call to: gp_AddCmdPayloadMsgNode
        MOV       DPL,R2
        MOV       DPH,R3
//  481     
//  482     pCmdPayloadMsgCurr->secNum = secNum;
        MOV       A,?V14
        MOVX      @DPTR,A
//  483           
//  484     if ( pCmdPayloadMsgCurr != NULL )
        MOV       A,DPL
        ORL       A,DPH
        JZ        ??zclGp_SendGpNotificationCommand_6
//  485     {
//  486       gp_addPairedSinksToMsgQueue( appId, pGpdId, pCmdPayloadMsgCurr );
        ; Setup parameters for call to function gp_addPairedSinksToMsgQueue
        MOV       R4,DPL
        MOV       R5,DPH
        MOV       R2,?V8
        MOV       R3,?V9
        MOV       R1,?V7
        LCALL     `??gp_addPairedSinksToMsgQueue::?relay`; Banked call to: gp_addPairedSinksToMsgQueue
//  487       osal_start_timerEx( zcl_TaskID, ZCL_DATABUF_SEND, 50 );
        ; Setup parameters for call to function osal_start_timerEx
        MOV       DPTR,#__Constant_32
        LCALL     ?PUSH_XSTACK8_X_FOUR
          CFI CFA_XSP16 add(XSP16, 28)
        MOV       R2,#0x20
        MOV       R3,#0x0
        MOV       DPTR,#zcl_TaskID
        MOVX      A,@DPTR
        MOV       R1,A
        LCALL     `??osal_start_timerEx::?relay`; Banked call to: osal_start_timerEx
        MOV       A,#0x4
        LCALL     ?DEALLOC_XSTACK8
          CFI CFA_XSP16 add(XSP16, 24)
        SJMP      ??zclGp_SendGpNotificationCommand_6
//  488     }
//  489 
//  490   }
//  491   else
//  492     status = ZMemError;
??zclGp_SendGpNotificationCommand_2:
        MOV       ?V15,#0x10
//  493 
//  494   return ( status );
??zclGp_SendGpNotificationCommand_6:
        MOV       R1,?V15
        MOV       R7,#0x10
        LJMP      ?BANKED_LEAVE_XDATA
//  495 }
          CFI EndBlock cfiBlock41

        RSEG BANKED_CODE:HUGECODE:NOROOT(0)
?Subroutine28:
          CFI Block cfiCond42 Using cfiCommon0
          CFI Function zclGp_SendGpNotificationCommand
          CFI Conditional ??CrossCallReturnLabel_36
          CFI R6 load(1, XDATA, add(CFA_XSP16, literal(-24)))
          CFI VB load(1, XDATA, add(CFA_XSP16, literal(-23)))
          CFI V0 load(1, XDATA, add(CFA_XSP16, literal(-22)))
          CFI V1 load(1, XDATA, add(CFA_XSP16, literal(-21)))
          CFI V2 load(1, XDATA, add(CFA_XSP16, literal(-20)))
          CFI V3 load(1, XDATA, add(CFA_XSP16, literal(-19)))
          CFI V4 load(1, XDATA, add(CFA_XSP16, literal(-18)))
          CFI V5 load(1, XDATA, add(CFA_XSP16, literal(-17)))
          CFI V6 load(1, XDATA, add(CFA_XSP16, literal(-16)))
          CFI V7 load(1, XDATA, add(CFA_XSP16, literal(-15)))
          CFI V8 load(1, XDATA, add(CFA_XSP16, literal(-14)))
          CFI V9 load(1, XDATA, add(CFA_XSP16, literal(-13)))
          CFI V10 load(1, XDATA, add(CFA_XSP16, literal(-12)))
          CFI V11 load(1, XDATA, add(CFA_XSP16, literal(-11)))
          CFI V12 load(1, XDATA, add(CFA_XSP16, literal(-10)))
          CFI V13 load(1, XDATA, add(CFA_XSP16, literal(-9)))
          CFI V14 load(1, XDATA, add(CFA_XSP16, literal(-8)))
          CFI V15 load(1, XDATA, add(CFA_XSP16, literal(-7)))
          CFI R7 load(1, XDATA, add(CFA_XSP16, literal(-6)))
          CFI ?RET_LOW load(1, XDATA, add(CFA_XSP16, literal(-5)))
          CFI ?RET_HIGH load(1, XDATA, add(CFA_XSP16, literal(-4)))
          CFI ?BRET_EXT load(1, XDATA, add(CFA_XSP16, literal(-3)))
          CFI DPL0 load(1, XDATA, add(CFA_XSP16, literal(-2)))
          CFI DPH0 load(1, XDATA, add(CFA_XSP16, literal(-1)))
          CFI CFA_SP SP+-2
          CFI CFA_XSP16 add(XSP16, 24)
          CFI Block cfiCond43 Using cfiCommon0
          CFI (cfiCond43) Function zclGp_SendGpNotificationCommand
          CFI (cfiCond43) Conditional ??CrossCallReturnLabel_37
          CFI (cfiCond43) R6 load(1, XDATA, add(CFA_XSP16, literal(-24)))
          CFI (cfiCond43) VB load(1, XDATA, add(CFA_XSP16, literal(-23)))
          CFI (cfiCond43) V0 load(1, XDATA, add(CFA_XSP16, literal(-22)))
          CFI (cfiCond43) V1 load(1, XDATA, add(CFA_XSP16, literal(-21)))
          CFI (cfiCond43) V2 load(1, XDATA, add(CFA_XSP16, literal(-20)))
          CFI (cfiCond43) V3 load(1, XDATA, add(CFA_XSP16, literal(-19)))
          CFI (cfiCond43) V4 load(1, XDATA, add(CFA_XSP16, literal(-18)))
          CFI (cfiCond43) V5 load(1, XDATA, add(CFA_XSP16, literal(-17)))
          CFI (cfiCond43) V6 load(1, XDATA, add(CFA_XSP16, literal(-16)))
          CFI (cfiCond43) V7 load(1, XDATA, add(CFA_XSP16, literal(-15)))
          CFI (cfiCond43) V8 load(1, XDATA, add(CFA_XSP16, literal(-14)))
          CFI (cfiCond43) V9 load(1, XDATA, add(CFA_XSP16, literal(-13)))
          CFI (cfiCond43) V10 load(1, XDATA, add(CFA_XSP16, literal(-12)))
          CFI (cfiCond43) V11 load(1, XDATA, add(CFA_XSP16, literal(-11)))
          CFI (cfiCond43) V12 load(1, XDATA, add(CFA_XSP16, literal(-10)))
          CFI (cfiCond43) V13 load(1, XDATA, add(CFA_XSP16, literal(-9)))
          CFI (cfiCond43) V14 load(1, XDATA, add(CFA_XSP16, literal(-8)))
          CFI (cfiCond43) V15 load(1, XDATA, add(CFA_XSP16, literal(-7)))
          CFI (cfiCond43) R7 load(1, XDATA, add(CFA_XSP16, literal(-6)))
          CFI (cfiCond43) ?RET_LOW load(1, XDATA, add(CFA_XSP16, literal(-5)))
          CFI (cfiCond43) ?RET_HIGH load(1, XDATA, add(CFA_XSP16, literal(-4)))
          CFI (cfiCond43) ?BRET_EXT load(1, XDATA, add(CFA_XSP16, literal(-3)))
          CFI (cfiCond43) DPL0 load(1, XDATA, add(CFA_XSP16, literal(-2)))
          CFI (cfiCond43) DPH0 load(1, XDATA, add(CFA_XSP16, literal(-1)))
          CFI (cfiCond43) CFA_SP SP+-2
          CFI (cfiCond43) CFA_XSP16 add(XSP16, 24)
          CFI Block cfiCond44 Using cfiCommon0
          CFI (cfiCond44) Function zclGp_SendGpNotificationCommand
          CFI (cfiCond44) Conditional ??CrossCallReturnLabel_38
          CFI (cfiCond44) R6 load(1, XDATA, add(CFA_XSP16, literal(-24)))
          CFI (cfiCond44) VB load(1, XDATA, add(CFA_XSP16, literal(-23)))
          CFI (cfiCond44) V0 load(1, XDATA, add(CFA_XSP16, literal(-22)))
          CFI (cfiCond44) V1 load(1, XDATA, add(CFA_XSP16, literal(-21)))
          CFI (cfiCond44) V2 load(1, XDATA, add(CFA_XSP16, literal(-20)))
          CFI (cfiCond44) V3 load(1, XDATA, add(CFA_XSP16, literal(-19)))
          CFI (cfiCond44) V4 load(1, XDATA, add(CFA_XSP16, literal(-18)))
          CFI (cfiCond44) V5 load(1, XDATA, add(CFA_XSP16, literal(-17)))
          CFI (cfiCond44) V6 load(1, XDATA, add(CFA_XSP16, literal(-16)))
          CFI (cfiCond44) V7 load(1, XDATA, add(CFA_XSP16, literal(-15)))
          CFI (cfiCond44) V8 load(1, XDATA, add(CFA_XSP16, literal(-14)))
          CFI (cfiCond44) V9 load(1, XDATA, add(CFA_XSP16, literal(-13)))
          CFI (cfiCond44) V10 load(1, XDATA, add(CFA_XSP16, literal(-12)))
          CFI (cfiCond44) V11 load(1, XDATA, add(CFA_XSP16, literal(-11)))
          CFI (cfiCond44) V12 load(1, XDATA, add(CFA_XSP16, literal(-10)))
          CFI (cfiCond44) V13 load(1, XDATA, add(CFA_XSP16, literal(-9)))
          CFI (cfiCond44) V14 load(1, XDATA, add(CFA_XSP16, literal(-8)))
          CFI (cfiCond44) V15 load(1, XDATA, add(CFA_XSP16, literal(-7)))
          CFI (cfiCond44) R7 load(1, XDATA, add(CFA_XSP16, literal(-6)))
          CFI (cfiCond44) ?RET_LOW load(1, XDATA, add(CFA_XSP16, literal(-5)))
          CFI (cfiCond44) ?RET_HIGH load(1, XDATA, add(CFA_XSP16, literal(-4)))
          CFI (cfiCond44) ?BRET_EXT load(1, XDATA, add(CFA_XSP16, literal(-3)))
          CFI (cfiCond44) DPL0 load(1, XDATA, add(CFA_XSP16, literal(-2)))
          CFI (cfiCond44) DPH0 load(1, XDATA, add(CFA_XSP16, literal(-1)))
          CFI (cfiCond44) CFA_SP SP+-2
          CFI (cfiCond44) CFA_XSP16 add(XSP16, 24)
          CFI Block cfiPicker45 Using cfiCommon1
          CFI (cfiPicker45) NoFunction
          CFI (cfiPicker45) Picker
        MOV       ?V4,A
        CLR       A
        ADDC      A,?V1
        MOV       ?V5,A
        MOV       R0,#?V4
        RET
          CFI EndBlock cfiCond42
          CFI EndBlock cfiCond43
          CFI EndBlock cfiCond44
          CFI EndBlock cfiPicker45

        RSEG BANKED_CODE:HUGECODE:NOROOT(0)
?Subroutine27:
          CFI Block cfiCond46 Using cfiCommon0
          CFI Function zclGp_SendGpNotificationCommand
          CFI Conditional ??CrossCallReturnLabel_34
          CFI R6 load(1, XDATA, add(CFA_XSP16, literal(-24)))
          CFI VB load(1, XDATA, add(CFA_XSP16, literal(-23)))
          CFI V0 load(1, XDATA, add(CFA_XSP16, literal(-22)))
          CFI V1 load(1, XDATA, add(CFA_XSP16, literal(-21)))
          CFI V2 load(1, XDATA, add(CFA_XSP16, literal(-20)))
          CFI V3 load(1, XDATA, add(CFA_XSP16, literal(-19)))
          CFI V4 load(1, XDATA, add(CFA_XSP16, literal(-18)))
          CFI V5 load(1, XDATA, add(CFA_XSP16, literal(-17)))
          CFI V6 load(1, XDATA, add(CFA_XSP16, literal(-16)))
          CFI V7 load(1, XDATA, add(CFA_XSP16, literal(-15)))
          CFI V8 load(1, XDATA, add(CFA_XSP16, literal(-14)))
          CFI V9 load(1, XDATA, add(CFA_XSP16, literal(-13)))
          CFI V10 load(1, XDATA, add(CFA_XSP16, literal(-12)))
          CFI V11 load(1, XDATA, add(CFA_XSP16, literal(-11)))
          CFI V12 load(1, XDATA, add(CFA_XSP16, literal(-10)))
          CFI V13 load(1, XDATA, add(CFA_XSP16, literal(-9)))
          CFI V14 load(1, XDATA, add(CFA_XSP16, literal(-8)))
          CFI V15 load(1, XDATA, add(CFA_XSP16, literal(-7)))
          CFI R7 load(1, XDATA, add(CFA_XSP16, literal(-6)))
          CFI ?RET_LOW load(1, XDATA, add(CFA_XSP16, literal(-5)))
          CFI ?RET_HIGH load(1, XDATA, add(CFA_XSP16, literal(-4)))
          CFI ?BRET_EXT load(1, XDATA, add(CFA_XSP16, literal(-3)))
          CFI DPL0 load(1, XDATA, add(CFA_XSP16, literal(-2)))
          CFI DPH0 load(1, XDATA, add(CFA_XSP16, literal(-1)))
          CFI CFA_SP SP+-2
          CFI CFA_XSP16 add(XSP16, 24)
          CFI Block cfiCond47 Using cfiCommon0
          CFI (cfiCond47) Function zclGp_SendGpNotificationCommand
          CFI (cfiCond47) Conditional ??CrossCallReturnLabel_35
          CFI (cfiCond47) R6 load(1, XDATA, add(CFA_XSP16, literal(-24)))
          CFI (cfiCond47) VB load(1, XDATA, add(CFA_XSP16, literal(-23)))
          CFI (cfiCond47) V0 load(1, XDATA, add(CFA_XSP16, literal(-22)))
          CFI (cfiCond47) V1 load(1, XDATA, add(CFA_XSP16, literal(-21)))
          CFI (cfiCond47) V2 load(1, XDATA, add(CFA_XSP16, literal(-20)))
          CFI (cfiCond47) V3 load(1, XDATA, add(CFA_XSP16, literal(-19)))
          CFI (cfiCond47) V4 load(1, XDATA, add(CFA_XSP16, literal(-18)))
          CFI (cfiCond47) V5 load(1, XDATA, add(CFA_XSP16, literal(-17)))
          CFI (cfiCond47) V6 load(1, XDATA, add(CFA_XSP16, literal(-16)))
          CFI (cfiCond47) V7 load(1, XDATA, add(CFA_XSP16, literal(-15)))
          CFI (cfiCond47) V8 load(1, XDATA, add(CFA_XSP16, literal(-14)))
          CFI (cfiCond47) V9 load(1, XDATA, add(CFA_XSP16, literal(-13)))
          CFI (cfiCond47) V10 load(1, XDATA, add(CFA_XSP16, literal(-12)))
          CFI (cfiCond47) V11 load(1, XDATA, add(CFA_XSP16, literal(-11)))
          CFI (cfiCond47) V12 load(1, XDATA, add(CFA_XSP16, literal(-10)))
          CFI (cfiCond47) V13 load(1, XDATA, add(CFA_XSP16, literal(-9)))
          CFI (cfiCond47) V14 load(1, XDATA, add(CFA_XSP16, literal(-8)))
          CFI (cfiCond47) V15 load(1, XDATA, add(CFA_XSP16, literal(-7)))
          CFI (cfiCond47) R7 load(1, XDATA, add(CFA_XSP16, literal(-6)))
          CFI (cfiCond47) ?RET_LOW load(1, XDATA, add(CFA_XSP16, literal(-5)))
          CFI (cfiCond47) ?RET_HIGH load(1, XDATA, add(CFA_XSP16, literal(-4)))
          CFI (cfiCond47) ?BRET_EXT load(1, XDATA, add(CFA_XSP16, literal(-3)))
          CFI (cfiCond47) DPL0 load(1, XDATA, add(CFA_XSP16, literal(-2)))
          CFI (cfiCond47) DPH0 load(1, XDATA, add(CFA_XSP16, literal(-1)))
          CFI (cfiCond47) CFA_SP SP+-2
          CFI (cfiCond47) CFA_XSP16 add(XSP16, 24)
          CFI Block cfiPicker48 Using cfiCommon1
          CFI (cfiPicker48) NoFunction
          CFI (cfiPicker48) Picker
        MOV       ?V8,A
        CLR       A
        ADDC      A,?V1
        MOV       ?V9,A
        ; Setup parameters for call to function osal_memcpy
        ; Setup parameters for call to function osal_memcpy
        MOV       ?V4,?V8
        MOV       ?V5,A
        MOV       R0,#?V4
        RET
          CFI EndBlock cfiCond46
          CFI EndBlock cfiCond47
          CFI EndBlock cfiPicker48
//  496   
//  497 /*********************************************************************
//  498  * @fn      zclGp_SendGpCommissioningNotificationCommand
//  499  *
//  500  * @brief   Send the Green Power Commissioning Notification Command to a device
//  501  *
//  502  * @param   pCmd - Pointer to GP Commissioning Notification Struct
//  503  *
//  504  * @return  ZStatus_t
//  505  */

        RSEG BANKED_CODE:HUGECODE:NOROOT(0)
//  506 ZStatus_t zclGp_SendGpCommissioningNotificationCommand( gpCommissioningNotificationCmd_t *pCmd )
zclGp_SendGpCommissioningNotificationCommand:
          CFI Block cfiBlock49 Using cfiCommon0
          CFI Function zclGp_SendGpCommissioningNotificationCommand
        CODE
//  507 {
        FUNCALL zclGp_SendGpCommissioningNotificationCommand, osal_mem_alloc
        LOCFRAME ISTACK, 0, STACK
        LOCFRAME PSTACK, 0, STACK
        LOCFRAME XSTACK, 32, STACK
        LOCFRAME IOVERLAY, 0, STATIC
        LOCFRAME DOVERLAY, 0, STATIC
        ARGFRAME ISTACK, 0, STACK
        ARGFRAME PSTACK, 0, STACK
        ARGFRAME XSTACK, 32, STACK
        ARGFRAME IOVERLAY, 0, STATIC
        ARGFRAME DOVERLAY, 0, STATIC
        FUNCALL zclGp_SendGpCommissioningNotificationCommand, osal_memcpy
        LOCFRAME ISTACK, 0, STACK
        LOCFRAME PSTACK, 0, STACK
        LOCFRAME XSTACK, 35, STACK
        LOCFRAME IOVERLAY, 0, STATIC
        LOCFRAME DOVERLAY, 0, STATIC
        ARGFRAME ISTACK, 0, STACK
        ARGFRAME PSTACK, 0, STACK
        ARGFRAME XSTACK, 35, STACK
        ARGFRAME IOVERLAY, 0, STATIC
        ARGFRAME DOVERLAY, 0, STATIC
        FUNCALL zclGp_SendGpCommissioningNotificationCommand, osal_memcpy
        LOCFRAME ISTACK, 0, STACK
        LOCFRAME PSTACK, 0, STACK
        LOCFRAME XSTACK, 35, STACK
        LOCFRAME IOVERLAY, 0, STATIC
        LOCFRAME DOVERLAY, 0, STATIC
        ARGFRAME ISTACK, 0, STACK
        ARGFRAME PSTACK, 0, STACK
        ARGFRAME XSTACK, 35, STACK
        ARGFRAME IOVERLAY, 0, STATIC
        ARGFRAME DOVERLAY, 0, STATIC
        FUNCALL zclGp_SendGpCommissioningNotificationCommand, osal_memcpy
        LOCFRAME ISTACK, 0, STACK
        LOCFRAME PSTACK, 0, STACK
        LOCFRAME XSTACK, 35, STACK
        LOCFRAME IOVERLAY, 0, STATIC
        LOCFRAME DOVERLAY, 0, STATIC
        ARGFRAME ISTACK, 0, STACK
        ARGFRAME PSTACK, 0, STACK
        ARGFRAME XSTACK, 35, STACK
        ARGFRAME IOVERLAY, 0, STATIC
        ARGFRAME DOVERLAY, 0, STATIC
        FUNCALL zclGp_SendGpCommissioningNotificationCommand, osal_memcpy
        LOCFRAME ISTACK, 0, STACK
        LOCFRAME PSTACK, 0, STACK
        LOCFRAME XSTACK, 35, STACK
        LOCFRAME IOVERLAY, 0, STATIC
        LOCFRAME DOVERLAY, 0, STATIC
        ARGFRAME ISTACK, 0, STACK
        ARGFRAME PSTACK, 0, STACK
        ARGFRAME XSTACK, 35, STACK
        ARGFRAME IOVERLAY, 0, STATIC
        ARGFRAME DOVERLAY, 0, STATIC
        FUNCALL zclGp_SendGpCommissioningNotificationCommand, osal_memcpy
        LOCFRAME ISTACK, 0, STACK
        LOCFRAME PSTACK, 0, STACK
        LOCFRAME XSTACK, 35, STACK
        LOCFRAME IOVERLAY, 0, STATIC
        LOCFRAME DOVERLAY, 0, STATIC
        ARGFRAME ISTACK, 0, STACK
        ARGFRAME PSTACK, 0, STACK
        ARGFRAME XSTACK, 35, STACK
        ARGFRAME IOVERLAY, 0, STATIC
        ARGFRAME DOVERLAY, 0, STATIC
        FUNCALL zclGp_SendGpCommissioningNotificationCommand, osal_memcpy
        LOCFRAME ISTACK, 0, STACK
        LOCFRAME PSTACK, 0, STACK
        LOCFRAME XSTACK, 35, STACK
        LOCFRAME IOVERLAY, 0, STATIC
        LOCFRAME DOVERLAY, 0, STATIC
        ARGFRAME ISTACK, 0, STACK
        ARGFRAME PSTACK, 0, STACK
        ARGFRAME XSTACK, 35, STACK
        ARGFRAME IOVERLAY, 0, STATIC
        ARGFRAME DOVERLAY, 0, STATIC
        FUNCALL zclGp_SendGpCommissioningNotificationCommand, bdb_getZCLFrameCounter
        LOCFRAME ISTACK, 0, STACK
        LOCFRAME PSTACK, 0, STACK
        LOCFRAME XSTACK, 32, STACK
        LOCFRAME IOVERLAY, 0, STATIC
        LOCFRAME DOVERLAY, 0, STATIC
        ARGFRAME ISTACK, 0, STACK
        ARGFRAME PSTACK, 0, STACK
        ARGFRAME XSTACK, 32, STACK
        ARGFRAME IOVERLAY, 0, STATIC
        ARGFRAME DOVERLAY, 0, STATIC
        FUNCALL zclGp_SendGpCommissioningNotificationCommand, zcl_SendCommand
        LOCFRAME ISTACK, 0, STACK
        LOCFRAME PSTACK, 0, STACK
        LOCFRAME XSTACK, 43, STACK
        LOCFRAME IOVERLAY, 0, STATIC
        LOCFRAME DOVERLAY, 0, STATIC
        ARGFRAME ISTACK, 0, STACK
        ARGFRAME PSTACK, 0, STACK
        ARGFRAME XSTACK, 43, STACK
        ARGFRAME IOVERLAY, 0, STATIC
        ARGFRAME DOVERLAY, 0, STATIC
        FUNCALL zclGp_SendGpCommissioningNotificationCommand, osal_mem_free
        LOCFRAME ISTACK, 0, STACK
        LOCFRAME PSTACK, 0, STACK
        LOCFRAME XSTACK, 32, STACK
        LOCFRAME IOVERLAY, 0, STATIC
        LOCFRAME DOVERLAY, 0, STATIC
        ARGFRAME ISTACK, 0, STACK
        ARGFRAME PSTACK, 0, STACK
        ARGFRAME XSTACK, 32, STACK
        ARGFRAME IOVERLAY, 0, STATIC
        ARGFRAME DOVERLAY, 0, STATIC
        REQUIRE ?V0
        REQUIRE ?V1
        REQUIRE ?V2
        REQUIRE ?V3
        REQUIRE ?V4
        REQUIRE ?V5
        REQUIRE ?V6
        REQUIRE ?V7
        REQUIRE ?V8
        REQUIRE ?V9
        REQUIRE ?V10
        REQUIRE ?V11
        MOV       A,#-0x14
        LCALL     ?BANKED_ENTER_XDATA
          CFI DPH0 load(1, XDATA, add(CFA_XSP16, literal(-1)))
          CFI DPL0 load(1, XDATA, add(CFA_XSP16, literal(-2)))
          CFI ?BRET_EXT load(1, XDATA, add(CFA_XSP16, literal(-3)))
          CFI ?RET_HIGH load(1, XDATA, add(CFA_XSP16, literal(-4)))
          CFI ?RET_LOW load(1, XDATA, add(CFA_XSP16, literal(-5)))
          CFI R7 load(1, XDATA, add(CFA_XSP16, literal(-6)))
          CFI V11 load(1, XDATA, add(CFA_XSP16, literal(-7)))
          CFI V10 load(1, XDATA, add(CFA_XSP16, literal(-8)))
          CFI V9 load(1, XDATA, add(CFA_XSP16, literal(-9)))
          CFI V8 load(1, XDATA, add(CFA_XSP16, literal(-10)))
          CFI V7 load(1, XDATA, add(CFA_XSP16, literal(-11)))
          CFI V6 load(1, XDATA, add(CFA_XSP16, literal(-12)))
          CFI V5 load(1, XDATA, add(CFA_XSP16, literal(-13)))
          CFI V4 load(1, XDATA, add(CFA_XSP16, literal(-14)))
          CFI V3 load(1, XDATA, add(CFA_XSP16, literal(-15)))
          CFI V2 load(1, XDATA, add(CFA_XSP16, literal(-16)))
          CFI V1 load(1, XDATA, add(CFA_XSP16, literal(-17)))
          CFI V0 load(1, XDATA, add(CFA_XSP16, literal(-18)))
          CFI VB load(1, XDATA, add(CFA_XSP16, literal(-19)))
          CFI R6 load(1, XDATA, add(CFA_XSP16, literal(-20)))
          CFI CFA_SP SP+0
          CFI CFA_XSP16 add(XSP16, 20)
        ; Saved register size: 20
        ; Auto size: 12
        MOV       A,#-0xc
        LCALL     ?ALLOC_XSTACK8
          CFI CFA_XSP16 add(XSP16, 32)
        MOV       ?V2,R2
        MOV       ?V3,R3
//  508   uint8 *buf = NULL;
//  509   uint8 *pBuf = NULL;
//  510   ZStatus_t status;
//  511   uint16 len = 11;  // options + GPD Sec Counter + Cmd ID + payloadLen + GPP Short Address + GPP-GPD link
        MOV       ?V0,#0xb
        MOV       DPL,R2
        MOV       DPH,R3
        MOVX      A,@DPTR
        ANL       A,#0x7
        MOV       R0,A
        JNZ       ??zclGp_SendGpCommissioningNotificationCommand_0
//  512   
//  513   // Check some stuff to calculate the packet len
//  514   // If Application Id bitfield is 0b000
//  515   if( GP_IS_APPLICATION_ID_GPD( pCmd->options ) )
//  516   {
//  517     len += 4;  // GPD ID
        MOV       ?V0,#0xf
        SJMP      ??zclGp_SendGpCommissioningNotificationCommand_1
//  518   }
//  519   // If Application Id bitfield is 0b010
//  520   else if( GP_IS_APPLICATION_ID_IEEE( pCmd->options ) )
??zclGp_SendGpCommissioningNotificationCommand_0:
        MOV       A,#0x2
        XRL       A,R0
        JNZ       ??zclGp_SendGpCommissioningNotificationCommand_1
//  521   {
//  522     len += 9;  // IEEE addr + EP
        MOV       ?V0,#0x14
//  523   }
//  524   
//  525   // Length of the command payload
//  526   len += pCmd->payloadLen;
??zclGp_SendGpCommissioningNotificationCommand_1:
        MOV       A,R2
        ADD       A,#0x14
        MOV       ?V10,A
        CLR       A
        ADDC      A,?V3
        MOV       ?V11,A
        MOV       DPL,?V10
        MOV       DPH,A
        MOVX      A,@DPTR
        MOV       R0,A
        MOV       A,?V0
        ADD       A,R0
        MOV       ?V0,A
        CLR       A
        ADDC      A,#0x0
        MOV       ?V1,A
//  527 
//  528   buf = zcl_mem_alloc( len );
        ; Setup parameters for call to function osal_mem_alloc
        MOV       R2,?V0
        MOV       R3,A
        LCALL     `??osal_mem_alloc::?relay`; Banked call to: osal_mem_alloc
        MOV       ?V8,R2
        MOV       ?V9,R3
//  529   if ( buf )
        MOV       A,R2
        ORL       A,R3
        JNZ       $+5
        LJMP      ??zclGp_SendGpCommissioningNotificationCommand_2 & 0xFFFF
//  530   {
//  531     pBuf = buf;
//  532     
//  533     zcl_memcpy( pBuf, &pCmd->options, sizeof ( uint16 ) );
        ; Setup parameters for call to function osal_memcpy
        MOV       ?V4,?V2
        MOV       ?V5,?V3
        MOV       ?V6,#0x0
        MOV       R0,#?V4
        LCALL     ?PUSH_XSTACK_I_THREE
          CFI CFA_XSP16 add(XSP16, 35)
        MOV       R4,#0x2
        MOV       R5,#0x0
        LCALL     ??Subroutine42_0 & 0xFFFF
??CrossCallReturnLabel_85:
        LCALL     ?DEALLOC_XSTACK8
          CFI CFA_XSP16 add(XSP16, 32)
//  534     pBuf += sizeof ( uint16 );
        MOV       A,?V8
        ADD       A,#0x2
        MOV       R6,A
        CLR       A
        ADDC      A,?V9
        MOV       R7,A
        MOV       DPL,?V2
        MOV       DPH,?V3
        MOVX      A,@DPTR
        ANL       A,#0x7
        MOV       R0,A
        JNZ       ??zclGp_SendGpCommissioningNotificationCommand_3
//  535     
//  536     // If Application Id bitfield is 0b000
//  537     if( GP_IS_APPLICATION_ID_GPD( pCmd->options ) )
//  538     {
//  539       zcl_memcpy( pBuf, &pCmd->gpdId, sizeof ( uint32 ) );
        ; Setup parameters for call to function osal_memcpy
        INC       DPTR
        INC       DPTR
        MOV       R1,DPL
        MOV       R2,DPH
        MOV       ?V4,R1
        MOV       ?V5,R2
        MOV       R0,#?V4
        LCALL     ?PUSH_XSTACK_I_THREE
          CFI CFA_XSP16 add(XSP16, 35)
        LCALL     ?Subroutine25 & 0xFFFF
??CrossCallReturnLabel_70:
        LCALL     ?DEALLOC_XSTACK8
          CFI CFA_XSP16 add(XSP16, 32)
//  540       pBuf += sizeof ( uint32 );
        MOV       A,R6
        ADD       A,#0x4
        SJMP      ??CrossCallReturnLabel_7
//  541     }
//  542     // If Application Id bitfield is 0b010
//  543     else if( GP_IS_APPLICATION_ID_IEEE( pCmd->options ) )
??zclGp_SendGpCommissioningNotificationCommand_3:
        MOV       A,#0x2
        XRL       A,R0
        JNZ       ??zclGp_SendGpCommissioningNotificationCommand_4
//  544     {
//  545       zcl_memcpy( pBuf, &pCmd->gpdIEEE, Z_EXTADDR_LEN );
        ; Setup parameters for call to function osal_memcpy
        MOV       A,?V2
        ADD       A,#0x6
        LCALL     ?Subroutine26 & 0xFFFF
??CrossCallReturnLabel_30:
        LCALL     ?PUSH_XSTACK_I_THREE
          CFI CFA_XSP16 add(XSP16, 35)
        MOV       R4,#0x8
        LCALL     ??Subroutine40_0 & 0xFFFF
??CrossCallReturnLabel_75:
        LCALL     ?DEALLOC_XSTACK8
          CFI CFA_XSP16 add(XSP16, 32)
//  546       pBuf += Z_EXTADDR_LEN;
//  547       *pBuf++ = pCmd->ep;
        MOV       A,?V2
        ADD       A,#0xe
        MOV       DPL,A
        CLR       A
        ADDC      A,?V3
        LCALL     ?Subroutine11 & 0xFFFF
//  548     }
??CrossCallReturnLabel_7:
        MOV       R6,A
        JNC       ??zclGp_SendGpCommissioningNotificationCommand_4
        INC       R7
//  549     
//  550     zcl_memcpy( pBuf, &pCmd->gpdSecCounter, sizeof ( uint32 ) );
??zclGp_SendGpCommissioningNotificationCommand_4:
        ; Setup parameters for call to function osal_memcpy
        MOV       A,?V2
        ADD       A,#0xf
        LCALL     ?Subroutine26 & 0xFFFF
??CrossCallReturnLabel_31:
        LCALL     ?PUSH_XSTACK_I_THREE
          CFI CFA_XSP16 add(XSP16, 35)
        LCALL     ?Subroutine25 & 0xFFFF
??CrossCallReturnLabel_71:
        LCALL     ?DEALLOC_XSTACK8
          CFI CFA_XSP16 add(XSP16, 32)
//  551     pBuf += sizeof ( uint32 );
//  552 
//  553     *pBuf++ = pCmd->cmdId;
        MOV       A,?V2
        ADD       A,#0x13
        MOV       DPL,A
        CLR       A
        ADDC      A,?V3
        LCALL     ?Subroutine7 & 0xFFFF
//  554     
//  555     *pBuf++ = pCmd->payloadLen;
??CrossCallReturnLabel_1:
        JNC       ??zclGp_SendGpCommissioningNotificationCommand_5
        INC       R7
//  556     if ( pCmd->payloadLen > 0 )
??zclGp_SendGpCommissioningNotificationCommand_5:
        MOV       DPL,?V10
        MOV       DPH,?V11
        MOVX      A,@DPTR
        MOV       R1,A
        JZ        ??CrossCallReturnLabel_15
//  557     {
//  558       zcl_memcpy( pBuf, &pCmd->cmdPayload, pCmd->payloadLen );
        ; Setup parameters for call to function osal_memcpy
        MOV       A,?V2
        ADD       A,#0x15
        LCALL     ?Subroutine26 & 0xFFFF
??CrossCallReturnLabel_32:
        LCALL     ?PUSH_XSTACK_I_THREE
          CFI CFA_XSP16 add(XSP16, 35)
        MOV       A,R1
        MOV       R4,A
        LCALL     ??Subroutine40_0 & 0xFFFF
??CrossCallReturnLabel_76:
        LCALL     ?DEALLOC_XSTACK8
          CFI CFA_XSP16 add(XSP16, 32)
//  559       pBuf += pCmd->payloadLen;
        LCALL     ?Subroutine20 & 0xFFFF
//  560     }
//  561     
//  562     zcl_memcpy( pBuf, &pCmd->gppShortAddr, sizeof ( uint16 ) );
??CrossCallReturnLabel_15:
        ; Setup parameters for call to function osal_memcpy
        MOV       A,?V2
        ADD       A,#0x17
        LCALL     ?Subroutine26 & 0xFFFF
??CrossCallReturnLabel_33:
        LCALL     ?PUSH_XSTACK_I_THREE
          CFI CFA_XSP16 add(XSP16, 35)
        MOV       R4,#0x2
        LCALL     ??Subroutine40_0 & 0xFFFF
??CrossCallReturnLabel_77:
        LCALL     ?DEALLOC_XSTACK8
          CFI CFA_XSP16 add(XSP16, 32)
//  563     pBuf += sizeof ( uint16 );
//  564     
//  565     *pBuf++ = pCmd->gppGpdLink;
        MOV       A,?V2
        ADD       A,#0x19
        MOV       DPL,A
        CLR       A
        ADDC      A,?V3
        LCALL     ?Subroutine21 & 0xFFFF
//  566     
//  567     afAddrType_t addr;
//  568     addr.endPoint = GREEN_POWER_INTERNAL_ENDPOINT;
??CrossCallReturnLabel_17:
        MOV       A,#0x9
        LCALL     ?XSTACK_DISP0_8
        LCALL     ?Subroutine17 & 0xFFFF
//  569     addr.panId = _NIB.nwkPanId;
??CrossCallReturnLabel_123:
        MOV       A,#0xa
        LCALL     ?XSTACK_DISP0_8
        LCALL     ?Subroutine22 & 0xFFFF
//  570     addr.addr.shortAddr = gp_commissionerAddress; 
??CrossCallReturnLabel_23:
        MOV       DPTR,#gp_commissionerAddress
        LCALL     ?Subroutine16 & 0xFFFF
??CrossCallReturnLabel_13:
        LCALL     ?Subroutine22 & 0xFFFF
//  571         
//  572     if ( gp_commissionerAddress == 0xFFFF )
??CrossCallReturnLabel_24:
        MOV       DPTR,#gp_commissionerAddress
        MOVX      A,@DPTR
        CPL       A
        JNZ       ??zclGp_SendGpCommissioningNotificationCommand_6
        INC       DPTR
        MOVX      A,@DPTR
        CPL       A
??zclGp_SendGpCommissioningNotificationCommand_6:
        JNZ       ??zclGp_SendGpCommissioningNotificationCommand_7
//  573     {
//  574       addr.addrMode = afAddrBroadcast;
        MOV       A,#0x8
        LCALL     ?XSTACK_DISP0_8
        MOV       A,#0xf
        SJMP      ??zclGp_SendGpCommissioningNotificationCommand_8
//  575     }
//  576     else
//  577     {
//  578       addr.addrMode = afAddr16Bit;
??zclGp_SendGpCommissioningNotificationCommand_7:
        MOV       A,#0x8
        LCALL     ?XSTACK_DISP0_8
        MOV       A,#0x2
??zclGp_SendGpCommissioningNotificationCommand_8:
        MOVX      @DPTR,A
//  579     }
//  580         
//  581     zcl_SendCommand( GREEN_POWER_INTERNAL_ENDPOINT, &addr, ZCL_CLUSTER_ID_GREEN_POWER,
//  582                       COMMAND_GP_COMMISSIONING_NOTIFICATION, TRUE, ZCL_FRAME_CLIENT_SERVER_DIR,
//  583                       TRUE, 0,  bdb_getZCLFrameCounter(), len, buf ); 
        ; Setup parameters for call to function bdb_getZCLFrameCounter
        LCALL     `??bdb_getZCLFrameCounter::?relay`; Banked call to: bdb_getZCLFrameCounter
        MOV       A,R1
        MOV       R1,A
        ; Setup parameters for call to function zcl_SendCommand
        MOV       R0,#?V8
        LCALL     ?PUSH_XSTACK_I_TWO
          CFI CFA_XSP16 add(XSP16, 34)
        MOV       R0,#?V0
        LCALL     ?PUSH_XSTACK_I_TWO
          CFI CFA_XSP16 add(XSP16, 36)
        MOV       A,R1
        MOV       ?V0,A
        MOV       R0,#?V0
        LCALL     ?PUSH_XSTACK_I_ONE
          CFI CFA_XSP16 add(XSP16, 37)
        CLR       A
        MOV       ?V0,A
        MOV       ?V1,A
        MOV       R0,#?V0
        LCALL     ?PUSH_XSTACK_I_TWO
          CFI CFA_XSP16 add(XSP16, 39)
        MOV       ?V0,#0x1
        MOV       R0,#?V0
        LCALL     ?PUSH_XSTACK_I_ONE
          CFI CFA_XSP16 add(XSP16, 40)
        MOV       ?V0,#0x0
        MOV       R0,#?V0
        LCALL     ?PUSH_XSTACK_I_ONE
          CFI CFA_XSP16 add(XSP16, 41)
        MOV       ?V0,#0x1
        MOV       R0,#?V0
        LCALL     ?PUSH_XSTACK_I_ONE
          CFI CFA_XSP16 add(XSP16, 42)
        MOV       ?V0,#0x4
        MOV       R0,#?V0
        LCALL     ?PUSH_XSTACK_I_ONE
          CFI CFA_XSP16 add(XSP16, 43)
        MOV       R4,#0x21
        MOV       R5,#0x0
        MOV       A,#0xb
        LCALL     ?XSTACK_DISP101_8
        MOV       R1,#-0xe
        LCALL     `??zcl_SendCommand::?relay`; Banked call to: zcl_SendCommand
        MOV       A,#0xb
        LCALL     ?DEALLOC_XSTACK8
          CFI CFA_XSP16 add(XSP16, 32)
//  584       
//  585     zcl_mem_free( buf );
        ; Setup parameters for call to function osal_mem_free
        MOV       R2,?V8
        MOV       R3,?V9
        LCALL     `??osal_mem_free::?relay`; Banked call to: osal_mem_free
        SJMP      ??zclGp_SendGpCommissioningNotificationCommand_9
//  586   }
//  587   else
//  588     status = ZMemError;
??zclGp_SendGpCommissioningNotificationCommand_2:
        MOV       ?V7,#0x10
//  589 
//  590   return ( status );
??zclGp_SendGpCommissioningNotificationCommand_9:
        MOV       R1,?V7
        MOV       A,#0xc
        LJMP      ?Subroutine2 & 0xFFFF
//  591 }
          CFI EndBlock cfiBlock49

        RSEG BANKED_CODE:HUGECODE:NOROOT(0)
?Subroutine26:
          CFI Block cfiCond50 Using cfiCommon0
          CFI Function zclGp_SendGpCommissioningNotificationCommand
          CFI Conditional ??CrossCallReturnLabel_30
          CFI R6 load(1, XDATA, add(CFA_XSP16, literal(-20)))
          CFI VB load(1, XDATA, add(CFA_XSP16, literal(-19)))
          CFI V0 load(1, XDATA, add(CFA_XSP16, literal(-18)))
          CFI V1 load(1, XDATA, add(CFA_XSP16, literal(-17)))
          CFI V2 load(1, XDATA, add(CFA_XSP16, literal(-16)))
          CFI V3 load(1, XDATA, add(CFA_XSP16, literal(-15)))
          CFI V4 load(1, XDATA, add(CFA_XSP16, literal(-14)))
          CFI V5 load(1, XDATA, add(CFA_XSP16, literal(-13)))
          CFI V6 load(1, XDATA, add(CFA_XSP16, literal(-12)))
          CFI V7 load(1, XDATA, add(CFA_XSP16, literal(-11)))
          CFI V8 load(1, XDATA, add(CFA_XSP16, literal(-10)))
          CFI V9 load(1, XDATA, add(CFA_XSP16, literal(-9)))
          CFI V10 load(1, XDATA, add(CFA_XSP16, literal(-8)))
          CFI V11 load(1, XDATA, add(CFA_XSP16, literal(-7)))
          CFI R7 load(1, XDATA, add(CFA_XSP16, literal(-6)))
          CFI ?RET_LOW load(1, XDATA, add(CFA_XSP16, literal(-5)))
          CFI ?RET_HIGH load(1, XDATA, add(CFA_XSP16, literal(-4)))
          CFI ?BRET_EXT load(1, XDATA, add(CFA_XSP16, literal(-3)))
          CFI DPL0 load(1, XDATA, add(CFA_XSP16, literal(-2)))
          CFI DPH0 load(1, XDATA, add(CFA_XSP16, literal(-1)))
          CFI CFA_SP SP+-2
          CFI CFA_XSP16 add(XSP16, 32)
          CFI Block cfiCond51 Using cfiCommon0
          CFI (cfiCond51) Function zclGp_SendGpCommissioningNotificationCommand
          CFI (cfiCond51) Conditional ??CrossCallReturnLabel_31
          CFI (cfiCond51) R6 load(1, XDATA, add(CFA_XSP16, literal(-20)))
          CFI (cfiCond51) VB load(1, XDATA, add(CFA_XSP16, literal(-19)))
          CFI (cfiCond51) V0 load(1, XDATA, add(CFA_XSP16, literal(-18)))
          CFI (cfiCond51) V1 load(1, XDATA, add(CFA_XSP16, literal(-17)))
          CFI (cfiCond51) V2 load(1, XDATA, add(CFA_XSP16, literal(-16)))
          CFI (cfiCond51) V3 load(1, XDATA, add(CFA_XSP16, literal(-15)))
          CFI (cfiCond51) V4 load(1, XDATA, add(CFA_XSP16, literal(-14)))
          CFI (cfiCond51) V5 load(1, XDATA, add(CFA_XSP16, literal(-13)))
          CFI (cfiCond51) V6 load(1, XDATA, add(CFA_XSP16, literal(-12)))
          CFI (cfiCond51) V7 load(1, XDATA, add(CFA_XSP16, literal(-11)))
          CFI (cfiCond51) V8 load(1, XDATA, add(CFA_XSP16, literal(-10)))
          CFI (cfiCond51) V9 load(1, XDATA, add(CFA_XSP16, literal(-9)))
          CFI (cfiCond51) V10 load(1, XDATA, add(CFA_XSP16, literal(-8)))
          CFI (cfiCond51) V11 load(1, XDATA, add(CFA_XSP16, literal(-7)))
          CFI (cfiCond51) R7 load(1, XDATA, add(CFA_XSP16, literal(-6)))
          CFI (cfiCond51) ?RET_LOW load(1, XDATA, add(CFA_XSP16, literal(-5)))
          CFI (cfiCond51) ?RET_HIGH load(1, XDATA, add(CFA_XSP16, literal(-4)))
          CFI (cfiCond51) ?BRET_EXT load(1, XDATA, add(CFA_XSP16, literal(-3)))
          CFI (cfiCond51) DPL0 load(1, XDATA, add(CFA_XSP16, literal(-2)))
          CFI (cfiCond51) DPH0 load(1, XDATA, add(CFA_XSP16, literal(-1)))
          CFI (cfiCond51) CFA_SP SP+-2
          CFI (cfiCond51) CFA_XSP16 add(XSP16, 32)
          CFI Block cfiCond52 Using cfiCommon0
          CFI (cfiCond52) Function zclGp_SendGpCommissioningNotificationCommand
          CFI (cfiCond52) Conditional ??CrossCallReturnLabel_32
          CFI (cfiCond52) R6 load(1, XDATA, add(CFA_XSP16, literal(-20)))
          CFI (cfiCond52) VB load(1, XDATA, add(CFA_XSP16, literal(-19)))
          CFI (cfiCond52) V0 load(1, XDATA, add(CFA_XSP16, literal(-18)))
          CFI (cfiCond52) V1 load(1, XDATA, add(CFA_XSP16, literal(-17)))
          CFI (cfiCond52) V2 load(1, XDATA, add(CFA_XSP16, literal(-16)))
          CFI (cfiCond52) V3 load(1, XDATA, add(CFA_XSP16, literal(-15)))
          CFI (cfiCond52) V4 load(1, XDATA, add(CFA_XSP16, literal(-14)))
          CFI (cfiCond52) V5 load(1, XDATA, add(CFA_XSP16, literal(-13)))
          CFI (cfiCond52) V6 load(1, XDATA, add(CFA_XSP16, literal(-12)))
          CFI (cfiCond52) V7 load(1, XDATA, add(CFA_XSP16, literal(-11)))
          CFI (cfiCond52) V8 load(1, XDATA, add(CFA_XSP16, literal(-10)))
          CFI (cfiCond52) V9 load(1, XDATA, add(CFA_XSP16, literal(-9)))
          CFI (cfiCond52) V10 load(1, XDATA, add(CFA_XSP16, literal(-8)))
          CFI (cfiCond52) V11 load(1, XDATA, add(CFA_XSP16, literal(-7)))
          CFI (cfiCond52) R7 load(1, XDATA, add(CFA_XSP16, literal(-6)))
          CFI (cfiCond52) ?RET_LOW load(1, XDATA, add(CFA_XSP16, literal(-5)))
          CFI (cfiCond52) ?RET_HIGH load(1, XDATA, add(CFA_XSP16, literal(-4)))
          CFI (cfiCond52) ?BRET_EXT load(1, XDATA, add(CFA_XSP16, literal(-3)))
          CFI (cfiCond52) DPL0 load(1, XDATA, add(CFA_XSP16, literal(-2)))
          CFI (cfiCond52) DPH0 load(1, XDATA, add(CFA_XSP16, literal(-1)))
          CFI (cfiCond52) CFA_SP SP+-2
          CFI (cfiCond52) CFA_XSP16 add(XSP16, 32)
          CFI Block cfiCond53 Using cfiCommon0
          CFI (cfiCond53) Function zclGp_SendGpCommissioningNotificationCommand
          CFI (cfiCond53) Conditional ??CrossCallReturnLabel_33
          CFI (cfiCond53) R6 load(1, XDATA, add(CFA_XSP16, literal(-20)))
          CFI (cfiCond53) VB load(1, XDATA, add(CFA_XSP16, literal(-19)))
          CFI (cfiCond53) V0 load(1, XDATA, add(CFA_XSP16, literal(-18)))
          CFI (cfiCond53) V1 load(1, XDATA, add(CFA_XSP16, literal(-17)))
          CFI (cfiCond53) V2 load(1, XDATA, add(CFA_XSP16, literal(-16)))
          CFI (cfiCond53) V3 load(1, XDATA, add(CFA_XSP16, literal(-15)))
          CFI (cfiCond53) V4 load(1, XDATA, add(CFA_XSP16, literal(-14)))
          CFI (cfiCond53) V5 load(1, XDATA, add(CFA_XSP16, literal(-13)))
          CFI (cfiCond53) V6 load(1, XDATA, add(CFA_XSP16, literal(-12)))
          CFI (cfiCond53) V7 load(1, XDATA, add(CFA_XSP16, literal(-11)))
          CFI (cfiCond53) V8 load(1, XDATA, add(CFA_XSP16, literal(-10)))
          CFI (cfiCond53) V9 load(1, XDATA, add(CFA_XSP16, literal(-9)))
          CFI (cfiCond53) V10 load(1, XDATA, add(CFA_XSP16, literal(-8)))
          CFI (cfiCond53) V11 load(1, XDATA, add(CFA_XSP16, literal(-7)))
          CFI (cfiCond53) R7 load(1, XDATA, add(CFA_XSP16, literal(-6)))
          CFI (cfiCond53) ?RET_LOW load(1, XDATA, add(CFA_XSP16, literal(-5)))
          CFI (cfiCond53) ?RET_HIGH load(1, XDATA, add(CFA_XSP16, literal(-4)))
          CFI (cfiCond53) ?BRET_EXT load(1, XDATA, add(CFA_XSP16, literal(-3)))
          CFI (cfiCond53) DPL0 load(1, XDATA, add(CFA_XSP16, literal(-2)))
          CFI (cfiCond53) DPH0 load(1, XDATA, add(CFA_XSP16, literal(-1)))
          CFI (cfiCond53) CFA_SP SP+-2
          CFI (cfiCond53) CFA_XSP16 add(XSP16, 32)
          CFI Block cfiPicker54 Using cfiCommon1
          CFI (cfiPicker54) NoFunction
          CFI (cfiPicker54) Picker
        MOV       ?V4,A
        CLR       A
        ADDC      A,?V3
        MOV       ?V5,A
        MOV       R0,#?V4
        RET
          CFI EndBlock cfiCond50
          CFI EndBlock cfiCond51
          CFI EndBlock cfiCond52
          CFI EndBlock cfiCond53
          CFI EndBlock cfiPicker54

        RSEG BANKED_CODE:HUGECODE:NOROOT(0)
?Subroutine25:
          CFI Block cfiCond55 Using cfiCommon0
          CFI Function zclGp_SendGpNotificationCommand
          CFI Conditional ??CrossCallReturnLabel_68
          CFI R6 load(1, XDATA, add(CFA_XSP16, literal(-24)))
          CFI VB load(1, XDATA, add(CFA_XSP16, literal(-23)))
          CFI V0 load(1, XDATA, add(CFA_XSP16, literal(-22)))
          CFI V1 load(1, XDATA, add(CFA_XSP16, literal(-21)))
          CFI V2 load(1, XDATA, add(CFA_XSP16, literal(-20)))
          CFI V3 load(1, XDATA, add(CFA_XSP16, literal(-19)))
          CFI V4 load(1, XDATA, add(CFA_XSP16, literal(-18)))
          CFI V5 load(1, XDATA, add(CFA_XSP16, literal(-17)))
          CFI V6 load(1, XDATA, add(CFA_XSP16, literal(-16)))
          CFI V7 load(1, XDATA, add(CFA_XSP16, literal(-15)))
          CFI V8 load(1, XDATA, add(CFA_XSP16, literal(-14)))
          CFI V9 load(1, XDATA, add(CFA_XSP16, literal(-13)))
          CFI V10 load(1, XDATA, add(CFA_XSP16, literal(-12)))
          CFI V11 load(1, XDATA, add(CFA_XSP16, literal(-11)))
          CFI V12 load(1, XDATA, add(CFA_XSP16, literal(-10)))
          CFI V13 load(1, XDATA, add(CFA_XSP16, literal(-9)))
          CFI V14 load(1, XDATA, add(CFA_XSP16, literal(-8)))
          CFI V15 load(1, XDATA, add(CFA_XSP16, literal(-7)))
          CFI R7 load(1, XDATA, add(CFA_XSP16, literal(-6)))
          CFI ?RET_LOW load(1, XDATA, add(CFA_XSP16, literal(-5)))
          CFI ?RET_HIGH load(1, XDATA, add(CFA_XSP16, literal(-4)))
          CFI ?BRET_EXT load(1, XDATA, add(CFA_XSP16, literal(-3)))
          CFI DPL0 load(1, XDATA, add(CFA_XSP16, literal(-2)))
          CFI DPH0 load(1, XDATA, add(CFA_XSP16, literal(-1)))
          CFI CFA_SP SP+-2
          CFI CFA_XSP16 add(XSP16, 27)
          CFI Block cfiCond56 Using cfiCommon0
          CFI (cfiCond56) Function zclGp_SendGpNotificationCommand
          CFI (cfiCond56) Conditional ??CrossCallReturnLabel_69
          CFI (cfiCond56) R6 load(1, XDATA, add(CFA_XSP16, literal(-24)))
          CFI (cfiCond56) VB load(1, XDATA, add(CFA_XSP16, literal(-23)))
          CFI (cfiCond56) V0 load(1, XDATA, add(CFA_XSP16, literal(-22)))
          CFI (cfiCond56) V1 load(1, XDATA, add(CFA_XSP16, literal(-21)))
          CFI (cfiCond56) V2 load(1, XDATA, add(CFA_XSP16, literal(-20)))
          CFI (cfiCond56) V3 load(1, XDATA, add(CFA_XSP16, literal(-19)))
          CFI (cfiCond56) V4 load(1, XDATA, add(CFA_XSP16, literal(-18)))
          CFI (cfiCond56) V5 load(1, XDATA, add(CFA_XSP16, literal(-17)))
          CFI (cfiCond56) V6 load(1, XDATA, add(CFA_XSP16, literal(-16)))
          CFI (cfiCond56) V7 load(1, XDATA, add(CFA_XSP16, literal(-15)))
          CFI (cfiCond56) V8 load(1, XDATA, add(CFA_XSP16, literal(-14)))
          CFI (cfiCond56) V9 load(1, XDATA, add(CFA_XSP16, literal(-13)))
          CFI (cfiCond56) V10 load(1, XDATA, add(CFA_XSP16, literal(-12)))
          CFI (cfiCond56) V11 load(1, XDATA, add(CFA_XSP16, literal(-11)))
          CFI (cfiCond56) V12 load(1, XDATA, add(CFA_XSP16, literal(-10)))
          CFI (cfiCond56) V13 load(1, XDATA, add(CFA_XSP16, literal(-9)))
          CFI (cfiCond56) V14 load(1, XDATA, add(CFA_XSP16, literal(-8)))
          CFI (cfiCond56) V15 load(1, XDATA, add(CFA_XSP16, literal(-7)))
          CFI (cfiCond56) R7 load(1, XDATA, add(CFA_XSP16, literal(-6)))
          CFI (cfiCond56) ?RET_LOW load(1, XDATA, add(CFA_XSP16, literal(-5)))
          CFI (cfiCond56) ?RET_HIGH load(1, XDATA, add(CFA_XSP16, literal(-4)))
          CFI (cfiCond56) ?BRET_EXT load(1, XDATA, add(CFA_XSP16, literal(-3)))
          CFI (cfiCond56) DPL0 load(1, XDATA, add(CFA_XSP16, literal(-2)))
          CFI (cfiCond56) DPH0 load(1, XDATA, add(CFA_XSP16, literal(-1)))
          CFI (cfiCond56) CFA_SP SP+-2
          CFI (cfiCond56) CFA_XSP16 add(XSP16, 27)
          CFI Block cfiCond57 Using cfiCommon0
          CFI (cfiCond57) Function zclGp_SendGpCommissioningNotificationCommand
          CFI (cfiCond57) Conditional ??CrossCallReturnLabel_70
          CFI (cfiCond57) R6 load(1, XDATA, add(CFA_XSP16, literal(-20)))
          CFI (cfiCond57) VB load(1, XDATA, add(CFA_XSP16, literal(-19)))
          CFI (cfiCond57) V0 load(1, XDATA, add(CFA_XSP16, literal(-18)))
          CFI (cfiCond57) V1 load(1, XDATA, add(CFA_XSP16, literal(-17)))
          CFI (cfiCond57) V2 load(1, XDATA, add(CFA_XSP16, literal(-16)))
          CFI (cfiCond57) V3 load(1, XDATA, add(CFA_XSP16, literal(-15)))
          CFI (cfiCond57) V4 load(1, XDATA, add(CFA_XSP16, literal(-14)))
          CFI (cfiCond57) V5 load(1, XDATA, add(CFA_XSP16, literal(-13)))
          CFI (cfiCond57) V6 load(1, XDATA, add(CFA_XSP16, literal(-12)))
          CFI (cfiCond57) V7 load(1, XDATA, add(CFA_XSP16, literal(-11)))
          CFI (cfiCond57) V8 load(1, XDATA, add(CFA_XSP16, literal(-10)))
          CFI (cfiCond57) V9 load(1, XDATA, add(CFA_XSP16, literal(-9)))
          CFI (cfiCond57) V10 load(1, XDATA, add(CFA_XSP16, literal(-8)))
          CFI (cfiCond57) V11 load(1, XDATA, add(CFA_XSP16, literal(-7)))
          CFI (cfiCond57) R7 load(1, XDATA, add(CFA_XSP16, literal(-6)))
          CFI (cfiCond57) ?RET_LOW load(1, XDATA, add(CFA_XSP16, literal(-5)))
          CFI (cfiCond57) ?RET_HIGH load(1, XDATA, add(CFA_XSP16, literal(-4)))
          CFI (cfiCond57) ?BRET_EXT load(1, XDATA, add(CFA_XSP16, literal(-3)))
          CFI (cfiCond57) DPL0 load(1, XDATA, add(CFA_XSP16, literal(-2)))
          CFI (cfiCond57) DPH0 load(1, XDATA, add(CFA_XSP16, literal(-1)))
          CFI (cfiCond57) CFA_SP SP+-2
          CFI (cfiCond57) CFA_XSP16 add(XSP16, 35)
          CFI Block cfiCond58 Using cfiCommon0
          CFI (cfiCond58) Function zclGp_SendGpCommissioningNotificationCommand
          CFI (cfiCond58) Conditional ??CrossCallReturnLabel_71
          CFI (cfiCond58) R6 load(1, XDATA, add(CFA_XSP16, literal(-20)))
          CFI (cfiCond58) VB load(1, XDATA, add(CFA_XSP16, literal(-19)))
          CFI (cfiCond58) V0 load(1, XDATA, add(CFA_XSP16, literal(-18)))
          CFI (cfiCond58) V1 load(1, XDATA, add(CFA_XSP16, literal(-17)))
          CFI (cfiCond58) V2 load(1, XDATA, add(CFA_XSP16, literal(-16)))
          CFI (cfiCond58) V3 load(1, XDATA, add(CFA_XSP16, literal(-15)))
          CFI (cfiCond58) V4 load(1, XDATA, add(CFA_XSP16, literal(-14)))
          CFI (cfiCond58) V5 load(1, XDATA, add(CFA_XSP16, literal(-13)))
          CFI (cfiCond58) V6 load(1, XDATA, add(CFA_XSP16, literal(-12)))
          CFI (cfiCond58) V7 load(1, XDATA, add(CFA_XSP16, literal(-11)))
          CFI (cfiCond58) V8 load(1, XDATA, add(CFA_XSP16, literal(-10)))
          CFI (cfiCond58) V9 load(1, XDATA, add(CFA_XSP16, literal(-9)))
          CFI (cfiCond58) V10 load(1, XDATA, add(CFA_XSP16, literal(-8)))
          CFI (cfiCond58) V11 load(1, XDATA, add(CFA_XSP16, literal(-7)))
          CFI (cfiCond58) R7 load(1, XDATA, add(CFA_XSP16, literal(-6)))
          CFI (cfiCond58) ?RET_LOW load(1, XDATA, add(CFA_XSP16, literal(-5)))
          CFI (cfiCond58) ?RET_HIGH load(1, XDATA, add(CFA_XSP16, literal(-4)))
          CFI (cfiCond58) ?BRET_EXT load(1, XDATA, add(CFA_XSP16, literal(-3)))
          CFI (cfiCond58) DPL0 load(1, XDATA, add(CFA_XSP16, literal(-2)))
          CFI (cfiCond58) DPH0 load(1, XDATA, add(CFA_XSP16, literal(-1)))
          CFI (cfiCond58) CFA_SP SP+-2
          CFI (cfiCond58) CFA_XSP16 add(XSP16, 35)
          CFI Block cfiPicker59 Using cfiCommon1
          CFI (cfiPicker59) NoFunction
          CFI (cfiPicker59) Picker
        MOV       R4,#0x4
          CFI EndBlock cfiCond55
          CFI EndBlock cfiCond56
          CFI EndBlock cfiCond57
          CFI EndBlock cfiCond58
          CFI EndBlock cfiPicker59
        REQUIRE ??Subroutine40_0
        ; // Fall through to label ??Subroutine40_0

        RSEG BANKED_CODE:HUGECODE:NOROOT(0)
??Subroutine40_0:
          CFI Block cfiCond60 Using cfiCommon0
          CFI Function zclGp_SendGpNotificationCommand
          CFI Conditional ??CrossCallReturnLabel_72
          CFI R6 load(1, XDATA, add(CFA_XSP16, literal(-24)))
          CFI VB load(1, XDATA, add(CFA_XSP16, literal(-23)))
          CFI V0 load(1, XDATA, add(CFA_XSP16, literal(-22)))
          CFI V1 load(1, XDATA, add(CFA_XSP16, literal(-21)))
          CFI V2 load(1, XDATA, add(CFA_XSP16, literal(-20)))
          CFI V3 load(1, XDATA, add(CFA_XSP16, literal(-19)))
          CFI V4 load(1, XDATA, add(CFA_XSP16, literal(-18)))
          CFI V5 load(1, XDATA, add(CFA_XSP16, literal(-17)))
          CFI V6 load(1, XDATA, add(CFA_XSP16, literal(-16)))
          CFI V7 load(1, XDATA, add(CFA_XSP16, literal(-15)))
          CFI V8 load(1, XDATA, add(CFA_XSP16, literal(-14)))
          CFI V9 load(1, XDATA, add(CFA_XSP16, literal(-13)))
          CFI V10 load(1, XDATA, add(CFA_XSP16, literal(-12)))
          CFI V11 load(1, XDATA, add(CFA_XSP16, literal(-11)))
          CFI V12 load(1, XDATA, add(CFA_XSP16, literal(-10)))
          CFI V13 load(1, XDATA, add(CFA_XSP16, literal(-9)))
          CFI V14 load(1, XDATA, add(CFA_XSP16, literal(-8)))
          CFI V15 load(1, XDATA, add(CFA_XSP16, literal(-7)))
          CFI R7 load(1, XDATA, add(CFA_XSP16, literal(-6)))
          CFI ?RET_LOW load(1, XDATA, add(CFA_XSP16, literal(-5)))
          CFI ?RET_HIGH load(1, XDATA, add(CFA_XSP16, literal(-4)))
          CFI ?BRET_EXT load(1, XDATA, add(CFA_XSP16, literal(-3)))
          CFI DPL0 load(1, XDATA, add(CFA_XSP16, literal(-2)))
          CFI DPH0 load(1, XDATA, add(CFA_XSP16, literal(-1)))
          CFI CFA_SP SP+-2
          CFI CFA_XSP16 add(XSP16, 27)
          CFI Block cfiCond61 Using cfiCommon0
          CFI (cfiCond61) Function zclGp_SendGpNotificationCommand
          CFI (cfiCond61) Conditional ??CrossCallReturnLabel_73
          CFI (cfiCond61) R6 load(1, XDATA, add(CFA_XSP16, literal(-24)))
          CFI (cfiCond61) VB load(1, XDATA, add(CFA_XSP16, literal(-23)))
          CFI (cfiCond61) V0 load(1, XDATA, add(CFA_XSP16, literal(-22)))
          CFI (cfiCond61) V1 load(1, XDATA, add(CFA_XSP16, literal(-21)))
          CFI (cfiCond61) V2 load(1, XDATA, add(CFA_XSP16, literal(-20)))
          CFI (cfiCond61) V3 load(1, XDATA, add(CFA_XSP16, literal(-19)))
          CFI (cfiCond61) V4 load(1, XDATA, add(CFA_XSP16, literal(-18)))
          CFI (cfiCond61) V5 load(1, XDATA, add(CFA_XSP16, literal(-17)))
          CFI (cfiCond61) V6 load(1, XDATA, add(CFA_XSP16, literal(-16)))
          CFI (cfiCond61) V7 load(1, XDATA, add(CFA_XSP16, literal(-15)))
          CFI (cfiCond61) V8 load(1, XDATA, add(CFA_XSP16, literal(-14)))
          CFI (cfiCond61) V9 load(1, XDATA, add(CFA_XSP16, literal(-13)))
          CFI (cfiCond61) V10 load(1, XDATA, add(CFA_XSP16, literal(-12)))
          CFI (cfiCond61) V11 load(1, XDATA, add(CFA_XSP16, literal(-11)))
          CFI (cfiCond61) V12 load(1, XDATA, add(CFA_XSP16, literal(-10)))
          CFI (cfiCond61) V13 load(1, XDATA, add(CFA_XSP16, literal(-9)))
          CFI (cfiCond61) V14 load(1, XDATA, add(CFA_XSP16, literal(-8)))
          CFI (cfiCond61) V15 load(1, XDATA, add(CFA_XSP16, literal(-7)))
          CFI (cfiCond61) R7 load(1, XDATA, add(CFA_XSP16, literal(-6)))
          CFI (cfiCond61) ?RET_LOW load(1, XDATA, add(CFA_XSP16, literal(-5)))
          CFI (cfiCond61) ?RET_HIGH load(1, XDATA, add(CFA_XSP16, literal(-4)))
          CFI (cfiCond61) ?BRET_EXT load(1, XDATA, add(CFA_XSP16, literal(-3)))
          CFI (cfiCond61) DPL0 load(1, XDATA, add(CFA_XSP16, literal(-2)))
          CFI (cfiCond61) DPH0 load(1, XDATA, add(CFA_XSP16, literal(-1)))
          CFI (cfiCond61) CFA_SP SP+-2
          CFI (cfiCond61) CFA_XSP16 add(XSP16, 27)
          CFI Block cfiCond62 Using cfiCommon0
          CFI (cfiCond62) Function zclGp_SendGpNotificationCommand
          CFI (cfiCond62) Conditional ??CrossCallReturnLabel_74
          CFI (cfiCond62) R6 load(1, XDATA, add(CFA_XSP16, literal(-24)))
          CFI (cfiCond62) VB load(1, XDATA, add(CFA_XSP16, literal(-23)))
          CFI (cfiCond62) V0 load(1, XDATA, add(CFA_XSP16, literal(-22)))
          CFI (cfiCond62) V1 load(1, XDATA, add(CFA_XSP16, literal(-21)))
          CFI (cfiCond62) V2 load(1, XDATA, add(CFA_XSP16, literal(-20)))
          CFI (cfiCond62) V3 load(1, XDATA, add(CFA_XSP16, literal(-19)))
          CFI (cfiCond62) V4 load(1, XDATA, add(CFA_XSP16, literal(-18)))
          CFI (cfiCond62) V5 load(1, XDATA, add(CFA_XSP16, literal(-17)))
          CFI (cfiCond62) V6 load(1, XDATA, add(CFA_XSP16, literal(-16)))
          CFI (cfiCond62) V7 load(1, XDATA, add(CFA_XSP16, literal(-15)))
          CFI (cfiCond62) V8 load(1, XDATA, add(CFA_XSP16, literal(-14)))
          CFI (cfiCond62) V9 load(1, XDATA, add(CFA_XSP16, literal(-13)))
          CFI (cfiCond62) V10 load(1, XDATA, add(CFA_XSP16, literal(-12)))
          CFI (cfiCond62) V11 load(1, XDATA, add(CFA_XSP16, literal(-11)))
          CFI (cfiCond62) V12 load(1, XDATA, add(CFA_XSP16, literal(-10)))
          CFI (cfiCond62) V13 load(1, XDATA, add(CFA_XSP16, literal(-9)))
          CFI (cfiCond62) V14 load(1, XDATA, add(CFA_XSP16, literal(-8)))
          CFI (cfiCond62) V15 load(1, XDATA, add(CFA_XSP16, literal(-7)))
          CFI (cfiCond62) R7 load(1, XDATA, add(CFA_XSP16, literal(-6)))
          CFI (cfiCond62) ?RET_LOW load(1, XDATA, add(CFA_XSP16, literal(-5)))
          CFI (cfiCond62) ?RET_HIGH load(1, XDATA, add(CFA_XSP16, literal(-4)))
          CFI (cfiCond62) ?BRET_EXT load(1, XDATA, add(CFA_XSP16, literal(-3)))
          CFI (cfiCond62) DPL0 load(1, XDATA, add(CFA_XSP16, literal(-2)))
          CFI (cfiCond62) DPH0 load(1, XDATA, add(CFA_XSP16, literal(-1)))
          CFI (cfiCond62) CFA_SP SP+-2
          CFI (cfiCond62) CFA_XSP16 add(XSP16, 27)
          CFI Block cfiCond63 Using cfiCommon0
          CFI (cfiCond63) Function zclGp_SendGpCommissioningNotificationCommand
          CFI (cfiCond63) Conditional ??CrossCallReturnLabel_75
          CFI (cfiCond63) R6 load(1, XDATA, add(CFA_XSP16, literal(-20)))
          CFI (cfiCond63) VB load(1, XDATA, add(CFA_XSP16, literal(-19)))
          CFI (cfiCond63) V0 load(1, XDATA, add(CFA_XSP16, literal(-18)))
          CFI (cfiCond63) V1 load(1, XDATA, add(CFA_XSP16, literal(-17)))
          CFI (cfiCond63) V2 load(1, XDATA, add(CFA_XSP16, literal(-16)))
          CFI (cfiCond63) V3 load(1, XDATA, add(CFA_XSP16, literal(-15)))
          CFI (cfiCond63) V4 load(1, XDATA, add(CFA_XSP16, literal(-14)))
          CFI (cfiCond63) V5 load(1, XDATA, add(CFA_XSP16, literal(-13)))
          CFI (cfiCond63) V6 load(1, XDATA, add(CFA_XSP16, literal(-12)))
          CFI (cfiCond63) V7 load(1, XDATA, add(CFA_XSP16, literal(-11)))
          CFI (cfiCond63) V8 load(1, XDATA, add(CFA_XSP16, literal(-10)))
          CFI (cfiCond63) V9 load(1, XDATA, add(CFA_XSP16, literal(-9)))
          CFI (cfiCond63) V10 load(1, XDATA, add(CFA_XSP16, literal(-8)))
          CFI (cfiCond63) V11 load(1, XDATA, add(CFA_XSP16, literal(-7)))
          CFI (cfiCond63) R7 load(1, XDATA, add(CFA_XSP16, literal(-6)))
          CFI (cfiCond63) ?RET_LOW load(1, XDATA, add(CFA_XSP16, literal(-5)))
          CFI (cfiCond63) ?RET_HIGH load(1, XDATA, add(CFA_XSP16, literal(-4)))
          CFI (cfiCond63) ?BRET_EXT load(1, XDATA, add(CFA_XSP16, literal(-3)))
          CFI (cfiCond63) DPL0 load(1, XDATA, add(CFA_XSP16, literal(-2)))
          CFI (cfiCond63) DPH0 load(1, XDATA, add(CFA_XSP16, literal(-1)))
          CFI (cfiCond63) CFA_SP SP+-2
          CFI (cfiCond63) CFA_XSP16 add(XSP16, 35)
          CFI Block cfiCond64 Using cfiCommon0
          CFI (cfiCond64) Function zclGp_SendGpCommissioningNotificationCommand
          CFI (cfiCond64) Conditional ??CrossCallReturnLabel_76
          CFI (cfiCond64) R6 load(1, XDATA, add(CFA_XSP16, literal(-20)))
          CFI (cfiCond64) VB load(1, XDATA, add(CFA_XSP16, literal(-19)))
          CFI (cfiCond64) V0 load(1, XDATA, add(CFA_XSP16, literal(-18)))
          CFI (cfiCond64) V1 load(1, XDATA, add(CFA_XSP16, literal(-17)))
          CFI (cfiCond64) V2 load(1, XDATA, add(CFA_XSP16, literal(-16)))
          CFI (cfiCond64) V3 load(1, XDATA, add(CFA_XSP16, literal(-15)))
          CFI (cfiCond64) V4 load(1, XDATA, add(CFA_XSP16, literal(-14)))
          CFI (cfiCond64) V5 load(1, XDATA, add(CFA_XSP16, literal(-13)))
          CFI (cfiCond64) V6 load(1, XDATA, add(CFA_XSP16, literal(-12)))
          CFI (cfiCond64) V7 load(1, XDATA, add(CFA_XSP16, literal(-11)))
          CFI (cfiCond64) V8 load(1, XDATA, add(CFA_XSP16, literal(-10)))
          CFI (cfiCond64) V9 load(1, XDATA, add(CFA_XSP16, literal(-9)))
          CFI (cfiCond64) V10 load(1, XDATA, add(CFA_XSP16, literal(-8)))
          CFI (cfiCond64) V11 load(1, XDATA, add(CFA_XSP16, literal(-7)))
          CFI (cfiCond64) R7 load(1, XDATA, add(CFA_XSP16, literal(-6)))
          CFI (cfiCond64) ?RET_LOW load(1, XDATA, add(CFA_XSP16, literal(-5)))
          CFI (cfiCond64) ?RET_HIGH load(1, XDATA, add(CFA_XSP16, literal(-4)))
          CFI (cfiCond64) ?BRET_EXT load(1, XDATA, add(CFA_XSP16, literal(-3)))
          CFI (cfiCond64) DPL0 load(1, XDATA, add(CFA_XSP16, literal(-2)))
          CFI (cfiCond64) DPH0 load(1, XDATA, add(CFA_XSP16, literal(-1)))
          CFI (cfiCond64) CFA_SP SP+-2
          CFI (cfiCond64) CFA_XSP16 add(XSP16, 35)
          CFI Block cfiCond65 Using cfiCommon0
          CFI (cfiCond65) Function zclGp_SendGpCommissioningNotificationCommand
          CFI (cfiCond65) Conditional ??CrossCallReturnLabel_77
          CFI (cfiCond65) R6 load(1, XDATA, add(CFA_XSP16, literal(-20)))
          CFI (cfiCond65) VB load(1, XDATA, add(CFA_XSP16, literal(-19)))
          CFI (cfiCond65) V0 load(1, XDATA, add(CFA_XSP16, literal(-18)))
          CFI (cfiCond65) V1 load(1, XDATA, add(CFA_XSP16, literal(-17)))
          CFI (cfiCond65) V2 load(1, XDATA, add(CFA_XSP16, literal(-16)))
          CFI (cfiCond65) V3 load(1, XDATA, add(CFA_XSP16, literal(-15)))
          CFI (cfiCond65) V4 load(1, XDATA, add(CFA_XSP16, literal(-14)))
          CFI (cfiCond65) V5 load(1, XDATA, add(CFA_XSP16, literal(-13)))
          CFI (cfiCond65) V6 load(1, XDATA, add(CFA_XSP16, literal(-12)))
          CFI (cfiCond65) V7 load(1, XDATA, add(CFA_XSP16, literal(-11)))
          CFI (cfiCond65) V8 load(1, XDATA, add(CFA_XSP16, literal(-10)))
          CFI (cfiCond65) V9 load(1, XDATA, add(CFA_XSP16, literal(-9)))
          CFI (cfiCond65) V10 load(1, XDATA, add(CFA_XSP16, literal(-8)))
          CFI (cfiCond65) V11 load(1, XDATA, add(CFA_XSP16, literal(-7)))
          CFI (cfiCond65) R7 load(1, XDATA, add(CFA_XSP16, literal(-6)))
          CFI (cfiCond65) ?RET_LOW load(1, XDATA, add(CFA_XSP16, literal(-5)))
          CFI (cfiCond65) ?RET_HIGH load(1, XDATA, add(CFA_XSP16, literal(-4)))
          CFI (cfiCond65) ?BRET_EXT load(1, XDATA, add(CFA_XSP16, literal(-3)))
          CFI (cfiCond65) DPL0 load(1, XDATA, add(CFA_XSP16, literal(-2)))
          CFI (cfiCond65) DPH0 load(1, XDATA, add(CFA_XSP16, literal(-1)))
          CFI (cfiCond65) CFA_SP SP+-2
          CFI (cfiCond65) CFA_XSP16 add(XSP16, 35)
          CFI Block cfiCond66 Using cfiCommon0
          CFI (cfiCond66) Function zclGp_SendGpNotificationCommand
          CFI (cfiCond66) Conditional ??CrossCallReturnLabel_68
          CFI (cfiCond66) R6 load(1, XDATA, add(CFA_XSP16, literal(-24)))
          CFI (cfiCond66) VB load(1, XDATA, add(CFA_XSP16, literal(-23)))
          CFI (cfiCond66) V0 load(1, XDATA, add(CFA_XSP16, literal(-22)))
          CFI (cfiCond66) V1 load(1, XDATA, add(CFA_XSP16, literal(-21)))
          CFI (cfiCond66) V2 load(1, XDATA, add(CFA_XSP16, literal(-20)))
          CFI (cfiCond66) V3 load(1, XDATA, add(CFA_XSP16, literal(-19)))
          CFI (cfiCond66) V4 load(1, XDATA, add(CFA_XSP16, literal(-18)))
          CFI (cfiCond66) V5 load(1, XDATA, add(CFA_XSP16, literal(-17)))
          CFI (cfiCond66) V6 load(1, XDATA, add(CFA_XSP16, literal(-16)))
          CFI (cfiCond66) V7 load(1, XDATA, add(CFA_XSP16, literal(-15)))
          CFI (cfiCond66) V8 load(1, XDATA, add(CFA_XSP16, literal(-14)))
          CFI (cfiCond66) V9 load(1, XDATA, add(CFA_XSP16, literal(-13)))
          CFI (cfiCond66) V10 load(1, XDATA, add(CFA_XSP16, literal(-12)))
          CFI (cfiCond66) V11 load(1, XDATA, add(CFA_XSP16, literal(-11)))
          CFI (cfiCond66) V12 load(1, XDATA, add(CFA_XSP16, literal(-10)))
          CFI (cfiCond66) V13 load(1, XDATA, add(CFA_XSP16, literal(-9)))
          CFI (cfiCond66) V14 load(1, XDATA, add(CFA_XSP16, literal(-8)))
          CFI (cfiCond66) V15 load(1, XDATA, add(CFA_XSP16, literal(-7)))
          CFI (cfiCond66) R7 load(1, XDATA, add(CFA_XSP16, literal(-6)))
          CFI (cfiCond66) ?RET_LOW load(1, XDATA, add(CFA_XSP16, literal(-5)))
          CFI (cfiCond66) ?RET_HIGH load(1, XDATA, add(CFA_XSP16, literal(-4)))
          CFI (cfiCond66) ?BRET_EXT load(1, XDATA, add(CFA_XSP16, literal(-3)))
          CFI (cfiCond66) DPL0 load(1, XDATA, add(CFA_XSP16, literal(-2)))
          CFI (cfiCond66) DPH0 load(1, XDATA, add(CFA_XSP16, literal(-1)))
          CFI (cfiCond66) CFA_SP SP+-2
          CFI (cfiCond66) CFA_XSP16 add(XSP16, 27)
          CFI Block cfiCond67 Using cfiCommon0
          CFI (cfiCond67) Function zclGp_SendGpNotificationCommand
          CFI (cfiCond67) Conditional ??CrossCallReturnLabel_69
          CFI (cfiCond67) R6 load(1, XDATA, add(CFA_XSP16, literal(-24)))
          CFI (cfiCond67) VB load(1, XDATA, add(CFA_XSP16, literal(-23)))
          CFI (cfiCond67) V0 load(1, XDATA, add(CFA_XSP16, literal(-22)))
          CFI (cfiCond67) V1 load(1, XDATA, add(CFA_XSP16, literal(-21)))
          CFI (cfiCond67) V2 load(1, XDATA, add(CFA_XSP16, literal(-20)))
          CFI (cfiCond67) V3 load(1, XDATA, add(CFA_XSP16, literal(-19)))
          CFI (cfiCond67) V4 load(1, XDATA, add(CFA_XSP16, literal(-18)))
          CFI (cfiCond67) V5 load(1, XDATA, add(CFA_XSP16, literal(-17)))
          CFI (cfiCond67) V6 load(1, XDATA, add(CFA_XSP16, literal(-16)))
          CFI (cfiCond67) V7 load(1, XDATA, add(CFA_XSP16, literal(-15)))
          CFI (cfiCond67) V8 load(1, XDATA, add(CFA_XSP16, literal(-14)))
          CFI (cfiCond67) V9 load(1, XDATA, add(CFA_XSP16, literal(-13)))
          CFI (cfiCond67) V10 load(1, XDATA, add(CFA_XSP16, literal(-12)))
          CFI (cfiCond67) V11 load(1, XDATA, add(CFA_XSP16, literal(-11)))
          CFI (cfiCond67) V12 load(1, XDATA, add(CFA_XSP16, literal(-10)))
          CFI (cfiCond67) V13 load(1, XDATA, add(CFA_XSP16, literal(-9)))
          CFI (cfiCond67) V14 load(1, XDATA, add(CFA_XSP16, literal(-8)))
          CFI (cfiCond67) V15 load(1, XDATA, add(CFA_XSP16, literal(-7)))
          CFI (cfiCond67) R7 load(1, XDATA, add(CFA_XSP16, literal(-6)))
          CFI (cfiCond67) ?RET_LOW load(1, XDATA, add(CFA_XSP16, literal(-5)))
          CFI (cfiCond67) ?RET_HIGH load(1, XDATA, add(CFA_XSP16, literal(-4)))
          CFI (cfiCond67) ?BRET_EXT load(1, XDATA, add(CFA_XSP16, literal(-3)))
          CFI (cfiCond67) DPL0 load(1, XDATA, add(CFA_XSP16, literal(-2)))
          CFI (cfiCond67) DPH0 load(1, XDATA, add(CFA_XSP16, literal(-1)))
          CFI (cfiCond67) CFA_SP SP+-2
          CFI (cfiCond67) CFA_XSP16 add(XSP16, 27)
          CFI Block cfiCond68 Using cfiCommon0
          CFI (cfiCond68) Function zclGp_SendGpCommissioningNotificationCommand
          CFI (cfiCond68) Conditional ??CrossCallReturnLabel_70
          CFI (cfiCond68) R6 load(1, XDATA, add(CFA_XSP16, literal(-20)))
          CFI (cfiCond68) VB load(1, XDATA, add(CFA_XSP16, literal(-19)))
          CFI (cfiCond68) V0 load(1, XDATA, add(CFA_XSP16, literal(-18)))
          CFI (cfiCond68) V1 load(1, XDATA, add(CFA_XSP16, literal(-17)))
          CFI (cfiCond68) V2 load(1, XDATA, add(CFA_XSP16, literal(-16)))
          CFI (cfiCond68) V3 load(1, XDATA, add(CFA_XSP16, literal(-15)))
          CFI (cfiCond68) V4 load(1, XDATA, add(CFA_XSP16, literal(-14)))
          CFI (cfiCond68) V5 load(1, XDATA, add(CFA_XSP16, literal(-13)))
          CFI (cfiCond68) V6 load(1, XDATA, add(CFA_XSP16, literal(-12)))
          CFI (cfiCond68) V7 load(1, XDATA, add(CFA_XSP16, literal(-11)))
          CFI (cfiCond68) V8 load(1, XDATA, add(CFA_XSP16, literal(-10)))
          CFI (cfiCond68) V9 load(1, XDATA, add(CFA_XSP16, literal(-9)))
          CFI (cfiCond68) V10 load(1, XDATA, add(CFA_XSP16, literal(-8)))
          CFI (cfiCond68) V11 load(1, XDATA, add(CFA_XSP16, literal(-7)))
          CFI (cfiCond68) R7 load(1, XDATA, add(CFA_XSP16, literal(-6)))
          CFI (cfiCond68) ?RET_LOW load(1, XDATA, add(CFA_XSP16, literal(-5)))
          CFI (cfiCond68) ?RET_HIGH load(1, XDATA, add(CFA_XSP16, literal(-4)))
          CFI (cfiCond68) ?BRET_EXT load(1, XDATA, add(CFA_XSP16, literal(-3)))
          CFI (cfiCond68) DPL0 load(1, XDATA, add(CFA_XSP16, literal(-2)))
          CFI (cfiCond68) DPH0 load(1, XDATA, add(CFA_XSP16, literal(-1)))
          CFI (cfiCond68) CFA_SP SP+-2
          CFI (cfiCond68) CFA_XSP16 add(XSP16, 35)
          CFI Block cfiCond69 Using cfiCommon0
          CFI (cfiCond69) Function zclGp_SendGpCommissioningNotificationCommand
          CFI (cfiCond69) Conditional ??CrossCallReturnLabel_71
          CFI (cfiCond69) R6 load(1, XDATA, add(CFA_XSP16, literal(-20)))
          CFI (cfiCond69) VB load(1, XDATA, add(CFA_XSP16, literal(-19)))
          CFI (cfiCond69) V0 load(1, XDATA, add(CFA_XSP16, literal(-18)))
          CFI (cfiCond69) V1 load(1, XDATA, add(CFA_XSP16, literal(-17)))
          CFI (cfiCond69) V2 load(1, XDATA, add(CFA_XSP16, literal(-16)))
          CFI (cfiCond69) V3 load(1, XDATA, add(CFA_XSP16, literal(-15)))
          CFI (cfiCond69) V4 load(1, XDATA, add(CFA_XSP16, literal(-14)))
          CFI (cfiCond69) V5 load(1, XDATA, add(CFA_XSP16, literal(-13)))
          CFI (cfiCond69) V6 load(1, XDATA, add(CFA_XSP16, literal(-12)))
          CFI (cfiCond69) V7 load(1, XDATA, add(CFA_XSP16, literal(-11)))
          CFI (cfiCond69) V8 load(1, XDATA, add(CFA_XSP16, literal(-10)))
          CFI (cfiCond69) V9 load(1, XDATA, add(CFA_XSP16, literal(-9)))
          CFI (cfiCond69) V10 load(1, XDATA, add(CFA_XSP16, literal(-8)))
          CFI (cfiCond69) V11 load(1, XDATA, add(CFA_XSP16, literal(-7)))
          CFI (cfiCond69) R7 load(1, XDATA, add(CFA_XSP16, literal(-6)))
          CFI (cfiCond69) ?RET_LOW load(1, XDATA, add(CFA_XSP16, literal(-5)))
          CFI (cfiCond69) ?RET_HIGH load(1, XDATA, add(CFA_XSP16, literal(-4)))
          CFI (cfiCond69) ?BRET_EXT load(1, XDATA, add(CFA_XSP16, literal(-3)))
          CFI (cfiCond69) DPL0 load(1, XDATA, add(CFA_XSP16, literal(-2)))
          CFI (cfiCond69) DPH0 load(1, XDATA, add(CFA_XSP16, literal(-1)))
          CFI (cfiCond69) CFA_SP SP+-2
          CFI (cfiCond69) CFA_XSP16 add(XSP16, 35)
          CFI Block cfiPicker70 Using cfiCommon1
          CFI (cfiPicker70) NoFunction
          CFI (cfiPicker70) Picker
        MOV       R5,#0x0
        MOV       A,R6
        MOV       R2,A
        MOV       A,R7
          CFI EndBlock cfiCond60
          CFI EndBlock cfiCond61
          CFI EndBlock cfiCond62
          CFI EndBlock cfiCond63
          CFI EndBlock cfiCond64
          CFI EndBlock cfiCond65
          CFI EndBlock cfiCond66
          CFI EndBlock cfiCond67
          CFI EndBlock cfiCond68
          CFI EndBlock cfiCond69
          CFI EndBlock cfiPicker70
        REQUIRE ??Subroutine41_0
        ; // Fall through to label ??Subroutine41_0

        RSEG BANKED_CODE:HUGECODE:NOROOT(0)
??Subroutine41_0:
          CFI Block cfiCond71 Using cfiCommon0
          CFI Function zclGp_SendGpProxyTableResponse
          CFI Conditional ??CrossCallReturnLabel_78
          CFI R6 load(1, XDATA, add(CFA_XSP16, literal(-22)))
          CFI VB load(1, XDATA, add(CFA_XSP16, literal(-21)))
          CFI V0 load(1, XDATA, add(CFA_XSP16, literal(-20)))
          CFI V1 load(1, XDATA, add(CFA_XSP16, literal(-19)))
          CFI V2 load(1, XDATA, add(CFA_XSP16, literal(-18)))
          CFI V3 load(1, XDATA, add(CFA_XSP16, literal(-17)))
          CFI V4 load(1, XDATA, add(CFA_XSP16, literal(-16)))
          CFI V5 load(1, XDATA, add(CFA_XSP16, literal(-15)))
          CFI V6 load(1, XDATA, add(CFA_XSP16, literal(-14)))
          CFI V7 load(1, XDATA, add(CFA_XSP16, literal(-13)))
          CFI V8 load(1, XDATA, add(CFA_XSP16, literal(-12)))
          CFI V9 load(1, XDATA, add(CFA_XSP16, literal(-11)))
          CFI V10 load(1, XDATA, add(CFA_XSP16, literal(-10)))
          CFI V11 load(1, XDATA, add(CFA_XSP16, literal(-9)))
          CFI V12 load(1, XDATA, add(CFA_XSP16, literal(-8)))
          CFI V13 load(1, XDATA, add(CFA_XSP16, literal(-7)))
          CFI R7 load(1, XDATA, add(CFA_XSP16, literal(-6)))
          CFI ?RET_LOW load(1, XDATA, add(CFA_XSP16, literal(-5)))
          CFI ?RET_HIGH load(1, XDATA, add(CFA_XSP16, literal(-4)))
          CFI ?BRET_EXT load(1, XDATA, add(CFA_XSP16, literal(-3)))
          CFI DPL0 load(1, XDATA, add(CFA_XSP16, literal(-2)))
          CFI DPH0 load(1, XDATA, add(CFA_XSP16, literal(-1)))
          CFI CFA_SP SP+-2
          CFI CFA_XSP16 add(XSP16, 27)
          CFI Block cfiCond72 Using cfiCommon0
          CFI (cfiCond72) Function zclGp_SendGpNotificationCommand
          CFI (cfiCond72) Conditional ??CrossCallReturnLabel_72
          CFI (cfiCond72) R6 load(1, XDATA, add(CFA_XSP16, literal(-24)))
          CFI (cfiCond72) VB load(1, XDATA, add(CFA_XSP16, literal(-23)))
          CFI (cfiCond72) V0 load(1, XDATA, add(CFA_XSP16, literal(-22)))
          CFI (cfiCond72) V1 load(1, XDATA, add(CFA_XSP16, literal(-21)))
          CFI (cfiCond72) V2 load(1, XDATA, add(CFA_XSP16, literal(-20)))
          CFI (cfiCond72) V3 load(1, XDATA, add(CFA_XSP16, literal(-19)))
          CFI (cfiCond72) V4 load(1, XDATA, add(CFA_XSP16, literal(-18)))
          CFI (cfiCond72) V5 load(1, XDATA, add(CFA_XSP16, literal(-17)))
          CFI (cfiCond72) V6 load(1, XDATA, add(CFA_XSP16, literal(-16)))
          CFI (cfiCond72) V7 load(1, XDATA, add(CFA_XSP16, literal(-15)))
          CFI (cfiCond72) V8 load(1, XDATA, add(CFA_XSP16, literal(-14)))
          CFI (cfiCond72) V9 load(1, XDATA, add(CFA_XSP16, literal(-13)))
          CFI (cfiCond72) V10 load(1, XDATA, add(CFA_XSP16, literal(-12)))
          CFI (cfiCond72) V11 load(1, XDATA, add(CFA_XSP16, literal(-11)))
          CFI (cfiCond72) V12 load(1, XDATA, add(CFA_XSP16, literal(-10)))
          CFI (cfiCond72) V13 load(1, XDATA, add(CFA_XSP16, literal(-9)))
          CFI (cfiCond72) V14 load(1, XDATA, add(CFA_XSP16, literal(-8)))
          CFI (cfiCond72) V15 load(1, XDATA, add(CFA_XSP16, literal(-7)))
          CFI (cfiCond72) R7 load(1, XDATA, add(CFA_XSP16, literal(-6)))
          CFI (cfiCond72) ?RET_LOW load(1, XDATA, add(CFA_XSP16, literal(-5)))
          CFI (cfiCond72) ?RET_HIGH load(1, XDATA, add(CFA_XSP16, literal(-4)))
          CFI (cfiCond72) ?BRET_EXT load(1, XDATA, add(CFA_XSP16, literal(-3)))
          CFI (cfiCond72) DPL0 load(1, XDATA, add(CFA_XSP16, literal(-2)))
          CFI (cfiCond72) DPH0 load(1, XDATA, add(CFA_XSP16, literal(-1)))
          CFI (cfiCond72) CFA_SP SP+-2
          CFI (cfiCond72) CFA_XSP16 add(XSP16, 27)
          CFI Block cfiCond73 Using cfiCommon0
          CFI (cfiCond73) Function zclGp_SendGpNotificationCommand
          CFI (cfiCond73) Conditional ??CrossCallReturnLabel_73
          CFI (cfiCond73) R6 load(1, XDATA, add(CFA_XSP16, literal(-24)))
          CFI (cfiCond73) VB load(1, XDATA, add(CFA_XSP16, literal(-23)))
          CFI (cfiCond73) V0 load(1, XDATA, add(CFA_XSP16, literal(-22)))
          CFI (cfiCond73) V1 load(1, XDATA, add(CFA_XSP16, literal(-21)))
          CFI (cfiCond73) V2 load(1, XDATA, add(CFA_XSP16, literal(-20)))
          CFI (cfiCond73) V3 load(1, XDATA, add(CFA_XSP16, literal(-19)))
          CFI (cfiCond73) V4 load(1, XDATA, add(CFA_XSP16, literal(-18)))
          CFI (cfiCond73) V5 load(1, XDATA, add(CFA_XSP16, literal(-17)))
          CFI (cfiCond73) V6 load(1, XDATA, add(CFA_XSP16, literal(-16)))
          CFI (cfiCond73) V7 load(1, XDATA, add(CFA_XSP16, literal(-15)))
          CFI (cfiCond73) V8 load(1, XDATA, add(CFA_XSP16, literal(-14)))
          CFI (cfiCond73) V9 load(1, XDATA, add(CFA_XSP16, literal(-13)))
          CFI (cfiCond73) V10 load(1, XDATA, add(CFA_XSP16, literal(-12)))
          CFI (cfiCond73) V11 load(1, XDATA, add(CFA_XSP16, literal(-11)))
          CFI (cfiCond73) V12 load(1, XDATA, add(CFA_XSP16, literal(-10)))
          CFI (cfiCond73) V13 load(1, XDATA, add(CFA_XSP16, literal(-9)))
          CFI (cfiCond73) V14 load(1, XDATA, add(CFA_XSP16, literal(-8)))
          CFI (cfiCond73) V15 load(1, XDATA, add(CFA_XSP16, literal(-7)))
          CFI (cfiCond73) R7 load(1, XDATA, add(CFA_XSP16, literal(-6)))
          CFI (cfiCond73) ?RET_LOW load(1, XDATA, add(CFA_XSP16, literal(-5)))
          CFI (cfiCond73) ?RET_HIGH load(1, XDATA, add(CFA_XSP16, literal(-4)))
          CFI (cfiCond73) ?BRET_EXT load(1, XDATA, add(CFA_XSP16, literal(-3)))
          CFI (cfiCond73) DPL0 load(1, XDATA, add(CFA_XSP16, literal(-2)))
          CFI (cfiCond73) DPH0 load(1, XDATA, add(CFA_XSP16, literal(-1)))
          CFI (cfiCond73) CFA_SP SP+-2
          CFI (cfiCond73) CFA_XSP16 add(XSP16, 27)
          CFI Block cfiCond74 Using cfiCommon0
          CFI (cfiCond74) Function zclGp_SendGpNotificationCommand
          CFI (cfiCond74) Conditional ??CrossCallReturnLabel_74
          CFI (cfiCond74) R6 load(1, XDATA, add(CFA_XSP16, literal(-24)))
          CFI (cfiCond74) VB load(1, XDATA, add(CFA_XSP16, literal(-23)))
          CFI (cfiCond74) V0 load(1, XDATA, add(CFA_XSP16, literal(-22)))
          CFI (cfiCond74) V1 load(1, XDATA, add(CFA_XSP16, literal(-21)))
          CFI (cfiCond74) V2 load(1, XDATA, add(CFA_XSP16, literal(-20)))
          CFI (cfiCond74) V3 load(1, XDATA, add(CFA_XSP16, literal(-19)))
          CFI (cfiCond74) V4 load(1, XDATA, add(CFA_XSP16, literal(-18)))
          CFI (cfiCond74) V5 load(1, XDATA, add(CFA_XSP16, literal(-17)))
          CFI (cfiCond74) V6 load(1, XDATA, add(CFA_XSP16, literal(-16)))
          CFI (cfiCond74) V7 load(1, XDATA, add(CFA_XSP16, literal(-15)))
          CFI (cfiCond74) V8 load(1, XDATA, add(CFA_XSP16, literal(-14)))
          CFI (cfiCond74) V9 load(1, XDATA, add(CFA_XSP16, literal(-13)))
          CFI (cfiCond74) V10 load(1, XDATA, add(CFA_XSP16, literal(-12)))
          CFI (cfiCond74) V11 load(1, XDATA, add(CFA_XSP16, literal(-11)))
          CFI (cfiCond74) V12 load(1, XDATA, add(CFA_XSP16, literal(-10)))
          CFI (cfiCond74) V13 load(1, XDATA, add(CFA_XSP16, literal(-9)))
          CFI (cfiCond74) V14 load(1, XDATA, add(CFA_XSP16, literal(-8)))
          CFI (cfiCond74) V15 load(1, XDATA, add(CFA_XSP16, literal(-7)))
          CFI (cfiCond74) R7 load(1, XDATA, add(CFA_XSP16, literal(-6)))
          CFI (cfiCond74) ?RET_LOW load(1, XDATA, add(CFA_XSP16, literal(-5)))
          CFI (cfiCond74) ?RET_HIGH load(1, XDATA, add(CFA_XSP16, literal(-4)))
          CFI (cfiCond74) ?BRET_EXT load(1, XDATA, add(CFA_XSP16, literal(-3)))
          CFI (cfiCond74) DPL0 load(1, XDATA, add(CFA_XSP16, literal(-2)))
          CFI (cfiCond74) DPH0 load(1, XDATA, add(CFA_XSP16, literal(-1)))
          CFI (cfiCond74) CFA_SP SP+-2
          CFI (cfiCond74) CFA_XSP16 add(XSP16, 27)
          CFI Block cfiCond75 Using cfiCommon0
          CFI (cfiCond75) Function zclGp_SendGpCommissioningNotificationCommand
          CFI (cfiCond75) Conditional ??CrossCallReturnLabel_75
          CFI (cfiCond75) R6 load(1, XDATA, add(CFA_XSP16, literal(-20)))
          CFI (cfiCond75) VB load(1, XDATA, add(CFA_XSP16, literal(-19)))
          CFI (cfiCond75) V0 load(1, XDATA, add(CFA_XSP16, literal(-18)))
          CFI (cfiCond75) V1 load(1, XDATA, add(CFA_XSP16, literal(-17)))
          CFI (cfiCond75) V2 load(1, XDATA, add(CFA_XSP16, literal(-16)))
          CFI (cfiCond75) V3 load(1, XDATA, add(CFA_XSP16, literal(-15)))
          CFI (cfiCond75) V4 load(1, XDATA, add(CFA_XSP16, literal(-14)))
          CFI (cfiCond75) V5 load(1, XDATA, add(CFA_XSP16, literal(-13)))
          CFI (cfiCond75) V6 load(1, XDATA, add(CFA_XSP16, literal(-12)))
          CFI (cfiCond75) V7 load(1, XDATA, add(CFA_XSP16, literal(-11)))
          CFI (cfiCond75) V8 load(1, XDATA, add(CFA_XSP16, literal(-10)))
          CFI (cfiCond75) V9 load(1, XDATA, add(CFA_XSP16, literal(-9)))
          CFI (cfiCond75) V10 load(1, XDATA, add(CFA_XSP16, literal(-8)))
          CFI (cfiCond75) V11 load(1, XDATA, add(CFA_XSP16, literal(-7)))
          CFI (cfiCond75) R7 load(1, XDATA, add(CFA_XSP16, literal(-6)))
          CFI (cfiCond75) ?RET_LOW load(1, XDATA, add(CFA_XSP16, literal(-5)))
          CFI (cfiCond75) ?RET_HIGH load(1, XDATA, add(CFA_XSP16, literal(-4)))
          CFI (cfiCond75) ?BRET_EXT load(1, XDATA, add(CFA_XSP16, literal(-3)))
          CFI (cfiCond75) DPL0 load(1, XDATA, add(CFA_XSP16, literal(-2)))
          CFI (cfiCond75) DPH0 load(1, XDATA, add(CFA_XSP16, literal(-1)))
          CFI (cfiCond75) CFA_SP SP+-2
          CFI (cfiCond75) CFA_XSP16 add(XSP16, 35)
          CFI Block cfiCond76 Using cfiCommon0
          CFI (cfiCond76) Function zclGp_SendGpCommissioningNotificationCommand
          CFI (cfiCond76) Conditional ??CrossCallReturnLabel_76
          CFI (cfiCond76) R6 load(1, XDATA, add(CFA_XSP16, literal(-20)))
          CFI (cfiCond76) VB load(1, XDATA, add(CFA_XSP16, literal(-19)))
          CFI (cfiCond76) V0 load(1, XDATA, add(CFA_XSP16, literal(-18)))
          CFI (cfiCond76) V1 load(1, XDATA, add(CFA_XSP16, literal(-17)))
          CFI (cfiCond76) V2 load(1, XDATA, add(CFA_XSP16, literal(-16)))
          CFI (cfiCond76) V3 load(1, XDATA, add(CFA_XSP16, literal(-15)))
          CFI (cfiCond76) V4 load(1, XDATA, add(CFA_XSP16, literal(-14)))
          CFI (cfiCond76) V5 load(1, XDATA, add(CFA_XSP16, literal(-13)))
          CFI (cfiCond76) V6 load(1, XDATA, add(CFA_XSP16, literal(-12)))
          CFI (cfiCond76) V7 load(1, XDATA, add(CFA_XSP16, literal(-11)))
          CFI (cfiCond76) V8 load(1, XDATA, add(CFA_XSP16, literal(-10)))
          CFI (cfiCond76) V9 load(1, XDATA, add(CFA_XSP16, literal(-9)))
          CFI (cfiCond76) V10 load(1, XDATA, add(CFA_XSP16, literal(-8)))
          CFI (cfiCond76) V11 load(1, XDATA, add(CFA_XSP16, literal(-7)))
          CFI (cfiCond76) R7 load(1, XDATA, add(CFA_XSP16, literal(-6)))
          CFI (cfiCond76) ?RET_LOW load(1, XDATA, add(CFA_XSP16, literal(-5)))
          CFI (cfiCond76) ?RET_HIGH load(1, XDATA, add(CFA_XSP16, literal(-4)))
          CFI (cfiCond76) ?BRET_EXT load(1, XDATA, add(CFA_XSP16, literal(-3)))
          CFI (cfiCond76) DPL0 load(1, XDATA, add(CFA_XSP16, literal(-2)))
          CFI (cfiCond76) DPH0 load(1, XDATA, add(CFA_XSP16, literal(-1)))
          CFI (cfiCond76) CFA_SP SP+-2
          CFI (cfiCond76) CFA_XSP16 add(XSP16, 35)
          CFI Block cfiCond77 Using cfiCommon0
          CFI (cfiCond77) Function zclGp_SendGpCommissioningNotificationCommand
          CFI (cfiCond77) Conditional ??CrossCallReturnLabel_77
          CFI (cfiCond77) R6 load(1, XDATA, add(CFA_XSP16, literal(-20)))
          CFI (cfiCond77) VB load(1, XDATA, add(CFA_XSP16, literal(-19)))
          CFI (cfiCond77) V0 load(1, XDATA, add(CFA_XSP16, literal(-18)))
          CFI (cfiCond77) V1 load(1, XDATA, add(CFA_XSP16, literal(-17)))
          CFI (cfiCond77) V2 load(1, XDATA, add(CFA_XSP16, literal(-16)))
          CFI (cfiCond77) V3 load(1, XDATA, add(CFA_XSP16, literal(-15)))
          CFI (cfiCond77) V4 load(1, XDATA, add(CFA_XSP16, literal(-14)))
          CFI (cfiCond77) V5 load(1, XDATA, add(CFA_XSP16, literal(-13)))
          CFI (cfiCond77) V6 load(1, XDATA, add(CFA_XSP16, literal(-12)))
          CFI (cfiCond77) V7 load(1, XDATA, add(CFA_XSP16, literal(-11)))
          CFI (cfiCond77) V8 load(1, XDATA, add(CFA_XSP16, literal(-10)))
          CFI (cfiCond77) V9 load(1, XDATA, add(CFA_XSP16, literal(-9)))
          CFI (cfiCond77) V10 load(1, XDATA, add(CFA_XSP16, literal(-8)))
          CFI (cfiCond77) V11 load(1, XDATA, add(CFA_XSP16, literal(-7)))
          CFI (cfiCond77) R7 load(1, XDATA, add(CFA_XSP16, literal(-6)))
          CFI (cfiCond77) ?RET_LOW load(1, XDATA, add(CFA_XSP16, literal(-5)))
          CFI (cfiCond77) ?RET_HIGH load(1, XDATA, add(CFA_XSP16, literal(-4)))
          CFI (cfiCond77) ?BRET_EXT load(1, XDATA, add(CFA_XSP16, literal(-3)))
          CFI (cfiCond77) DPL0 load(1, XDATA, add(CFA_XSP16, literal(-2)))
          CFI (cfiCond77) DPH0 load(1, XDATA, add(CFA_XSP16, literal(-1)))
          CFI (cfiCond77) CFA_SP SP+-2
          CFI (cfiCond77) CFA_XSP16 add(XSP16, 35)
          CFI Block cfiCond78 Using cfiCommon0
          CFI (cfiCond78) Function zclGp_SendGpNotificationCommand
          CFI (cfiCond78) Conditional ??CrossCallReturnLabel_68
          CFI (cfiCond78) R6 load(1, XDATA, add(CFA_XSP16, literal(-24)))
          CFI (cfiCond78) VB load(1, XDATA, add(CFA_XSP16, literal(-23)))
          CFI (cfiCond78) V0 load(1, XDATA, add(CFA_XSP16, literal(-22)))
          CFI (cfiCond78) V1 load(1, XDATA, add(CFA_XSP16, literal(-21)))
          CFI (cfiCond78) V2 load(1, XDATA, add(CFA_XSP16, literal(-20)))
          CFI (cfiCond78) V3 load(1, XDATA, add(CFA_XSP16, literal(-19)))
          CFI (cfiCond78) V4 load(1, XDATA, add(CFA_XSP16, literal(-18)))
          CFI (cfiCond78) V5 load(1, XDATA, add(CFA_XSP16, literal(-17)))
          CFI (cfiCond78) V6 load(1, XDATA, add(CFA_XSP16, literal(-16)))
          CFI (cfiCond78) V7 load(1, XDATA, add(CFA_XSP16, literal(-15)))
          CFI (cfiCond78) V8 load(1, XDATA, add(CFA_XSP16, literal(-14)))
          CFI (cfiCond78) V9 load(1, XDATA, add(CFA_XSP16, literal(-13)))
          CFI (cfiCond78) V10 load(1, XDATA, add(CFA_XSP16, literal(-12)))
          CFI (cfiCond78) V11 load(1, XDATA, add(CFA_XSP16, literal(-11)))
          CFI (cfiCond78) V12 load(1, XDATA, add(CFA_XSP16, literal(-10)))
          CFI (cfiCond78) V13 load(1, XDATA, add(CFA_XSP16, literal(-9)))
          CFI (cfiCond78) V14 load(1, XDATA, add(CFA_XSP16, literal(-8)))
          CFI (cfiCond78) V15 load(1, XDATA, add(CFA_XSP16, literal(-7)))
          CFI (cfiCond78) R7 load(1, XDATA, add(CFA_XSP16, literal(-6)))
          CFI (cfiCond78) ?RET_LOW load(1, XDATA, add(CFA_XSP16, literal(-5)))
          CFI (cfiCond78) ?RET_HIGH load(1, XDATA, add(CFA_XSP16, literal(-4)))
          CFI (cfiCond78) ?BRET_EXT load(1, XDATA, add(CFA_XSP16, literal(-3)))
          CFI (cfiCond78) DPL0 load(1, XDATA, add(CFA_XSP16, literal(-2)))
          CFI (cfiCond78) DPH0 load(1, XDATA, add(CFA_XSP16, literal(-1)))
          CFI (cfiCond78) CFA_SP SP+-2
          CFI (cfiCond78) CFA_XSP16 add(XSP16, 27)
          CFI Block cfiCond79 Using cfiCommon0
          CFI (cfiCond79) Function zclGp_SendGpNotificationCommand
          CFI (cfiCond79) Conditional ??CrossCallReturnLabel_69
          CFI (cfiCond79) R6 load(1, XDATA, add(CFA_XSP16, literal(-24)))
          CFI (cfiCond79) VB load(1, XDATA, add(CFA_XSP16, literal(-23)))
          CFI (cfiCond79) V0 load(1, XDATA, add(CFA_XSP16, literal(-22)))
          CFI (cfiCond79) V1 load(1, XDATA, add(CFA_XSP16, literal(-21)))
          CFI (cfiCond79) V2 load(1, XDATA, add(CFA_XSP16, literal(-20)))
          CFI (cfiCond79) V3 load(1, XDATA, add(CFA_XSP16, literal(-19)))
          CFI (cfiCond79) V4 load(1, XDATA, add(CFA_XSP16, literal(-18)))
          CFI (cfiCond79) V5 load(1, XDATA, add(CFA_XSP16, literal(-17)))
          CFI (cfiCond79) V6 load(1, XDATA, add(CFA_XSP16, literal(-16)))
          CFI (cfiCond79) V7 load(1, XDATA, add(CFA_XSP16, literal(-15)))
          CFI (cfiCond79) V8 load(1, XDATA, add(CFA_XSP16, literal(-14)))
          CFI (cfiCond79) V9 load(1, XDATA, add(CFA_XSP16, literal(-13)))
          CFI (cfiCond79) V10 load(1, XDATA, add(CFA_XSP16, literal(-12)))
          CFI (cfiCond79) V11 load(1, XDATA, add(CFA_XSP16, literal(-11)))
          CFI (cfiCond79) V12 load(1, XDATA, add(CFA_XSP16, literal(-10)))
          CFI (cfiCond79) V13 load(1, XDATA, add(CFA_XSP16, literal(-9)))
          CFI (cfiCond79) V14 load(1, XDATA, add(CFA_XSP16, literal(-8)))
          CFI (cfiCond79) V15 load(1, XDATA, add(CFA_XSP16, literal(-7)))
          CFI (cfiCond79) R7 load(1, XDATA, add(CFA_XSP16, literal(-6)))
          CFI (cfiCond79) ?RET_LOW load(1, XDATA, add(CFA_XSP16, literal(-5)))
          CFI (cfiCond79) ?RET_HIGH load(1, XDATA, add(CFA_XSP16, literal(-4)))
          CFI (cfiCond79) ?BRET_EXT load(1, XDATA, add(CFA_XSP16, literal(-3)))
          CFI (cfiCond79) DPL0 load(1, XDATA, add(CFA_XSP16, literal(-2)))
          CFI (cfiCond79) DPH0 load(1, XDATA, add(CFA_XSP16, literal(-1)))
          CFI (cfiCond79) CFA_SP SP+-2
          CFI (cfiCond79) CFA_XSP16 add(XSP16, 27)
          CFI Block cfiCond80 Using cfiCommon0
          CFI (cfiCond80) Function zclGp_SendGpCommissioningNotificationCommand
          CFI (cfiCond80) Conditional ??CrossCallReturnLabel_70
          CFI (cfiCond80) R6 load(1, XDATA, add(CFA_XSP16, literal(-20)))
          CFI (cfiCond80) VB load(1, XDATA, add(CFA_XSP16, literal(-19)))
          CFI (cfiCond80) V0 load(1, XDATA, add(CFA_XSP16, literal(-18)))
          CFI (cfiCond80) V1 load(1, XDATA, add(CFA_XSP16, literal(-17)))
          CFI (cfiCond80) V2 load(1, XDATA, add(CFA_XSP16, literal(-16)))
          CFI (cfiCond80) V3 load(1, XDATA, add(CFA_XSP16, literal(-15)))
          CFI (cfiCond80) V4 load(1, XDATA, add(CFA_XSP16, literal(-14)))
          CFI (cfiCond80) V5 load(1, XDATA, add(CFA_XSP16, literal(-13)))
          CFI (cfiCond80) V6 load(1, XDATA, add(CFA_XSP16, literal(-12)))
          CFI (cfiCond80) V7 load(1, XDATA, add(CFA_XSP16, literal(-11)))
          CFI (cfiCond80) V8 load(1, XDATA, add(CFA_XSP16, literal(-10)))
          CFI (cfiCond80) V9 load(1, XDATA, add(CFA_XSP16, literal(-9)))
          CFI (cfiCond80) V10 load(1, XDATA, add(CFA_XSP16, literal(-8)))
          CFI (cfiCond80) V11 load(1, XDATA, add(CFA_XSP16, literal(-7)))
          CFI (cfiCond80) R7 load(1, XDATA, add(CFA_XSP16, literal(-6)))
          CFI (cfiCond80) ?RET_LOW load(1, XDATA, add(CFA_XSP16, literal(-5)))
          CFI (cfiCond80) ?RET_HIGH load(1, XDATA, add(CFA_XSP16, literal(-4)))
          CFI (cfiCond80) ?BRET_EXT load(1, XDATA, add(CFA_XSP16, literal(-3)))
          CFI (cfiCond80) DPL0 load(1, XDATA, add(CFA_XSP16, literal(-2)))
          CFI (cfiCond80) DPH0 load(1, XDATA, add(CFA_XSP16, literal(-1)))
          CFI (cfiCond80) CFA_SP SP+-2
          CFI (cfiCond80) CFA_XSP16 add(XSP16, 35)
          CFI Block cfiCond81 Using cfiCommon0
          CFI (cfiCond81) Function zclGp_SendGpCommissioningNotificationCommand
          CFI (cfiCond81) Conditional ??CrossCallReturnLabel_71
          CFI (cfiCond81) R6 load(1, XDATA, add(CFA_XSP16, literal(-20)))
          CFI (cfiCond81) VB load(1, XDATA, add(CFA_XSP16, literal(-19)))
          CFI (cfiCond81) V0 load(1, XDATA, add(CFA_XSP16, literal(-18)))
          CFI (cfiCond81) V1 load(1, XDATA, add(CFA_XSP16, literal(-17)))
          CFI (cfiCond81) V2 load(1, XDATA, add(CFA_XSP16, literal(-16)))
          CFI (cfiCond81) V3 load(1, XDATA, add(CFA_XSP16, literal(-15)))
          CFI (cfiCond81) V4 load(1, XDATA, add(CFA_XSP16, literal(-14)))
          CFI (cfiCond81) V5 load(1, XDATA, add(CFA_XSP16, literal(-13)))
          CFI (cfiCond81) V6 load(1, XDATA, add(CFA_XSP16, literal(-12)))
          CFI (cfiCond81) V7 load(1, XDATA, add(CFA_XSP16, literal(-11)))
          CFI (cfiCond81) V8 load(1, XDATA, add(CFA_XSP16, literal(-10)))
          CFI (cfiCond81) V9 load(1, XDATA, add(CFA_XSP16, literal(-9)))
          CFI (cfiCond81) V10 load(1, XDATA, add(CFA_XSP16, literal(-8)))
          CFI (cfiCond81) V11 load(1, XDATA, add(CFA_XSP16, literal(-7)))
          CFI (cfiCond81) R7 load(1, XDATA, add(CFA_XSP16, literal(-6)))
          CFI (cfiCond81) ?RET_LOW load(1, XDATA, add(CFA_XSP16, literal(-5)))
          CFI (cfiCond81) ?RET_HIGH load(1, XDATA, add(CFA_XSP16, literal(-4)))
          CFI (cfiCond81) ?BRET_EXT load(1, XDATA, add(CFA_XSP16, literal(-3)))
          CFI (cfiCond81) DPL0 load(1, XDATA, add(CFA_XSP16, literal(-2)))
          CFI (cfiCond81) DPH0 load(1, XDATA, add(CFA_XSP16, literal(-1)))
          CFI (cfiCond81) CFA_SP SP+-2
          CFI (cfiCond81) CFA_XSP16 add(XSP16, 35)
          CFI Block cfiPicker82 Using cfiCommon1
          CFI (cfiPicker82) NoFunction
          CFI (cfiPicker82) Picker
        MOV       R3,A
          CFI EndBlock cfiCond71
          CFI EndBlock cfiCond72
          CFI EndBlock cfiCond73
          CFI EndBlock cfiCond74
          CFI EndBlock cfiCond75
          CFI EndBlock cfiCond76
          CFI EndBlock cfiCond77
          CFI EndBlock cfiCond78
          CFI EndBlock cfiCond79
          CFI EndBlock cfiCond80
          CFI EndBlock cfiCond81
          CFI EndBlock cfiPicker82
        REQUIRE ??Subroutine42_0
        ; // Fall through to label ??Subroutine42_0

        RSEG BANKED_CODE:HUGECODE:NOROOT(0)
??Subroutine42_0:
          CFI Block cfiCond83 Using cfiCommon0
          CFI Function zclGp_ProcessInProxyBasic
          CFI Conditional ??CrossCallReturnLabel_79
          CFI R6 load(1, XDATA, add(CFA_XSP16, literal(-20)))
          CFI VB load(1, XDATA, add(CFA_XSP16, literal(-19)))
          CFI V0 load(1, XDATA, add(CFA_XSP16, literal(-18)))
          CFI V1 load(1, XDATA, add(CFA_XSP16, literal(-17)))
          CFI V2 load(1, XDATA, add(CFA_XSP16, literal(-16)))
          CFI V3 load(1, XDATA, add(CFA_XSP16, literal(-15)))
          CFI V4 load(1, XDATA, add(CFA_XSP16, literal(-14)))
          CFI V5 load(1, XDATA, add(CFA_XSP16, literal(-13)))
          CFI V6 load(1, XDATA, add(CFA_XSP16, literal(-12)))
          CFI V7 load(1, XDATA, add(CFA_XSP16, literal(-11)))
          CFI V8 load(1, XDATA, add(CFA_XSP16, literal(-10)))
          CFI V9 load(1, XDATA, add(CFA_XSP16, literal(-9)))
          CFI V10 load(1, XDATA, add(CFA_XSP16, literal(-8)))
          CFI V11 load(1, XDATA, add(CFA_XSP16, literal(-7)))
          CFI R7 load(1, XDATA, add(CFA_XSP16, literal(-6)))
          CFI ?RET_LOW load(1, XDATA, add(CFA_XSP16, literal(-5)))
          CFI ?RET_HIGH load(1, XDATA, add(CFA_XSP16, literal(-4)))
          CFI ?BRET_EXT load(1, XDATA, add(CFA_XSP16, literal(-3)))
          CFI DPL0 load(1, XDATA, add(CFA_XSP16, literal(-2)))
          CFI DPH0 load(1, XDATA, add(CFA_XSP16, literal(-1)))
          CFI CFA_SP SP+-2
          CFI CFA_XSP16 add(XSP16, 45)
          CFI Block cfiCond84 Using cfiCommon0
          CFI (cfiCond84) Function zclGp_ProcessInProxyBasic
          CFI (cfiCond84) Conditional ??CrossCallReturnLabel_80
          CFI (cfiCond84) R6 load(1, XDATA, add(CFA_XSP16, literal(-20)))
          CFI (cfiCond84) VB load(1, XDATA, add(CFA_XSP16, literal(-19)))
          CFI (cfiCond84) V0 load(1, XDATA, add(CFA_XSP16, literal(-18)))
          CFI (cfiCond84) V1 load(1, XDATA, add(CFA_XSP16, literal(-17)))
          CFI (cfiCond84) V2 load(1, XDATA, add(CFA_XSP16, literal(-16)))
          CFI (cfiCond84) V3 load(1, XDATA, add(CFA_XSP16, literal(-15)))
          CFI (cfiCond84) V4 load(1, XDATA, add(CFA_XSP16, literal(-14)))
          CFI (cfiCond84) V5 load(1, XDATA, add(CFA_XSP16, literal(-13)))
          CFI (cfiCond84) V6 load(1, XDATA, add(CFA_XSP16, literal(-12)))
          CFI (cfiCond84) V7 load(1, XDATA, add(CFA_XSP16, literal(-11)))
          CFI (cfiCond84) V8 load(1, XDATA, add(CFA_XSP16, literal(-10)))
          CFI (cfiCond84) V9 load(1, XDATA, add(CFA_XSP16, literal(-9)))
          CFI (cfiCond84) V10 load(1, XDATA, add(CFA_XSP16, literal(-8)))
          CFI (cfiCond84) V11 load(1, XDATA, add(CFA_XSP16, literal(-7)))
          CFI (cfiCond84) R7 load(1, XDATA, add(CFA_XSP16, literal(-6)))
          CFI (cfiCond84) ?RET_LOW load(1, XDATA, add(CFA_XSP16, literal(-5)))
          CFI (cfiCond84) ?RET_HIGH load(1, XDATA, add(CFA_XSP16, literal(-4)))
          CFI (cfiCond84) ?BRET_EXT load(1, XDATA, add(CFA_XSP16, literal(-3)))
          CFI (cfiCond84) DPL0 load(1, XDATA, add(CFA_XSP16, literal(-2)))
          CFI (cfiCond84) DPH0 load(1, XDATA, add(CFA_XSP16, literal(-1)))
          CFI (cfiCond84) CFA_SP SP+-2
          CFI (cfiCond84) CFA_XSP16 add(XSP16, 45)
          CFI Block cfiCond85 Using cfiCommon0
          CFI (cfiCond85) Function zclGp_ProcessInProxyBasic
          CFI (cfiCond85) Conditional ??CrossCallReturnLabel_81
          CFI (cfiCond85) R6 load(1, XDATA, add(CFA_XSP16, literal(-20)))
          CFI (cfiCond85) VB load(1, XDATA, add(CFA_XSP16, literal(-19)))
          CFI (cfiCond85) V0 load(1, XDATA, add(CFA_XSP16, literal(-18)))
          CFI (cfiCond85) V1 load(1, XDATA, add(CFA_XSP16, literal(-17)))
          CFI (cfiCond85) V2 load(1, XDATA, add(CFA_XSP16, literal(-16)))
          CFI (cfiCond85) V3 load(1, XDATA, add(CFA_XSP16, literal(-15)))
          CFI (cfiCond85) V4 load(1, XDATA, add(CFA_XSP16, literal(-14)))
          CFI (cfiCond85) V5 load(1, XDATA, add(CFA_XSP16, literal(-13)))
          CFI (cfiCond85) V6 load(1, XDATA, add(CFA_XSP16, literal(-12)))
          CFI (cfiCond85) V7 load(1, XDATA, add(CFA_XSP16, literal(-11)))
          CFI (cfiCond85) V8 load(1, XDATA, add(CFA_XSP16, literal(-10)))
          CFI (cfiCond85) V9 load(1, XDATA, add(CFA_XSP16, literal(-9)))
          CFI (cfiCond85) V10 load(1, XDATA, add(CFA_XSP16, literal(-8)))
          CFI (cfiCond85) V11 load(1, XDATA, add(CFA_XSP16, literal(-7)))
          CFI (cfiCond85) R7 load(1, XDATA, add(CFA_XSP16, literal(-6)))
          CFI (cfiCond85) ?RET_LOW load(1, XDATA, add(CFA_XSP16, literal(-5)))
          CFI (cfiCond85) ?RET_HIGH load(1, XDATA, add(CFA_XSP16, literal(-4)))
          CFI (cfiCond85) ?BRET_EXT load(1, XDATA, add(CFA_XSP16, literal(-3)))
          CFI (cfiCond85) DPL0 load(1, XDATA, add(CFA_XSP16, literal(-2)))
          CFI (cfiCond85) DPH0 load(1, XDATA, add(CFA_XSP16, literal(-1)))
          CFI (cfiCond85) CFA_SP SP+-2
          CFI (cfiCond85) CFA_XSP16 add(XSP16, 45)
          CFI Block cfiCond86 Using cfiCommon0
          CFI (cfiCond86) Function zclGp_ProcessInProxyBasic
          CFI (cfiCond86) Conditional ??CrossCallReturnLabel_82
          CFI (cfiCond86) R6 load(1, XDATA, add(CFA_XSP16, literal(-20)))
          CFI (cfiCond86) VB load(1, XDATA, add(CFA_XSP16, literal(-19)))
          CFI (cfiCond86) V0 load(1, XDATA, add(CFA_XSP16, literal(-18)))
          CFI (cfiCond86) V1 load(1, XDATA, add(CFA_XSP16, literal(-17)))
          CFI (cfiCond86) V2 load(1, XDATA, add(CFA_XSP16, literal(-16)))
          CFI (cfiCond86) V3 load(1, XDATA, add(CFA_XSP16, literal(-15)))
          CFI (cfiCond86) V4 load(1, XDATA, add(CFA_XSP16, literal(-14)))
          CFI (cfiCond86) V5 load(1, XDATA, add(CFA_XSP16, literal(-13)))
          CFI (cfiCond86) V6 load(1, XDATA, add(CFA_XSP16, literal(-12)))
          CFI (cfiCond86) V7 load(1, XDATA, add(CFA_XSP16, literal(-11)))
          CFI (cfiCond86) V8 load(1, XDATA, add(CFA_XSP16, literal(-10)))
          CFI (cfiCond86) V9 load(1, XDATA, add(CFA_XSP16, literal(-9)))
          CFI (cfiCond86) V10 load(1, XDATA, add(CFA_XSP16, literal(-8)))
          CFI (cfiCond86) V11 load(1, XDATA, add(CFA_XSP16, literal(-7)))
          CFI (cfiCond86) R7 load(1, XDATA, add(CFA_XSP16, literal(-6)))
          CFI (cfiCond86) ?RET_LOW load(1, XDATA, add(CFA_XSP16, literal(-5)))
          CFI (cfiCond86) ?RET_HIGH load(1, XDATA, add(CFA_XSP16, literal(-4)))
          CFI (cfiCond86) ?BRET_EXT load(1, XDATA, add(CFA_XSP16, literal(-3)))
          CFI (cfiCond86) DPL0 load(1, XDATA, add(CFA_XSP16, literal(-2)))
          CFI (cfiCond86) DPH0 load(1, XDATA, add(CFA_XSP16, literal(-1)))
          CFI (cfiCond86) CFA_SP SP+-2
          CFI (cfiCond86) CFA_XSP16 add(XSP16, 45)
          CFI Block cfiCond87 Using cfiCommon0
          CFI (cfiCond87) Function zclGp_ProcessInProxyBasic
          CFI (cfiCond87) Conditional ??CrossCallReturnLabel_83
          CFI (cfiCond87) R6 load(1, XDATA, add(CFA_XSP16, literal(-20)))
          CFI (cfiCond87) VB load(1, XDATA, add(CFA_XSP16, literal(-19)))
          CFI (cfiCond87) V0 load(1, XDATA, add(CFA_XSP16, literal(-18)))
          CFI (cfiCond87) V1 load(1, XDATA, add(CFA_XSP16, literal(-17)))
          CFI (cfiCond87) V2 load(1, XDATA, add(CFA_XSP16, literal(-16)))
          CFI (cfiCond87) V3 load(1, XDATA, add(CFA_XSP16, literal(-15)))
          CFI (cfiCond87) V4 load(1, XDATA, add(CFA_XSP16, literal(-14)))
          CFI (cfiCond87) V5 load(1, XDATA, add(CFA_XSP16, literal(-13)))
          CFI (cfiCond87) V6 load(1, XDATA, add(CFA_XSP16, literal(-12)))
          CFI (cfiCond87) V7 load(1, XDATA, add(CFA_XSP16, literal(-11)))
          CFI (cfiCond87) V8 load(1, XDATA, add(CFA_XSP16, literal(-10)))
          CFI (cfiCond87) V9 load(1, XDATA, add(CFA_XSP16, literal(-9)))
          CFI (cfiCond87) V10 load(1, XDATA, add(CFA_XSP16, literal(-8)))
          CFI (cfiCond87) V11 load(1, XDATA, add(CFA_XSP16, literal(-7)))
          CFI (cfiCond87) R7 load(1, XDATA, add(CFA_XSP16, literal(-6)))
          CFI (cfiCond87) ?RET_LOW load(1, XDATA, add(CFA_XSP16, literal(-5)))
          CFI (cfiCond87) ?RET_HIGH load(1, XDATA, add(CFA_XSP16, literal(-4)))
          CFI (cfiCond87) ?BRET_EXT load(1, XDATA, add(CFA_XSP16, literal(-3)))
          CFI (cfiCond87) DPL0 load(1, XDATA, add(CFA_XSP16, literal(-2)))
          CFI (cfiCond87) DPH0 load(1, XDATA, add(CFA_XSP16, literal(-1)))
          CFI (cfiCond87) CFA_SP SP+-2
          CFI (cfiCond87) CFA_XSP16 add(XSP16, 45)
          CFI Block cfiCond88 Using cfiCommon0
          CFI (cfiCond88) Function zclGp_SendGpNotificationCommand
          CFI (cfiCond88) Conditional ??CrossCallReturnLabel_84
          CFI (cfiCond88) R6 load(1, XDATA, add(CFA_XSP16, literal(-24)))
          CFI (cfiCond88) VB load(1, XDATA, add(CFA_XSP16, literal(-23)))
          CFI (cfiCond88) V0 load(1, XDATA, add(CFA_XSP16, literal(-22)))
          CFI (cfiCond88) V1 load(1, XDATA, add(CFA_XSP16, literal(-21)))
          CFI (cfiCond88) V2 load(1, XDATA, add(CFA_XSP16, literal(-20)))
          CFI (cfiCond88) V3 load(1, XDATA, add(CFA_XSP16, literal(-19)))
          CFI (cfiCond88) V4 load(1, XDATA, add(CFA_XSP16, literal(-18)))
          CFI (cfiCond88) V5 load(1, XDATA, add(CFA_XSP16, literal(-17)))
          CFI (cfiCond88) V6 load(1, XDATA, add(CFA_XSP16, literal(-16)))
          CFI (cfiCond88) V7 load(1, XDATA, add(CFA_XSP16, literal(-15)))
          CFI (cfiCond88) V8 load(1, XDATA, add(CFA_XSP16, literal(-14)))
          CFI (cfiCond88) V9 load(1, XDATA, add(CFA_XSP16, literal(-13)))
          CFI (cfiCond88) V10 load(1, XDATA, add(CFA_XSP16, literal(-12)))
          CFI (cfiCond88) V11 load(1, XDATA, add(CFA_XSP16, literal(-11)))
          CFI (cfiCond88) V12 load(1, XDATA, add(CFA_XSP16, literal(-10)))
          CFI (cfiCond88) V13 load(1, XDATA, add(CFA_XSP16, literal(-9)))
          CFI (cfiCond88) V14 load(1, XDATA, add(CFA_XSP16, literal(-8)))
          CFI (cfiCond88) V15 load(1, XDATA, add(CFA_XSP16, literal(-7)))
          CFI (cfiCond88) R7 load(1, XDATA, add(CFA_XSP16, literal(-6)))
          CFI (cfiCond88) ?RET_LOW load(1, XDATA, add(CFA_XSP16, literal(-5)))
          CFI (cfiCond88) ?RET_HIGH load(1, XDATA, add(CFA_XSP16, literal(-4)))
          CFI (cfiCond88) ?BRET_EXT load(1, XDATA, add(CFA_XSP16, literal(-3)))
          CFI (cfiCond88) DPL0 load(1, XDATA, add(CFA_XSP16, literal(-2)))
          CFI (cfiCond88) DPH0 load(1, XDATA, add(CFA_XSP16, literal(-1)))
          CFI (cfiCond88) CFA_SP SP+-2
          CFI (cfiCond88) CFA_XSP16 add(XSP16, 27)
          CFI Block cfiCond89 Using cfiCommon0
          CFI (cfiCond89) Function zclGp_SendGpCommissioningNotificationCommand
          CFI (cfiCond89) Conditional ??CrossCallReturnLabel_85
          CFI (cfiCond89) R6 load(1, XDATA, add(CFA_XSP16, literal(-20)))
          CFI (cfiCond89) VB load(1, XDATA, add(CFA_XSP16, literal(-19)))
          CFI (cfiCond89) V0 load(1, XDATA, add(CFA_XSP16, literal(-18)))
          CFI (cfiCond89) V1 load(1, XDATA, add(CFA_XSP16, literal(-17)))
          CFI (cfiCond89) V2 load(1, XDATA, add(CFA_XSP16, literal(-16)))
          CFI (cfiCond89) V3 load(1, XDATA, add(CFA_XSP16, literal(-15)))
          CFI (cfiCond89) V4 load(1, XDATA, add(CFA_XSP16, literal(-14)))
          CFI (cfiCond89) V5 load(1, XDATA, add(CFA_XSP16, literal(-13)))
          CFI (cfiCond89) V6 load(1, XDATA, add(CFA_XSP16, literal(-12)))
          CFI (cfiCond89) V7 load(1, XDATA, add(CFA_XSP16, literal(-11)))
          CFI (cfiCond89) V8 load(1, XDATA, add(CFA_XSP16, literal(-10)))
          CFI (cfiCond89) V9 load(1, XDATA, add(CFA_XSP16, literal(-9)))
          CFI (cfiCond89) V10 load(1, XDATA, add(CFA_XSP16, literal(-8)))
          CFI (cfiCond89) V11 load(1, XDATA, add(CFA_XSP16, literal(-7)))
          CFI (cfiCond89) R7 load(1, XDATA, add(CFA_XSP16, literal(-6)))
          CFI (cfiCond89) ?RET_LOW load(1, XDATA, add(CFA_XSP16, literal(-5)))
          CFI (cfiCond89) ?RET_HIGH load(1, XDATA, add(CFA_XSP16, literal(-4)))
          CFI (cfiCond89) ?BRET_EXT load(1, XDATA, add(CFA_XSP16, literal(-3)))
          CFI (cfiCond89) DPL0 load(1, XDATA, add(CFA_XSP16, literal(-2)))
          CFI (cfiCond89) DPH0 load(1, XDATA, add(CFA_XSP16, literal(-1)))
          CFI (cfiCond89) CFA_SP SP+-2
          CFI (cfiCond89) CFA_XSP16 add(XSP16, 35)
          CFI Block cfiCond90 Using cfiCommon0
          CFI (cfiCond90) Function zclGp_SendGpProxyTableResponse
          CFI (cfiCond90) Conditional ??CrossCallReturnLabel_86
          CFI (cfiCond90) R6 load(1, XDATA, add(CFA_XSP16, literal(-22)))
          CFI (cfiCond90) VB load(1, XDATA, add(CFA_XSP16, literal(-21)))
          CFI (cfiCond90) V0 load(1, XDATA, add(CFA_XSP16, literal(-20)))
          CFI (cfiCond90) V1 load(1, XDATA, add(CFA_XSP16, literal(-19)))
          CFI (cfiCond90) V2 load(1, XDATA, add(CFA_XSP16, literal(-18)))
          CFI (cfiCond90) V3 load(1, XDATA, add(CFA_XSP16, literal(-17)))
          CFI (cfiCond90) V4 load(1, XDATA, add(CFA_XSP16, literal(-16)))
          CFI (cfiCond90) V5 load(1, XDATA, add(CFA_XSP16, literal(-15)))
          CFI (cfiCond90) V6 load(1, XDATA, add(CFA_XSP16, literal(-14)))
          CFI (cfiCond90) V7 load(1, XDATA, add(CFA_XSP16, literal(-13)))
          CFI (cfiCond90) V8 load(1, XDATA, add(CFA_XSP16, literal(-12)))
          CFI (cfiCond90) V9 load(1, XDATA, add(CFA_XSP16, literal(-11)))
          CFI (cfiCond90) V10 load(1, XDATA, add(CFA_XSP16, literal(-10)))
          CFI (cfiCond90) V11 load(1, XDATA, add(CFA_XSP16, literal(-9)))
          CFI (cfiCond90) V12 load(1, XDATA, add(CFA_XSP16, literal(-8)))
          CFI (cfiCond90) V13 load(1, XDATA, add(CFA_XSP16, literal(-7)))
          CFI (cfiCond90) R7 load(1, XDATA, add(CFA_XSP16, literal(-6)))
          CFI (cfiCond90) ?RET_LOW load(1, XDATA, add(CFA_XSP16, literal(-5)))
          CFI (cfiCond90) ?RET_HIGH load(1, XDATA, add(CFA_XSP16, literal(-4)))
          CFI (cfiCond90) ?BRET_EXT load(1, XDATA, add(CFA_XSP16, literal(-3)))
          CFI (cfiCond90) DPL0 load(1, XDATA, add(CFA_XSP16, literal(-2)))
          CFI (cfiCond90) DPH0 load(1, XDATA, add(CFA_XSP16, literal(-1)))
          CFI (cfiCond90) CFA_SP SP+-2
          CFI (cfiCond90) CFA_XSP16 add(XSP16, 27)
          CFI Block cfiCond91 Using cfiCommon0
          CFI (cfiCond91) Function gp_addPairedSinksToMsgQueue
          CFI (cfiCond91) Conditional ??CrossCallReturnLabel_87
          CFI (cfiCond91) R6 load(1, XDATA, add(CFA_XSP16, literal(-18)))
          CFI (cfiCond91) VB load(1, XDATA, add(CFA_XSP16, literal(-17)))
          CFI (cfiCond91) V0 load(1, XDATA, add(CFA_XSP16, literal(-16)))
          CFI (cfiCond91) V1 load(1, XDATA, add(CFA_XSP16, literal(-15)))
          CFI (cfiCond91) V2 load(1, XDATA, add(CFA_XSP16, literal(-14)))
          CFI (cfiCond91) V3 load(1, XDATA, add(CFA_XSP16, literal(-13)))
          CFI (cfiCond91) V4 load(1, XDATA, add(CFA_XSP16, literal(-12)))
          CFI (cfiCond91) V5 load(1, XDATA, add(CFA_XSP16, literal(-11)))
          CFI (cfiCond91) V6 load(1, XDATA, add(CFA_XSP16, literal(-10)))
          CFI (cfiCond91) V7 load(1, XDATA, add(CFA_XSP16, literal(-9)))
          CFI (cfiCond91) V8 load(1, XDATA, add(CFA_XSP16, literal(-8)))
          CFI (cfiCond91) V9 load(1, XDATA, add(CFA_XSP16, literal(-7)))
          CFI (cfiCond91) R7 load(1, XDATA, add(CFA_XSP16, literal(-6)))
          CFI (cfiCond91) ?RET_LOW load(1, XDATA, add(CFA_XSP16, literal(-5)))
          CFI (cfiCond91) ?RET_HIGH load(1, XDATA, add(CFA_XSP16, literal(-4)))
          CFI (cfiCond91) ?BRET_EXT load(1, XDATA, add(CFA_XSP16, literal(-3)))
          CFI (cfiCond91) DPL0 load(1, XDATA, add(CFA_XSP16, literal(-2)))
          CFI (cfiCond91) DPH0 load(1, XDATA, add(CFA_XSP16, literal(-1)))
          CFI (cfiCond91) CFA_SP SP+-2
          CFI (cfiCond91) CFA_XSP16 add(XSP16, 108)
          CFI Block cfiCond92 Using cfiCommon0
          CFI (cfiCond92) Function gp_addPairedSinksToMsgQueue
          CFI (cfiCond92) Conditional ??CrossCallReturnLabel_88
          CFI (cfiCond92) R6 load(1, XDATA, add(CFA_XSP16, literal(-18)))
          CFI (cfiCond92) VB load(1, XDATA, add(CFA_XSP16, literal(-17)))
          CFI (cfiCond92) V0 load(1, XDATA, add(CFA_XSP16, literal(-16)))
          CFI (cfiCond92) V1 load(1, XDATA, add(CFA_XSP16, literal(-15)))
          CFI (cfiCond92) V2 load(1, XDATA, add(CFA_XSP16, literal(-14)))
          CFI (cfiCond92) V3 load(1, XDATA, add(CFA_XSP16, literal(-13)))
          CFI (cfiCond92) V4 load(1, XDATA, add(CFA_XSP16, literal(-12)))
          CFI (cfiCond92) V5 load(1, XDATA, add(CFA_XSP16, literal(-11)))
          CFI (cfiCond92) V6 load(1, XDATA, add(CFA_XSP16, literal(-10)))
          CFI (cfiCond92) V7 load(1, XDATA, add(CFA_XSP16, literal(-9)))
          CFI (cfiCond92) V8 load(1, XDATA, add(CFA_XSP16, literal(-8)))
          CFI (cfiCond92) V9 load(1, XDATA, add(CFA_XSP16, literal(-7)))
          CFI (cfiCond92) R7 load(1, XDATA, add(CFA_XSP16, literal(-6)))
          CFI (cfiCond92) ?RET_LOW load(1, XDATA, add(CFA_XSP16, literal(-5)))
          CFI (cfiCond92) ?RET_HIGH load(1, XDATA, add(CFA_XSP16, literal(-4)))
          CFI (cfiCond92) ?BRET_EXT load(1, XDATA, add(CFA_XSP16, literal(-3)))
          CFI (cfiCond92) DPL0 load(1, XDATA, add(CFA_XSP16, literal(-2)))
          CFI (cfiCond92) DPH0 load(1, XDATA, add(CFA_XSP16, literal(-1)))
          CFI (cfiCond92) CFA_SP SP+-2
          CFI (cfiCond92) CFA_XSP16 add(XSP16, 108)
          CFI Block cfiCond93 Using cfiCommon0
          CFI (cfiCond93) Function gp_addPairedSinksToMsgQueue
          CFI (cfiCond93) Conditional ??CrossCallReturnLabel_89
          CFI (cfiCond93) R6 load(1, XDATA, add(CFA_XSP16, literal(-18)))
          CFI (cfiCond93) VB load(1, XDATA, add(CFA_XSP16, literal(-17)))
          CFI (cfiCond93) V0 load(1, XDATA, add(CFA_XSP16, literal(-16)))
          CFI (cfiCond93) V1 load(1, XDATA, add(CFA_XSP16, literal(-15)))
          CFI (cfiCond93) V2 load(1, XDATA, add(CFA_XSP16, literal(-14)))
          CFI (cfiCond93) V3 load(1, XDATA, add(CFA_XSP16, literal(-13)))
          CFI (cfiCond93) V4 load(1, XDATA, add(CFA_XSP16, literal(-12)))
          CFI (cfiCond93) V5 load(1, XDATA, add(CFA_XSP16, literal(-11)))
          CFI (cfiCond93) V6 load(1, XDATA, add(CFA_XSP16, literal(-10)))
          CFI (cfiCond93) V7 load(1, XDATA, add(CFA_XSP16, literal(-9)))
          CFI (cfiCond93) V8 load(1, XDATA, add(CFA_XSP16, literal(-8)))
          CFI (cfiCond93) V9 load(1, XDATA, add(CFA_XSP16, literal(-7)))
          CFI (cfiCond93) R7 load(1, XDATA, add(CFA_XSP16, literal(-6)))
          CFI (cfiCond93) ?RET_LOW load(1, XDATA, add(CFA_XSP16, literal(-5)))
          CFI (cfiCond93) ?RET_HIGH load(1, XDATA, add(CFA_XSP16, literal(-4)))
          CFI (cfiCond93) ?BRET_EXT load(1, XDATA, add(CFA_XSP16, literal(-3)))
          CFI (cfiCond93) DPL0 load(1, XDATA, add(CFA_XSP16, literal(-2)))
          CFI (cfiCond93) DPH0 load(1, XDATA, add(CFA_XSP16, literal(-1)))
          CFI (cfiCond93) CFA_SP SP+-2
          CFI (cfiCond93) CFA_XSP16 add(XSP16, 108)
          CFI Block cfiCond94 Using cfiCommon0
          CFI (cfiCond94) Function gp_addPairedSinksToMsgQueue
          CFI (cfiCond94) Conditional ??CrossCallReturnLabel_90
          CFI (cfiCond94) R6 load(1, XDATA, add(CFA_XSP16, literal(-18)))
          CFI (cfiCond94) VB load(1, XDATA, add(CFA_XSP16, literal(-17)))
          CFI (cfiCond94) V0 load(1, XDATA, add(CFA_XSP16, literal(-16)))
          CFI (cfiCond94) V1 load(1, XDATA, add(CFA_XSP16, literal(-15)))
          CFI (cfiCond94) V2 load(1, XDATA, add(CFA_XSP16, literal(-14)))
          CFI (cfiCond94) V3 load(1, XDATA, add(CFA_XSP16, literal(-13)))
          CFI (cfiCond94) V4 load(1, XDATA, add(CFA_XSP16, literal(-12)))
          CFI (cfiCond94) V5 load(1, XDATA, add(CFA_XSP16, literal(-11)))
          CFI (cfiCond94) V6 load(1, XDATA, add(CFA_XSP16, literal(-10)))
          CFI (cfiCond94) V7 load(1, XDATA, add(CFA_XSP16, literal(-9)))
          CFI (cfiCond94) V8 load(1, XDATA, add(CFA_XSP16, literal(-8)))
          CFI (cfiCond94) V9 load(1, XDATA, add(CFA_XSP16, literal(-7)))
          CFI (cfiCond94) R7 load(1, XDATA, add(CFA_XSP16, literal(-6)))
          CFI (cfiCond94) ?RET_LOW load(1, XDATA, add(CFA_XSP16, literal(-5)))
          CFI (cfiCond94) ?RET_HIGH load(1, XDATA, add(CFA_XSP16, literal(-4)))
          CFI (cfiCond94) ?BRET_EXT load(1, XDATA, add(CFA_XSP16, literal(-3)))
          CFI (cfiCond94) DPL0 load(1, XDATA, add(CFA_XSP16, literal(-2)))
          CFI (cfiCond94) DPH0 load(1, XDATA, add(CFA_XSP16, literal(-1)))
          CFI (cfiCond94) CFA_SP SP+-2
          CFI (cfiCond94) CFA_XSP16 add(XSP16, 108)
          CFI Block cfiCond95 Using cfiCommon0
          CFI (cfiCond95) Function zclGp_SendGpProxyTableResponse
          CFI (cfiCond95) Conditional ??CrossCallReturnLabel_78
          CFI (cfiCond95) R6 load(1, XDATA, add(CFA_XSP16, literal(-22)))
          CFI (cfiCond95) VB load(1, XDATA, add(CFA_XSP16, literal(-21)))
          CFI (cfiCond95) V0 load(1, XDATA, add(CFA_XSP16, literal(-20)))
          CFI (cfiCond95) V1 load(1, XDATA, add(CFA_XSP16, literal(-19)))
          CFI (cfiCond95) V2 load(1, XDATA, add(CFA_XSP16, literal(-18)))
          CFI (cfiCond95) V3 load(1, XDATA, add(CFA_XSP16, literal(-17)))
          CFI (cfiCond95) V4 load(1, XDATA, add(CFA_XSP16, literal(-16)))
          CFI (cfiCond95) V5 load(1, XDATA, add(CFA_XSP16, literal(-15)))
          CFI (cfiCond95) V6 load(1, XDATA, add(CFA_XSP16, literal(-14)))
          CFI (cfiCond95) V7 load(1, XDATA, add(CFA_XSP16, literal(-13)))
          CFI (cfiCond95) V8 load(1, XDATA, add(CFA_XSP16, literal(-12)))
          CFI (cfiCond95) V9 load(1, XDATA, add(CFA_XSP16, literal(-11)))
          CFI (cfiCond95) V10 load(1, XDATA, add(CFA_XSP16, literal(-10)))
          CFI (cfiCond95) V11 load(1, XDATA, add(CFA_XSP16, literal(-9)))
          CFI (cfiCond95) V12 load(1, XDATA, add(CFA_XSP16, literal(-8)))
          CFI (cfiCond95) V13 load(1, XDATA, add(CFA_XSP16, literal(-7)))
          CFI (cfiCond95) R7 load(1, XDATA, add(CFA_XSP16, literal(-6)))
          CFI (cfiCond95) ?RET_LOW load(1, XDATA, add(CFA_XSP16, literal(-5)))
          CFI (cfiCond95) ?RET_HIGH load(1, XDATA, add(CFA_XSP16, literal(-4)))
          CFI (cfiCond95) ?BRET_EXT load(1, XDATA, add(CFA_XSP16, literal(-3)))
          CFI (cfiCond95) DPL0 load(1, XDATA, add(CFA_XSP16, literal(-2)))
          CFI (cfiCond95) DPH0 load(1, XDATA, add(CFA_XSP16, literal(-1)))
          CFI (cfiCond95) CFA_SP SP+-2
          CFI (cfiCond95) CFA_XSP16 add(XSP16, 27)
          CFI Block cfiCond96 Using cfiCommon0
          CFI (cfiCond96) Function zclGp_SendGpNotificationCommand
          CFI (cfiCond96) Conditional ??CrossCallReturnLabel_72
          CFI (cfiCond96) R6 load(1, XDATA, add(CFA_XSP16, literal(-24)))
          CFI (cfiCond96) VB load(1, XDATA, add(CFA_XSP16, literal(-23)))
          CFI (cfiCond96) V0 load(1, XDATA, add(CFA_XSP16, literal(-22)))
          CFI (cfiCond96) V1 load(1, XDATA, add(CFA_XSP16, literal(-21)))
          CFI (cfiCond96) V2 load(1, XDATA, add(CFA_XSP16, literal(-20)))
          CFI (cfiCond96) V3 load(1, XDATA, add(CFA_XSP16, literal(-19)))
          CFI (cfiCond96) V4 load(1, XDATA, add(CFA_XSP16, literal(-18)))
          CFI (cfiCond96) V5 load(1, XDATA, add(CFA_XSP16, literal(-17)))
          CFI (cfiCond96) V6 load(1, XDATA, add(CFA_XSP16, literal(-16)))
          CFI (cfiCond96) V7 load(1, XDATA, add(CFA_XSP16, literal(-15)))
          CFI (cfiCond96) V8 load(1, XDATA, add(CFA_XSP16, literal(-14)))
          CFI (cfiCond96) V9 load(1, XDATA, add(CFA_XSP16, literal(-13)))
          CFI (cfiCond96) V10 load(1, XDATA, add(CFA_XSP16, literal(-12)))
          CFI (cfiCond96) V11 load(1, XDATA, add(CFA_XSP16, literal(-11)))
          CFI (cfiCond96) V12 load(1, XDATA, add(CFA_XSP16, literal(-10)))
          CFI (cfiCond96) V13 load(1, XDATA, add(CFA_XSP16, literal(-9)))
          CFI (cfiCond96) V14 load(1, XDATA, add(CFA_XSP16, literal(-8)))
          CFI (cfiCond96) V15 load(1, XDATA, add(CFA_XSP16, literal(-7)))
          CFI (cfiCond96) R7 load(1, XDATA, add(CFA_XSP16, literal(-6)))
          CFI (cfiCond96) ?RET_LOW load(1, XDATA, add(CFA_XSP16, literal(-5)))
          CFI (cfiCond96) ?RET_HIGH load(1, XDATA, add(CFA_XSP16, literal(-4)))
          CFI (cfiCond96) ?BRET_EXT load(1, XDATA, add(CFA_XSP16, literal(-3)))
          CFI (cfiCond96) DPL0 load(1, XDATA, add(CFA_XSP16, literal(-2)))
          CFI (cfiCond96) DPH0 load(1, XDATA, add(CFA_XSP16, literal(-1)))
          CFI (cfiCond96) CFA_SP SP+-2
          CFI (cfiCond96) CFA_XSP16 add(XSP16, 27)
          CFI Block cfiCond97 Using cfiCommon0
          CFI (cfiCond97) Function zclGp_SendGpNotificationCommand
          CFI (cfiCond97) Conditional ??CrossCallReturnLabel_73
          CFI (cfiCond97) R6 load(1, XDATA, add(CFA_XSP16, literal(-24)))
          CFI (cfiCond97) VB load(1, XDATA, add(CFA_XSP16, literal(-23)))
          CFI (cfiCond97) V0 load(1, XDATA, add(CFA_XSP16, literal(-22)))
          CFI (cfiCond97) V1 load(1, XDATA, add(CFA_XSP16, literal(-21)))
          CFI (cfiCond97) V2 load(1, XDATA, add(CFA_XSP16, literal(-20)))
          CFI (cfiCond97) V3 load(1, XDATA, add(CFA_XSP16, literal(-19)))
          CFI (cfiCond97) V4 load(1, XDATA, add(CFA_XSP16, literal(-18)))
          CFI (cfiCond97) V5 load(1, XDATA, add(CFA_XSP16, literal(-17)))
          CFI (cfiCond97) V6 load(1, XDATA, add(CFA_XSP16, literal(-16)))
          CFI (cfiCond97) V7 load(1, XDATA, add(CFA_XSP16, literal(-15)))
          CFI (cfiCond97) V8 load(1, XDATA, add(CFA_XSP16, literal(-14)))
          CFI (cfiCond97) V9 load(1, XDATA, add(CFA_XSP16, literal(-13)))
          CFI (cfiCond97) V10 load(1, XDATA, add(CFA_XSP16, literal(-12)))
          CFI (cfiCond97) V11 load(1, XDATA, add(CFA_XSP16, literal(-11)))
          CFI (cfiCond97) V12 load(1, XDATA, add(CFA_XSP16, literal(-10)))
          CFI (cfiCond97) V13 load(1, XDATA, add(CFA_XSP16, literal(-9)))
          CFI (cfiCond97) V14 load(1, XDATA, add(CFA_XSP16, literal(-8)))
          CFI (cfiCond97) V15 load(1, XDATA, add(CFA_XSP16, literal(-7)))
          CFI (cfiCond97) R7 load(1, XDATA, add(CFA_XSP16, literal(-6)))
          CFI (cfiCond97) ?RET_LOW load(1, XDATA, add(CFA_XSP16, literal(-5)))
          CFI (cfiCond97) ?RET_HIGH load(1, XDATA, add(CFA_XSP16, literal(-4)))
          CFI (cfiCond97) ?BRET_EXT load(1, XDATA, add(CFA_XSP16, literal(-3)))
          CFI (cfiCond97) DPL0 load(1, XDATA, add(CFA_XSP16, literal(-2)))
