///////////////////////////////////////////////////////////////////////////////
//
// IAR C/C++ Compiler V10.30.1.6000 for 8051              18/Apr/2021  13:22:03
// Copyright 2004-2018 IAR Systems AB.
// Evaluation license - IAR Embedded Workbench for 8051, Evaluation edition 10.30
//
//    Core               =  plain
//    Code model         =  banked
//    Data model         =  large
//    Calling convention =  xdata reentrant
//    Constant location  =  data_rom
//    Dptr setup         =  1,16
//                          
//    Source file        =  
//        C:\Texas Instruments\Z-Stack 3.0.2-20210417T211827Z-001\Z-Stack
//        3.0.2\Components\stack\zcl\zcl_green_power.c
//    Command line       =  
//        -f C:\users\slavko\Temp\EWf264.tmp ("C:\Texas Instruments\Z-Stack
//        3.0.2-20210417T211827Z-001\Z-Stack
//        3.0.2\Components\stack\zcl\zcl_green_power.c" -D SECURE=1 -D
//        TC_LINKKEY_JOIN -D NV_INIT -D NV_RESTORE -D xZTOOL_P1 -D xMT_TASK -D
//        xMT_APP_FUNC -D xMT_SYS_FUNC -D xMT_ZDO_FUNC -D xMT_ZDO_MGMT -D
//        xMT_APP_CNF_FUNC -D LEGACY_LCD_DEBUG -D LCD_SUPPORTED=DEBUG -D
//        MULTICAST_ENABLED=FALSE -D ZCL_READ -D ZCL_WRITE -D ZCL_BASIC -D
//        ZCL_IDENTIFY -D ZCL_SCENES -D ZCL_GROUPS -lC "C:\Texas
//        Instruments\Z-Stack 3.0.2-20210417T211827Z-001\Z-Stack
//        3.0.2\Projects\zstack\HomeAutomation\GenericApp\CC2530DB\CoordinatorEB\List"
//        -lA "C:\Texas Instruments\Z-Stack 3.0.2-20210417T211827Z-001\Z-Stack
//        3.0.2\Projects\zstack\HomeAutomation\GenericApp\CC2530DB\CoordinatorEB\List"
//        --diag_suppress Pe001,Pa010 -o "C:\Texas Instruments\Z-Stack
//        3.0.2-20210417T211827Z-001\Z-Stack
//        3.0.2\Projects\zstack\HomeAutomation\GenericApp\CC2530DB\CoordinatorEB\Obj"
//        -e --debug --core=plain --dptr=16,1 --data_model=large
//        --code_model=banked --calling_convention=xdata_reentrant
//        --place_constants=data_rom --nr_virtual_regs 16 -f "C:\Texas
//        Instruments\Z-Stack 3.0.2-20210417T211827Z-001\Z-Stack
//        3.0.2\Projects\zstack\HomeAutomation\GenericApp\CC2530DB\..\..\..\Tools\CC2530DB\f8wCoord.cfg"
//        (-DCPU32MHZ -DROOT=__near_func -DMAC_CFG_APP_PENDING_QUEUE=TRUE
//        -DMAC_CFG_TX_DATA_MAX=5 -DMAC_CFG_TX_MAX=8 -DMAC_CFG_RX_MAX=5
//        -DZDO_COORDINATOR -DRTR_NWK) -f "C:\Texas Instruments\Z-Stack
//        3.0.2-20210417T211827Z-001\Z-Stack
//        3.0.2\Projects\zstack\HomeAutomation\GenericApp\CC2530DB\..\..\..\Tools\CC2530DB\f8wConfig.cfg"
//        (-DZIGBEEPRO -DSECURE=1 -DZG_SECURE_DYNAMIC=0 -DREFLECTOR
//        -DDEFAULT_CHANLIST=0x00000800 -DZDAPP_CONFIG_PAN_ID=0xFFFF
//        -DNWK_START_DELAY=100 -DEXTENDED_JOINING_RANDOM_MASK=0x007F
//        -DBEACON_REQUEST_DELAY=100 -DBEACON_REQ_DELAY_MASK=0x00FF
//        -DLINK_STATUS_JITTER_MASK=0x007F -DROUTE_EXPIRY_TIME=30
//        -DAPSC_ACK_WAIT_DURATION_POLLED=3000 -DNWK_INDIRECT_MSG_TIMEOUT=7
//        -DMAX_RREQ_ENTRIES=8 -DAPSC_MAX_FRAME_RETRIES=3
//        -DNWK_MAX_DATA_RETRIES=2 -DMAX_POLL_FAILURE_RETRIES=2 -DMAX_BCAST=9
//        -DAPS_MAX_GROUPS=16 -DMAX_RTG_ENTRIES=40 -DNWK_MAX_BINDING_ENTRIES=4
//        -DMAX_BINDING_CLUSTER_IDS=4 -DDEFAULT_KEY={0}
//        -DMAC_MAX_FRAME_SIZE=116 -DZDNWKMGR_MIN_TRANSMISSIONS=20
//        "-DCONST=const __code" -DGENERIC=__generic -DRFD_RCVC_ALWAYS_ON=FALSE
//        -DPOLL_RATE=1000 -DQUEUED_POLL_RATE=100 -DRESPONSE_POLL_RATE=100
//        -DREJOIN_POLL_RATE=440 -DREJOIN_BACKOFF=900000 -DREJOIN_SCAN=900000
//        -DENABLE_LED4_DISABLE_S1) -f "C:\Texas Instruments\Z-Stack
//        3.0.2-20210417T211827Z-001\Z-Stack
//        3.0.2\Projects\zstack\HomeAutomation\GenericApp\CC2530DB\..\..\..\Tools\CC2530DB\f8wZCL.cfg"
//        -I "C:\Texas Instruments\Z-Stack 3.0.2-20210417T211827Z-001\Z-Stack
//        3.0.2\Projects\zstack\HomeAutomation\GenericApp\CC2530DB\" -I
//        "C:\Texas Instruments\Z-Stack 3.0.2-20210417T211827Z-001\Z-Stack
//        3.0.2\Projects\zstack\HomeAutomation\GenericApp\CC2530DB\..\Source\"
//        -I "C:\Texas Instruments\Z-Stack 3.0.2-20210417T211827Z-001\Z-Stack
//        3.0.2\Projects\zstack\HomeAutomation\GenericApp\CC2530DB\..\..\Source\"
//        -I "C:\Texas Instruments\Z-Stack 3.0.2-20210417T211827Z-001\Z-Stack
//        3.0.2\Projects\zstack\HomeAutomation\GenericApp\CC2530DB\..\..\..\ZMain\TI2530DB\"
//        -I "C:\Texas Instruments\Z-Stack 3.0.2-20210417T211827Z-001\Z-Stack
//        3.0.2\Projects\zstack\HomeAutomation\GenericApp\CC2530DB\..\..\..\..\..\Components\hal\include\"
//        -I "C:\Texas Instruments\Z-Stack 3.0.2-20210417T211827Z-001\Z-Stack
//        3.0.2\Projects\zstack\HomeAutomation\GenericApp\CC2530DB\..\..\..\..\..\Components\hal\target\CC2530EB\"
//        -I "C:\Texas Instruments\Z-Stack 3.0.2-20210417T211827Z-001\Z-Stack
//        3.0.2\Projects\zstack\HomeAutomation\GenericApp\CC2530DB\..\..\..\..\..\Components\mac\include\"
//        -I "C:\Texas Instruments\Z-Stack 3.0.2-20210417T211827Z-001\Z-Stack
//        3.0.2\Projects\zstack\HomeAutomation\GenericApp\CC2530DB\..\..\..\..\..\Components\mac\high_level\"
//        -I "C:\Texas Instruments\Z-Stack 3.0.2-20210417T211827Z-001\Z-Stack
//        3.0.2\Projects\zstack\HomeAutomation\GenericApp\CC2530DB\..\..\..\..\..\Components\mac\low_level\srf04\"
//        -I "C:\Texas Instruments\Z-Stack 3.0.2-20210417T211827Z-001\Z-Stack
//        3.0.2\Projects\zstack\HomeAutomation\GenericApp\CC2530DB\..\..\..\..\..\Components\mac\low_level\srf04\single_chip\"
//        -I "C:\Texas Instruments\Z-Stack 3.0.2-20210417T211827Z-001\Z-Stack
//        3.0.2\Projects\zstack\HomeAutomation\GenericApp\CC2530DB\..\..\..\..\..\Components\mt\"
//        -I "C:\Texas Instruments\Z-Stack 3.0.2-20210417T211827Z-001\Z-Stack
//        3.0.2\Projects\zstack\HomeAutomation\GenericApp\CC2530DB\..\..\..\..\..\Components\osal\include\"
//        -I "C:\Texas Instruments\Z-Stack 3.0.2-20210417T211827Z-001\Z-Stack
//        3.0.2\Projects\zstack\HomeAutomation\GenericApp\CC2530DB\..\..\..\..\..\Components\services\saddr\"
//        -I "C:\Texas Instruments\Z-Stack 3.0.2-20210417T211827Z-001\Z-Stack
//        3.0.2\Projects\zstack\HomeAutomation\GenericApp\CC2530DB\..\..\..\..\..\Components\services\sdata\"
//        -I "C:\Texas Instruments\Z-Stack 3.0.2-20210417T211827Z-001\Z-Stack
//        3.0.2\Projects\zstack\HomeAutomation\GenericApp\CC2530DB\..\..\..\..\..\Components\stack\af\"
//        -I "C:\Texas Instruments\Z-Stack 3.0.2-20210417T211827Z-001\Z-Stack
//        3.0.2\Projects\zstack\HomeAutomation\GenericApp\CC2530DB\..\..\..\..\..\Components\stack\bdb\"
//        -I "C:\Texas Instruments\Z-Stack 3.0.2-20210417T211827Z-001\Z-Stack
//        3.0.2\Projects\zstack\HomeAutomation\GenericApp\CC2530DB\..\..\..\..\..\Components\stack\gp\"
//        -I "C:\Texas Instruments\Z-Stack 3.0.2-20210417T211827Z-001\Z-Stack
//        3.0.2\Projects\zstack\HomeAutomation\GenericApp\CC2530DB\..\..\..\..\..\Components\stack\nwk\"
//        -I "C:\Texas Instruments\Z-Stack 3.0.2-20210417T211827Z-001\Z-Stack
//        3.0.2\Projects\zstack\HomeAutomation\GenericApp\CC2530DB\..\..\..\..\..\Components\stack\sapi\"
//        -I "C:\Texas Instruments\Z-Stack 3.0.2-20210417T211827Z-001\Z-Stack
//        3.0.2\Projects\zstack\HomeAutomation\GenericApp\CC2530DB\..\..\..\..\..\Components\stack\sec\"
//        -I "C:\Texas Instruments\Z-Stack 3.0.2-20210417T211827Z-001\Z-Stack
//        3.0.2\Projects\zstack\HomeAutomation\GenericApp\CC2530DB\..\..\..\..\..\Components\stack\sys\"
//        -I "C:\Texas Instruments\Z-Stack 3.0.2-20210417T211827Z-001\Z-Stack
//        3.0.2\Projects\zstack\HomeAutomation\GenericApp\CC2530DB\..\..\..\..\..\Components\stack\zcl\"
//        -I "C:\Texas Instruments\Z-Stack 3.0.2-20210417T211827Z-001\Z-Stack
//        3.0.2\Projects\zstack\HomeAutomation\GenericApp\CC2530DB\..\..\..\..\..\Components\stack\zdo\"
//        -I "C:\Texas Instruments\Z-Stack 3.0.2-20210417T211827Z-001\Z-Stack
//        3.0.2\Projects\zstack\HomeAutomation\GenericApp\CC2530DB\..\..\..\..\..\Components\zmac\"
//        -I "C:\Texas Instruments\Z-Stack 3.0.2-20210417T211827Z-001\Z-Stack
//        3.0.2\Projects\zstack\HomeAutomation\GenericApp\CC2530DB\..\..\..\..\..\Components\zmac\f8w\"
//        -Ohz --require_prototypes)
//    Locale             =  English_USA.1252
//    List file          =  
//        C:\Texas Instruments\Z-Stack 3.0.2-20210417T211827Z-001\Z-Stack
//        3.0.2\Projects\zstack\HomeAutomation\GenericApp\CC2530DB\CoordinatorEB\List\zcl_green_power.s51
//
///////////////////////////////////////////////////////////////////////////////

        NAME zcl_green_power

        RTMODEL "__SystemLibrary", "CLib"
        RTMODEL "__calling_convention", "xdata_reentrant"
        RTMODEL "__code_model", "banked"
        RTMODEL "__core", "plain"
        RTMODEL "__data_model", "large"
        RTMODEL "__dptr_size", "16"
        RTMODEL "__extended_stack", "disabled"
        RTMODEL "__location_for_constants", "data"
        RTMODEL "__number_of_dptrs", "1"
        RTMODEL "__register_banks", "*"
        RTMODEL "__rt_version", "1"

        RSEG DOVERLAY:DATA:NOROOT(0)
        RSEG IOVERLAY:IDATA:NOROOT(0)
        RSEG ISTACK:IDATA:NOROOT(0)
        RSEG PSTACK:XDATA:NOROOT(0)
        RSEG XSTACK:XDATA:NOROOT(0)

        EXTERN ?V0
        EXTERN ?V2
        EXTERN ?V3
        EXTERN ?V1
        EXTERN ?V4
        EXTERN ?V5
        EXTERN ?V6
        EXTERN ?V7
        EXTERN ?V8
        EXTERN ?V9
        EXTERN ?V10
        EXTERN ?V11
        EXTERN ?V12
        EXTERN ?V13
        EXTERN ?V14
        EXTERN ?V15
        EXTERN ?ALLOC_XSTACK8
        EXTERN ?BANKED_ENTER_XDATA
        EXTERN ?BANKED_LEAVE_XDATA
        EXTERN ?BDISPATCH
        EXTERN ?BRET
        EXTERN ?CALL_IND
        EXTERN ?DEALLOC_XSTACK8
        EXTERN ?MOVE_LONG8_XDATA_XDATA
        EXTERN ?PUSH_XSTACK8_X_FOUR
        EXTERN ?PUSH_XSTACK_I_ONE
        EXTERN ?PUSH_XSTACK_I_THREE
        EXTERN ?PUSH_XSTACK_I_TWO
        EXTERN ?XSP
        EXTERN ?XSTACK_DISP0_8
        EXTERN ?XSTACK_DISP100_8
        EXTERN ?XSTACK_DISP101_8
        EXTERN ?XSTACK_DISP102_8
        EXTERN __INIT_XDATA_Z

        PUBLIC `??gp_AddCmdPayloadMsgNode::?relay`
        FUNCTION `??gp_AddCmdPayloadMsgNode::?relay`,0203H
        PUBLIC `??gp_AddNotificationMsgNode::?relay`
        FUNCTION `??gp_AddNotificationMsgNode::?relay`,0203H
        PUBLIC `??gp_CmdPayloadMsgClean::?relay`
        FUNCTION `??gp_CmdPayloadMsgClean::?relay`,0203H
        PUBLIC `??gp_CreateCmdPayloadMsgList::?relay`
        FUNCTION `??gp_CreateCmdPayloadMsgList::?relay`,0203H
        PUBLIC `??gp_CreateNotificationMsgList::?relay`
        FUNCTION `??gp_CreateNotificationMsgList::?relay`,0203H
        PUBLIC `??gp_GetHeadCmdPayloadMsg::?relay`
        FUNCTION `??gp_GetHeadCmdPayloadMsg::?relay`,0203H
        PUBLIC `??gp_GetHeadNotificationMsg::?relay`
        FUNCTION `??gp_GetHeadNotificationMsg::?relay`,0203H
        PUBLIC `??gp_GetPHeadCmdPayload::?relay`
        FUNCTION `??gp_GetPHeadCmdPayload::?relay`,0203H
        PUBLIC `??gp_GetPHeadNotification::?relay`
        FUNCTION `??gp_GetPHeadNotification::?relay`,0203H
        PUBLIC `??gp_NotificationMsgClean::?relay`
        FUNCTION `??gp_NotificationMsgClean::?relay`,0203H
        PUBLIC `??gp_ResetProxyBasicTblEntry::?relay`
        FUNCTION `??gp_ResetProxyBasicTblEntry::?relay`,0203H
        FUNCTION `??gp_addPairedSinksToMsgQueue::?relay`,0203H
        FUNCTION `??zclGp_HdlIncoming::?relay`,0203H
        FUNCTION `??zclGp_ProcessInProxyBasic::?relay`,0203H
        PUBLIC `??zclGp_RegisterCmdCallbacks::?relay`
        FUNCTION `??zclGp_RegisterCmdCallbacks::?relay`,0203H
        PUBLIC `??zclGp_SendGpCommissioningNotificationCommand:`
        FUNCTION `??zclGp_SendGpCommissioningNotificationCommand:`,0203H
        PUBLIC `??zclGp_SendGpNotificationCommand::?relay`
        FUNCTION `??zclGp_SendGpNotificationCommand::?relay`,0203H
        PUBLIC `??zclGp_SendGpProxyTableResponse::?relay`
        FUNCTION `??zclGp_SendGpProxyTableResponse::?relay`,0203H
        PUBWEAK __Constant_32
        PUBLIC gp_AddCmdPayloadMsgNode
        FUNCTION gp_AddCmdPayloadMsgNode,0a1203H
        ARGFRAME XSTACK, 24, STACK
        ARGFRAME IOVERLAY, 0, STATIC
        ARGFRAME DOVERLAY, 0, STATIC
        LOCFRAME ISTACK, 1, STACK
        LOCFRAME XSTACK, 14, STACK
        PUBLIC gp_AddNotificationMsgNode
        FUNCTION gp_AddNotificationMsgNode,0a1203H
        ARGFRAME XSTACK, 105, STACK
        ARGFRAME IOVERLAY, 0, STATIC
        ARGFRAME DOVERLAY, 0, STATIC
        LOCFRAME XSTACK, 12, STACK
        PUBLIC gp_CmdPayloadMsgClean
        FUNCTION gp_CmdPayloadMsgClean,021203H
        ARGFRAME XSTACK, 12, STACK
        ARGFRAME IOVERLAY, 0, STATIC
        ARGFRAME DOVERLAY, 0, STATIC
        LOCFRAME XSTACK, 9, STACK
        PUBLIC gp_CreateCmdPayloadMsgList
        FUNCTION gp_CreateCmdPayloadMsgList,0a1203H
        ARGFRAME XSTACK, 14, STACK
        ARGFRAME IOVERLAY, 0, STATIC
        ARGFRAME DOVERLAY, 0, STATIC
        LOCFRAME XSTACK, 10, STACK
        PUBLIC gp_CreateNotificationMsgList
        FUNCTION gp_CreateNotificationMsgList,0a1203H
        ARGFRAME XSTACK, 12, STACK
        ARGFRAME IOVERLAY, 0, STATIC
        ARGFRAME DOVERLAY, 0, STATIC
        LOCFRAME XSTACK, 10, STACK
        PUBLIC gp_GetHeadCmdPayloadMsg
        FUNCTION gp_GetHeadCmdPayloadMsg,0203H
        ARGFRAME XSTACK, 0, STACK
        LOCFRAME ISTACK, 2, STACK
        PUBLIC gp_GetHeadNotificationMsg
        FUNCTION gp_GetHeadNotificationMsg,0203H
        ARGFRAME XSTACK, 0, STACK
        LOCFRAME ISTACK, 2, STACK
        PUBLIC gp_GetPHeadCmdPayload
        FUNCTION gp_GetPHeadCmdPayload,0203H
        ARGFRAME XSTACK, 0, STACK
        PUBLIC gp_GetPHeadNotification
        FUNCTION gp_GetPHeadNotification,0203H
        ARGFRAME XSTACK, 0, STACK
        PUBLIC gp_NotificationMsgClean
        FUNCTION gp_NotificationMsgClean,0a1203H
        ARGFRAME XSTACK, 0, STACK
        LOCFRAME XSTACK, 12, STACK
        PUBLIC gp_ResetProxyBasicTblEntry
        FUNCTION gp_ResetProxyBasicTblEntry,021203H
        ARGFRAME XSTACK, 0, STACK
        LOCFRAME XSTACK, 9, STACK
        FUNCTION gp_addPairedSinksToMsgQueue,0a1203H
        ARGFRAME XSTACK, 24, STACK
        ARGFRAME IOVERLAY, 0, STATIC
        ARGFRAME DOVERLAY, 0, STATIC
        LOCFRAME XSTACK, 108, STACK
        FUNCTION zclGp_HdlIncoming,021603H
        ARGFRAME XSTACK, 0, STACK
        LOCFRAME XSTACK, 9, STACK
        FUNCTION zclGp_ProcessInProxyBasic,0a1203H
        ARGFRAME XSTACK, 9, STACK
        ARGFRAME IOVERLAY, 0, STATIC
        ARGFRAME DOVERLAY, 0, STATIC
        LOCFRAME ISTACK, 1, STACK
        LOCFRAME XSTACK, 49, STACK
        PUBLIC zclGp_RegisterCmdCallbacks
        FUNCTION zclGp_RegisterCmdCallbacks,0a1203H
        ARGFRAME XSTACK, 0, STACK
        LOCFRAME ISTACK, 1, STACK
        LOCFRAME XSTACK, 14, STACK
        PUBLIC zclGp_SendGpCommissioningNotificationCommand
        FUNCTION zclGp_SendGpCommissioningNotificationCommand,0a1203H
        ARGFRAME XSTACK, 0, STACK
        LOCFRAME ISTACK, 1, STACK
        LOCFRAME XSTACK, 43, STACK
        PUBLIC zclGp_SendGpNotificationCommand
        FUNCTION zclGp_SendGpNotificationCommand,0a1203H
        ARGFRAME XSTACK, 0, STACK
        LOCFRAME ISTACK, 1, STACK
        LOCFRAME XSTACK, 28, STACK
        PUBLIC zclGp_SendGpProxyTableResponse
        FUNCTION zclGp_SendGpProxyTableResponse,0a1203H
        ARGFRAME XSTACK, 0, STACK
        LOCFRAME ISTACK, 1, STACK
        LOCFRAME XSTACK, 35, STACK
        
          CFI Names cfiNames0
          CFI StackFrame CFA_SP SP IDATA
          CFI StackFrame CFA_PSP16 PSP16 XDATA
          CFI StackFrame CFA_XSP16 XSP16 XDATA
          CFI StaticOverlayFrame CFA_IOVERLAY IOVERLAY
          CFI StaticOverlayFrame CFA_DOVERLAY DOVERLAY
          CFI Resource `PSW.CY`:1, `B.BR0`:1, `B.BR1`:1, `B.BR2`:1, `B.BR3`:1
          CFI Resource `B.BR4`:1, `B.BR5`:1, `B.BR6`:1, `B.BR7`:1, `VB.BR8`:1
          CFI Resource `VB.BR9`:1, `VB.BR10`:1, `VB.BR11`:1, `VB.BR12`:1
          CFI Resource `VB.BR13`:1, `VB.BR14`:1, `VB.BR15`:1, VB:8, B:8, A:8
          CFI Resource PSW:8, DPL0:8, DPH0:8, R0:8, R1:8, R2:8, R3:8, R4:8, R5:8
          CFI Resource R6:8, R7:8, V0:8, V1:8, V2:8, V3:8, V4:8, V5:8, V6:8, V7:8
          CFI Resource V8:8, V9:8, V10:8, V11:8, V12:8, V13:8, V14:8, V15:8, SP:8
          CFI Resource PSPH:8, PSPL:8, PSP16:16, XSPH:8, XSPL:8, XSP16:16
          CFI VirtualResource ?RET:24
          CFI Resource ?BRET_EXT:8
          CFI VirtualResource ?RET_HIGH:8, ?RET_LOW:8
          CFI ResourceParts PSP16 PSPH, PSPL
          CFI ResourceParts XSP16 XSPH, XSPL
          CFI ResourceParts ?RET ?BRET_EXT, ?RET_HIGH, ?RET_LOW
          CFI EndNames cfiNames0
        
          CFI Common cfiCommon0 Using cfiNames0
          CFI CodeAlign 1
          CFI DataAlign -1
          CFI ReturnAddress ?RET CODE
          CFI CFA_DOVERLAY Used
          CFI CFA_IOVERLAY Used
          CFI CFA_SP SP+-3
          CFI CFA_PSP16 PSP16+0
          CFI CFA_XSP16 XSP16+0
          CFI `PSW.CY` SameValue
          CFI `B.BR0` SameValue
          CFI `B.BR1` SameValue
          CFI `B.BR2` SameValue
          CFI `B.BR3` SameValue
          CFI `B.BR4` SameValue
          CFI `B.BR5` SameValue
          CFI `B.BR6` SameValue
          CFI `B.BR7` SameValue
          CFI `VB.BR8` SameValue
          CFI `VB.BR9` SameValue
          CFI `VB.BR10` SameValue
          CFI `VB.BR11` SameValue
          CFI `VB.BR12` SameValue
          CFI `VB.BR13` SameValue
          CFI `VB.BR14` SameValue
          CFI `VB.BR15` SameValue
          CFI VB SameValue
          CFI B Undefined
          CFI A Undefined
          CFI PSW SameValue
          CFI DPL0 SameValue
          CFI DPH0 SameValue
          CFI R0 Undefined
          CFI R1 Undefined
          CFI R2 Undefined
          CFI R3 Undefined
          CFI R4 Undefined
          CFI R5 Undefined
          CFI R6 SameValue
          CFI R7 SameValue
          CFI V0 SameValue
          CFI V1 SameValue
          CFI V2 SameValue
          CFI V3 SameValue
          CFI V4 SameValue
          CFI V5 SameValue
          CFI V6 SameValue
          CFI V7 SameValue
          CFI V8 SameValue
          CFI V9 SameValue
          CFI V10 SameValue
          CFI V11 SameValue
          CFI V12 SameValue
          CFI V13 SameValue
          CFI V14 SameValue
          CFI V15 SameValue
          CFI PSPH Undefined
          CFI PSPL Undefined
          CFI XSPH Undefined
          CFI XSPL Undefined
          CFI ?RET Concat
          CFI ?BRET_EXT Frame(CFA_SP, 3)
          CFI ?RET_HIGH Frame(CFA_SP, 2)
          CFI ?RET_LOW Frame(CFA_SP, 1)
          CFI EndCommon cfiCommon0
        
        
          CFI Common cfiCommon1 Using cfiNames0
          CFI CodeAlign 1
          CFI DataAlign -1
          CFI ReturnAddress ?RET CODE
          CFI CFA_DOVERLAY Used
          CFI CFA_IOVERLAY Used
          CFI CFA_SP SP+-2
          CFI CFA_PSP16 PSP16+0
          CFI CFA_XSP16 XSP16+0
          CFI `PSW.CY` SameValue
          CFI `B.BR0` SameValue
          CFI `B.BR1` SameValue
          CFI `B.BR2` SameValue
          CFI `B.BR3` SameValue
          CFI `B.BR4` SameValue
          CFI `B.BR5` SameValue
          CFI `B.BR6` SameValue
          CFI `B.BR7` SameValue
          CFI `VB.BR8` SameValue
          CFI `VB.BR9` SameValue
          CFI `VB.BR10` SameValue
          CFI `VB.BR11` SameValue
          CFI `VB.BR12` SameValue
          CFI `VB.BR13` SameValue
          CFI `VB.BR14` SameValue
          CFI `VB.BR15` SameValue
          CFI VB SameValue
          CFI B SameValue
          CFI A SameValue
          CFI PSW SameValue
          CFI DPL0 SameValue
          CFI DPH0 SameValue
          CFI R0 SameValue
          CFI R1 SameValue
          CFI R2 SameValue
          CFI R3 SameValue
          CFI R4 SameValue
          CFI R5 SameValue
          CFI R6 SameValue
          CFI R7 SameValue
          CFI V0 SameValue
          CFI V1 SameValue
          CFI V2 SameValue
          CFI V3 SameValue
          CFI V4 SameValue
          CFI V5 SameValue
          CFI V6 SameValue
          CFI V7 SameValue
          CFI V8 SameValue
          CFI V9 SameValue
          CFI V10 SameValue
          CFI V11 SameValue
          CFI V12 SameValue
          CFI V13 SameValue
          CFI V14 SameValue
          CFI V15 SameValue
          CFI PSPH Undefined
          CFI PSPL Undefined
          CFI XSPH Undefined
          CFI XSPL Undefined
          CFI ?RET Concat
          CFI ?BRET_EXT SameValue
          CFI ?RET_HIGH Frame(CFA_SP, 2)
          CFI ?RET_LOW Frame(CFA_SP, 1)
          CFI EndCommon cfiCommon1
        
bdb_getZCLFrameCounter SYMBOL "bdb_getZCLFrameCounter"
`??bdb_getZCLFrameCounter::?relay` SYMBOL "?relay", bdb_getZCLFrameCounter
gp_getProxyTableByIndex SYMBOL "gp_getProxyTableByIndex"
`??gp_getProxyTableByIndex::?relay` SYMBOL "?relay", gp_getProxyTableByIndex
osal_build_uint16   SYMBOL "osal_build_uint16"
`??osal_build_uint16::?relay` SYMBOL "?relay", osal_build_uint16
osal_mem_alloc      SYMBOL "osal_mem_alloc"
`??osal_mem_alloc::?relay` SYMBOL "?relay", osal_mem_alloc
osal_mem_free       SYMBOL "osal_mem_free"
`??osal_mem_free::?relay` SYMBOL "?relay", osal_mem_free
osal_memcmp         SYMBOL "osal_memcmp"
`??osal_memcmp::?relay` SYMBOL "?relay", osal_memcmp
osal_memcpy         SYMBOL "osal_memcpy"
`??osal_memcpy::?relay` SYMBOL "?relay", osal_memcpy
osal_memset         SYMBOL "osal_memset"
`??osal_memset::?relay` SYMBOL "?relay", osal_memset
osal_start_timerEx  SYMBOL "osal_start_timerEx"
`??osal_start_timerEx::?relay` SYMBOL "?relay", osal_start_timerEx
zcl_SendCommand     SYMBOL "zcl_SendCommand"
`??zcl_SendCommand::?relay` SYMBOL "?relay", zcl_SendCommand
zcl_SendDefaultRspCmd SYMBOL "zcl_SendDefaultRspCmd"
`??zcl_SendDefaultRspCmd::?relay` SYMBOL "?relay", zcl_SendDefaultRspCmd
zcl_registerPlugin  SYMBOL "zcl_registerPlugin"
`??zcl_registerPlugin::?relay` SYMBOL "?relay", zcl_registerPlugin
gp_AddCmdPayloadMsgNode SYMBOL "gp_AddCmdPayloadMsgNode"
`??gp_AddCmdPayloadMsgNode::?relay` SYMBOL "?relay", gp_AddCmdPayloadMsgNode
gp_AddNotificationMsgNode SYMBOL "gp_AddNotificationMsgNode"
`??gp_AddNotificationMsgNode::?relay` SYMBOL "?relay", gp_AddNotificationMsgNode
gp_CmdPayloadMsgClean SYMBOL "gp_CmdPayloadMsgClean"
`??gp_CmdPayloadMsgClean::?relay` SYMBOL "?relay", gp_CmdPayloadMsgClean
gp_CreateCmdPayloadMsgList SYMBOL "gp_CreateCmdPayloadMsgList"
`??gp_CreateCmdPayloadMsgList::?relay` SYMBOL "?relay", gp_CreateCmdPayloadMsgList
gp_CreateNotificationMsgList SYMBOL "gp_CreateNotificationMsgList"
`??gp_CreateNotificationMsgList::?relay` SYMBOL "?relay", gp_CreateNotificationMsgList
gp_GetHeadCmdPayloadMsg SYMBOL "gp_GetHeadCmdPayloadMsg"
`??gp_GetHeadCmdPayloadMsg::?relay` SYMBOL "?relay", gp_GetHeadCmdPayloadMsg
gp_GetHeadNotificationMsg SYMBOL "gp_GetHeadNotificationMsg"
`??gp_GetHeadNotificationMsg::?relay` SYMBOL "?relay", gp_GetHeadNotificationMsg
gp_GetPHeadCmdPayload SYMBOL "gp_GetPHeadCmdPayload"
`??gp_GetPHeadCmdPayload::?relay` SYMBOL "?relay", gp_GetPHeadCmdPayload
gp_GetPHeadNotification SYMBOL "gp_GetPHeadNotification"
`??gp_GetPHeadNotification::?relay` SYMBOL "?relay", gp_GetPHeadNotification
gp_NotificationMsgClean SYMBOL "gp_NotificationMsgClean"
`??gp_NotificationMsgClean::?relay` SYMBOL "?relay", gp_NotificationMsgClean
gp_ResetProxyBasicTblEntry SYMBOL "gp_ResetProxyBasicTblEntry"
`??gp_ResetProxyBasicTblEntry::?relay` SYMBOL "?relay", gp_ResetProxyBasicTblEntry
zclGp_RegisterCmdCallbacks SYMBOL "zclGp_RegisterCmdCallbacks"
`??zclGp_RegisterCmdCallbacks::?relay` SYMBOL "?relay", zclGp_RegisterCmdCallbacks
zclGp_SendGpCommissioningNotificationCommand SYMBOL "zclGp_SendGpCommissioningNotificationCommand"
`??zclGp_SendGpCommissioningNotificationCommand:` SYMBOL "?relay", zclGp_SendGpCommissioningNotificationCommand
zclGp_SendGpNotificationCommand SYMBOL "zclGp_SendGpNotificationCommand"
`??zclGp_SendGpNotificationCommand::?relay` SYMBOL "?relay", zclGp_SendGpNotificationCommand
zclGp_SendGpProxyTableResponse SYMBOL "zclGp_SendGpProxyTableResponse"
`??zclGp_SendGpProxyTableResponse::?relay` SYMBOL "?relay", zclGp_SendGpProxyTableResponse

        EXTERN `??bdb_getZCLFrameCounter::?relay`
        FUNCTION `??bdb_getZCLFrameCounter::?relay`,00H
        EXTERN `??gp_getProxyTableByIndex::?relay`
        FUNCTION `??gp_getProxyTableByIndex::?relay`,00H
        EXTERN `??osal_build_uint16::?relay`
        FUNCTION `??osal_build_uint16::?relay`,00H
        EXTERN `??osal_mem_alloc::?relay`
        FUNCTION `??osal_mem_alloc::?relay`,00H
        EXTERN `??osal_mem_free::?relay`
        FUNCTION `??osal_mem_free::?relay`,00H
        EXTERN `??osal_memcmp::?relay`
        FUNCTION `??osal_memcmp::?relay`,00H
        EXTERN `??osal_memcpy::?relay`
        FUNCTION `??osal_memcpy::?relay`,00H
        EXTERN `??osal_memset::?relay`
        FUNCTION `??osal_memset::?relay`,00H
        EXTERN `??osal_start_timerEx::?relay`
        FUNCTION `??osal_start_timerEx::?relay`,00H
        EXTERN `??zcl_SendCommand::?relay`
        FUNCTION `??zcl_SendCommand::?relay`,00H
        EXTERN `??zcl_SendDefaultRspCmd::?relay`
        FUNCTION `??zcl_SendDefaultRspCmd::?relay`,00H
        EXTERN `??zcl_registerPlugin::?relay`
        FUNCTION `??zcl_registerPlugin::?relay`,00H
        EXTERN _NIB
        EXTERN bdb_getZCLFrameCounter
        FUNCTION bdb_getZCLFrameCounter,0202H
        ARGFRAME ISTACK, 0, STACK
        ARGFRAME PSTACK, 0, STACK
        ARGFRAME XSTACK, 32, STACK
        ARGFRAME IOVERLAY, 0, STATIC
        ARGFRAME DOVERLAY, 0, STATIC
        EXTERN gp_commissionerAddress
        EXTERN gp_getProxyTableByIndex
        FUNCTION gp_getProxyTableByIndex,0202H
        ARGFRAME ISTACK, 0, STACK
        ARGFRAME PSTACK, 0, STACK
        ARGFRAME XSTACK, 105, STACK
        ARGFRAME IOVERLAY, 0, STATIC
        ARGFRAME DOVERLAY, 0, STATIC
        EXTERN osal_build_uint16
        FUNCTION osal_build_uint16,0202H
        ARGFRAME ISTACK, 0, STACK
        ARGFRAME PSTACK, 0, STACK
        ARGFRAME XSTACK, 42, STACK
        ARGFRAME IOVERLAY, 0, STATIC
        ARGFRAME DOVERLAY, 0, STATIC
        EXTERN osal_mem_alloc
        FUNCTION osal_mem_alloc,0202H
        ARGFRAME ISTACK, 0, STACK
        ARGFRAME PSTACK, 0, STACK
        ARGFRAME XSTACK, 32, STACK
        ARGFRAME IOVERLAY, 0, STATIC
        ARGFRAME DOVERLAY, 0, STATIC
        EXTERN osal_mem_free
        FUNCTION osal_mem_free,0202H
        ARGFRAME ISTACK, 0, STACK
        ARGFRAME PSTACK, 0, STACK
        ARGFRAME XSTACK, 32, STACK
        ARGFRAME IOVERLAY, 0, STATIC
        ARGFRAME DOVERLAY, 0, STATIC
        EXTERN osal_memcmp
        FUNCTION osal_memcmp,0202H
        ARGFRAME ISTACK, 0, STACK
        ARGFRAME PSTACK, 0, STACK
        ARGFRAME XSTACK, 108, STACK
        ARGFRAME IOVERLAY, 0, STATIC
        ARGFRAME DOVERLAY, 0, STATIC
        EXTERN osal_memcpy
        FUNCTION osal_memcpy,0202H
        ARGFRAME ISTACK, 0, STACK
        ARGFRAME PSTACK, 0, STACK
        ARGFRAME XSTACK, 108, STACK
        ARGFRAME IOVERLAY, 0, STATIC
        ARGFRAME DOVERLAY, 0, STATIC
        EXTERN osal_memset
        FUNCTION osal_memset,0202H
        ARGFRAME ISTACK, 0, STACK
        ARGFRAME PSTACK, 0, STACK
        ARGFRAME XSTACK, 9, STACK
        ARGFRAME IOVERLAY, 0, STATIC
        ARGFRAME DOVERLAY, 0, STATIC
        EXTERN osal_start_timerEx
        FUNCTION osal_start_timerEx,0202H
        ARGFRAME ISTACK, 0, STACK
        ARGFRAME PSTACK, 0, STACK
        ARGFRAME XSTACK, 28, STACK
        ARGFRAME IOVERLAY, 0, STATIC
        ARGFRAME DOVERLAY, 0, STATIC
        EXTERN zcl_InSeqNum
        EXTERN zcl_SendCommand
        FUNCTION zcl_SendCommand,0202H
        ARGFRAME ISTACK, 0, STACK
        ARGFRAME PSTACK, 0, STACK
        ARGFRAME XSTACK, 43, STACK
        ARGFRAME IOVERLAY, 0, STATIC
        ARGFRAME DOVERLAY, 0, STATIC
        EXTERN zcl_SendDefaultRspCmd
        FUNCTION zcl_SendDefaultRspCmd,0202H
        ARGFRAME ISTACK, 0, STACK
        ARGFRAME PSTACK, 0, STACK
        ARGFRAME XSTACK, 49, STACK
        ARGFRAME IOVERLAY, 0, STATIC
        ARGFRAME DOVERLAY, 0, STATIC
        EXTERN zcl_TaskID
        EXTERN zcl_registerPlugin
        FUNCTION zcl_registerPlugin,0202H
        ARGFRAME ISTACK, 0, STACK
        ARGFRAME PSTACK, 0, STACK
        ARGFRAME XSTACK, 14, STACK
        ARGFRAME IOVERLAY, 0, STATIC
        ARGFRAME DOVERLAY, 0, STATIC

// C:\Texas Instruments\Z-Stack 3.0.2-20210417T211827Z-001\Z-Stack 3.0.2\Components\stack\zcl\zcl_green_power.c
//    1 /**************************************************************************************************
//    2   Filename:       zcl_green_power.c
//    3   Revised:        $Date: 2015-09-10 09:36:48 -0700 (Thu, 10 Sep 2015) $
//    4   Revision:       $Revision: 44493 $
//    5 
//    6   Description:    Zigbee Cluster Library - General.  This application receives all
//    7                   ZCL messages and initially parses them before passing to application.
//    8 
//    9 
//   10   Copyright 2006-2015 Texas Instruments Incorporated. All rights reserved.
//   11 
//   12   IMPORTANT: Your use of this Software is limited to those specific rights
//   13   granted under the terms of a software license agreement between the user
//   14   who downloaded the software, his/her employer (which must be your employer)
//   15   and Texas Instruments Incorporated (the "License"). You may not use this
//   16   Software unless you agree to abide by the terms of the License. The License
//   17   limits your use, and you acknowledge, that the Software may not be modified,
//   18   copied or distributed unless embedded on a Texas Instruments microcontroller
//   19   or used solely and exclusively in conjunction with a Texas Instruments radio
//   20   frequency transceiver, which is integrated into your product. Other than for
//   21   the foregoing purpose, you may not use, reproduce, copy, prepare derivative
//   22   works of, modify, distribute, perform, display or sell this Software and/or
//   23   its documentation for any purpose.
//   24 
//   25   YOU FURTHER ACKNOWLEDGE AND AGREE THAT THE SOFTWARE AND DOCUMENTATION ARE
//   26   PROVIDED "AS IS" WITHOUT WARRANTY OF ANY KIND, EITHER EXPRESS OR IMPLIED,
//   27   INCLUDING WITHOUT LIMITATION, ANY WARRANTY OF MERCHANTABILITY, TITLE,
//   28   NON-INFRINGEMENT AND FITNESS FOR A PARTICULAR PURPOSE. IN NO EVENT SHALL
//   29   TEXAS INSTRUMENTS OR ITS LICENSORS BE LIABLE OR OBLIGATED UNDER CONTRACT,
//   30   NEGLIGENCE, STRICT LIABILITY, CONTRIBUTION, BREACH OF WARRANTY, OR OTHER
//   31   LEGAL EQUITABLE THEORY ANY DIRECT OR INDIRECT DAMAGES OR EXPENSES
//   32   INCLUDING BUT NOT LIMITED TO ANY INCIDENTAL, SPECIAL, INDIRECT, PUNITIVE
//   33   OR CONSEQUENTIAL DAMAGES, LOST PROFITS OR LOST DATA, COST OF PROCUREMENT
//   34   OF SUBSTITUTE GOODS, TECHNOLOGY, SERVICES, OR ANY CLAIMS BY THIRD PARTIES
//   35   (INCLUDING BUT NOT LIMITED TO ANY DEFENSE THEREOF), OR OTHER SIMILAR COSTS.
//   36 
//   37   Should you have any questions regarding your right to use this Software,
//   38   contact Texas Instruments Incorporated at www.TI.com.
//   39 **************************************************************************************************/
//   40 
//   41 
//   42 
//   43 /*********************************************************************
//   44  * INCLUDES
//   45  */
//   46 
//   47 #include "ZGlobals.h"  
//   48 #include "ZComDef.h"
//   49 #include "zcl.h"
//   50 #include "zcl_green_power.h"
//   51 #include "stub_aps.h"
//   52 #include "gp_common.h"
//   53 #include "bdb_interface.h"
//   54    
//   55 #if !defined (DISABLE_GREENPOWER_BASIC_PROXY) && (ZG_BUILD_RTR_TYPE)
//   56 
//   57 /*********************************************************************
//   58  * MACROS
//   59  */
//   60 
//   61 /*********************************************************************
//   62  * CONSTANTS
//   63  */
//   64 
//   65 //const static uint8 PROXY_BASIC_TBL_EMPTY_ENTRY[]  =  {0xFF, 0xFF, /* Options 16-bit bitmap */  \ 
//   66                                        0xFF, 0xFF, 0xFF, 0xFF, 0xFF, 0xFF, 0xFF, 0xFF, /*GPD ID Unsigned 32-bit integer/ IEEE address */  \ 
//   67                                        0x00, /* Endpoint Unsigned 8-bit integer */  \ 
//   68                                        0xFF, 0xFF, /* GPD Assigned Alias Unsigned 16-bit integer */  \ 
//   69                                        0xFF, /* Security Options 8-bit bitmap */  \ 
//   70                                        0xFF, 0xFF, 0xFF, 0xFF, /* GPD security frame counter Unsigned 32-bit Integer */  \ 
//   71                                        0xFF, 0xFF, 0xFF, 0xFF, 0xFF, 0xFF, 0xFF, 0xFF, 0xFF, 0xFF, 0xFF, 0xFF, 0xFF, 0xFF, 0xFF, 0xFF, /* GPD key Security key */  \ 
//   72                                        0x00, 0x00, 0x00, 0x00, 0x00, 0x00, 0x00, 0x00, 0x00, 0x00, /* Lightweight sink address list sequence of octets */  \ 
//   73                                        0x00, 0x00, 0x00, 0x00, 0x00, 0x00, 0x00, 0x00, 0x00, 0x00, \ 
//   74                                        0x00, /* Free group entries flag */  \ 
//   75                                        0x00, 0x00, 0x00, 0x00, /* Sink group list sequence of octets */  \ 
//   76                                        0x00, 0x00, 0x00, 0x00,  \ 
//   77                                        0x00, /* Groupcast radius Unsigned 8-bit integer */  \ 
//   78                                        0x00 /* Search Counter Unsigned 8-bit integer */  \ 
//   79                                       };   
//   80    
//   81 /*********************************************************************
//   82  * TYPEDEFS
//   83  */
//   84 
//   85 typedef struct zclGpCBRec
//   86 {
//   87   struct zclGpCBRec        *next;
//   88   uint8                     endpoint; // Used to link it into the endpoint descriptor
//   89   zclGp_AppCallbacks_t     *CBs;      // Pointer to Callback function
//   90 } zclGpCBRec_t;
//   91 
//   92 
//   93 /*********************************************************************
//   94  * GLOBAL VARIABLES
//   95  */
//   96 
//   97 /*********************************************************************
//   98  * GLOBAL FUNCTIONS
//   99  */
//  100 
//  101 /*********************************************************************
//  102  * LOCAL VARIABLES
//  103  */

        RSEG XDATA_Z:XDATA:NOROOT(0)
        DATA16
//  104 static zclGpCBRec_t *zclGpCBs = (zclGpCBRec_t *)NULL;
zclGpCBs:
        DS 2
        REQUIRE __INIT_XDATA_Z

        RSEG XDATA_Z:XDATA:NOROOT(0)
        DATA8
//  105 static uint8 zclGpPluginRegisted = FALSE;
zclGpPluginRegisted:
        DS 1
        REQUIRE __INIT_XDATA_Z

        RSEG XDATA_Z:XDATA:NOROOT(0)
        DATA16
//  106 static gpNotificationMsg_t *pNotificationMsgHead = NULL;
pNotificationMsgHead:
        DS 2
        REQUIRE __INIT_XDATA_Z

        RSEG XDATA_Z:XDATA:NOROOT(0)
        DATA16
//  107 static gpCmdPayloadMsg_t *pCmdPayloadMsgHead = NULL;
pCmdPayloadMsgHead:
        DS 2
        REQUIRE __INIT_XDATA_Z
//  108 
//  109 //static zclGenSceneItem_t *zclGenSceneTable = (zclGenSceneItem_t *)NULL;
//  110 
//  111 
//  112 /*********************************************************************
//  113  * LOCAL FUNCTIONS
//  114  */
//  115 static ZStatus_t zclGp_HdlIncoming( zclIncoming_t *pInMsg );
//  116 static ZStatus_t zclGp_HdlInSpecificCommands( zclIncoming_t *pInMsg );
//  117 static zclGp_AppCallbacks_t *zclGp_FindCallbacks( uint8 endpoint );
//  118 static uint8 gp_addPairedSinksToMsgQueue( uint8 appId, uint8 *pId, gpCmdPayloadMsg_t* pMsg );
//  119 
//  120 static ZStatus_t zclGp_ProcessInProxyBasic( zclIncoming_t *pInMsg, zclGp_AppCallbacks_t *pCBs );
//  121 
//  122 
//  123 /*********************************************************************
//  124  * @fn      zclGp_RegisterCmdCallbacks
//  125  *
//  126  * @brief   Register an applications command callbacks
//  127  *
//  128  * @param   endpoint - application's endpoint
//  129  * @param   callbacks - pointer to the callback record.
//  130  *
//  131  * @return  ZMemError if not able to allocate
//  132  */

        RSEG BANKED_CODE:HUGECODE:NOROOT(0)
//  133 ZStatus_t zclGp_RegisterCmdCallbacks( uint8 endpoint, zclGp_AppCallbacks_t *callbacks )
zclGp_RegisterCmdCallbacks:
          CFI Block cfiBlock0 Using cfiCommon0
          CFI Function zclGp_RegisterCmdCallbacks
        CODE
//  134 {
        FUNCALL zclGp_RegisterCmdCallbacks, zcl_registerPlugin
        LOCFRAME ISTACK, 0, STACK
        LOCFRAME PSTACK, 0, STACK
        LOCFRAME XSTACK, 14, STACK
        LOCFRAME IOVERLAY, 0, STATIC
        LOCFRAME DOVERLAY, 0, STATIC
        ARGFRAME ISTACK, 0, STACK
        ARGFRAME PSTACK, 0, STACK
        ARGFRAME XSTACK, 14, STACK
        ARGFRAME IOVERLAY, 0, STATIC
        ARGFRAME DOVERLAY, 0, STATIC
        FUNCALL zclGp_RegisterCmdCallbacks, osal_mem_alloc
        LOCFRAME ISTACK, 0, STACK
        LOCFRAME PSTACK, 0, STACK
        LOCFRAME XSTACK, 12, STACK
        LOCFRAME IOVERLAY, 0, STATIC
        LOCFRAME DOVERLAY, 0, STATIC
        ARGFRAME ISTACK, 0, STACK
        ARGFRAME PSTACK, 0, STACK
        ARGFRAME XSTACK, 12, STACK
        ARGFRAME IOVERLAY, 0, STATIC
        ARGFRAME DOVERLAY, 0, STATIC
        REQUIRE ?V0
        REQUIRE ?V2
        REQUIRE ?V3
        MOV       A,#-0xc
        LCALL     ?BANKED_ENTER_XDATA
          CFI DPH0 load(1, XDATA, add(CFA_XSP16, literal(-1)))
          CFI DPL0 load(1, XDATA, add(CFA_XSP16, literal(-2)))
          CFI ?BRET_EXT load(1, XDATA, add(CFA_XSP16, literal(-3)))
          CFI ?RET_HIGH load(1, XDATA, add(CFA_XSP16, literal(-4)))
          CFI ?RET_LOW load(1, XDATA, add(CFA_XSP16, literal(-5)))
          CFI R7 load(1, XDATA, add(CFA_XSP16, literal(-6)))
          CFI V3 load(1, XDATA, add(CFA_XSP16, literal(-7)))
          CFI V2 load(1, XDATA, add(CFA_XSP16, literal(-8)))
          CFI V1 load(1, XDATA, add(CFA_XSP16, literal(-9)))
          CFI V0 load(1, XDATA, add(CFA_XSP16, literal(-10)))
          CFI VB load(1, XDATA, add(CFA_XSP16, literal(-11)))
          CFI R6 load(1, XDATA, add(CFA_XSP16, literal(-12)))
          CFI CFA_SP SP+0
          CFI CFA_XSP16 add(XSP16, 12)
        ; Saved register size: 12
        ; Auto size: 0
        MOV       ?V0,R1
        MOV       A,R2
        MOV       R6,A
        MOV       A,R3
        MOV       R7,A
//  135   zclGpCBRec_t *pNewItem;
//  136   zclGpCBRec_t *pLoop;
//  137 
//  138   // Register as a ZCL Plugin
//  139   if ( zclGpPluginRegisted == FALSE )
        MOV       DPTR,#zclGpPluginRegisted
        MOVX      A,@DPTR
        JNZ       ??zclGp_RegisterCmdCallbacks_0
//  140   {
//  141     zcl_registerPlugin( ZCL_CLUSTER_ID_GREEN_POWER,
//  142                         ZCL_CLUSTER_ID_GREEN_POWER,
//  143                         zclGp_HdlIncoming );
        ; Setup parameters for call to function zcl_registerPlugin
        MOV       ?V2,#`??zclGp_HdlIncoming::?relay` & 0xff
        MOV       ?V3,#(`??zclGp_HdlIncoming::?relay` >> 8) & 0xff
        MOV       R0,#?V2
        LCALL     ?PUSH_XSTACK_I_TWO
          CFI CFA_XSP16 add(XSP16, 14)
        MOV       R4,#0x21
        MOV       R5,#0x0
        MOV       R2,#0x21
        MOV       R3,#0x0
        LCALL     `??zcl_registerPlugin::?relay`; Banked call to: zcl_registerPlugin
        MOV       A,#0x2
        LCALL     ?DEALLOC_XSTACK8
          CFI CFA_XSP16 add(XSP16, 12)
//  144 
//  145     zclGpPluginRegisted = TRUE;
        MOV       DPTR,#zclGpPluginRegisted
        MOV       A,#0x1
        MOVX      @DPTR,A
//  146   }
//  147 
//  148   // Fill in the new profile list
//  149   pNewItem = zcl_mem_alloc( sizeof( zclGpCBRec_t ) );
??zclGp_RegisterCmdCallbacks_0:
        ; Setup parameters for call to function osal_mem_alloc
        MOV       R2,#0x5
        MOV       R3,#0x0
        LCALL     `??osal_mem_alloc::?relay`; Banked call to: osal_mem_alloc
        MOV       ?V2,R2
        MOV       ?V3,R3
        MOV       R0,?V2
        MOV       R1,?V3
//  150   if ( pNewItem == NULL )
        MOV       A,R2
        ORL       A,R1
        JNZ       ??zclGp_RegisterCmdCallbacks_1
//  151     return (ZMemError);
        MOV       R1,#0x10
        SJMP      ??zclGp_RegisterCmdCallbacks_2
//  152 
//  153   pNewItem->next = (zclGpCBRec_t *)NULL;
??zclGp_RegisterCmdCallbacks_1:
        MOV       DPL,R2
        MOV       DPH,R3
        CLR       A
        MOVX      @DPTR,A
        INC       DPTR
        LCALL     ?Subroutine23 & 0xFFFF
//  154   pNewItem->endpoint = endpoint;
??CrossCallReturnLabel_27:
        MOV       A,?V0
        LCALL     ?Subroutine23 & 0xFFFF
//  155   pNewItem->CBs = callbacks;
??CrossCallReturnLabel_28:
        INC       DPTR
        MOV       A,R6
        MOVX      @DPTR,A
        INC       DPTR
        MOV       A,R7
        MOVX      @DPTR,A
//  156 
//  157   // Find spot in list
//  158   if (  zclGpCBs == NULL )
        MOV       DPTR,#zclGpCBs
        LCALL     ??Subroutine46_0 & 0xFFFF
??CrossCallReturnLabel_104:
        MOV       DPTR,#zclGpCBs
        JZ        ??zclGp_RegisterCmdCallbacks_3
//  159   {
//  160     zclGpCBs = pNewItem;
//  161   }
//  162   else
//  163   {
//  164     // Look for end of list
//  165     pLoop = zclGpCBs;
        MOVX      A,@DPTR
        MOV       R4,A
        INC       DPTR
        MOVX      A,@DPTR
        SJMP      ??zclGp_RegisterCmdCallbacks_4
//  166     while ( pLoop->next != NULL )
//  167       pLoop = pLoop->next;
??zclGp_RegisterCmdCallbacks_5:
        MOV       A,R2
        MOV       R4,A
        MOV       A,R3
??zclGp_RegisterCmdCallbacks_4:
        MOV       R5,A
        MOV       DPL,R4
        MOV       DPH,R5
        LCALL     ??Subroutine46_0 & 0xFFFF
??CrossCallReturnLabel_105:
        JNZ       ??zclGp_RegisterCmdCallbacks_5
//  168 
//  169     // Put new item at end of list
//  170     pLoop->next = pNewItem;
        MOV       DPL,R4
        MOV       DPH,R5
//  171   }
??zclGp_RegisterCmdCallbacks_3:
        LCALL     ?Subroutine22 & 0xFFFF
//  172 
//  173   return ( ZSuccess );
??CrossCallReturnLabel_18:
        MOV       R1,#0x0
??zclGp_RegisterCmdCallbacks_2:
          CFI EndBlock cfiBlock0
        REQUIRE ?Subroutine0
        ; // Fall through to label ?Subroutine0
//  174 }

        RSEG BANKED_CODE:HUGECODE:NOROOT(0)
?Subroutine0:
          CFI Block cfiBlock1 Using cfiCommon0
          CFI NoFunction
          CFI CFA_SP SP+0
          CFI CFA_XSP16 add(XSP16, 12)
          CFI VB load(1, XDATA, add(CFA_XSP16, literal(-11)))
          CFI DPL0 load(1, XDATA, add(CFA_XSP16, literal(-2)))
          CFI DPH0 load(1, XDATA, add(CFA_XSP16, literal(-1)))
          CFI R6 load(1, XDATA, add(CFA_XSP16, literal(-12)))
          CFI R7 load(1, XDATA, add(CFA_XSP16, literal(-6)))
          CFI V0 load(1, XDATA, add(CFA_XSP16, literal(-10)))
          CFI V1 load(1, XDATA, add(CFA_XSP16, literal(-9)))
          CFI V2 load(1, XDATA, add(CFA_XSP16, literal(-8)))
          CFI V3 load(1, XDATA, add(CFA_XSP16, literal(-7)))
          CFI ?BRET_EXT load(1, XDATA, add(CFA_XSP16, literal(-3)))
          CFI ?RET_HIGH load(1, XDATA, add(CFA_XSP16, literal(-4)))
          CFI ?RET_LOW load(1, XDATA, add(CFA_XSP16, literal(-5)))
        MOV       R7,#0x4
        LJMP      ?BANKED_LEAVE_XDATA
          CFI EndBlock cfiBlock1
//  175 
//  176 /*********************************************************************
//  177  * @fn      zclGp_FindCallbacks
//  178  *
//  179  * @brief   Find the callbacks for an endpoint
//  180  *
//  181  * @param   endpoint - endpoint to find the application callbacks for
//  182  *
//  183  * @return  pointer to the callbacks
//  184  */
//  185 static zclGp_AppCallbacks_t *zclGp_FindCallbacks( uint8 endpoint )
//  186 {
//  187   zclGpCBRec_t *pCBs;
//  188 
//  189   pCBs = zclGpCBs;
//  190   while ( pCBs )
//  191   {
//  192     if ( pCBs->endpoint == endpoint )
//  193       return ( pCBs->CBs );
//  194     pCBs = pCBs->next;
//  195   }
//  196   return ( (zclGp_AppCallbacks_t *)NULL );
//  197 }
//  198 
//  199 /*********************************************************************
//  200  * @fn      zclGp_HdlIncoming
//  201  *
//  202  * @brief   Callback from ZCL to process incoming Commands specific
//  203  *          to this cluster library or Profile commands for attributes
//  204  *          that aren't in the attribute list
//  205  *
//  206  *
//  207  * @param   pInMsg - pointer to the incoming message
//  208  *
//  209  * @return  ZStatus_t
//  210  */

        RSEG BANKED_CODE:HUGECODE:NOROOT(0)
//  211 static ZStatus_t zclGp_HdlIncoming( zclIncoming_t *pInMsg )
zclGp_HdlIncoming:
          CFI Block cfiBlock2 Using cfiCommon0
          CFI Function zclGp_HdlIncoming
        CODE
//  212 {
        FUNCALL zclGp_HdlIncoming, zclGp_ProcessInProxyBasic
        LOCFRAME ISTACK, 0, STACK
        LOCFRAME PSTACK, 0, STACK
        LOCFRAME XSTACK, 9, STACK
        LOCFRAME IOVERLAY, 0, STATIC
        LOCFRAME DOVERLAY, 0, STATIC
        ARGFRAME ISTACK, 0, STACK
        ARGFRAME PSTACK, 0, STACK
        ARGFRAME XSTACK, 9, STACK
        ARGFRAME IOVERLAY, 0, STATIC
        ARGFRAME DOVERLAY, 0, STATIC
        MOV       A,#-0x9
        LCALL     ?BANKED_ENTER_XDATA
          CFI DPH0 load(1, XDATA, add(CFA_XSP16, literal(-1)))
          CFI DPL0 load(1, XDATA, add(CFA_XSP16, literal(-2)))
          CFI ?BRET_EXT load(1, XDATA, add(CFA_XSP16, literal(-3)))
          CFI ?RET_HIGH load(1, XDATA, add(CFA_XSP16, literal(-4)))
          CFI ?RET_LOW load(1, XDATA, add(CFA_XSP16, literal(-5)))
          CFI R7 load(1, XDATA, add(CFA_XSP16, literal(-6)))
          CFI V0 load(1, XDATA, add(CFA_XSP16, literal(-7)))
          CFI VB load(1, XDATA, add(CFA_XSP16, literal(-8)))
          CFI R6 load(1, XDATA, add(CFA_XSP16, literal(-9)))
          CFI CFA_SP SP+0
          CFI CFA_XSP16 add(XSP16, 9)
        ; Saved register size: 9
        ; Auto size: 0
//  213   ZStatus_t stat = ZSuccess;
//  214 
//  215 #if defined ( INTER_PAN )
//  216   if ( StubAPS_InterPan( pInMsg->msg->srcAddr.panId, pInMsg->msg->srcAddr.endPoint ) )
//  217     return ( stat ); // Cluster not supported thru Inter-PAN
//  218 #endif
//  219   if ( zcl_ClusterCmd( pInMsg->hdr.fc.type ) )
        MOV       DPL,R2
        MOV       DPH,R3
        INC       DPTR
        INC       DPTR
        MOVX      A,@DPTR
        MOV       R0,A
        ANL       A,#0x3
        XRL       A,#0x1
        JNZ       ??zclGp_HdlIncoming_0
//  220   {
//  221     // Is this a manufacturer specific command?
//  222     if ( pInMsg->hdr.fc.manuSpecific == 0 )
        MOV       A,R0
        ANL       A,#0x4
        JNZ       ??zclGp_HdlIncoming_0
//  223     {
//  224       stat = zclGp_HdlInSpecificCommands( pInMsg );
        MOV       DPL,R2
        MOV       DPH,R3
        LCALL     ??Subroutine50_0 & 0xFFFF
//  225     }
//  226     else
//  227     {
//  228       // We don't support any manufacturer specific command.
//  229       stat = ZFailure;
//  230     }
//  231   }
??CrossCallReturnLabel_125:
        MOV       A,R0
        MOV       R6,A
        MOV       A,R1
        MOV       R7,A
        MOV       A,R0
        ADD       A,#0x14
        MOV       DPL,A
        CLR       A
        ADDC      A,R7
        MOV       DPH,A
        MOVX      A,@DPTR
        MOV       R4,A
        MOV       DPTR,#zclGpCBs
??zclGp_HdlIncoming_1:
        LCALL     ??Subroutine49_0 & 0xFFFF
??CrossCallReturnLabel_111:
        JZ        ??zclGp_HdlIncoming_0
        MOV       DPL,R0
        MOV       DPH,R1
        INC       DPTR
        INC       DPTR
        MOVX      A,@DPTR
        XRL       A,R4
        MOV       DPL,R0
        MOV       DPH,R1
        JNZ       ??zclGp_HdlIncoming_1
        LCALL     ?Subroutine18 & 0xFFFF
??CrossCallReturnLabel_57:
        MOV       A,R4
        ORL       A,R5
        JNZ       ??zclGp_HdlIncoming_2
??zclGp_HdlIncoming_0:
        MOV       R1,#0x1
        SJMP      ??zclGp_HdlIncoming_3
??zclGp_HdlIncoming_2:
        MOV       DPL,R6
        MOV       DPH,R7
        INC       DPTR
        INC       DPTR
        INC       DPTR
        INC       DPTR
        MOVX      A,@DPTR
        XRL       A,#0x21
        JNZ       ??zclGp_HdlIncoming_4
        INC       DPTR
        MOVX      A,@DPTR
??zclGp_HdlIncoming_4:
        JNZ       ??zclGp_HdlIncoming_5
        ; Setup parameters for call to function zclGp_ProcessInProxyBasic
        LCALL     `??zclGp_ProcessInProxyBasic::?relay`; Banked call to: zclGp_ProcessInProxyBasic
        MOV       A,R1
        SJMP      ??zclGp_HdlIncoming_6
??zclGp_HdlIncoming_5:
        MOV       A,#0x1
??zclGp_HdlIncoming_6:
        MOV       R1,A
//  232   else
//  233   {
//  234     // Handle all the normal (Read, Write...) commands -- should never get here
//  235     stat = ZFailure;
//  236   }
//  237   return ( stat );
??zclGp_HdlIncoming_3:
          CFI EndBlock cfiBlock2
        REQUIRE ?Subroutine1
        ; // Fall through to label ?Subroutine1
//  238 }

        RSEG BANKED_CODE:HUGECODE:NOROOT(0)
?Subroutine1:
          CFI Block cfiBlock3 Using cfiCommon0
          CFI NoFunction
          CFI CFA_SP SP+0
          CFI CFA_XSP16 add(XSP16, 9)
          CFI VB load(1, XDATA, add(CFA_XSP16, literal(-8)))
          CFI DPL0 load(1, XDATA, add(CFA_XSP16, literal(-2)))
          CFI DPH0 load(1, XDATA, add(CFA_XSP16, literal(-1)))
          CFI R6 load(1, XDATA, add(CFA_XSP16, literal(-9)))
          CFI R7 load(1, XDATA, add(CFA_XSP16, literal(-6)))
          CFI V0 load(1, XDATA, add(CFA_XSP16, literal(-7)))
          CFI ?BRET_EXT load(1, XDATA, add(CFA_XSP16, literal(-3)))
          CFI ?RET_HIGH load(1, XDATA, add(CFA_XSP16, literal(-4)))
          CFI ?RET_LOW load(1, XDATA, add(CFA_XSP16, literal(-5)))
        MOV       R7,#0x1
        LJMP      ?BANKED_LEAVE_XDATA
          CFI EndBlock cfiBlock3

        RSEG BANKED_CODE:HUGECODE:NOROOT(0)
?Subroutine18:
          CFI Block cfiCond4 Using cfiCommon0
          CFI Function zclGp_HdlIncoming
          CFI Conditional ??CrossCallReturnLabel_57
          CFI R6 load(1, XDATA, add(CFA_XSP16, literal(-9)))
          CFI VB load(1, XDATA, add(CFA_XSP16, literal(-8)))
          CFI V0 load(1, XDATA, add(CFA_XSP16, literal(-7)))
          CFI R7 load(1, XDATA, add(CFA_XSP16, literal(-6)))
          CFI ?RET_LOW load(1, XDATA, add(CFA_XSP16, literal(-5)))
          CFI ?RET_HIGH load(1, XDATA, add(CFA_XSP16, literal(-4)))
          CFI ?BRET_EXT load(1, XDATA, add(CFA_XSP16, literal(-3)))
          CFI DPL0 load(1, XDATA, add(CFA_XSP16, literal(-2)))
          CFI DPH0 load(1, XDATA, add(CFA_XSP16, literal(-1)))
          CFI CFA_SP SP+-2
          CFI CFA_XSP16 add(XSP16, 9)
          CFI Block cfiCond5 Using cfiCommon0
          CFI (cfiCond5) Function zclGp_ProcessInProxyBasic
          CFI (cfiCond5) Conditional ??CrossCallReturnLabel_58
          CFI (cfiCond5) R6 load(1, XDATA, add(CFA_XSP16, literal(-20)))
          CFI (cfiCond5) VB load(1, XDATA, add(CFA_XSP16, literal(-19)))
          CFI (cfiCond5) V0 load(1, XDATA, add(CFA_XSP16, literal(-18)))
          CFI (cfiCond5) V1 load(1, XDATA, add(CFA_XSP16, literal(-17)))
          CFI (cfiCond5) V2 load(1, XDATA, add(CFA_XSP16, literal(-16)))
          CFI (cfiCond5) V3 load(1, XDATA, add(CFA_XSP16, literal(-15)))
          CFI (cfiCond5) V4 load(1, XDATA, add(CFA_XSP16, literal(-14)))
          CFI (cfiCond5) V5 load(1, XDATA, add(CFA_XSP16, literal(-13)))
          CFI (cfiCond5) V6 load(1, XDATA, add(CFA_XSP16, literal(-12)))
          CFI (cfiCond5) V7 load(1, XDATA, add(CFA_XSP16, literal(-11)))
          CFI (cfiCond5) V8 load(1, XDATA, add(CFA_XSP16, literal(-10)))
          CFI (cfiCond5) V9 load(1, XDATA, add(CFA_XSP16, literal(-9)))
          CFI (cfiCond5) V10 load(1, XDATA, add(CFA_XSP16, literal(-8)))
          CFI (cfiCond5) V11 load(1, XDATA, add(CFA_XSP16, literal(-7)))
          CFI (cfiCond5) R7 load(1, XDATA, add(CFA_XSP16, literal(-6)))
          CFI (cfiCond5) ?RET_LOW load(1, XDATA, add(CFA_XSP16, literal(-5)))
          CFI (cfiCond5) ?RET_HIGH load(1, XDATA, add(CFA_XSP16, literal(-4)))
          CFI (cfiCond5) ?BRET_EXT load(1, XDATA, add(CFA_XSP16, literal(-3)))
          CFI (cfiCond5) DPL0 load(1, XDATA, add(CFA_XSP16, literal(-2)))
          CFI (cfiCond5) DPH0 load(1, XDATA, add(CFA_XSP16, literal(-1)))
          CFI (cfiCond5) CFA_SP SP+-2
          CFI (cfiCond5) CFA_XSP16 add(XSP16, 49)
          CFI Block cfiPicker6 Using cfiCommon1
          CFI (cfiPicker6) NoFunction
          CFI (cfiPicker6) Picker
        INC       DPTR
        INC       DPTR
        INC       DPTR
          CFI EndBlock cfiCond4
          CFI EndBlock cfiCond5
          CFI EndBlock cfiPicker6
        REQUIRE ??Subroutine37_0
        ; // Fall through to label ??Subroutine37_0

        RSEG BANKED_CODE:HUGECODE:NOROOT(0)
??Subroutine37_0:
          CFI Block cfiCond7 Using cfiCommon0
          CFI Function zclGp_SendGpProxyTableResponse
          CFI Conditional ??CrossCallReturnLabel_55
          CFI R6 load(1, XDATA, add(CFA_XSP16, literal(-22)))
          CFI VB load(1, XDATA, add(CFA_XSP16, literal(-21)))
          CFI V0 load(1, XDATA, add(CFA_XSP16, literal(-20)))
          CFI V1 load(1, XDATA, add(CFA_XSP16, literal(-19)))
          CFI V2 load(1, XDATA, add(CFA_XSP16, literal(-18)))
          CFI V3 load(1, XDATA, add(CFA_XSP16, literal(-17)))
          CFI V4 load(1, XDATA, add(CFA_XSP16, literal(-16)))
          CFI V5 load(1, XDATA, add(CFA_XSP16, literal(-15)))
          CFI V6 load(1, XDATA, add(CFA_XSP16, literal(-14)))
          CFI V7 load(1, XDATA, add(CFA_XSP16, literal(-13)))
          CFI V8 load(1, XDATA, add(CFA_XSP16, literal(-12)))
          CFI V9 load(1, XDATA, add(CFA_XSP16, literal(-11)))
          CFI V10 load(1, XDATA, add(CFA_XSP16, literal(-10)))
          CFI V11 load(1, XDATA, add(CFA_XSP16, literal(-9)))
          CFI V12 load(1, XDATA, add(CFA_XSP16, literal(-8)))
          CFI V13 load(1, XDATA, add(CFA_XSP16, literal(-7)))
          CFI R7 load(1, XDATA, add(CFA_XSP16, literal(-6)))
          CFI ?RET_LOW load(1, XDATA, add(CFA_XSP16, literal(-5)))
          CFI ?RET_HIGH load(1, XDATA, add(CFA_XSP16, literal(-4)))
          CFI ?BRET_EXT load(1, XDATA, add(CFA_XSP16, literal(-3)))
          CFI DPL0 load(1, XDATA, add(CFA_XSP16, literal(-2)))
          CFI DPH0 load(1, XDATA, add(CFA_XSP16, literal(-1)))
          CFI CFA_SP SP+-2
          CFI CFA_XSP16 add(XSP16, 27)
          CFI Block cfiCond8 Using cfiCommon0
          CFI (cfiCond8) Function gp_NotificationMsgClean
          CFI (cfiCond8) Conditional ??CrossCallReturnLabel_56
          CFI (cfiCond8) R6 load(1, XDATA, add(CFA_XSP16, literal(-12)))
          CFI (cfiCond8) VB load(1, XDATA, add(CFA_XSP16, literal(-11)))
          CFI (cfiCond8) V0 load(1, XDATA, add(CFA_XSP16, literal(-10)))
          CFI (cfiCond8) V1 load(1, XDATA, add(CFA_XSP16, literal(-9)))
          CFI (cfiCond8) V2 load(1, XDATA, add(CFA_XSP16, literal(-8)))
          CFI (cfiCond8) V3 load(1, XDATA, add(CFA_XSP16, literal(-7)))
          CFI (cfiCond8) R7 load(1, XDATA, add(CFA_XSP16, literal(-6)))
          CFI (cfiCond8) ?RET_LOW load(1, XDATA, add(CFA_XSP16, literal(-5)))
          CFI (cfiCond8) ?RET_HIGH load(1, XDATA, add(CFA_XSP16, literal(-4)))
          CFI (cfiCond8) ?BRET_EXT load(1, XDATA, add(CFA_XSP16, literal(-3)))
          CFI (cfiCond8) DPL0 load(1, XDATA, add(CFA_XSP16, literal(-2)))
          CFI (cfiCond8) DPH0 load(1, XDATA, add(CFA_XSP16, literal(-1)))
          CFI (cfiCond8) CFA_SP SP+-2
          CFI (cfiCond8) CFA_XSP16 add(XSP16, 12)
          CFI Block cfiCond9 Using cfiCommon0
          CFI (cfiCond9) Function zclGp_HdlIncoming
          CFI (cfiCond9) Conditional ??CrossCallReturnLabel_57
          CFI (cfiCond9) R6 load(1, XDATA, add(CFA_XSP16, literal(-9)))
          CFI (cfiCond9) VB load(1, XDATA, add(CFA_XSP16, literal(-8)))
          CFI (cfiCond9) V0 load(1, XDATA, add(CFA_XSP16, literal(-7)))
          CFI (cfiCond9) R7 load(1, XDATA, add(CFA_XSP16, literal(-6)))
          CFI (cfiCond9) ?RET_LOW load(1, XDATA, add(CFA_XSP16, literal(-5)))
          CFI (cfiCond9) ?RET_HIGH load(1, XDATA, add(CFA_XSP16, literal(-4)))
          CFI (cfiCond9) ?BRET_EXT load(1, XDATA, add(CFA_XSP16, literal(-3)))
          CFI (cfiCond9) DPL0 load(1, XDATA, add(CFA_XSP16, literal(-2)))
          CFI (cfiCond9) DPH0 load(1, XDATA, add(CFA_XSP16, literal(-1)))
          CFI (cfiCond9) CFA_SP SP+-2
          CFI (cfiCond9) CFA_XSP16 add(XSP16, 9)
          CFI Block cfiCond10 Using cfiCommon0
          CFI (cfiCond10) Function zclGp_ProcessInProxyBasic
          CFI (cfiCond10) Conditional ??CrossCallReturnLabel_58
          CFI (cfiCond10) R6 load(1, XDATA, add(CFA_XSP16, literal(-20)))
          CFI (cfiCond10) VB load(1, XDATA, add(CFA_XSP16, literal(-19)))
          CFI (cfiCond10) V0 load(1, XDATA, add(CFA_XSP16, literal(-18)))
          CFI (cfiCond10) V1 load(1, XDATA, add(CFA_XSP16, literal(-17)))
          CFI (cfiCond10) V2 load(1, XDATA, add(CFA_XSP16, literal(-16)))
          CFI (cfiCond10) V3 load(1, XDATA, add(CFA_XSP16, literal(-15)))
          CFI (cfiCond10) V4 load(1, XDATA, add(CFA_XSP16, literal(-14)))
          CFI (cfiCond10) V5 load(1, XDATA, add(CFA_XSP16, literal(-13)))
          CFI (cfiCond10) V6 load(1, XDATA, add(CFA_XSP16, literal(-12)))
          CFI (cfiCond10) V7 load(1, XDATA, add(CFA_XSP16, literal(-11)))
          CFI (cfiCond10) V8 load(1, XDATA, add(CFA_XSP16, literal(-10)))
          CFI (cfiCond10) V9 load(1, XDATA, add(CFA_XSP16, literal(-9)))
          CFI (cfiCond10) V10 load(1, XDATA, add(CFA_XSP16, literal(-8)))
          CFI (cfiCond10) V11 load(1, XDATA, add(CFA_XSP16, literal(-7)))
          CFI (cfiCond10) R7 load(1, XDATA, add(CFA_XSP16, literal(-6)))
          CFI (cfiCond10) ?RET_LOW load(1, XDATA, add(CFA_XSP16, literal(-5)))
          CFI (cfiCond10) ?RET_HIGH load(1, XDATA, add(CFA_XSP16, literal(-4)))
          CFI (cfiCond10) ?BRET_EXT load(1, XDATA, add(CFA_XSP16, literal(-3)))
          CFI (cfiCond10) DPL0 load(1, XDATA, add(CFA_XSP16, literal(-2)))
          CFI (cfiCond10) DPH0 load(1, XDATA, add(CFA_XSP16, literal(-1)))
          CFI (cfiCond10) CFA_SP SP+-2
          CFI (cfiCond10) CFA_XSP16 add(XSP16, 49)
          CFI Block cfiPicker11 Using cfiCommon1
          CFI (cfiPicker11) NoFunction
          CFI (cfiPicker11) Picker
        MOVX      A,@DPTR
        MOV       R4,A
        INC       DPTR
        MOVX      A,@DPTR
        MOV       R5,A
        RET
          CFI EndBlock cfiCond7
          CFI EndBlock cfiCond8
          CFI EndBlock cfiCond9
          CFI EndBlock cfiCond10
          CFI EndBlock cfiPicker11
//  239 
//  240 /*********************************************************************
//  241  * @fn      zclGp_HdlInSpecificCommands
//  242  *
//  243  * @brief   Callback from ZCL to process incoming Commands specific
//  244  *          to this cluster library
//  245 
//  246  * @param   pInMsg - pointer to the incoming message
//  247  *
//  248  * @return  ZStatus_t
//  249  */
//  250 static ZStatus_t zclGp_HdlInSpecificCommands( zclIncoming_t *pInMsg )
//  251 {
//  252   ZStatus_t stat;
//  253   zclGp_AppCallbacks_t *pCBs;
//  254 
//  255   // make sure endpoint exists
//  256   pCBs = zclGp_FindCallbacks( pInMsg->msg->endPoint );
//  257   if ( pCBs == NULL )
//  258     return ( ZFailure );
//  259 
//  260   switch ( pInMsg->msg->clusterId )
//  261   {
//  262     case ZCL_CLUSTER_ID_GREEN_POWER:
//  263       // Proxy Basic handler
//  264       stat = zclGp_ProcessInProxyBasic( pInMsg, pCBs );
//  265       break;
//  266 
//  267     default:
//  268       stat = ZFailure;
//  269       break;
//  270   }
//  271 
//  272   return ( stat );
//  273 }
//  274 
//  275 /*********************************************************************
//  276  * @fn      zclGp_ProcessInProxyBasic
//  277  *
//  278  * @brief   Process in the received client commands for the Proxy Basic.
//  279  *
//  280  * @param   pInMsg - pointer to the incoming message
//  281  *
//  282  * @return  ZStatus_t
//  283  */

        RSEG BANKED_CODE:HUGECODE:NOROOT(0)
//  284 static ZStatus_t zclGp_ProcessInProxyBasic( zclIncoming_t *pInMsg,
zclGp_ProcessInProxyBasic:
          CFI Block cfiBlock12 Using cfiCommon0
          CFI Function zclGp_ProcessInProxyBasic
        CODE
//  285                                           zclGp_AppCallbacks_t *pCBs )
//  286 {
        FUNCALL zclGp_ProcessInProxyBasic, zcl_SendDefaultRspCmd
        LOCFRAME ISTACK, 0, STACK
        LOCFRAME PSTACK, 0, STACK
        LOCFRAME XSTACK, 49, STACK
        LOCFRAME IOVERLAY, 0, STATIC
        LOCFRAME DOVERLAY, 0, STATIC
        ARGFRAME ISTACK, 0, STACK
        ARGFRAME PSTACK, 0, STACK
        ARGFRAME XSTACK, 49, STACK
        ARGFRAME IOVERLAY, 0, STATIC
        ARGFRAME DOVERLAY, 0, STATIC
        FUNCALL zclGp_ProcessInProxyBasic, osal_memcpy
        LOCFRAME ISTACK, 0, STACK
        LOCFRAME PSTACK, 0, STACK
        LOCFRAME XSTACK, 45, STACK
        LOCFRAME IOVERLAY, 0, STATIC
        LOCFRAME DOVERLAY, 0, STATIC
        ARGFRAME ISTACK, 0, STACK
        ARGFRAME PSTACK, 0, STACK
        ARGFRAME XSTACK, 45, STACK
        ARGFRAME IOVERLAY, 0, STATIC
        ARGFRAME DOVERLAY, 0, STATIC
        FUNCALL zclGp_ProcessInProxyBasic, osal_memcpy
        LOCFRAME ISTACK, 0, STACK
        LOCFRAME PSTACK, 0, STACK
        LOCFRAME XSTACK, 45, STACK
        LOCFRAME IOVERLAY, 0, STATIC
        LOCFRAME DOVERLAY, 0, STATIC
        ARGFRAME ISTACK, 0, STACK
        ARGFRAME PSTACK, 0, STACK
        ARGFRAME XSTACK, 45, STACK
        ARGFRAME IOVERLAY, 0, STATIC
        ARGFRAME DOVERLAY, 0, STATIC
        FUNCALL zclGp_ProcessInProxyBasic, osal_memcpy
        LOCFRAME ISTACK, 0, STACK
        LOCFRAME PSTACK, 0, STACK
        LOCFRAME XSTACK, 45, STACK
        LOCFRAME IOVERLAY, 0, STATIC
        LOCFRAME DOVERLAY, 0, STATIC
        ARGFRAME ISTACK, 0, STACK
        ARGFRAME PSTACK, 0, STACK
        ARGFRAME XSTACK, 45, STACK
        ARGFRAME IOVERLAY, 0, STATIC
        ARGFRAME DOVERLAY, 0, STATIC
        FUNCALL zclGp_ProcessInProxyBasic, osal_memcpy
        LOCFRAME ISTACK, 0, STACK
        LOCFRAME PSTACK, 0, STACK
        LOCFRAME XSTACK, 45, STACK
        LOCFRAME IOVERLAY, 0, STATIC
        LOCFRAME DOVERLAY, 0, STATIC
        ARGFRAME ISTACK, 0, STACK
        ARGFRAME PSTACK, 0, STACK
        ARGFRAME XSTACK, 45, STACK
        ARGFRAME IOVERLAY, 0, STATIC
        ARGFRAME DOVERLAY, 0, STATIC
        FUNCALL zclGp_ProcessInProxyBasic, osal_build_uint16
        LOCFRAME ISTACK, 0, STACK
        LOCFRAME PSTACK, 0, STACK
        LOCFRAME XSTACK, 42, STACK
        LOCFRAME IOVERLAY, 0, STATIC
        LOCFRAME DOVERLAY, 0, STATIC
        ARGFRAME ISTACK, 0, STACK
        ARGFRAME PSTACK, 0, STACK
        ARGFRAME XSTACK, 42, STACK
        ARGFRAME IOVERLAY, 0, STATIC
        ARGFRAME DOVERLAY, 0, STATIC
        FUNCALL zclGp_ProcessInProxyBasic, osal_memcpy
        LOCFRAME ISTACK, 0, STACK
        LOCFRAME PSTACK, 0, STACK
        LOCFRAME XSTACK, 45, STACK
        LOCFRAME IOVERLAY, 0, STATIC
        LOCFRAME DOVERLAY, 0, STATIC
        ARGFRAME ISTACK, 0, STACK
        ARGFRAME PSTACK, 0, STACK
        ARGFRAME XSTACK, 45, STACK
        ARGFRAME IOVERLAY, 0, STATIC
        ARGFRAME DOVERLAY, 0, STATIC
        REQUIRE ?V0
        REQUIRE ?V1
        REQUIRE ?V2
        REQUIRE ?V3
        REQUIRE ?V4
        REQUIRE ?V5
        REQUIRE ?V6
        REQUIRE ?V7
        REQUIRE ?V8
        REQUIRE ?V9
        REQUIRE ?V10
        REQUIRE ?V11
        MOV       A,#-0x14
        LCALL     ?BANKED_ENTER_XDATA
          CFI DPH0 load(1, XDATA, add(CFA_XSP16, literal(-1)))
          CFI DPL0 load(1, XDATA, add(CFA_XSP16, literal(-2)))
          CFI ?BRET_EXT load(1, XDATA, add(CFA_XSP16, literal(-3)))
          CFI ?RET_HIGH load(1, XDATA, add(CFA_XSP16, literal(-4)))
          CFI ?RET_LOW load(1, XDATA, add(CFA_XSP16, literal(-5)))
          CFI R7 load(1, XDATA, add(CFA_XSP16, literal(-6)))
          CFI V11 load(1, XDATA, add(CFA_XSP16, literal(-7)))
          CFI V10 load(1, XDATA, add(CFA_XSP16, literal(-8)))
          CFI V9 load(1, XDATA, add(CFA_XSP16, literal(-9)))
          CFI V8 load(1, XDATA, add(CFA_XSP16, literal(-10)))
          CFI V7 load(1, XDATA, add(CFA_XSP16, literal(-11)))
          CFI V6 load(1, XDATA, add(CFA_XSP16, literal(-12)))
          CFI V5 load(1, XDATA, add(CFA_XSP16, literal(-13)))
          CFI V4 load(1, XDATA, add(CFA_XSP16, literal(-14)))
          CFI V3 load(1, XDATA, add(CFA_XSP16, literal(-15)))
          CFI V2 load(1, XDATA, add(CFA_XSP16, literal(-16)))
          CFI V1 load(1, XDATA, add(CFA_XSP16, literal(-17)))
          CFI V0 load(1, XDATA, add(CFA_XSP16, literal(-18)))
          CFI VB load(1, XDATA, add(CFA_XSP16, literal(-19)))
          CFI R6 load(1, XDATA, add(CFA_XSP16, literal(-20)))
          CFI CFA_SP SP+0
          CFI CFA_XSP16 add(XSP16, 20)
        ; Saved register size: 20
        ; Auto size: 22
        MOV       A,#-0x16
        LCALL     ?ALLOC_XSTACK8
          CFI CFA_XSP16 add(XSP16, 42)
        MOV       A,R2
        MOV       R6,A
        MOV       A,R3
        MOV       R7,A
        MOV       ?V0,R4
        MOV       ?V1,R5
//  287   // Server side command handler
//  288   if ( zcl_ServerCmd( pInMsg->hdr.fc.direction ) )
        MOV       A,R2
        ADD       A,#0x6
        MOV       ?V2,A
        CLR       A
        ADDC      A,R7
        MOV       ?V3,A
        MOV       A,R2
        ADD       A,#0x7
        MOV       ?V6,A
        CLR       A
        ADDC      A,R7
        MOV       ?V7,A
        MOV       A,R2
        ADD       A,#0x2
        MOV       ?V4,A
        CLR       A
        ADDC      A,R7
        MOV       ?V5,A
        MOV       DPL,?V4
        MOV       DPH,A
        MOVX      A,@DPTR
        ANL       A,#0x8
        JNZ       ??zclGp_ProcessInProxyBasic_0
//  289   {
//  290     // Server side command handling is not supported
//  291     zclDefaultRspCmd_t defaultRspCmd;
//  292 
//  293     defaultRspCmd.commandID = pInMsg->hdr.commandID;
        MOV       DPL,?V6
        MOV       DPH,?V7
        MOVX      A,@DPTR
        PUSH      A
          CFI CFA_SP SP+-1
        MOV       A,#0x5
        LCALL     ?XSTACK_DISP0_8
        POP       A
          CFI CFA_SP SP+0
        MOVX      @DPTR,A
//  294     defaultRspCmd.statusCode = ZCL_STATUS_UNSUP_CLUSTER_COMMAND;
        MOV       A,#0x6
        LCALL     ?XSTACK_DISP0_8
        MOV       A,#-0x7f
        MOVX      @DPTR,A
//  295     zcl_SendDefaultRspCmd( pInMsg->msg->endPoint, &(pInMsg->msg->srcAddr),
//  296                            pInMsg->msg->clusterId, &defaultRspCmd,
//  297                            ZCL_FRAME_SERVER_CLIENT_DIR, true, 0, pInMsg->hdr.transSeqNum );
        MOV       DPL,R2
        MOV       DPH,R3
        MOVX      A,@DPTR
        MOV       ?V8,A
        INC       DPTR
        MOVX      A,@DPTR
        MOV       ?V9,A
        ; Setup parameters for call to function zcl_SendDefaultRspCmd
        MOV       DPL,?V2
        MOV       DPH,?V3
        MOVX      A,@DPTR
        MOV       ?V10,A
        MOV       R0,#?V10
        LCALL     ?PUSH_XSTACK_I_ONE
          CFI CFA_XSP16 add(XSP16, 43)
        CLR       A
        MOV       ?V10,A
        MOV       ?V11,A
        MOV       R0,#?V10
        LCALL     ?PUSH_XSTACK_I_TWO
          CFI CFA_XSP16 add(XSP16, 45)
        MOV       ?V10,#0x1
        MOV       R0,#?V10
        LCALL     ?PUSH_XSTACK_I_ONE
          CFI CFA_XSP16 add(XSP16, 46)
        MOV       R0,#?V10
        LCALL     ?PUSH_XSTACK_I_ONE
          CFI CFA_XSP16 add(XSP16, 47)
        MOV       A,#0xa
        LCALL     ?XSTACK_DISP100_8
        MOV       ?V10,R0
        MOV       ?V11,R1
        MOV       R0,#?V10
        LCALL     ?PUSH_XSTACK_I_TWO
          CFI CFA_XSP16 add(XSP16, 49)
        MOV       DPL,?V8
        MOV       DPH,?V9
        INC       DPTR
        LCALL     ?Subroutine18 & 0xFFFF
//  298   }
??CrossCallReturnLabel_58:
        MOV       A,?V8
        ADD       A,#0x6
        MOV       R2,A
        CLR       A
        ADDC      A,?V9
        MOV       R3,A
        MOV       A,?V8
        ADD       A,#0x14
        MOV       DPL,A
        CLR       A
        ADDC      A,?V9
        MOV       DPH,A
        MOVX      A,@DPTR
        MOV       R1,A
        LCALL     `??zcl_SendDefaultRspCmd::?relay`; Banked call to: zcl_SendDefaultRspCmd
        MOV       A,#0x7
        LCALL     ?DEALLOC_XSTACK8
          CFI CFA_XSP16 add(XSP16, 42)
//  299   // Client side command handler
//  300   if ( zcl_ClientCmd( pInMsg->hdr.fc.direction ) )
??zclGp_ProcessInProxyBasic_0:
        MOV       DPL,?V4
        MOV       DPH,?V5
        MOVX      A,@DPTR
        ANL       A,#0x8
        JNZ       $+5
        LJMP      ??zclGp_ProcessInProxyBasic_1 & 0xFFFF
//  301   {
//  302     switch ( pInMsg->hdr.commandID )
        MOV       A,R6
        ADD       A,#0x8
        MOV       ?V4,A
        CLR       A
        ADDC      A,R7
        MOV       ?V5,A
        MOV       DPL,?V6
        MOV       DPH,?V7
        MOVX      A,@DPTR
        DEC       A
        JZ        ??zclGp_ProcessInProxyBasic_2
        DEC       A
        JNZ       $+5
        LJMP      ??zclGp_ProcessInProxyBasic_3 & 0xFFFF
        ADD       A,#-0x4
        JNZ       $+5
        LJMP      ??zclGp_ProcessInProxyBasic_4 & 0xFFFF
        ADD       A,#-0x5
        JZ        ??zclGp_ProcessInProxyBasic_5
        LJMP      ??zclGp_ProcessInProxyBasic_1 & 0xFFFF
//  303     {
//  304       case COMMAND_GP_PAIRING:
//  305         if ( pCBs->pfnGpPairingCmd )
??zclGp_ProcessInProxyBasic_2:
        MOV       DPL,?V0
        MOV       DPH,?V1
        LCALL     ??Subroutine49_0 & 0xFFFF
??CrossCallReturnLabel_112:
        JNZ       $+5
        LJMP      ??zclGp_ProcessInProxyBasic_1 & 0xFFFF
//  306         {
//  307           zclGpPairing_t cmd;
//  308           
//  309           zcl_InSeqNum = pInMsg->hdr.transSeqNum;
        LCALL     ?Subroutine9 & 0xFFFF
//  310           
//  311           cmd.srcAddr = &(pInMsg->msg->srcAddr);
??CrossCallReturnLabel_2:
        MOV       A,#0xf
        LCALL     ?XSTACK_DISP0_8
        LCALL     ?Subroutine8 & 0xFFFF
//  312           osal_memcpy( cmd.options, (void*)pInMsg->pData, sizeof(cmd.options) );
??CrossCallReturnLabel_59:
        LCALL     ?PUSH_XSTACK_I_THREE
          CFI CFA_XSP16 add(XSP16, 45)
        MOV       R4,#0x3
        MOV       R5,#0x0
        MOV       A,#0x14
        LCALL     ?XSTACK_DISP0_8
        MOV       R2,DPL
        MOV       R3,DPH
        LCALL     ??Subroutine42_0 & 0xFFFF
??CrossCallReturnLabel_79:
        LCALL     ?DEALLOC_XSTACK8
          CFI CFA_XSP16 add(XSP16, 42)
//  313           pInMsg->pData += sizeof(cmd.options);  // Move data pointer after options field
        MOV       DPL,?V4
        MOV       DPH,?V5
        MOVX      A,@DPTR
        ADD       A,#0x3
        LCALL     ??Subroutine39_0 & 0xFFFF
//  314                     
//  315           if ( pInMsg->pData == NULL )
??CrossCallReturnLabel_65:
        JNZ       $+5
        LJMP      ??zclGp_ProcessInProxyBasic_6 & 0xFFFF
//  316           {
//  317             return ZFailure;
//  318           }
//  319           
//  320           cmd.pData = pInMsg->pData;
        MOV       A,#0x14
        LCALL     ?XSTACK_DISP0_8
        LCALL     ?Subroutine22 & 0xFFFF
//  321           pCBs->pfnGpPairingCmd( &cmd );
??CrossCallReturnLabel_19:
        ; Setup parameters for indirect call
        MOV       A,#0xf
        LJMP      ??zclGp_ProcessInProxyBasic_7 & 0xFFFF
//  322 
//  323         }
//  324         break;
//  325         
//  326       case COMMAND_GP_PROXY_TABLE_REQUEST:
//  327         if ( pCBs->pfnGpProxyTableReqCmd )
??zclGp_ProcessInProxyBasic_5:
        MOV       A,?V0
        ADD       A,#0x2
        MOV       ?V0,A
        JNC       ??zclGp_ProcessInProxyBasic_8
        INC       ?V1
??zclGp_ProcessInProxyBasic_8:
        MOV       DPL,A
        MOV       DPH,?V1
        LCALL     ??Subroutine49_0 & 0xFFFF
??CrossCallReturnLabel_113:
        JNZ       $+5
        LJMP      ??zclGp_ProcessInProxyBasic_1 & 0xFFFF
//  328         {
//  329           zclGpProxyTableRequest_t cmd;
//  330           
//  331           zcl_InSeqNum = pInMsg->hdr.transSeqNum;
        LCALL     ?Subroutine9 & 0xFFFF
//  332           
//  333           cmd.srcAddr = &(pInMsg->msg->srcAddr);
??CrossCallReturnLabel_3:
        MOV       DPL,?XSP + 0
        MOV       DPH,?XSP + 1
        LCALL     ?Subroutine8 & 0xFFFF
//  334           osal_memcpy( &cmd.options, (void*)pInMsg->pData, sizeof(cmd.options) );
??CrossCallReturnLabel_60:
        LCALL     ?PUSH_XSTACK_I_THREE
          CFI CFA_XSP16 add(XSP16, 45)
        MOV       R4,#0x1
        MOV       R5,#0x0
        MOV       A,#0x5
        LCALL     ?XSTACK_DISP0_8
        MOV       R2,DPL
        MOV       R3,DPH
        LCALL     ??Subroutine42_0 & 0xFFFF
??CrossCallReturnLabel_80:
        LCALL     ?DEALLOC_XSTACK8
          CFI CFA_XSP16 add(XSP16, 42)
//  335           pInMsg->pData += sizeof(cmd.options);  // Move data pointer after options field
        LCALL     ?Subroutine6 & 0xFFFF
//  336           
//  337           if ( pInMsg->pData == NULL )
??CrossCallReturnLabel_63:
        JNZ       $+5
        LJMP      ??zclGp_ProcessInProxyBasic_6 & 0xFFFF
//  338           {
//  339             return ZFailure;
//  340           }
//  341           
//  342           cmd.pData = (void*)pInMsg->pData;
        MOV       A,#0x3
        LCALL     ?XSTACK_DISP0_8
        SJMP      ??CrossCallReturnLabel_12
//  343           pCBs->pfnGpProxyTableReqCmd( &cmd );
//  344 
//  345         }
//  346         break;
//  347       case COMMAND_GP_PROXY_COMMISSIONING_MODE:
//  348         if(pCBs->pfnGpProxyCommissioningModeCmd)
??zclGp_ProcessInProxyBasic_3:
        MOV       A,?V0
        ADD       A,#0x4
        MOV       ?V0,A
        JNC       ??zclGp_ProcessInProxyBasic_9
        INC       ?V1
??zclGp_ProcessInProxyBasic_9:
        MOV       DPL,A
        MOV       DPH,?V1
        LCALL     ??Subroutine49_0 & 0xFFFF
??CrossCallReturnLabel_114:
        JNZ       $+5
        LJMP      ??zclGp_ProcessInProxyBasic_1 & 0xFFFF
//  349         {
//  350           zclGpProxyCommissioningMode_t cmd;
//  351 
//  352           osal_memcpy( &cmd.options, (void*)pInMsg->pData, sizeof(cmd.options) );
        ; Setup parameters for call to function osal_memcpy
        LCALL     ??Subroutine38_0 & 0xFFFF
??CrossCallReturnLabel_61:
        LCALL     ?PUSH_XSTACK_I_THREE
          CFI CFA_XSP16 add(XSP16, 45)
        MOV       R4,#0x1
        MOV       R5,#0x0
        MOV       A,#0x5
        LCALL     ?XSTACK_DISP0_8
        MOV       R2,DPL
        MOV       R3,DPH
        LCALL     ??Subroutine42_0 & 0xFFFF
??CrossCallReturnLabel_81:
        LCALL     ?DEALLOC_XSTACK8
          CFI CFA_XSP16 add(XSP16, 42)
//  353           pInMsg->pData += sizeof(cmd.options);  // Move data pointer after options field
        LCALL     ?Subroutine6 & 0xFFFF
//  354          
//  355           if ( pInMsg->pData == NULL )
??CrossCallReturnLabel_64:
        JNZ       $+5
        LJMP      ??zclGp_ProcessInProxyBasic_6 & 0xFFFF
//  356           {
//  357             return ZFailure;
//  358           }
//  359 
//  360           cmd.pData = (void*)pInMsg->pData;
        MOV       A,#0x3
        LCALL     ?XSTACK_DISP0_8
        LCALL     ?Subroutine22 & 0xFFFF
//  361 
//  362           if(pInMsg->msg->srcAddr.addrMode == afAddr16Bit)
??CrossCallReturnLabel_20:
        MOV       DPL,R6
        MOV       DPH,R7
        LCALL     ??Subroutine50_0 & 0xFFFF
??CrossCallReturnLabel_126:
        MOV       A,R0
        ADD       A,#0xe
        MOV       DPL,A
        CLR       A
        ADDC      A,R1
        MOV       DPH,A
        MOVX      A,@DPTR
        XRL       A,#0x2
        JNZ       ??CrossCallReturnLabel_21
//  363           {
//  364             cmd.srcAddr = pInMsg->msg->srcAddr.addr.shortAddr;
        MOV       DPL,R0
        MOV       DPH,R1
        INC       DPTR
        INC       DPTR
        INC       DPTR
        INC       DPTR
        INC       DPTR
        INC       DPTR
        LCALL     ?Subroutine16 & 0xFFFF
//  365           }
??CrossCallReturnLabel_12:
        LCALL     ?Subroutine22 & 0xFFFF
//  366           
//  367           pCBs->pfnGpProxyCommissioningModeCmd( &cmd );
??CrossCallReturnLabel_21:
        ; Setup parameters for indirect call
        MOV       R2,?XSP + 0
        MOV       R3,?XSP + 1
        LJMP      ??zclGp_ProcessInProxyBasic_10 & 0xFFFF
//  368         }
//  369         break;
//  370         case COMMAND_GP_RESPONSE:
//  371           
//  372           if(pCBs->pfnGpResponseCommand)
??zclGp_ProcessInProxyBasic_4:
        MOV       A,?V0
        ADD       A,#0x6
        MOV       ?V0,A
        JNC       ??zclGp_ProcessInProxyBasic_11
        INC       ?V1
??zclGp_ProcessInProxyBasic_11:
        MOV       DPL,A
        MOV       DPH,?V1
        LCALL     ??Subroutine49_0 & 0xFFFF
??CrossCallReturnLabel_115:
        JNZ       $+5
        LJMP      ??zclGp_ProcessInProxyBasic_1 & 0xFFFF
//  373           {
//  374             zclGpResponse_t cmd;
//  375 
//  376             osal_memcpy( &cmd.options, (void*)pInMsg->pData, sizeof(cmd.options) );
        ; Setup parameters for call to function osal_memcpy
        LCALL     ??Subroutine38_0 & 0xFFFF
??CrossCallReturnLabel_62:
        LCALL     ?PUSH_XSTACK_I_THREE
          CFI CFA_XSP16 add(XSP16, 45)
        MOV       R4,#0x1
        MOV       R5,#0x0
        MOV       A,#0xc
        LCALL     ?XSTACK_DISP0_8
        MOV       R2,DPL
        MOV       R3,DPH
        LCALL     ??Subroutine42_0 & 0xFFFF
??CrossCallReturnLabel_82:
        LCALL     ?DEALLOC_XSTACK8
          CFI CFA_XSP16 add(XSP16, 42)
//  377             pInMsg->pData += sizeof(cmd.options);  // Move data pointer after options field
        MOV       DPL,?V4
        MOV       DPH,?V5
        MOVX      A,@DPTR
        ADD       A,#0x1
        MOV       R2,A
        INC       DPTR
        MOVX      A,@DPTR
        ADDC      A,#0x0
        MOV       R3,A
        MOV       DPL,?V4
        MOV       DPH,?V5
        LCALL     ??Subroutine45_0 & 0xFFFF
//  378             
//  379             cmd.tempMasterShortAddr = osal_build_uint16(pInMsg->pData);
??CrossCallReturnLabel_98:
        ; Setup parameters for call to function osal_build_uint16
        LCALL     `??osal_build_uint16::?relay`; Banked call to: osal_build_uint16
        MOV       A,#0xa
        LCALL     ?XSTACK_DISP0_8
        LCALL     ??Subroutine45_0 & 0xFFFF
//  380             pInMsg->pData += sizeof(cmd.tempMasterShortAddr);  // Move data pointer after tempMaster field
??CrossCallReturnLabel_99:
        MOV       DPL,?V4
        MOV       DPH,?V5
        MOVX      A,@DPTR
        ADD       A,#0x2
        LCALL     ?Subroutine13 & 0xFFFF
//  381             
//  382             osal_memcpy( &cmd.tempMasterTxChannel, (void*)pInMsg->pData, sizeof(cmd.tempMasterTxChannel) );
??CrossCallReturnLabel_8:
        ; Setup parameters for call to function osal_memcpy
        MOV       ?V8,R0
        MOV       ?V9,R1
        MOV       R0,#?V8
        LCALL     ?PUSH_XSTACK_I_THREE
          CFI CFA_XSP16 add(XSP16, 45)
        MOV       R4,#0x1
        MOV       R5,#0x0
        MOV       A,#0xf
        LCALL     ?XSTACK_DISP0_8
        MOV       R2,DPL
        MOV       R3,DPH
        LCALL     ??Subroutine42_0 & 0xFFFF
??CrossCallReturnLabel_83:
        LCALL     ?DEALLOC_XSTACK8
          CFI CFA_XSP16 add(XSP16, 42)
//  383             pInMsg->pData += sizeof(cmd.tempMasterTxChannel);  // Move data pointer after options field
        MOV       DPL,?V4
        MOV       DPH,?V5
        MOVX      A,@DPTR
        ADD       A,#0x1
        LCALL     ?Subroutine13 & 0xFFFF
//  384             
//  385             cmd.dstAddr = pInMsg->msg->macDestAddr;  
??CrossCallReturnLabel_9:
        MOV       DPL,R6
        MOV       DPH,R7
        MOVX      A,@DPTR
        MOV       R2,A
        INC       DPTR
        MOVX      A,@DPTR
        XCH       A,R2
        ADD       A,#0x12
        MOV       DPL,A
        CLR       A
        ADDC      A,R2
        MOV       DPH,A
        LCALL     ??Subroutine51_0 & 0xFFFF
??CrossCallReturnLabel_128:
        MOV       A,#0x7
        LCALL     ?XSTACK_DISP0_8
        LCALL     ??Subroutine45_0 & 0xFFFF
//  386             
//  387             if ( pInMsg->pData == NULL )
??CrossCallReturnLabel_100:
        MOV       A,R0
        ORL       A,R1
        JNZ       ??zclGp_ProcessInProxyBasic_12
//  388             {
//  389               return ZFailure;
??zclGp_ProcessInProxyBasic_6:
        MOV       R1,#0x1
        SJMP      ??zclGp_ProcessInProxyBasic_13
//  390             }
//  391             cmd.pData = (void*)pInMsg->pData;
??zclGp_ProcessInProxyBasic_12:
        MOV       A,#0xd
        LCALL     ?XSTACK_DISP0_8
        LCALL     ?Subroutine22 & 0xFFFF
//  392 
//  393             pCBs->pfnGpResponseCommand( &cmd ); 
??CrossCallReturnLabel_22:
        ; Setup parameters for indirect call
        MOV       A,#0x7
??zclGp_ProcessInProxyBasic_7:
        LCALL     ?XSTACK_DISP101_8
??zclGp_ProcessInProxyBasic_10:
        MOV       DPL,?V0
        MOV       DPH,?V1
//  394           }
//  395         break;
//  396     }
//  397   }
        LCALL     ?Subroutine34 & 0xFFFF
??CrossCallReturnLabel_46:
        LCALL     ?CALL_IND
//  398 
//  399   return ( ZSuccess );
??zclGp_ProcessInProxyBasic_1:
        MOV       R1,#0x0
??zclGp_ProcessInProxyBasic_13:
        MOV       A,#0x16
          CFI EndBlock cfiBlock12
        REQUIRE ?Subroutine2
        ; // Fall through to label ?Subroutine2
//  400 }

        RSEG BANKED_CODE:HUGECODE:NOROOT(0)
?Subroutine2:
          CFI Block cfiBlock13 Using cfiCommon0
          CFI NoFunction
          CFI CFA_SP SP+0
          CFI CFA_XSP16 add(XSP16, 42)
          CFI VB load(1, XDATA, add(CFA_XSP16, literal(-19)))
          CFI DPL0 load(1, XDATA, add(CFA_XSP16, literal(-2)))
          CFI DPH0 load(1, XDATA, add(CFA_XSP16, literal(-1)))
          CFI R6 load(1, XDATA, add(CFA_XSP16, literal(-20)))
          CFI R7 load(1, XDATA, add(CFA_XSP16, literal(-6)))
          CFI V0 load(1, XDATA, add(CFA_XSP16, literal(-18)))
          CFI V1 load(1, XDATA, add(CFA_XSP16, literal(-17)))
          CFI V2 load(1, XDATA, add(CFA_XSP16, literal(-16)))
          CFI V3 load(1, XDATA, add(CFA_XSP16, literal(-15)))
          CFI V4 load(1, XDATA, add(CFA_XSP16, literal(-14)))
          CFI V5 load(1, XDATA, add(CFA_XSP16, literal(-13)))
          CFI V6 load(1, XDATA, add(CFA_XSP16, literal(-12)))
          CFI V7 load(1, XDATA, add(CFA_XSP16, literal(-11)))
          CFI V8 load(1, XDATA, add(CFA_XSP16, literal(-10)))
          CFI V9 load(1, XDATA, add(CFA_XSP16, literal(-9)))
          CFI V10 load(1, XDATA, add(CFA_XSP16, literal(-8)))
          CFI V11 load(1, XDATA, add(CFA_XSP16, literal(-7)))
          CFI ?BRET_EXT load(1, XDATA, add(CFA_XSP16, literal(-3)))
          CFI ?RET_HIGH load(1, XDATA, add(CFA_XSP16, literal(-4)))
          CFI ?RET_LOW load(1, XDATA, add(CFA_XSP16, literal(-5)))
          CFI Invalid
        LCALL     ?DEALLOC_XSTACK8
          CFI CFA_XSP16 add(XSP16, 20)
          CFI Valid
        MOV       R7,#0xc
        LJMP      ?BANKED_LEAVE_XDATA
          CFI EndBlock cfiBlock13

        RSEG BANKED_CODE:HUGECODE:NOROOT(0)
?Subroutine13:
          CFI Block cfiCond14 Using cfiCommon0
          CFI Function zclGp_ProcessInProxyBasic
          CFI Conditional ??CrossCallReturnLabel_8
          CFI R6 load(1, XDATA, add(CFA_XSP16, literal(-20)))
          CFI VB load(1, XDATA, add(CFA_XSP16, literal(-19)))
          CFI V0 load(1, XDATA, add(CFA_XSP16, literal(-18)))
          CFI V1 load(1, XDATA, add(CFA_XSP16, literal(-17)))
          CFI V2 load(1, XDATA, add(CFA_XSP16, literal(-16)))
          CFI V3 load(1, XDATA, add(CFA_XSP16, literal(-15)))
          CFI V4 load(1, XDATA, add(CFA_XSP16, literal(-14)))
          CFI V5 load(1, XDATA, add(CFA_XSP16, literal(-13)))
          CFI V6 load(1, XDATA, add(CFA_XSP16, literal(-12)))
          CFI V7 load(1, XDATA, add(CFA_XSP16, literal(-11)))
          CFI V8 load(1, XDATA, add(CFA_XSP16, literal(-10)))
          CFI V9 load(1, XDATA, add(CFA_XSP16, literal(-9)))
          CFI V10 load(1, XDATA, add(CFA_XSP16, literal(-8)))
          CFI V11 load(1, XDATA, add(CFA_XSP16, literal(-7)))
          CFI R7 load(1, XDATA, add(CFA_XSP16, literal(-6)))
          CFI ?RET_LOW load(1, XDATA, add(CFA_XSP16, literal(-5)))
          CFI ?RET_HIGH load(1, XDATA, add(CFA_XSP16, literal(-4)))
          CFI ?BRET_EXT load(1, XDATA, add(CFA_XSP16, literal(-3)))
          CFI DPL0 load(1, XDATA, add(CFA_XSP16, literal(-2)))
          CFI DPH0 load(1, XDATA, add(CFA_XSP16, literal(-1)))
          CFI CFA_SP SP+-2
          CFI CFA_XSP16 add(XSP16, 42)
          CFI Block cfiCond15 Using cfiCommon0
          CFI (cfiCond15) Function zclGp_ProcessInProxyBasic
          CFI (cfiCond15) Conditional ??CrossCallReturnLabel_9
          CFI (cfiCond15) R6 load(1, XDATA, add(CFA_XSP16, literal(-20)))
          CFI (cfiCond15) VB load(1, XDATA, add(CFA_XSP16, literal(-19)))
          CFI (cfiCond15) V0 load(1, XDATA, add(CFA_XSP16, literal(-18)))
          CFI (cfiCond15) V1 load(1, XDATA, add(CFA_XSP16, literal(-17)))
          CFI (cfiCond15) V2 load(1, XDATA, add(CFA_XSP16, literal(-16)))
          CFI (cfiCond15) V3 load(1, XDATA, add(CFA_XSP16, literal(-15)))
          CFI (cfiCond15) V4 load(1, XDATA, add(CFA_XSP16, literal(-14)))
          CFI (cfiCond15) V5 load(1, XDATA, add(CFA_XSP16, literal(-13)))
          CFI (cfiCond15) V6 load(1, XDATA, add(CFA_XSP16, literal(-12)))
          CFI (cfiCond15) V7 load(1, XDATA, add(CFA_XSP16, literal(-11)))
          CFI (cfiCond15) V8 load(1, XDATA, add(CFA_XSP16, literal(-10)))
          CFI (cfiCond15) V9 load(1, XDATA, add(CFA_XSP16, literal(-9)))
          CFI (cfiCond15) V10 load(1, XDATA, add(CFA_XSP16, literal(-8)))
          CFI (cfiCond15) V11 load(1, XDATA, add(CFA_XSP16, literal(-7)))
          CFI (cfiCond15) R7 load(1, XDATA, add(CFA_XSP16, literal(-6)))
          CFI (cfiCond15) ?RET_LOW load(1, XDATA, add(CFA_XSP16, literal(-5)))
          CFI (cfiCond15) ?RET_HIGH load(1, XDATA, add(CFA_XSP16, literal(-4)))
          CFI (cfiCond15) ?BRET_EXT load(1, XDATA, add(CFA_XSP16, literal(-3)))
          CFI (cfiCond15) DPL0 load(1, XDATA, add(CFA_XSP16, literal(-2)))
          CFI (cfiCond15) DPH0 load(1, XDATA, add(CFA_XSP16, literal(-1)))
          CFI (cfiCond15) CFA_SP SP+-2
          CFI (cfiCond15) CFA_XSP16 add(XSP16, 42)
          CFI Block cfiPicker16 Using cfiCommon1
          CFI (cfiPicker16) NoFunction
          CFI (cfiPicker16) Picker
        LCALL     ?Subroutine32 & 0xFFFF
??CrossCallReturnLabel_66:
        RET
          CFI EndBlock cfiCond14
          CFI EndBlock cfiCond15
          CFI EndBlock cfiPicker16

        RSEG BANKED_CODE:HUGECODE:NOROOT(0)
?Subroutine32:
          CFI Block cfiCond17 Using cfiCommon0
          CFI Function zclGp_ProcessInProxyBasic
          CFI Conditional ??CrossCallReturnLabel_66, ??CrossCallReturnLabel_8
          CFI R6 load(1, XDATA, add(CFA_XSP16, literal(-20)))
          CFI VB load(1, XDATA, add(CFA_XSP16, literal(-19)))
          CFI V0 load(1, XDATA, add(CFA_XSP16, literal(-18)))
          CFI V1 load(1, XDATA, add(CFA_XSP16, literal(-17)))
          CFI V2 load(1, XDATA, add(CFA_XSP16, literal(-16)))
          CFI V3 load(1, XDATA, add(CFA_XSP16, literal(-15)))
          CFI V4 load(1, XDATA, add(CFA_XSP16, literal(-14)))
          CFI V5 load(1, XDATA, add(CFA_XSP16, literal(-13)))
          CFI V6 load(1, XDATA, add(CFA_XSP16, literal(-12)))
          CFI V7 load(1, XDATA, add(CFA_XSP16, literal(-11)))
          CFI V8 load(1, XDATA, add(CFA_XSP16, literal(-10)))
          CFI V9 load(1, XDATA, add(CFA_XSP16, literal(-9)))
          CFI V10 load(1, XDATA, add(CFA_XSP16, literal(-8)))
          CFI V11 load(1, XDATA, add(CFA_XSP16, literal(-7)))
          CFI R7 load(1, XDATA, add(CFA_XSP16, literal(-6)))
          CFI ?RET_LOW load(1, XDATA, add(CFA_XSP16, literal(-5)))
          CFI ?RET_HIGH load(1, XDATA, add(CFA_XSP16, literal(-4)))
          CFI ?BRET_EXT load(1, XDATA, add(CFA_XSP16, literal(-3)))
          CFI DPL0 load(1, XDATA, add(CFA_XSP16, literal(-2)))
          CFI DPH0 load(1, XDATA, add(CFA_XSP16, literal(-1)))
          CFI CFA_SP SP+-4
          CFI CFA_XSP16 add(XSP16, 42)
          CFI Block cfiCond18 Using cfiCommon0
          CFI (cfiCond18) Function zclGp_ProcessInProxyBasic
          CFI (cfiCond18) Conditional ??CrossCallReturnLabel_66, ??CrossCallReturnLabel_9
          CFI (cfiCond18) R6 load(1, XDATA, add(CFA_XSP16, literal(-20)))
          CFI (cfiCond18) VB load(1, XDATA, add(CFA_XSP16, literal(-19)))
          CFI (cfiCond18) V0 load(1, XDATA, add(CFA_XSP16, literal(-18)))
          CFI (cfiCond18) V1 load(1, XDATA, add(CFA_XSP16, literal(-17)))
          CFI (cfiCond18) V2 load(1, XDATA, add(CFA_XSP16, literal(-16)))
          CFI (cfiCond18) V3 load(1, XDATA, add(CFA_XSP16, literal(-15)))
          CFI (cfiCond18) V4 load(1, XDATA, add(CFA_XSP16, literal(-14)))
          CFI (cfiCond18) V5 load(1, XDATA, add(CFA_XSP16, literal(-13)))
          CFI (cfiCond18) V6 load(1, XDATA, add(CFA_XSP16, literal(-12)))
          CFI (cfiCond18) V7 load(1, XDATA, add(CFA_XSP16, literal(-11)))
          CFI (cfiCond18) V8 load(1, XDATA, add(CFA_XSP16, literal(-10)))
          CFI (cfiCond18) V9 load(1, XDATA, add(CFA_XSP16, literal(-9)))
          CFI (cfiCond18) V10 load(1, XDATA, add(CFA_XSP16, literal(-8)))
          CFI (cfiCond18) V11 load(1, XDATA, add(CFA_XSP16, literal(-7)))
          CFI (cfiCond18) R7 load(1, XDATA, add(CFA_XSP16, literal(-6)))
          CFI (cfiCond18) ?RET_LOW load(1, XDATA, add(CFA_XSP16, literal(-5)))
          CFI (cfiCond18) ?RET_HIGH load(1, XDATA, add(CFA_XSP16, literal(-4)))
          CFI (cfiCond18) ?BRET_EXT load(1, XDATA, add(CFA_XSP16, literal(-3)))
          CFI (cfiCond18) DPL0 load(1, XDATA, add(CFA_XSP16, literal(-2)))
          CFI (cfiCond18) DPH0 load(1, XDATA, add(CFA_XSP16, literal(-1)))
          CFI (cfiCond18) CFA_SP SP+-4
          CFI (cfiCond18) CFA_XSP16 add(XSP16, 42)
          CFI Block cfiCond19 Using cfiCommon0
          CFI (cfiCond19) Function zclGp_ProcessInProxyBasic
          CFI (cfiCond19) Conditional ??CrossCallReturnLabel_67, ??CrossCallReturnLabel_63
          CFI (cfiCond19) R6 load(1, XDATA, add(CFA_XSP16, literal(-20)))
          CFI (cfiCond19) VB load(1, XDATA, add(CFA_XSP16, literal(-19)))
          CFI (cfiCond19) V0 load(1, XDATA, add(CFA_XSP16, literal(-18)))
          CFI (cfiCond19) V1 load(1, XDATA, add(CFA_XSP16, literal(-17)))
          CFI (cfiCond19) V2 load(1, XDATA, add(CFA_XSP16, literal(-16)))
          CFI (cfiCond19) V3 load(1, XDATA, add(CFA_XSP16, literal(-15)))
          CFI (cfiCond19) V4 load(1, XDATA, add(CFA_XSP16, literal(-14)))
          CFI (cfiCond19) V5 load(1, XDATA, add(CFA_XSP16, literal(-13)))
          CFI (cfiCond19) V6 load(1, XDATA, add(CFA_XSP16, literal(-12)))
          CFI (cfiCond19) V7 load(1, XDATA, add(CFA_XSP16, literal(-11)))
          CFI (cfiCond19) V8 load(1, XDATA, add(CFA_XSP16, literal(-10)))
          CFI (cfiCond19) V9 load(1, XDATA, add(CFA_XSP16, literal(-9)))
          CFI (cfiCond19) V10 load(1, XDATA, add(CFA_XSP16, literal(-8)))
          CFI (cfiCond19) V11 load(1, XDATA, add(CFA_XSP16, literal(-7)))
          CFI (cfiCond19) R7 load(1, XDATA, add(CFA_XSP16, literal(-6)))
          CFI (cfiCond19) ?RET_LOW load(1, XDATA, add(CFA_XSP16, literal(-5)))
          CFI (cfiCond19) ?RET_HIGH load(1, XDATA, add(CFA_XSP16, literal(-4)))
          CFI (cfiCond19) ?BRET_EXT load(1, XDATA, add(CFA_XSP16, literal(-3)))
          CFI (cfiCond19) DPL0 load(1, XDATA, add(CFA_XSP16, literal(-2)))
          CFI (cfiCond19) DPH0 load(1, XDATA, add(CFA_XSP16, literal(-1)))
          CFI (cfiCond19) CFA_SP SP+-4
          CFI (cfiCond19) CFA_XSP16 add(XSP16, 42)
          CFI Block cfiCond20 Using cfiCommon0
          CFI (cfiCond20) Function zclGp_ProcessInProxyBasic
          CFI (cfiCond20) Conditional ??CrossCallReturnLabel_67, ??CrossCallReturnLabel_64
          CFI (cfiCond20) R6 load(1, XDATA, add(CFA_XSP16, literal(-20)))
          CFI (cfiCond20) VB load(1, XDATA, add(CFA_XSP16, literal(-19)))
          CFI (cfiCond20) V0 load(1, XDATA, add(CFA_XSP16, literal(-18)))
          CFI (cfiCond20) V1 load(1, XDATA, add(CFA_XSP16, literal(-17)))
          CFI (cfiCond20) V2 load(1, XDATA, add(CFA_XSP16, literal(-16)))
          CFI (cfiCond20) V3 load(1, XDATA, add(CFA_XSP16, literal(-15)))
          CFI (cfiCond20) V4 load(1, XDATA, add(CFA_XSP16, literal(-14)))
          CFI (cfiCond20) V5 load(1, XDATA, add(CFA_XSP16, literal(-13)))
          CFI (cfiCond20) V6 load(1, XDATA, add(CFA_XSP16, literal(-12)))
          CFI (cfiCond20) V7 load(1, XDATA, add(CFA_XSP16, literal(-11)))
          CFI (cfiCond20) V8 load(1, XDATA, add(CFA_XSP16, literal(-10)))
          CFI (cfiCond20) V9 load(1, XDATA, add(CFA_XSP16, literal(-9)))
          CFI (cfiCond20) V10 load(1, XDATA, add(CFA_XSP16, literal(-8)))
          CFI (cfiCond20) V11 load(1, XDATA, add(CFA_XSP16, literal(-7)))
          CFI (cfiCond20) R7 load(1, XDATA, add(CFA_XSP16, literal(-6)))
          CFI (cfiCond20) ?RET_LOW load(1, XDATA, add(CFA_XSP16, literal(-5)))
          CFI (cfiCond20) ?RET_HIGH load(1, XDATA, add(CFA_XSP16, literal(-4)))
          CFI (cfiCond20) ?BRET_EXT load(1, XDATA, add(CFA_XSP16, literal(-3)))
          CFI (cfiCond20) DPL0 load(1, XDATA, add(CFA_XSP16, literal(-2)))
          CFI (cfiCond20) DPH0 load(1, XDATA, add(CFA_XSP16, literal(-1)))
          CFI (cfiCond20) CFA_SP SP+-4
          CFI (cfiCond20) CFA_XSP16 add(XSP16, 42)
          CFI Block cfiCond21 Using cfiCommon0
          CFI (cfiCond21) Function zclGp_ProcessInProxyBasic
          CFI (cfiCond21) Conditional ??CrossCallReturnLabel_67, ??CrossCallReturnLabel_65
          CFI (cfiCond21) R6 load(1, XDATA, add(CFA_XSP16, literal(-20)))
          CFI (cfiCond21) VB load(1, XDATA, add(CFA_XSP16, literal(-19)))
          CFI (cfiCond21) V0 load(1, XDATA, add(CFA_XSP16, literal(-18)))
          CFI (cfiCond21) V1 load(1, XDATA, add(CFA_XSP16, literal(-17)))
          CFI (cfiCond21) V2 load(1, XDATA, add(CFA_XSP16, literal(-16)))
          CFI (cfiCond21) V3 load(1, XDATA, add(CFA_XSP16, literal(-15)))
          CFI (cfiCond21) V4 load(1, XDATA, add(CFA_XSP16, literal(-14)))
          CFI (cfiCond21) V5 load(1, XDATA, add(CFA_XSP16, literal(-13)))
          CFI (cfiCond21) V6 load(1, XDATA, add(CFA_XSP16, literal(-12)))
          CFI (cfiCond21) V7 load(1, XDATA, add(CFA_XSP16, literal(-11)))
          CFI (cfiCond21) V8 load(1, XDATA, add(CFA_XSP16, literal(-10)))
          CFI (cfiCond21) V9 load(1, XDATA, add(CFA_XSP16, literal(-9)))
          CFI (cfiCond21) V10 load(1, XDATA, add(CFA_XSP16, literal(-8)))
          CFI (cfiCond21) V11 load(1, XDATA, add(CFA_XSP16, literal(-7)))
          CFI (cfiCond21) R7 load(1, XDATA, add(CFA_XSP16, literal(-6)))
          CFI (cfiCond21) ?RET_LOW load(1, XDATA, add(CFA_XSP16, literal(-5)))
          CFI (cfiCond21) ?RET_HIGH load(1, XDATA, add(CFA_XSP16, literal(-4)))
          CFI (cfiCond21) ?BRET_EXT load(1, XDATA, add(CFA_XSP16, literal(-3)))
          CFI (cfiCond21) DPL0 load(1, XDATA, add(CFA_XSP16, literal(-2)))
          CFI (cfiCond21) DPH0 load(1, XDATA, add(CFA_XSP16, literal(-1)))
          CFI (cfiCond21) CFA_SP SP+-4
          CFI (cfiCond21) CFA_XSP16 add(XSP16, 42)
          CFI Block cfiPicker22 Using cfiCommon1
          CFI (cfiPicker22) NoFunction
          CFI (cfiPicker22) Picker
        MOV       R0,A
        INC       DPTR
        MOVX      A,@DPTR
        ADDC      A,#0x0
        MOV       R1,A
        MOV       DPL,?V4
        MOV       DPH,?V5
        MOV       A,R0
        MOVX      @DPTR,A
        INC       DPTR
        MOV       A,R1
        MOVX      @DPTR,A
        RET
          CFI EndBlock cfiCond17
          CFI EndBlock cfiCond18
          CFI EndBlock cfiCond19
          CFI EndBlock cfiCond20
          CFI EndBlock cfiCond21
          CFI EndBlock cfiPicker22

        RSEG BANKED_CODE:HUGECODE:NOROOT(0)
?Subroutine9:
          CFI Block cfiCond23 Using cfiCommon0
          CFI Function zclGp_ProcessInProxyBasic
          CFI Conditional ??CrossCallReturnLabel_2
          CFI R6 load(1, XDATA, add(CFA_XSP16, literal(-20)))
          CFI VB load(1, XDATA, add(CFA_XSP16, literal(-19)))
          CFI V0 load(1, XDATA, add(CFA_XSP16, literal(-18)))
          CFI V1 load(1, XDATA, add(CFA_XSP16, literal(-17)))
          CFI V2 load(1, XDATA, add(CFA_XSP16, literal(-16)))
          CFI V3 load(1, XDATA, add(CFA_XSP16, literal(-15)))
          CFI V4 load(1, XDATA, add(CFA_XSP16, literal(-14)))
          CFI V5 load(1, XDATA, add(CFA_XSP16, literal(-13)))
          CFI V6 load(1, XDATA, add(CFA_XSP16, literal(-12)))
          CFI V7 load(1, XDATA, add(CFA_XSP16, literal(-11)))
          CFI V8 load(1, XDATA, add(CFA_XSP16, literal(-10)))
          CFI V9 load(1, XDATA, add(CFA_XSP16, literal(-9)))
          CFI V10 load(1, XDATA, add(CFA_XSP16, literal(-8)))
          CFI V11 load(1, XDATA, add(CFA_XSP16, literal(-7)))
          CFI R7 load(1, XDATA, add(CFA_XSP16, literal(-6)))
          CFI ?RET_LOW load(1, XDATA, add(CFA_XSP16, literal(-5)))
          CFI ?RET_HIGH load(1, XDATA, add(CFA_XSP16, literal(-4)))
          CFI ?BRET_EXT load(1, XDATA, add(CFA_XSP16, literal(-3)))
          CFI DPL0 load(1, XDATA, add(CFA_XSP16, literal(-2)))
          CFI DPH0 load(1, XDATA, add(CFA_XSP16, literal(-1)))
          CFI CFA_SP SP+-2
          CFI CFA_XSP16 add(XSP16, 42)
          CFI Block cfiCond24 Using cfiCommon0
          CFI (cfiCond24) Function zclGp_ProcessInProxyBasic
          CFI (cfiCond24) Conditional ??CrossCallReturnLabel_3
          CFI (cfiCond24) R6 load(1, XDATA, add(CFA_XSP16, literal(-20)))
          CFI (cfiCond24) VB load(1, XDATA, add(CFA_XSP16, literal(-19)))
          CFI (cfiCond24) V0 load(1, XDATA, add(CFA_XSP16, literal(-18)))
          CFI (cfiCond24) V1 load(1, XDATA, add(CFA_XSP16, literal(-17)))
          CFI (cfiCond24) V2 load(1, XDATA, add(CFA_XSP16, literal(-16)))
          CFI (cfiCond24) V3 load(1, XDATA, add(CFA_XSP16, literal(-15)))
          CFI (cfiCond24) V4 load(1, XDATA, add(CFA_XSP16, literal(-14)))
          CFI (cfiCond24) V5 load(1, XDATA, add(CFA_XSP16, literal(-13)))
          CFI (cfiCond24) V6 load(1, XDATA, add(CFA_XSP16, literal(-12)))
          CFI (cfiCond24) V7 load(1, XDATA, add(CFA_XSP16, literal(-11)))
          CFI (cfiCond24) V8 load(1, XDATA, add(CFA_XSP16, literal(-10)))
          CFI (cfiCond24) V9 load(1, XDATA, add(CFA_XSP16, literal(-9)))
          CFI (cfiCond24) V10 load(1, XDATA, add(CFA_XSP16, literal(-8)))
          CFI (cfiCond24) V11 load(1, XDATA, add(CFA_XSP16, literal(-7)))
          CFI (cfiCond24) R7 load(1, XDATA, add(CFA_XSP16, literal(-6)))
          CFI (cfiCond24) ?RET_LOW load(1, XDATA, add(CFA_XSP16, literal(-5)))
          CFI (cfiCond24) ?RET_HIGH load(1, XDATA, add(CFA_XSP16, literal(-4)))
          CFI (cfiCond24) ?BRET_EXT load(1, XDATA, add(CFA_XSP16, literal(-3)))
          CFI (cfiCond24) DPL0 load(1, XDATA, add(CFA_XSP16, literal(-2)))
          CFI (cfiCond24) DPH0 load(1, XDATA, add(CFA_XSP16, literal(-1)))
          CFI (cfiCond24) CFA_SP SP+-2
          CFI (cfiCond24) CFA_XSP16 add(XSP16, 42)
          CFI Block cfiPicker25 Using cfiCommon1
          CFI (cfiPicker25) NoFunction
          CFI (cfiPicker25) Picker
        MOV       DPL,?V2
        MOV       DPH,?V3
        MOVX      A,@DPTR
        MOV       DPTR,#zcl_InSeqNum
        LCALL     ?Subroutine35 & 0xFFFF
??CrossCallReturnLabel_48:
        MOVX      A,@DPTR
        ADD       A,#0x6
        MOV       R0,A
        INC       DPTR
        MOVX      A,@DPTR
        ADDC      A,#0x0
        MOV       R1,A
        RET
          CFI EndBlock cfiCond23
          CFI EndBlock cfiCond24
          CFI EndBlock cfiPicker25

        RSEG BANKED_CODE:HUGECODE:NOROOT(0)
?Subroutine8:
          CFI Block cfiCond26 Using cfiCommon0
          CFI Function zclGp_ProcessInProxyBasic
          CFI Conditional ??CrossCallReturnLabel_59
          CFI R6 load(1, XDATA, add(CFA_XSP16, literal(-20)))
          CFI VB load(1, XDATA, add(CFA_XSP16, literal(-19)))
          CFI V0 load(1, XDATA, add(CFA_XSP16, literal(-18)))
          CFI V1 load(1, XDATA, add(CFA_XSP16, literal(-17)))
          CFI V2 load(1, XDATA, add(CFA_XSP16, literal(-16)))
          CFI V3 load(1, XDATA, add(CFA_XSP16, literal(-15)))
          CFI V4 load(1, XDATA, add(CFA_XSP16, literal(-14)))
          CFI V5 load(1, XDATA, add(CFA_XSP16, literal(-13)))
          CFI V6 load(1, XDATA, add(CFA_XSP16, literal(-12)))
          CFI V7 load(1, XDATA, add(CFA_XSP16, literal(-11)))
          CFI V8 load(1, XDATA, add(CFA_XSP16, literal(-10)))
          CFI V9 load(1, XDATA, add(CFA_XSP16, literal(-9)))
          CFI V10 load(1, XDATA, add(CFA_XSP16, literal(-8)))
          CFI V11 load(1, XDATA, add(CFA_XSP16, literal(-7)))
          CFI R7 load(1, XDATA, add(CFA_XSP16, literal(-6)))
          CFI ?RET_LOW load(1, XDATA, add(CFA_XSP16, literal(-5)))
          CFI ?RET_HIGH load(1, XDATA, add(CFA_XSP16, literal(-4)))
          CFI ?BRET_EXT load(1, XDATA, add(CFA_XSP16, literal(-3)))
          CFI DPL0 load(1, XDATA, add(CFA_XSP16, literal(-2)))
          CFI DPH0 load(1, XDATA, add(CFA_XSP16, literal(-1)))
          CFI CFA_SP SP+-2
          CFI CFA_XSP16 add(XSP16, 42)
          CFI Block cfiCond27 Using cfiCommon0
          CFI (cfiCond27) Function zclGp_ProcessInProxyBasic
          CFI (cfiCond27) Conditional ??CrossCallReturnLabel_60
          CFI (cfiCond27) R6 load(1, XDATA, add(CFA_XSP16, literal(-20)))
          CFI (cfiCond27) VB load(1, XDATA, add(CFA_XSP16, literal(-19)))
          CFI (cfiCond27) V0 load(1, XDATA, add(CFA_XSP16, literal(-18)))
          CFI (cfiCond27) V1 load(1, XDATA, add(CFA_XSP16, literal(-17)))
          CFI (cfiCond27) V2 load(1, XDATA, add(CFA_XSP16, literal(-16)))
          CFI (cfiCond27) V3 load(1, XDATA, add(CFA_XSP16, literal(-15)))
          CFI (cfiCond27) V4 load(1, XDATA, add(CFA_XSP16, literal(-14)))
          CFI (cfiCond27) V5 load(1, XDATA, add(CFA_XSP16, literal(-13)))
          CFI (cfiCond27) V6 load(1, XDATA, add(CFA_XSP16, literal(-12)))
          CFI (cfiCond27) V7 load(1, XDATA, add(CFA_XSP16, literal(-11)))
          CFI (cfiCond27) V8 load(1, XDATA, add(CFA_XSP16, literal(-10)))
          CFI (cfiCond27) V9 load(1, XDATA, add(CFA_XSP16, literal(-9)))
          CFI (cfiCond27) V10 load(1, XDATA, add(CFA_XSP16, literal(-8)))
          CFI (cfiCond27) V11 load(1, XDATA, add(CFA_XSP16, literal(-7)))
          CFI (cfiCond27) R7 load(1, XDATA, add(CFA_XSP16, literal(-6)))
          CFI (cfiCond27) ?RET_LOW load(1, XDATA, add(CFA_XSP16, literal(-5)))
          CFI (cfiCond27) ?RET_HIGH load(1, XDATA, add(CFA_XSP16, literal(-4)))
          CFI (cfiCond27) ?BRET_EXT load(1, XDATA, add(CFA_XSP16, literal(-3)))
          CFI (cfiCond27) DPL0 load(1, XDATA, add(CFA_XSP16, literal(-2)))
          CFI (cfiCond27) DPH0 load(1, XDATA, add(CFA_XSP16, literal(-1)))
          CFI (cfiCond27) CFA_SP SP+-2
          CFI (cfiCond27) CFA_XSP16 add(XSP16, 42)
          CFI Block cfiPicker28 Using cfiCommon1
          CFI (cfiPicker28) NoFunction
          CFI (cfiPicker28) Picker
        MOV       A,R0
        MOVX      @DPTR,A
        INC       DPTR
        MOV       A,R1
        MOVX      @DPTR,A
          CFI EndBlock cfiCond26
          CFI EndBlock cfiCond27
          CFI EndBlock cfiPicker28
        ; Setup parameters for call to function osal_memcpy
        ; Setup parameters for call to function osal_memcpy
        REQUIRE ??Subroutine38_0
        ; // Fall through to label ??Subroutine38_0

        RSEG BANKED_CODE:HUGECODE:NOROOT(0)
??Subroutine38_0:
          CFI Block cfiCond29 Using cfiCommon0
          CFI Function zclGp_ProcessInProxyBasic
          CFI Conditional ??CrossCallReturnLabel_61
          CFI R6 load(1, XDATA, add(CFA_XSP16, literal(-20)))
          CFI VB load(1, XDATA, add(CFA_XSP16, literal(-19)))
          CFI V0 load(1, XDATA, add(CFA_XSP16, literal(-18)))
          CFI V1 load(1, XDATA, add(CFA_XSP16, literal(-17)))
          CFI V2 load(1, XDATA, add(CFA_XSP16, literal(-16)))
          CFI V3 load(1, XDATA, add(CFA_XSP16, literal(-15)))
          CFI V4 load(1, XDATA, add(CFA_XSP16, literal(-14)))
          CFI V5 load(1, XDATA, add(CFA_XSP16, literal(-13)))
          CFI V6 load(1, XDATA, add(CFA_XSP16, literal(-12)))
          CFI V7 load(1, XDATA, add(CFA_XSP16, literal(-11)))
          CFI V8 load(1, XDATA, add(CFA_XSP16, literal(-10)))
          CFI V9 load(1, XDATA, add(CFA_XSP16, literal(-9)))
          CFI V10 load(1, XDATA, add(CFA_XSP16, literal(-8)))
          CFI V11 load(1, XDATA, add(CFA_XSP16, literal(-7)))
          CFI R7 load(1, XDATA, add(CFA_XSP16, literal(-6)))
          CFI ?RET_LOW load(1, XDATA, add(CFA_XSP16, literal(-5)))
          CFI ?RET_HIGH load(1, XDATA, add(CFA_XSP16, literal(-4)))
          CFI ?BRET_EXT load(1, XDATA, add(CFA_XSP16, literal(-3)))
          CFI DPL0 load(1, XDATA, add(CFA_XSP16, literal(-2)))
          CFI DPH0 load(1, XDATA, add(CFA_XSP16, literal(-1)))
          CFI CFA_SP SP+-2
          CFI CFA_XSP16 add(XSP16, 42)
          CFI Block cfiCond30 Using cfiCommon0
          CFI (cfiCond30) Function zclGp_ProcessInProxyBasic
          CFI (cfiCond30) Conditional ??CrossCallReturnLabel_62
          CFI (cfiCond30) R6 load(1, XDATA, add(CFA_XSP16, literal(-20)))
          CFI (cfiCond30) VB load(1, XDATA, add(CFA_XSP16, literal(-19)))
          CFI (cfiCond30) V0 load(1, XDATA, add(CFA_XSP16, literal(-18)))
          CFI (cfiCond30) V1 load(1, XDATA, add(CFA_XSP16, literal(-17)))
          CFI (cfiCond30) V2 load(1, XDATA, add(CFA_XSP16, literal(-16)))
          CFI (cfiCond30) V3 load(1, XDATA, add(CFA_XSP16, literal(-15)))
          CFI (cfiCond30) V4 load(1, XDATA, add(CFA_XSP16, literal(-14)))
          CFI (cfiCond30) V5 load(1, XDATA, add(CFA_XSP16, literal(-13)))
          CFI (cfiCond30) V6 load(1, XDATA, add(CFA_XSP16, literal(-12)))
          CFI (cfiCond30) V7 load(1, XDATA, add(CFA_XSP16, literal(-11)))
          CFI (cfiCond30) V8 load(1, XDATA, add(CFA_XSP16, literal(-10)))
          CFI (cfiCond30) V9 load(1, XDATA, add(CFA_XSP16, literal(-9)))
          CFI (cfiCond30) V10 load(1, XDATA, add(CFA_XSP16, literal(-8)))
          CFI (cfiCond30) V11 load(1, XDATA, add(CFA_XSP16, literal(-7)))
          CFI (cfiCond30) R7 load(1, XDATA, add(CFA_XSP16, literal(-6)))
          CFI (cfiCond30) ?RET_LOW load(1, XDATA, add(CFA_XSP16, literal(-5)))
          CFI (cfiCond30) ?RET_HIGH load(1, XDATA, add(CFA_XSP16, literal(-4)))
          CFI (cfiCond30) ?BRET_EXT load(1, XDATA, add(CFA_XSP16, literal(-3)))
          CFI (cfiCond30) DPL0 load(1, XDATA, add(CFA_XSP16, literal(-2)))
          CFI (cfiCond30) DPH0 load(1, XDATA, add(CFA_XSP16, literal(-1)))
          CFI (cfiCond30) CFA_SP SP+-2
          CFI (cfiCond30) CFA_XSP16 add(XSP16, 42)
          CFI Block cfiCond31 Using cfiCommon0
          CFI (cfiCond31) Function zclGp_ProcessInProxyBasic
          CFI (cfiCond31) Conditional ??CrossCallReturnLabel_59
          CFI (cfiCond31) R6 load(1, XDATA, add(CFA_XSP16, literal(-20)))
          CFI (cfiCond31) VB load(1, XDATA, add(CFA_XSP16, literal(-19)))
          CFI (cfiCond31) V0 load(1, XDATA, add(CFA_XSP16, literal(-18)))
          CFI (cfiCond31) V1 load(1, XDATA, add(CFA_XSP16, literal(-17)))
          CFI (cfiCond31) V2 load(1, XDATA, add(CFA_XSP16, literal(-16)))
          CFI (cfiCond31) V3 load(1, XDATA, add(CFA_XSP16, literal(-15)))
          CFI (cfiCond31) V4 load(1, XDATA, add(CFA_XSP16, literal(-14)))
          CFI (cfiCond31) V5 load(1, XDATA, add(CFA_XSP16, literal(-13)))
          CFI (cfiCond31) V6 load(1, XDATA, add(CFA_XSP16, literal(-12)))
          CFI (cfiCond31) V7 load(1, XDATA, add(CFA_XSP16, literal(-11)))
          CFI (cfiCond31) V8 load(1, XDATA, add(CFA_XSP16, literal(-10)))
          CFI (cfiCond31) V9 load(1, XDATA, add(CFA_XSP16, literal(-9)))
          CFI (cfiCond31) V10 load(1, XDATA, add(CFA_XSP16, literal(-8)))
          CFI (cfiCond31) V11 load(1, XDATA, add(CFA_XSP16, literal(-7)))
          CFI (cfiCond31) R7 load(1, XDATA, add(CFA_XSP16, literal(-6)))
          CFI (cfiCond31) ?RET_LOW load(1, XDATA, add(CFA_XSP16, literal(-5)))
          CFI (cfiCond31) ?RET_HIGH load(1, XDATA, add(CFA_XSP16, literal(-4)))
          CFI (cfiCond31) ?BRET_EXT load(1, XDATA, add(CFA_XSP16, literal(-3)))
          CFI (cfiCond31) DPL0 load(1, XDATA, add(CFA_XSP16, literal(-2)))
          CFI (cfiCond31) DPH0 load(1, XDATA, add(CFA_XSP16, literal(-1)))
          CFI (cfiCond31) CFA_SP SP+-2
          CFI (cfiCond31) CFA_XSP16 add(XSP16, 42)
          CFI Block cfiCond32 Using cfiCommon0
          CFI (cfiCond32) Function zclGp_ProcessInProxyBasic
          CFI (cfiCond32) Conditional ??CrossCallReturnLabel_60
          CFI (cfiCond32) R6 load(1, XDATA, add(CFA_XSP16, literal(-20)))
          CFI (cfiCond32) VB load(1, XDATA, add(CFA_XSP16, literal(-19)))
          CFI (cfiCond32) V0 load(1, XDATA, add(CFA_XSP16, literal(-18)))
          CFI (cfiCond32) V1 load(1, XDATA, add(CFA_XSP16, literal(-17)))
          CFI (cfiCond32) V2 load(1, XDATA, add(CFA_XSP16, literal(-16)))
          CFI (cfiCond32) V3 load(1, XDATA, add(CFA_XSP16, literal(-15)))
          CFI (cfiCond32) V4 load(1, XDATA, add(CFA_XSP16, literal(-14)))
          CFI (cfiCond32) V5 load(1, XDATA, add(CFA_XSP16, literal(-13)))
          CFI (cfiCond32) V6 load(1, XDATA, add(CFA_XSP16, literal(-12)))
          CFI (cfiCond32) V7 load(1, XDATA, add(CFA_XSP16, literal(-11)))
          CFI (cfiCond32) V8 load(1, XDATA, add(CFA_XSP16, literal(-10)))
          CFI (cfiCond32) V9 load(1, XDATA, add(CFA_XSP16, literal(-9)))
          CFI (cfiCond32) V10 load(1, XDATA, add(CFA_XSP16, literal(-8)))
          CFI (cfiCond32) V11 load(1, XDATA, add(CFA_XSP16, literal(-7)))
          CFI (cfiCond32) R7 load(1, XDATA, add(CFA_XSP16, literal(-6)))
          CFI (cfiCond32) ?RET_LOW load(1, XDATA, add(CFA_XSP16, literal(-5)))
          CFI (cfiCond32) ?RET_HIGH load(1, XDATA, add(CFA_XSP16, literal(-4)))
          CFI (cfiCond32) ?BRET_EXT load(1, XDATA, add(CFA_XSP16, literal(-3)))
          CFI (cfiCond32) DPL0 load(1, XDATA, add(CFA_XSP16, literal(-2)))
          CFI (cfiCond32) DPH0 load(1, XDATA, add(CFA_XSP16, literal(-1)))
          CFI (cfiCond32) CFA_SP SP+-2
          CFI (cfiCond32) CFA_XSP16 add(XSP16, 42)
          CFI Block cfiPicker33 Using cfiCommon1
          CFI (cfiPicker33) NoFunction
          CFI (cfiPicker33) Picker
        MOV       DPL,?V4
        MOV       DPH,?V5
        MOVX      A,@DPTR
        MOV       ?V8,A
        INC       DPTR
        MOVX      A,@DPTR
        MOV       ?V9,A
        MOV       ?V10,#0x0
        MOV       R0,#?V8
        RET
          CFI EndBlock cfiCond29
          CFI EndBlock cfiCond30
          CFI EndBlock cfiCond31
          CFI EndBlock cfiCond32
          CFI EndBlock cfiPicker33

        RSEG BANKED_CODE:HUGECODE:NOROOT(0)
?Subroutine6:
          CFI Block cfiCond34 Using cfiCommon0
          CFI Function zclGp_ProcessInProxyBasic
          CFI Conditional ??CrossCallReturnLabel_63
          CFI R6 load(1, XDATA, add(CFA_XSP16, literal(-20)))
          CFI VB load(1, XDATA, add(CFA_XSP16, literal(-19)))
          CFI V0 load(1, XDATA, add(CFA_XSP16, literal(-18)))
          CFI V1 load(1, XDATA, add(CFA_XSP16, literal(-17)))
          CFI V2 load(1, XDATA, add(CFA_XSP16, literal(-16)))
          CFI V3 load(1, XDATA, add(CFA_XSP16, literal(-15)))
          CFI V4 load(1, XDATA, add(CFA_XSP16, literal(-14)))
          CFI V5 load(1, XDATA, add(CFA_XSP16, literal(-13)))
          CFI V6 load(1, XDATA, add(CFA_XSP16, literal(-12)))
          CFI V7 load(1, XDATA, add(CFA_XSP16, literal(-11)))
          CFI V8 load(1, XDATA, add(CFA_XSP16, literal(-10)))
          CFI V9 load(1, XDATA, add(CFA_XSP16, literal(-9)))
          CFI V10 load(1, XDATA, add(CFA_XSP16, literal(-8)))
          CFI V11 load(1, XDATA, add(CFA_XSP16, literal(-7)))
          CFI R7 load(1, XDATA, add(CFA_XSP16, literal(-6)))
          CFI ?RET_LOW load(1, XDATA, add(CFA_XSP16, literal(-5)))
          CFI ?RET_HIGH load(1, XDATA, add(CFA_XSP16, literal(-4)))
          CFI ?BRET_EXT load(1, XDATA, add(CFA_XSP16, literal(-3)))
          CFI DPL0 load(1, XDATA, add(CFA_XSP16, literal(-2)))
          CFI DPH0 load(1, XDATA, add(CFA_XSP16, literal(-1)))
          CFI CFA_SP SP+-2
          CFI CFA_XSP16 add(XSP16, 42)
          CFI Block cfiCond35 Using cfiCommon0
          CFI (cfiCond35) Function zclGp_ProcessInProxyBasic
          CFI (cfiCond35) Conditional ??CrossCallReturnLabel_64
          CFI (cfiCond35) R6 load(1, XDATA, add(CFA_XSP16, literal(-20)))
          CFI (cfiCond35) VB load(1, XDATA, add(CFA_XSP16, literal(-19)))
          CFI (cfiCond35) V0 load(1, XDATA, add(CFA_XSP16, literal(-18)))
          CFI (cfiCond35) V1 load(1, XDATA, add(CFA_XSP16, literal(-17)))
          CFI (cfiCond35) V2 load(1, XDATA, add(CFA_XSP16, literal(-16)))
          CFI (cfiCond35) V3 load(1, XDATA, add(CFA_XSP16, literal(-15)))
          CFI (cfiCond35) V4 load(1, XDATA, add(CFA_XSP16, literal(-14)))
          CFI (cfiCond35) V5 load(1, XDATA, add(CFA_XSP16, literal(-13)))
          CFI (cfiCond35) V6 load(1, XDATA, add(CFA_XSP16, literal(-12)))
          CFI (cfiCond35) V7 load(1, XDATA, add(CFA_XSP16, literal(-11)))
          CFI (cfiCond35) V8 load(1, XDATA, add(CFA_XSP16, literal(-10)))
          CFI (cfiCond35) V9 load(1, XDATA, add(CFA_XSP16, literal(-9)))
          CFI (cfiCond35) V10 load(1, XDATA, add(CFA_XSP16, literal(-8)))
          CFI (cfiCond35) V11 load(1, XDATA, add(CFA_XSP16, literal(-7)))
          CFI (cfiCond35) R7 load(1, XDATA, add(CFA_XSP16, literal(-6)))
          CFI (cfiCond35) ?RET_LOW load(1, XDATA, add(CFA_XSP16, literal(-5)))
          CFI (cfiCond35) ?RET_HIGH load(1, XDATA, add(CFA_XSP16, literal(-4)))
          CFI (cfiCond35) ?BRET_EXT load(1, XDATA, add(CFA_XSP16, literal(-3)))
          CFI (cfiCond35) DPL0 load(1, XDATA, add(CFA_XSP16, literal(-2)))
          CFI (cfiCond35) DPH0 load(1, XDATA, add(CFA_XSP16, literal(-1)))
          CFI (cfiCond35) CFA_SP SP+-2
          CFI (cfiCond35) CFA_XSP16 add(XSP16, 42)
          CFI Block cfiPicker36 Using cfiCommon1
          CFI (cfiPicker36) NoFunction
          CFI (cfiPicker36) Picker
        MOV       DPL,?V4
        MOV       DPH,?V5
        MOVX      A,@DPTR
        ADD       A,#0x1
          CFI EndBlock cfiCond34
          CFI EndBlock cfiCond35
          CFI EndBlock cfiPicker36
        REQUIRE ??Subroutine39_0
        ; // Fall through to label ??Subroutine39_0

        RSEG BANKED_CODE:HUGECODE:NOROOT(0)
??Subroutine39_0:
          CFI Block cfiCond37 Using cfiCommon0
          CFI Function zclGp_ProcessInProxyBasic
          CFI Conditional ??CrossCallReturnLabel_65
          CFI R6 load(1, XDATA, add(CFA_XSP16, literal(-20)))
          CFI VB load(1, XDATA, add(CFA_XSP16, literal(-19)))
          CFI V0 load(1, XDATA, add(CFA_XSP16, literal(-18)))
          CFI V1 load(1, XDATA, add(CFA_XSP16, literal(-17)))
          CFI V2 load(1, XDATA, add(CFA_XSP16, literal(-16)))
          CFI V3 load(1, XDATA, add(CFA_XSP16, literal(-15)))
          CFI V4 load(1, XDATA, add(CFA_XSP16, literal(-14)))
          CFI V5 load(1, XDATA, add(CFA_XSP16, literal(-13)))
          CFI V6 load(1, XDATA, add(CFA_XSP16, literal(-12)))
          CFI V7 load(1, XDATA, add(CFA_XSP16, literal(-11)))
          CFI V8 load(1, XDATA, add(CFA_XSP16, literal(-10)))
          CFI V9 load(1, XDATA, add(CFA_XSP16, literal(-9)))
          CFI V10 load(1, XDATA, add(CFA_XSP16, literal(-8)))
          CFI V11 load(1, XDATA, add(CFA_XSP16, literal(-7)))
          CFI R7 load(1, XDATA, add(CFA_XSP16, literal(-6)))
          CFI ?RET_LOW load(1, XDATA, add(CFA_XSP16, literal(-5)))
          CFI ?RET_HIGH load(1, XDATA, add(CFA_XSP16, literal(-4)))
          CFI ?BRET_EXT load(1, XDATA, add(CFA_XSP16, literal(-3)))
          CFI DPL0 load(1, XDATA, add(CFA_XSP16, literal(-2)))
          CFI DPH0 load(1, XDATA, add(CFA_XSP16, literal(-1)))
          CFI CFA_SP SP+-2
          CFI CFA_XSP16 add(XSP16, 42)
          CFI Block cfiCond38 Using cfiCommon0
          CFI (cfiCond38) Function zclGp_ProcessInProxyBasic
          CFI (cfiCond38) Conditional ??CrossCallReturnLabel_63
          CFI (cfiCond38) R6 load(1, XDATA, add(CFA_XSP16, literal(-20)))
          CFI (cfiCond38) VB load(1, XDATA, add(CFA_XSP16, literal(-19)))
          CFI (cfiCond38) V0 load(1, XDATA, add(CFA_XSP16, literal(-18)))
          CFI (cfiCond38) V1 load(1, XDATA, add(CFA_XSP16, literal(-17)))
          CFI (cfiCond38) V2 load(1, XDATA, add(CFA_XSP16, literal(-16)))
          CFI (cfiCond38) V3 load(1, XDATA, add(CFA_XSP16, literal(-15)))
          CFI (cfiCond38) V4 load(1, XDATA, add(CFA_XSP16, literal(-14)))
          CFI (cfiCond38) V5 load(1, XDATA, add(CFA_XSP16, literal(-13)))
          CFI (cfiCond38) V6 load(1, XDATA, add(CFA_XSP16, literal(-12)))
          CFI (cfiCond38) V7 load(1, XDATA, add(CFA_XSP16, literal(-11)))
          CFI (cfiCond38) V8 load(1, XDATA, add(CFA_XSP16, literal(-10)))
          CFI (cfiCond38) V9 load(1, XDATA, add(CFA_XSP16, literal(-9)))
          CFI (cfiCond38) V10 load(1, XDATA, add(CFA_XSP16, literal(-8)))
          CFI (cfiCond38) V11 load(1, XDATA, add(CFA_XSP16, literal(-7)))
          CFI (cfiCond38) R7 load(1, XDATA, add(CFA_XSP16, literal(-6)))
          CFI (cfiCond38) ?RET_LOW load(1, XDATA, add(CFA_XSP16, literal(-5)))
          CFI (cfiCond38) ?RET_HIGH load(1, XDATA, add(CFA_XSP16, literal(-4)))
          CFI (cfiCond38) ?BRET_EXT load(1, XDATA, add(CFA_XSP16, literal(-3)))
          CFI (cfiCond38) DPL0 load(1, XDATA, add(CFA_XSP16, literal(-2)))
          CFI (cfiCond38) DPH0 load(1, XDATA, add(CFA_XSP16, literal(-1)))
          CFI (cfiCond38) CFA_SP SP+-2
          CFI (cfiCond38) CFA_XSP16 add(XSP16, 42)
          CFI Block cfiCond39 Using cfiCommon0
          CFI (cfiCond39) Function zclGp_ProcessInProxyBasic
          CFI (cfiCond39) Conditional ??CrossCallReturnLabel_64
          CFI (cfiCond39) R6 load(1, XDATA, add(CFA_XSP16, literal(-20)))
          CFI (cfiCond39) VB load(1, XDATA, add(CFA_XSP16, literal(-19)))
          CFI (cfiCond39) V0 load(1, XDATA, add(CFA_XSP16, literal(-18)))
          CFI (cfiCond39) V1 load(1, XDATA, add(CFA_XSP16, literal(-17)))
          CFI (cfiCond39) V2 load(1, XDATA, add(CFA_XSP16, literal(-16)))
          CFI (cfiCond39) V3 load(1, XDATA, add(CFA_XSP16, literal(-15)))
          CFI (cfiCond39) V4 load(1, XDATA, add(CFA_XSP16, literal(-14)))
          CFI (cfiCond39) V5 load(1, XDATA, add(CFA_XSP16, literal(-13)))
          CFI (cfiCond39) V6 load(1, XDATA, add(CFA_XSP16, literal(-12)))
          CFI (cfiCond39) V7 load(1, XDATA, add(CFA_XSP16, literal(-11)))
          CFI (cfiCond39) V8 load(1, XDATA, add(CFA_XSP16, literal(-10)))
          CFI (cfiCond39) V9 load(1, XDATA, add(CFA_XSP16, literal(-9)))
          CFI (cfiCond39) V10 load(1, XDATA, add(CFA_XSP16, literal(-8)))
          CFI (cfiCond39) V11 load(1, XDATA, add(CFA_XSP16, literal(-7)))
          CFI (cfiCond39) R7 load(1, XDATA, add(CFA_XSP16, literal(-6)))
          CFI (cfiCond39) ?RET_LOW load(1, XDATA, add(CFA_XSP16, literal(-5)))
          CFI (cfiCond39) ?RET_HIGH load(1, XDATA, add(CFA_XSP16, literal(-4)))
          CFI (cfiCond39) ?BRET_EXT load(1, XDATA, add(CFA_XSP16, literal(-3)))
          CFI (cfiCond39) DPL0 load(1, XDATA, add(CFA_XSP16, literal(-2)))
          CFI (cfiCond39) DPH0 load(1, XDATA, add(CFA_XSP16, literal(-1)))
          CFI (cfiCond39) CFA_SP SP+-2
          CFI (cfiCond39) CFA_XSP16 add(XSP16, 42)
          CFI Block cfiPicker40 Using cfiCommon1
          CFI (cfiPicker40) NoFunction
          CFI (cfiPicker40) Picker
        LCALL     ?Subroutine32 & 0xFFFF
??CrossCallReturnLabel_67:
        MOV       A,R0
        ORL       A,R1
        RET
          CFI EndBlock cfiCond37
          CFI EndBlock cfiCond38
          CFI EndBlock cfiCond39
          CFI EndBlock cfiPicker40
//  401 
//  402 /*********************************************************************
//  403  * @fn      zclGp_SendGpNotificationCommand
//  404  *
//  405  * @brief   Send the Green Power Notification Command to a device
//  406  *
//  407  * @param   pCmd - Pointer to GP Notification Struct
//  408  *          secNum - Sequence number given by the GPDF  
//  409  *
//  410  * @return  ZStatus_t
//  411  */

        RSEG BANKED_CODE:HUGECODE:NOROOT(0)
//  412 ZStatus_t zclGp_SendGpNotificationCommand( gpNotificationCmd_t *pCmd, uint8 secNum )
zclGp_SendGpNotificationCommand:
          CFI Block cfiBlock41 Using cfiCommon0
          CFI Function zclGp_SendGpNotificationCommand
        CODE
//  413 {
        FUNCALL zclGp_SendGpNotificationCommand, osal_mem_alloc
        LOCFRAME ISTACK, 0, STACK
        LOCFRAME PSTACK, 0, STACK
        LOCFRAME XSTACK, 24, STACK
        LOCFRAME IOVERLAY, 0, STATIC
        LOCFRAME DOVERLAY, 0, STATIC
        ARGFRAME ISTACK, 0, STACK
        ARGFRAME PSTACK, 0, STACK
        ARGFRAME XSTACK, 24, STACK
        ARGFRAME IOVERLAY, 0, STATIC
        ARGFRAME DOVERLAY, 0, STATIC
        FUNCALL zclGp_SendGpNotificationCommand, osal_memcpy
        LOCFRAME ISTACK, 0, STACK
        LOCFRAME PSTACK, 0, STACK
        LOCFRAME XSTACK, 27, STACK
        LOCFRAME IOVERLAY, 0, STATIC
        LOCFRAME DOVERLAY, 0, STATIC
        ARGFRAME ISTACK, 0, STACK
        ARGFRAME PSTACK, 0, STACK
        ARGFRAME XSTACK, 27, STACK
        ARGFRAME IOVERLAY, 0, STATIC
        ARGFRAME DOVERLAY, 0, STATIC
        FUNCALL zclGp_SendGpNotificationCommand, osal_memcpy
        LOCFRAME ISTACK, 0, STACK
        LOCFRAME PSTACK, 0, STACK
        LOCFRAME XSTACK, 27, STACK
        LOCFRAME IOVERLAY, 0, STATIC
        LOCFRAME DOVERLAY, 0, STATIC
        ARGFRAME ISTACK, 0, STACK
        ARGFRAME PSTACK, 0, STACK
        ARGFRAME XSTACK, 27, STACK
        ARGFRAME IOVERLAY, 0, STATIC
        ARGFRAME DOVERLAY, 0, STATIC
        FUNCALL zclGp_SendGpNotificationCommand, osal_memcpy
        LOCFRAME ISTACK, 0, STACK
        LOCFRAME PSTACK, 0, STACK
        LOCFRAME XSTACK, 27, STACK
        LOCFRAME IOVERLAY, 0, STATIC
        LOCFRAME DOVERLAY, 0, STATIC
        ARGFRAME ISTACK, 0, STACK
        ARGFRAME PSTACK, 0, STACK
        ARGFRAME XSTACK, 27, STACK
        ARGFRAME IOVERLAY, 0, STATIC
        ARGFRAME DOVERLAY, 0, STATIC
        FUNCALL zclGp_SendGpNotificationCommand, osal_memcpy
        LOCFRAME ISTACK, 0, STACK
        LOCFRAME PSTACK, 0, STACK
        LOCFRAME XSTACK, 27, STACK
        LOCFRAME IOVERLAY, 0, STATIC
        LOCFRAME DOVERLAY, 0, STATIC
        ARGFRAME ISTACK, 0, STACK
        ARGFRAME PSTACK, 0, STACK
        ARGFRAME XSTACK, 27, STACK
        ARGFRAME IOVERLAY, 0, STATIC
        ARGFRAME DOVERLAY, 0, STATIC
        FUNCALL zclGp_SendGpNotificationCommand, osal_memcpy
        LOCFRAME ISTACK, 0, STACK
        LOCFRAME PSTACK, 0, STACK
        LOCFRAME XSTACK, 27, STACK
        LOCFRAME IOVERLAY, 0, STATIC
        LOCFRAME DOVERLAY, 0, STATIC
        ARGFRAME ISTACK, 0, STACK
        ARGFRAME PSTACK, 0, STACK
        ARGFRAME XSTACK, 27, STACK
        ARGFRAME IOVERLAY, 0, STATIC
        ARGFRAME DOVERLAY, 0, STATIC
        FUNCALL zclGp_SendGpNotificationCommand, osal_memcpy
        LOCFRAME ISTACK, 0, STACK
        LOCFRAME PSTACK, 0, STACK
        LOCFRAME XSTACK, 27, STACK
        LOCFRAME IOVERLAY, 0, STATIC
        LOCFRAME DOVERLAY, 0, STATIC
        ARGFRAME ISTACK, 0, STACK
        ARGFRAME PSTACK, 0, STACK
        ARGFRAME XSTACK, 27, STACK
        ARGFRAME IOVERLAY, 0, STATIC
        ARGFRAME DOVERLAY, 0, STATIC
        FUNCALL zclGp_SendGpNotificationCommand, gp_AddCmdPayloadMsgNode
        LOCFRAME ISTACK, 0, STACK
        LOCFRAME PSTACK, 0, STACK
        LOCFRAME XSTACK, 24, STACK
        LOCFRAME IOVERLAY, 0, STATIC
        LOCFRAME DOVERLAY, 0, STATIC
        ARGFRAME ISTACK, 0, STACK
        ARGFRAME PSTACK, 0, STACK
        ARGFRAME XSTACK, 24, STACK
        ARGFRAME IOVERLAY, 0, STATIC
        ARGFRAME DOVERLAY, 0, STATIC
        FUNCALL zclGp_SendGpNotificationCommand, gp_addPairedSinksToMsgQueue
        LOCFRAME ISTACK, 0, STACK
        LOCFRAME PSTACK, 0, STACK
        LOCFRAME XSTACK, 24, STACK
        LOCFRAME IOVERLAY, 0, STATIC
        LOCFRAME DOVERLAY, 0, STATIC
        ARGFRAME ISTACK, 0, STACK
        ARGFRAME PSTACK, 0, STACK
        ARGFRAME XSTACK, 24, STACK
        ARGFRAME IOVERLAY, 0, STATIC
        ARGFRAME DOVERLAY, 0, STATIC
        FUNCALL zclGp_SendGpNotificationCommand, osal_start_timerEx
        LOCFRAME ISTACK, 0, STACK
        LOCFRAME PSTACK, 0, STACK
        LOCFRAME XSTACK, 28, STACK
        LOCFRAME IOVERLAY, 0, STATIC
        LOCFRAME DOVERLAY, 0, STATIC
        ARGFRAME ISTACK, 0, STACK
        ARGFRAME PSTACK, 0, STACK
        ARGFRAME XSTACK, 28, STACK
        ARGFRAME IOVERLAY, 0, STATIC
        ARGFRAME DOVERLAY, 0, STATIC
        REQUIRE ?V0
        REQUIRE ?V1
        REQUIRE ?V2
        REQUIRE ?V3
        REQUIRE ?V4
        REQUIRE ?V5
        REQUIRE ?V6
        REQUIRE ?V7
        REQUIRE ?V8
        REQUIRE ?V9
        REQUIRE ?V10
        REQUIRE ?V11
        REQUIRE ?V12
        REQUIRE ?V13
        REQUIRE ?V14
        REQUIRE ?V15
        MOV       A,#-0x18
        LCALL     ?BANKED_ENTER_XDATA
          CFI DPH0 load(1, XDATA, add(CFA_XSP16, literal(-1)))
          CFI DPL0 load(1, XDATA, add(CFA_XSP16, literal(-2)))
          CFI ?BRET_EXT load(1, XDATA, add(CFA_XSP16, literal(-3)))
          CFI ?RET_HIGH load(1, XDATA, add(CFA_XSP16, literal(-4)))
          CFI ?RET_LOW load(1, XDATA, add(CFA_XSP16, literal(-5)))
          CFI R7 load(1, XDATA, add(CFA_XSP16, literal(-6)))
          CFI V15 load(1, XDATA, add(CFA_XSP16, literal(-7)))
          CFI V14 load(1, XDATA, add(CFA_XSP16, literal(-8)))
          CFI V13 load(1, XDATA, add(CFA_XSP16, literal(-9)))
          CFI V12 load(1, XDATA, add(CFA_XSP16, literal(-10)))
          CFI V11 load(1, XDATA, add(CFA_XSP16, literal(-11)))
          CFI V10 load(1, XDATA, add(CFA_XSP16, literal(-12)))
          CFI V9 load(1, XDATA, add(CFA_XSP16, literal(-13)))
          CFI V8 load(1, XDATA, add(CFA_XSP16, literal(-14)))
          CFI V7 load(1, XDATA, add(CFA_XSP16, literal(-15)))
          CFI V6 load(1, XDATA, add(CFA_XSP16, literal(-16)))
          CFI V5 load(1, XDATA, add(CFA_XSP16, literal(-17)))
          CFI V4 load(1, XDATA, add(CFA_XSP16, literal(-18)))
          CFI V3 load(1, XDATA, add(CFA_XSP16, literal(-19)))
          CFI V2 load(1, XDATA, add(CFA_XSP16, literal(-20)))
          CFI V1 load(1, XDATA, add(CFA_XSP16, literal(-21)))
          CFI V0 load(1, XDATA, add(CFA_XSP16, literal(-22)))
          CFI VB load(1, XDATA, add(CFA_XSP16, literal(-23)))
          CFI R6 load(1, XDATA, add(CFA_XSP16, literal(-24)))
          CFI CFA_SP SP+0
          CFI CFA_XSP16 add(XSP16, 24)
        ; Saved register size: 24
        ; Auto size: 0
        MOV       ?V0,R2
        MOV       ?V1,R3
        MOV       ?V14,R1
//  414   uint8 *buf = NULL;
//  415   uint8 *pBuf = NULL;
//  416   uint8 *pGpdId = NULL;
        MOV       ?V8,#0x0
        MOV       ?V9,#0x0
//  417   uint8 appId;
//  418   ZStatus_t status;
//  419   uint16 len = 11;  // options + GPD Sec Counter + Cmd ID + payloadLen + GPP Short Address + GPP-GPD link
        MOV       ?V2,#0xb
        MOV       DPL,R2
        MOV       DPH,R3
        MOVX      A,@DPTR
        ANL       A,#0x7
        MOV       R0,A
        JNZ       ??zclGp_SendGpNotificationCommand_0
//  420   gpCmdPayloadMsg_t *pCmdPayloadMsgCurr = NULL;
//  421   
//  422   // Check some stuff to calculate the packet len
//  423   // If Application Id bitfield is 0b000
//  424   if( GP_IS_APPLICATION_ID_GPD( pCmd->options ) )
//  425   {
//  426     len += 4;  // GPD ID
        MOV       ?V2,#0xf
        SJMP      ??zclGp_SendGpNotificationCommand_1
//  427   }
//  428   // If Application Id bitfield is 0b010
//  429   else if( GP_IS_APPLICATION_ID_IEEE( pCmd->options ) )
??zclGp_SendGpNotificationCommand_0:
        MOV       A,#0x2
        XRL       A,R0
        JNZ       ??zclGp_SendGpNotificationCommand_1
//  430   {
//  431     len += 9;  // IEEE addr + EP
        MOV       ?V2,#0x14
//  432   }
//  433   
//  434   // Length of the command payload
//  435   len += pCmd->payloadLen;
??zclGp_SendGpNotificationCommand_1:
        MOV       A,R2
        ADD       A,#0x14
        MOV       ?V10,A
        CLR       A
        ADDC      A,?V1
        MOV       ?V11,A
        MOV       DPL,?V10
        MOV       DPH,A
        MOVX      A,@DPTR
        MOV       R0,A
        MOV       A,?V2
        ADD       A,R0
        MOV       ?V2,A
        CLR       A
        ADDC      A,#0x0
//  436 
//  437   buf = zcl_mem_alloc( len );
        ; Setup parameters for call to function osal_mem_alloc
        MOV       R2,?V2
        MOV       R3,A
        LCALL     `??osal_mem_alloc::?relay`; Banked call to: osal_mem_alloc
        MOV       ?V12,R2
        MOV       ?V13,R3
//  438   if ( buf )
        MOV       A,R2
        ORL       A,R3
        JNZ       $+5
        LJMP      ??zclGp_SendGpNotificationCommand_2 & 0xFFFF
//  439   {
//  440     pBuf = buf;
//  441     
//  442     zcl_memcpy( pBuf, &pCmd->options, sizeof ( uint16 ) );
        ; Setup parameters for call to function osal_memcpy
        MOV       ?V4,?V0
        MOV       ?V5,?V1
        MOV       ?V6,#0x0
        MOV       R0,#?V4
        LCALL     ?PUSH_XSTACK_I_THREE
          CFI CFA_XSP16 add(XSP16, 27)
        MOV       R4,#0x2
        MOV       R5,#0x0
        LCALL     ??Subroutine42_0 & 0xFFFF
??CrossCallReturnLabel_84:
        LCALL     ?DEALLOC_XSTACK8
          CFI CFA_XSP16 add(XSP16, 24)
//  443     pBuf += sizeof ( uint16 );
        MOV       A,?V12
        ADD       A,#0x2
        MOV       R6,A
        CLR       A
        ADDC      A,?V13
        MOV       R7,A
        MOV       DPL,?V0
        MOV       DPH,?V1
        MOVX      A,@DPTR
        ANL       A,#0x7
        MOV       R0,A
        JNZ       ??zclGp_SendGpNotificationCommand_3
//  444     
//  445     // If Application Id bitfield is 0b000
//  446     if( GP_IS_APPLICATION_ID_GPD( pCmd->options ) )
//  447     {
//  448       zcl_memcpy( pBuf, &pCmd->gpdId, sizeof ( uint32 ) );
        MOV       A,?V0
        ADD       A,#0x2
        LCALL     ?Subroutine27 & 0xFFFF
??CrossCallReturnLabel_34:
        LCALL     ?PUSH_XSTACK_I_THREE
          CFI CFA_XSP16 add(XSP16, 27)
        LCALL     ?Subroutine25 & 0xFFFF
??CrossCallReturnLabel_68:
        LCALL     ?DEALLOC_XSTACK8
          CFI CFA_XSP16 add(XSP16, 24)
//  449       pGpdId = ( uint8* )&pCmd->gpdId;
//  450       appId = GP_OPT_APP_ID_GPD;
        MOV       ?V7,#0x0
//  451       pBuf += sizeof ( uint32 );
        MOV       A,R6
        ADD       A,#0x4
        SJMP      ??CrossCallReturnLabel_6
//  452     }
//  453     // If Application Id bitfield is 0b010
//  454     else if( GP_IS_APPLICATION_ID_IEEE( pCmd->options ) )
??zclGp_SendGpNotificationCommand_3:
        MOV       A,#0x2
        XRL       A,R0
        JNZ       ??zclGp_SendGpNotificationCommand_4
//  455     {
//  456       zcl_memcpy( pBuf, &pCmd->gpdIEEE, Z_EXTADDR_LEN );
        MOV       A,?V0
        ADD       A,#0x6
        LCALL     ?Subroutine27 & 0xFFFF
??CrossCallReturnLabel_35:
        LCALL     ?PUSH_XSTACK_I_THREE
          CFI CFA_XSP16 add(XSP16, 27)
        MOV       R4,#0x8
        LCALL     ??Subroutine40_0 & 0xFFFF
??CrossCallReturnLabel_72:
        LCALL     ?DEALLOC_XSTACK8
          CFI CFA_XSP16 add(XSP16, 24)
//  457       pGpdId = pCmd->gpdIEEE;
//  458       appId = GP_OPT_APP_ID_IEEE;
        MOV       ?V7,#0x2
//  459       pBuf += Z_EXTADDR_LEN;
//  460       *pBuf++ = pCmd->ep;
        MOV       A,?V0
        ADD       A,#0xe
        MOV       DPL,A
        CLR       A
        ADDC      A,?V1
        LCALL     ?Subroutine11 & 0xFFFF
//  461     }
??CrossCallReturnLabel_6:
        MOV       R6,A
        JNC       ??zclGp_SendGpNotificationCommand_4
        INC       R7
//  462     
//  463     zcl_memcpy( pBuf, &pCmd->gpdSecCounter, sizeof ( uint32 ) );
??zclGp_SendGpNotificationCommand_4:
        ; Setup parameters for call to function osal_memcpy
        MOV       A,?V0
        ADD       A,#0xf
        LCALL     ?Subroutine28 & 0xFFFF
??CrossCallReturnLabel_36:
        LCALL     ?PUSH_XSTACK_I_THREE
          CFI CFA_XSP16 add(XSP16, 27)
        LCALL     ?Subroutine25 & 0xFFFF
??CrossCallReturnLabel_69:
        LCALL     ?DEALLOC_XSTACK8
          CFI CFA_XSP16 add(XSP16, 24)
//  464     pBuf += sizeof ( uint32 );
//  465 
//  466     *pBuf++ = pCmd->cmdId;
        MOV       A,?V0
        ADD       A,#0x13
        MOV       DPL,A
        CLR       A
        ADDC      A,?V1
        LCALL     ?Subroutine7 & 0xFFFF
//  467     
//  468     *pBuf++ = pCmd->payloadLen;
??CrossCallReturnLabel_0:
        JNC       ??zclGp_SendGpNotificationCommand_5
        INC       R7
//  469     if ( pCmd->payloadLen > 0 )
??zclGp_SendGpNotificationCommand_5:
        MOV       DPL,?V10
        MOV       DPH,?V11
        MOVX      A,@DPTR
        MOV       R1,A
        JZ        ??CrossCallReturnLabel_14
//  470     {
//  471       zcl_memcpy( pBuf, &pCmd->cmdPayload, pCmd->payloadLen );
        ; Setup parameters for call to function osal_memcpy
        MOV       A,?V0
        ADD       A,#0x15
        LCALL     ?Subroutine28 & 0xFFFF
??CrossCallReturnLabel_37:
        LCALL     ?PUSH_XSTACK_I_THREE
          CFI CFA_XSP16 add(XSP16, 27)
        MOV       A,R1
        MOV       R4,A
        LCALL     ??Subroutine40_0 & 0xFFFF
??CrossCallReturnLabel_73:
        LCALL     ?DEALLOC_XSTACK8
          CFI CFA_XSP16 add(XSP16, 24)
//  472       pBuf += pCmd->payloadLen;
        LCALL     ?Subroutine20 & 0xFFFF
//  473     }
//  474     
//  475     zcl_memcpy( pBuf, &pCmd->gppShortAddr, sizeof ( uint16 ) );
??CrossCallReturnLabel_14:
        ; Setup parameters for call to function osal_memcpy
        MOV       A,?V0
        ADD       A,#0x17
        LCALL     ?Subroutine28 & 0xFFFF
??CrossCallReturnLabel_38:
        LCALL     ?PUSH_XSTACK_I_THREE
          CFI CFA_XSP16 add(XSP16, 27)
        MOV       R4,#0x2
        LCALL     ??Subroutine40_0 & 0xFFFF
??CrossCallReturnLabel_74:
        LCALL     ?DEALLOC_XSTACK8
          CFI CFA_XSP16 add(XSP16, 24)
//  476     pBuf += sizeof ( uint16 );
//  477     
//  478     *pBuf++ = pCmd->gppGpdLink;
        MOV       A,?V0
        ADD       A,#0x19
        MOV       DPL,A
        CLR       A
        ADDC      A,?V1
        LCALL     ?Subroutine21 & 0xFFFF
//  479     
//  480     pCmdPayloadMsgCurr = gp_AddCmdPayloadMsgNode ( &pCmdPayloadMsgHead, buf, len );
??CrossCallReturnLabel_16:
        ; Setup parameters for call to function gp_AddCmdPayloadMsgNode
        MOV       R1,?V2
        MOV       R4,?V12
        MOV       R5,?V13
        MOV       R2,#pCmdPayloadMsgHead & 0xff
        MOV       R3,#(pCmdPayloadMsgHead >> 8) & 0xff
        LCALL     `??gp_AddCmdPayloadMsgNode::?relay`; Banked call to: gp_AddCmdPayloadMsgNode
        MOV       DPL,R2
        MOV       DPH,R3
//  481     
//  482     pCmdPayloadMsgCurr->secNum = secNum;
        MOV       A,?V14
        MOVX      @DPTR,A
//  483           
//  484     if ( pCmdPayloadMsgCurr != NULL )
        MOV       A,DPL
        ORL       A,DPH
        JZ        ??zclGp_SendGpNotificationCommand_6
//  485     {
//  486       gp_addPairedSinksToMsgQueue( appId, pGpdId, pCmdPayloadMsgCurr );
        ; Setup parameters for call to function gp_addPairedSinksToMsgQueue
        MOV       R4,DPL
        MOV       R5,DPH
        MOV       R2,?V8
        MOV       R3,?V9
        MOV       R1,?V7
        LCALL     `??gp_addPairedSinksToMsgQueue::?relay`; Banked call to: gp_addPairedSinksToMsgQueue
//  487       osal_start_timerEx( zcl_TaskID, ZCL_DATABUF_SEND, 50 );
        ; Setup parameters for call to function osal_start_timerEx
        MOV       DPTR,#__Constant_32
        LCALL     ?PUSH_XSTACK8_X_FOUR
          CFI CFA_XSP16 add(XSP16, 28)
        MOV       R2,#0x20
        MOV       R3,#0x0
        MOV       DPTR,#zcl_TaskID
        MOVX      A,@DPTR
        MOV       R1,A
        LCALL     `??osal_start_timerEx::?relay`; Banked call to: osal_start_timerEx
        MOV       A,#0x4
        LCALL     ?DEALLOC_XSTACK8
          CFI CFA_XSP16 add(XSP16, 24)
        SJMP      ??zclGp_SendGpNotificationCommand_6
//  488     }
//  489 
//  490   }
//  491   else
//  492     status = ZMemError;
??zclGp_SendGpNotificationCommand_2:
        MOV       ?V15,#0x10
//  493 
//  494   return ( status );
??zclGp_SendGpNotificationCommand_6:
        MOV       R1,?V15
        MOV       R7,#0x10
        LJMP      ?BANKED_LEAVE_XDATA
//  495 }
          CFI EndBlock cfiBlock41

        RSEG BANKED_CODE:HUGECODE:NOROOT(0)
?Subroutine28:
          CFI Block cfiCond42 Using cfiCommon0
          CFI Function zclGp_SendGpNotificationCommand
          CFI Conditional ??CrossCallReturnLabel_36
          CFI R6 load(1, XDATA, add(CFA_XSP16, literal(-24)))
          CFI VB load(1, XDATA, add(CFA_XSP16, literal(-23)))
          CFI V0 load(1, XDATA, add(CFA_XSP16, literal(-22)))
          CFI V1 load(1, XDATA, add(CFA_XSP16, literal(-21)))
          CFI V2 load(1, XDATA, add(CFA_XSP16, literal(-20)))
          CFI V3 load(1, XDATA, add(CFA_XSP16, literal(-19)))
          CFI V4 load(1, XDATA, add(CFA_XSP16, literal(-18)))
          CFI V5 load(1, XDATA, add(CFA_XSP16, literal(-17)))
          CFI V6 load(1, XDATA, add(CFA_XSP16, literal(-16)))
          CFI V7 load(1, XDATA, add(CFA_XSP16, literal(-15)))
          CFI V8 load(1, XDATA, add(CFA_XSP16, literal(-14)))
          CFI V9 load(1, XDATA, add(CFA_XSP16, literal(-13)))
          CFI V10 load(1, XDATA, add(CFA_XSP16, literal(-12)))
          CFI V11 load(1, XDATA, add(CFA_XSP16, literal(-11)))
          CFI V12 load(1, XDATA, add(CFA_XSP16, literal(-10)))
          CFI V13 load(1, XDATA, add(CFA_XSP16, literal(-9)))
          CFI V14 load(1, XDATA, add(CFA_XSP16, literal(-8)))
          CFI V15 load(1, XDATA, add(CFA_XSP16, literal(-7)))
          CFI R7 load(1, XDATA, add(CFA_XSP16, literal(-6)))
          CFI ?RET_LOW load(1, XDATA, add(CFA_XSP16, literal(-5)))
          CFI ?RET_HIGH load(1, XDATA, add(CFA_XSP16, literal(-4)))
          CFI ?BRET_EXT load(1, XDATA, add(CFA_XSP16, literal(-3)))
          CFI DPL0 load(1, XDATA, add(CFA_XSP16, literal(-2)))
          CFI DPH0 load(1, XDATA, add(CFA_XSP16, literal(-1)))
          CFI CFA_SP SP+-2
          CFI CFA_XSP16 add(XSP16, 24)
          CFI Block cfiCond43 Using cfiCommon0
          CFI (cfiCond43) Function zclGp_SendGpNotificationCommand
          CFI (cfiCond43) Conditional ??CrossCallReturnLabel_37
          CFI (cfiCond43) R6 load(1, XDATA, add(CFA_XSP16, literal(-24)))
          CFI (cfiCond43) VB load(1, XDATA, add(CFA_XSP16, literal(-23)))
          CFI (cfiCond43) V0 load(1, XDATA, add(CFA_XSP16, literal(-22)))
          CFI (cfiCond43) V1 load(1, XDATA, add(CFA_XSP16, literal(-21)))
          CFI (cfiCond43) V2 load(1, XDATA, add(CFA_XSP16, literal(-20)))
          CFI (cfiCond43) V3 load(1, XDATA, add(CFA_XSP16, literal(-19)))
          CFI (cfiCond43) V4 load(1, XDATA, add(CFA_XSP16, literal(-18)))
          CFI (cfiCond43) V5 load(1, XDATA, add(CFA_XSP16, literal(-17)))
          CFI (cfiCond43) V6 load(1, XDATA, add(CFA_XSP16, literal(-16)))
          CFI (cfiCond43) V7 load(1, XDATA, add(CFA_XSP16, literal(-15)))
          CFI (cfiCond43) V8 load(1, XDATA, add(CFA_XSP16, literal(-14)))
          CFI (cfiCond43) V9 load(1, XDATA, add(CFA_XSP16, literal(-13)))
          CFI (cfiCond43) V10 load(1, XDATA, add(CFA_XSP16, literal(-12)))
          CFI (cfiCond43) V11 load(1, XDATA, add(CFA_XSP16, literal(-11)))
          CFI (cfiCond43) V12 load(1, XDATA, add(CFA_XSP16, literal(-10)))
          CFI (cfiCond43) V13 load(1, XDATA, add(CFA_XSP16, literal(-9)))
          CFI (cfiCond43) V14 load(1, XDATA, add(CFA_XSP16, literal(-8)))
          CFI (cfiCond43) V15 load(1, XDATA, add(CFA_XSP16, literal(-7)))
          CFI (cfiCond43) R7 load(1, XDATA, add(CFA_XSP16, literal(-6)))
          CFI (cfiCond43) ?RET_LOW load(1, XDATA, add(CFA_XSP16, literal(-5)))
          CFI (cfiCond43) ?RET_HIGH load(1, XDATA, add(CFA_XSP16, literal(-4)))
          CFI (cfiCond43) ?BRET_EXT load(1, XDATA, add(CFA_XSP16, literal(-3)))
          CFI (cfiCond43) DPL0 load(1, XDATA, add(CFA_XSP16, literal(-2)))
          CFI (cfiCond43) DPH0 load(1, XDATA, add(CFA_XSP16, literal(-1)))
          CFI (cfiCond43) CFA_SP SP+-2
          CFI (cfiCond43) CFA_XSP16 add(XSP16, 24)
          CFI Block cfiCond44 Using cfiCommon0
          CFI (cfiCond44) Function zclGp_SendGpNotificationCommand
          CFI (cfiCond44) Conditional ??CrossCallReturnLabel_38
          CFI (cfiCond44) R6 load(1, XDATA, add(CFA_XSP16, literal(-24)))
          CFI (cfiCond44) VB load(1, XDATA, add(CFA_XSP16, literal(-23)))
          CFI (cfiCond44) V0 load(1, XDATA, add(CFA_XSP16, literal(-22)))
          CFI (cfiCond44) V1 load(1, XDATA, add(CFA_XSP16, literal(-21)))
          CFI (cfiCond44) V2 load(1, XDATA, add(CFA_XSP16, literal(-20)))
          CFI (cfiCond44) V3 load(1, XDATA, add(CFA_XSP16, literal(-19)))
          CFI (cfiCond44) V4 load(1, XDATA, add(CFA_XSP16, literal(-18)))
          CFI (cfiCond44) V5 load(1, XDATA, add(CFA_XSP16, literal(-17)))
          CFI (cfiCond44) V6 load(1, XDATA, add(CFA_XSP16, literal(-16)))
          CFI (cfiCond44) V7 load(1, XDATA, add(CFA_XSP16, literal(-15)))
          CFI (cfiCond44) V8 load(1, XDATA, add(CFA_XSP16, literal(-14)))
          CFI (cfiCond44) V9 load(1, XDATA, add(CFA_XSP16, literal(-13)))
          CFI (cfiCond44) V10 load(1, XDATA, add(CFA_XSP16, literal(-12)))
          CFI (cfiCond44) V11 load(1, XDATA, add(CFA_XSP16, literal(-11)))
          CFI (cfiCond44) V12 load(1, XDATA, add(CFA_XSP16, literal(-10)))
          CFI (cfiCond44) V13 load(1, XDATA, add(CFA_XSP16, literal(-9)))
          CFI (cfiCond44) V14 load(1, XDATA, add(CFA_XSP16, literal(-8)))
          CFI (cfiCond44) V15 load(1, XDATA, add(CFA_XSP16, literal(-7)))
          CFI (cfiCond44) R7 load(1, XDATA, add(CFA_XSP16, literal(-6)))
          CFI (cfiCond44) ?RET_LOW load(1, XDATA, add(CFA_XSP16, literal(-5)))
          CFI (cfiCond44) ?RET_HIGH load(1, XDATA, add(CFA_XSP16, literal(-4)))
          CFI (cfiCond44) ?BRET_EXT load(1, XDATA, add(CFA_XSP16, literal(-3)))
          CFI (cfiCond44) DPL0 load(1, XDATA, add(CFA_XSP16, literal(-2)))
          CFI (cfiCond44) DPH0 load(1, XDATA, add(CFA_XSP16, literal(-1)))
          CFI (cfiCond44) CFA_SP SP+-2
          CFI (cfiCond44) CFA_XSP16 add(XSP16, 24)
          CFI Block cfiPicker45 Using cfiCommon1
          CFI (cfiPicker45) NoFunction
          CFI (cfiPicker45) Picker
        MOV       ?V4,A
        CLR       A
        ADDC      A,?V1
        MOV       ?V5,A
        MOV       R0,#?V4
        RET
          CFI EndBlock cfiCond42
          CFI EndBlock cfiCond43
          CFI EndBlock cfiCond44
          CFI EndBlock cfiPicker45

        RSEG BANKED_CODE:HUGECODE:NOROOT(0)
?Subroutine27:
          CFI Block cfiCond46 Using cfiCommon0
          CFI Function zclGp_SendGpNotificationCommand
          CFI Conditional ??CrossCallReturnLabel_34
          CFI R6 load(1, XDATA, add(CFA_XSP16, literal(-24)))
          CFI VB load(1, XDATA, add(CFA_XSP16, literal(-23)))
          CFI V0 load(1, XDATA, add(CFA_XSP16, literal(-22)))
          CFI V1 load(1, XDATA, add(CFA_XSP16, literal(-21)))
          CFI V2 load(1, XDATA, add(CFA_XSP16, literal(-20)))
          CFI V3 load(1, XDATA, add(CFA_XSP16, literal(-19)))
          CFI V4 load(1, XDATA, add(CFA_XSP16, literal(-18)))
          CFI V5 load(1, XDATA, add(CFA_XSP16, literal(-17)))
          CFI V6 load(1, XDATA, add(CFA_XSP16, literal(-16)))
          CFI V7 load(1, XDATA, add(CFA_XSP16, literal(-15)))
          CFI V8 load(1, XDATA, add(CFA_XSP16, literal(-14)))
          CFI V9 load(1, XDATA, add(CFA_XSP16, literal(-13)))
          CFI V10 load(1, XDATA, add(CFA_XSP16, literal(-12)))
          CFI V11 load(1, XDATA, add(CFA_XSP16, literal(-11)))
          CFI V12 load(1, XDATA, add(CFA_XSP16, literal(-10)))
          CFI V13 load(1, XDATA, add(CFA_XSP16, literal(-9)))
          CFI V14 load(1, XDATA, add(CFA_XSP16, literal(-8)))
          CFI V15 load(1, XDATA, add(CFA_XSP16, literal(-7)))
          CFI R7 load(1, XDATA, add(CFA_XSP16, literal(-6)))
          CFI ?RET_LOW load(1, XDATA, add(CFA_XSP16, literal(-5)))
          CFI ?RET_HIGH load(1, XDATA, add(CFA_XSP16, literal(-4)))
          CFI ?BRET_EXT load(1, XDATA, add(CFA_XSP16, literal(-3)))
          CFI DPL0 load(1, XDATA, add(CFA_XSP16, literal(-2)))
          CFI DPH0 load(1, XDATA, add(CFA_XSP16, literal(-1)))
          CFI CFA_SP SP+-2
          CFI CFA_XSP16 add(XSP16, 24)
          CFI Block cfiCond47 Using cfiCommon0
          CFI (cfiCond47) Function zclGp_SendGpNotificationCommand
          CFI (cfiCond47) Conditional ??CrossCallReturnLabel_35
          CFI (cfiCond47) R6 load(1, XDATA, add(CFA_XSP16, literal(-24)))
          CFI (cfiCond47) VB load(1, XDATA, add(CFA_XSP16, literal(-23)))
          CFI (cfiCond47) V0 load(1, XDATA, add(CFA_XSP16, literal(-22)))
          CFI (cfiCond47) V1 load(1, XDATA, add(CFA_XSP16, literal(-21)))
          CFI (cfiCond47) V2 load(1, XDATA, add(CFA_XSP16, literal(-20)))
          CFI (cfiCond47) V3 load(1, XDATA, add(CFA_XSP16, literal(-19)))
          CFI (cfiCond47) V4 load(1, XDATA, add(CFA_XSP16, literal(-18)))
          CFI (cfiCond47) V5 load(1, XDATA, add(CFA_XSP16, literal(-17)))
          CFI (cfiCond47) V6 load(1, XDATA, add(CFA_XSP16, literal(-16)))
          CFI (cfiCond47) V7 load(1, XDATA, add(CFA_XSP16, literal(-15)))
          CFI (cfiCond47) V8 load(1, XDATA, add(CFA_XSP16, literal(-14)))
          CFI (cfiCond47) V9 load(1, XDATA, add(CFA_XSP16, literal(-13)))
          CFI (cfiCond47) V10 load(1, XDATA, add(CFA_XSP16, literal(-12)))
          CFI (cfiCond47) V11 load(1, XDATA, add(CFA_XSP16, literal(-11)))
          CFI (cfiCond47) V12 load(1, XDATA, add(CFA_XSP16, literal(-10)))
          CFI (cfiCond47) V13 load(1, XDATA, add(CFA_XSP16, literal(-9)))
          CFI (cfiCond47) V14 load(1, XDATA, add(CFA_XSP16, literal(-8)))
          CFI (cfiCond47) V15 load(1, XDATA, add(CFA_XSP16, literal(-7)))
          CFI (cfiCond47) R7 load(1, XDATA, add(CFA_XSP16, literal(-6)))
          CFI (cfiCond47) ?RET_LOW load(1, XDATA, add(CFA_XSP16, literal(-5)))
          CFI (cfiCond47) ?RET_HIGH load(1, XDATA, add(CFA_XSP16, literal(-4)))
          CFI (cfiCond47) ?BRET_EXT load(1, XDATA, add(CFA_XSP16, literal(-3)))
          CFI (cfiCond47) DPL0 load(1, XDATA, add(CFA_XSP16, literal(-2)))
          CFI (cfiCond47) DPH0 load(1, XDATA, add(CFA_XSP16, literal(-1)))
          CFI (cfiCond47) CFA_SP SP+-2
          CFI (cfiCond47) CFA_XSP16 add(XSP16, 24)
          CFI Block cfiPicker48 Using cfiCommon1
          CFI (cfiPicker48) NoFunction
          CFI (cfiPicker48) Picker
        MOV       ?V8,A
        CLR       A
        ADDC      A,?V1
        MOV       ?V9,A
        ; Setup parameters for call to function osal_memcpy
        ; Setup parameters for call to function osal_memcpy
        MOV       ?V4,?V8
        MOV       ?V5,A
        MOV       R0,#?V4
        RET
          CFI EndBlock cfiCond46
          CFI EndBlock cfiCond47
          CFI EndBlock cfiPicker48
//  496   
//  497 /*********************************************************************
//  498  * @fn      zclGp_SendGpCommissioningNotificationCommand
//  499  *
//  500  * @brief   Send the Green Power Commissioning Notification Command to a device
//  501  *
//  502  * @param   pCmd - Pointer to GP Commissioning Notification Struct
//  503  *
//  504  * @return  ZStatus_t
//  505  */

        RSEG BANKED_CODE:HUGECODE:NOROOT(0)
//  506 ZStatus_t zclGp_SendGpCommissioningNotificationCommand( gpCommissioningNotificationCmd_t *pCmd )
zclGp_SendGpCommissioningNotificationCommand:
          CFI Block cfiBlock49 Using cfiCommon0
          CFI Function zclGp_SendGpCommissioningNotificationCommand
        CODE
//  507 {
        FUNCALL zclGp_SendGpCommissioningNotificationCommand, osal_mem_alloc
        LOCFRAME ISTACK, 0, STACK
        LOCFRAME PSTACK, 0, STACK
        LOCFRAME XSTACK, 32, STACK
        LOCFRAME IOVERLAY, 0, STATIC
        LOCFRAME DOVERLAY, 0, STATIC
        ARGFRAME ISTACK, 0, STACK
        ARGFRAME PSTACK, 0, STACK
        ARGFRAME XSTACK, 32, STACK
        ARGFRAME IOVERLAY, 0, STATIC
        ARGFRAME DOVERLAY, 0, STATIC
        FUNCALL zclGp_SendGpCommissioningNotificationCommand, osal_memcpy
        LOCFRAME ISTACK, 0, STACK
        LOCFRAME PSTACK, 0, STACK
        LOCFRAME XSTACK, 35, STACK
        LOCFRAME IOVERLAY, 0, STATIC
        LOCFRAME DOVERLAY, 0, STATIC
        ARGFRAME ISTACK, 0, STACK
        ARGFRAME PSTACK, 0, STACK
        ARGFRAME XSTACK, 35, STACK
        ARGFRAME IOVERLAY, 0, STATIC
        ARGFRAME DOVERLAY, 0, STATIC
        FUNCALL zclGp_SendGpCommissioningNotificationCommand, osal_memcpy
        LOCFRAME ISTACK, 0, STACK
        LOCFRAME PSTACK, 0, STACK
        LOCFRAME XSTACK, 35, STACK
        LOCFRAME IOVERLAY, 0, STATIC
        LOCFRAME DOVERLAY, 0, STATIC
        ARGFRAME ISTACK, 0, STACK
        ARGFRAME PSTACK, 0, STACK
        ARGFRAME XSTACK, 35, STACK
        ARGFRAME IOVERLAY, 0, STATIC
        ARGFRAME DOVERLAY, 0, STATIC
        FUNCALL zclGp_SendGpCommissioningNotificationCommand, osal_memcpy
        LOCFRAME ISTACK, 0, STACK
        LOCFRAME PSTACK, 0, STACK
        LOCFRAME XSTACK, 35, STACK
        LOCFRAME IOVERLAY, 0, STATIC
        LOCFRAME DOVERLAY, 0, STATIC
        ARGFRAME ISTACK, 0, STACK
        ARGFRAME PSTACK, 0, STACK
        ARGFRAME XSTACK, 35, STACK
        ARGFRAME IOVERLAY, 0, STATIC
        ARGFRAME DOVERLAY, 0, STATIC
        FUNCALL zclGp_SendGpCommissioningNotificationCommand, osal_memcpy
        LOCFRAME ISTACK, 0, STACK
        LOCFRAME PSTACK, 0, STACK
        LOCFRAME XSTACK, 35, STACK
        LOCFRAME IOVERLAY, 0, STATIC
        LOCFRAME DOVERLAY, 0, STATIC
        ARGFRAME ISTACK, 0, STACK
        ARGFRAME PSTACK, 0, STACK
        ARGFRAME XSTACK, 35, STACK
        ARGFRAME IOVERLAY, 0, STATIC
        ARGFRAME DOVERLAY, 0, STATIC
        FUNCALL zclGp_SendGpCommissioningNotificationCommand, osal_memcpy
        LOCFRAME ISTACK, 0, STACK
        LOCFRAME PSTACK, 0, STACK
        LOCFRAME XSTACK, 35, STACK
        LOCFRAME IOVERLAY, 0, STATIC
        LOCFRAME DOVERLAY, 0, STATIC
        ARGFRAME ISTACK, 0, STACK
        ARGFRAME PSTACK, 0, STACK
        ARGFRAME XSTACK, 35, STACK
        ARGFRAME IOVERLAY, 0, STATIC
        ARGFRAME DOVERLAY, 0, STATIC
        FUNCALL zclGp_SendGpCommissioningNotificationCommand, osal_memcpy
        LOCFRAME ISTACK, 0, STACK
        LOCFRAME PSTACK, 0, STACK
        LOCFRAME XSTACK, 35, STACK
        LOCFRAME IOVERLAY, 0, STATIC
        LOCFRAME DOVERLAY, 0, STATIC
        ARGFRAME ISTACK, 0, STACK
        ARGFRAME PSTACK, 0, STACK
        ARGFRAME XSTACK, 35, STACK
        ARGFRAME IOVERLAY, 0, STATIC
        ARGFRAME DOVERLAY, 0, STATIC
        FUNCALL zclGp_SendGpCommissioningNotificationCommand, bdb_getZCLFrameCounter
        LOCFRAME ISTACK, 0, STACK
        LOCFRAME PSTACK, 0, STACK
        LOCFRAME XSTACK, 32, STACK
        LOCFRAME IOVERLAY, 0, STATIC
        LOCFRAME DOVERLAY, 0, STATIC
        ARGFRAME ISTACK, 0, STACK
        ARGFRAME PSTACK, 0, STACK
        ARGFRAME XSTACK, 32, STACK
        ARGFRAME IOVERLAY, 0, STATIC
        ARGFRAME DOVERLAY, 0, STATIC
        FUNCALL zclGp_SendGpCommissioningNotificationCommand, zcl_SendCommand
        LOCFRAME ISTACK, 0, STACK
        LOCFRAME PSTACK, 0, STACK
        LOCFRAME XSTACK, 43, STACK
        LOCFRAME IOVERLAY, 0, STATIC
        LOCFRAME DOVERLAY, 0, STATIC
        ARGFRAME ISTACK, 0, STACK
        ARGFRAME PSTACK, 0, STACK
        ARGFRAME XSTACK, 43, STACK
        ARGFRAME IOVERLAY, 0, STATIC
        ARGFRAME DOVERLAY, 0, STATIC
        FUNCALL zclGp_SendGpCommissioningNotificationCommand, osal_mem_free
        LOCFRAME ISTACK, 0, STACK
        LOCFRAME PSTACK, 0, STACK
        LOCFRAME XSTACK, 32, STACK
        LOCFRAME IOVERLAY, 0, STATIC
        LOCFRAME DOVERLAY, 0, STATIC
        ARGFRAME ISTACK, 0, STACK
        ARGFRAME PSTACK, 0, STACK
        ARGFRAME XSTACK, 32, STACK
        ARGFRAME IOVERLAY, 0, STATIC
        ARGFRAME DOVERLAY, 0, STATIC
        REQUIRE ?V0
        REQUIRE ?V1
        REQUIRE ?V2
        REQUIRE ?V3
        REQUIRE ?V4
        REQUIRE ?V5
        REQUIRE ?V6
        REQUIRE ?V7
        REQUIRE ?V8
        REQUIRE ?V9
        REQUIRE ?V10
        REQUIRE ?V11
        MOV       A,#-0x14
        LCALL     ?BANKED_ENTER_XDATA
          CFI DPH0 load(1, XDATA, add(CFA_XSP16, literal(-1)))
          CFI DPL0 load(1, XDATA, add(CFA_XSP16, literal(-2)))
          CFI ?BRET_EXT load(1, XDATA, add(CFA_XSP16, literal(-3)))
          CFI ?RET_HIGH load(1, XDATA, add(CFA_XSP16, literal(-4)))
          CFI ?RET_LOW load(1, XDATA, add(CFA_XSP16, literal(-5)))
          CFI R7 load(1, XDATA, add(CFA_XSP16, literal(-6)))
          CFI V11 load(1, XDATA, add(CFA_XSP16, literal(-7)))
          CFI V10 load(1, XDATA, add(CFA_XSP16, literal(-8)))
          CFI V9 load(1, XDATA, add(CFA_XSP16, literal(-9)))
          CFI V8 load(1, XDATA, add(CFA_XSP16, literal(-10)))
          CFI V7 load(1, XDATA, add(CFA_XSP16, literal(-11)))
          CFI V6 load(1, XDATA, add(CFA_XSP16, literal(-12)))
          CFI V5 load(1, XDATA, add(CFA_XSP16, literal(-13)))
          CFI V4 load(1, XDATA, add(CFA_XSP16, literal(-14)))
          CFI V3 load(1, XDATA, add(CFA_XSP16, literal(-15)))
          CFI V2 load(1, XDATA, add(CFA_XSP16, literal(-16)))
          CFI V1 load(1, XDATA, add(CFA_XSP16, literal(-17)))
          CFI V0 load(1, XDATA, add(CFA_XSP16, literal(-18)))
          CFI VB load(1, XDATA, add(CFA_XSP16, literal(-19)))
          CFI R6 load(1, XDATA, add(CFA_XSP16, literal(-20)))
          CFI CFA_SP SP+0
          CFI CFA_XSP16 add(XSP16, 20)
        ; Saved register size: 20
        ; Auto size: 12
        MOV       A,#-0xc
        LCALL     ?ALLOC_XSTACK8
          CFI CFA_XSP16 add(XSP16, 32)
        MOV       ?V2,R2
        MOV       ?V3,R3
//  508   uint8 *buf = NULL;
//  509   uint8 *pBuf = NULL;
//  510   ZStatus_t status;
//  511   uint16 len = 11;  // options + GPD Sec Counter + Cmd ID + payloadLen + GPP Short Address + GPP-GPD link
        MOV       ?V0,#0xb
        MOV       DPL,R2
        MOV       DPH,R3
        MOVX      A,@DPTR
        ANL       A,#0x7
        MOV       R0,A
        JNZ       ??zclGp_SendGpCommissioningNotificationCommand_0
//  512   
//  513   // Check some stuff to calculate the packet len
//  514   // If Application Id bitfield is 0b000
//  515   if( GP_IS_APPLICATION_ID_GPD( pCmd->options ) )
//  516   {
//  517     len += 4;  // GPD ID
        MOV       ?V0,#0xf
        SJMP      ??zclGp_SendGpCommissioningNotificationCommand_1
//  518   }
//  519   // If Application Id bitfield is 0b010
//  520   else if( GP_IS_APPLICATION_ID_IEEE( pCmd->options ) )
??zclGp_SendGpCommissioningNotificationCommand_0:
        MOV       A,#0x2
        XRL       A,R0
        JNZ       ??zclGp_SendGpCommissioningNotificationCommand_1
//  521   {
//  522     len += 9;  // IEEE addr + EP
        MOV       ?V0,#0x14
//  523   }
//  524   
//  525   // Length of the command payload
//  526   len += pCmd->payloadLen;
??zclGp_SendGpCommissioningNotificationCommand_1:
        MOV       A,R2
        ADD       A,#0x14
        MOV       ?V10,A
        CLR       A
        ADDC      A,?V3
        MOV       ?V11,A
        MOV       DPL,?V10
        MOV       DPH,A
        MOVX      A,@DPTR
        MOV       R0,A
        MOV       A,?V0
        ADD       A,R0
        MOV       ?V0,A
        CLR       A
        ADDC      A,#0x0
        MOV       ?V1,A
//  527 
//  528   buf = zcl_mem_alloc( len );
        ; Setup parameters for call to function osal_mem_alloc
        MOV       R2,?V0
        MOV       R3,A
        LCALL     `??osal_mem_alloc::?relay`; Banked call to: osal_mem_alloc
        MOV       ?V8,R2
        MOV       ?V9,R3
//  529   if ( buf )
        MOV       A,R2
        ORL       A,R3
        JNZ       $+5
        LJMP      ??zclGp_SendGpCommissioningNotificationCommand_2 & 0xFFFF
//  530   {
//  531     pBuf = buf;
//  532     
//  533     zcl_memcpy( pBuf, &pCmd->options, sizeof ( uint16 ) );
        ; Setup parameters for call to function osal_memcpy
        MOV       ?V4,?V2
        MOV       ?V5,?V3
        MOV       ?V6,#0x0
        MOV       R0,#?V4
        LCALL     ?PUSH_XSTACK_I_THREE
          CFI CFA_XSP16 add(XSP16, 35)
        MOV       R4,#0x2
        MOV       R5,#0x0
        LCALL     ??Subroutine42_0 & 0xFFFF
??CrossCallReturnLabel_85:
        LCALL     ?DEALLOC_XSTACK8
          CFI CFA_XSP16 add(XSP16, 32)
//  534     pBuf += sizeof ( uint16 );
        MOV       A,?V8
        ADD       A,#0x2
        MOV       R6,A
        CLR       A
        ADDC      A,?V9
        MOV       R7,A
        MOV       DPL,?V2
        MOV       DPH,?V3
        MOVX      A,@DPTR
        ANL       A,#0x7
        MOV       R0,A
        JNZ       ??zclGp_SendGpCommissioningNotificationCommand_3
//  535     
//  536     // If Application Id bitfield is 0b000
//  537     if( GP_IS_APPLICATION_ID_GPD( pCmd->options ) )
//  538     {
//  539       zcl_memcpy( pBuf, &pCmd->gpdId, sizeof ( uint32 ) );
        ; Setup parameters for call to function osal_memcpy
        INC       DPTR
        INC       DPTR
        MOV       R1,DPL
        MOV       R2,DPH
        MOV       ?V4,R1
        MOV       ?V5,R2
        MOV       R0,#?V4
        LCALL     ?PUSH_XSTACK_I_THREE
          CFI CFA_XSP16 add(XSP16, 35)
        LCALL     ?Subroutine25 & 0xFFFF
??CrossCallReturnLabel_70:
        LCALL     ?DEALLOC_XSTACK8
          CFI CFA_XSP16 add(XSP16, 32)
//  540       pBuf += sizeof ( uint32 );
        MOV       A,R6
        ADD       A,#0x4
        SJMP      ??CrossCallReturnLabel_7
//  541     }
//  542     // If Application Id bitfield is 0b010
//  543     else if( GP_IS_APPLICATION_ID_IEEE( pCmd->options ) )
??zclGp_SendGpCommissioningNotificationCommand_3:
        MOV       A,#0x2
        XRL       A,R0
        JNZ       ??zclGp_SendGpCommissioningNotificationCommand_4
//  544     {
//  545       zcl_memcpy( pBuf, &pCmd->gpdIEEE, Z_EXTADDR_LEN );
        ; Setup parameters for call to function osal_memcpy
        MOV       A,?V2
        ADD       A,#0x6
        LCALL     ?Subroutine26 & 0xFFFF
??CrossCallReturnLabel_30:
        LCALL     ?PUSH_XSTACK_I_THREE
          CFI CFA_XSP16 add(XSP16, 35)
        MOV       R4,#0x8
        LCALL     ??Subroutine40_0 & 0xFFFF
??CrossCallReturnLabel_75:
        LCALL     ?DEALLOC_XSTACK8
          CFI CFA_XSP16 add(XSP16, 32)
//  546       pBuf += Z_EXTADDR_LEN;
//  547       *pBuf++ = pCmd->ep;
        MOV       A,?V2
        ADD       A,#0xe
        MOV       DPL,A
        CLR       A
        ADDC      A,?V3
        LCALL     ?Subroutine11 & 0xFFFF
//  548     }
??CrossCallReturnLabel_7:
        MOV       R6,A
        JNC       ??zclGp_SendGpCommissioningNotificationCommand_4
        INC       R7
//  549     
//  550     zcl_memcpy( pBuf, &pCmd->gpdSecCounter, sizeof ( uint32 ) );
??zclGp_SendGpCommissioningNotificationCommand_4:
        ; Setup parameters for call to function osal_memcpy
        MOV       A,?V2
        ADD       A,#0xf
        LCALL     ?Subroutine26 & 0xFFFF
??CrossCallReturnLabel_31:
        LCALL     ?PUSH_XSTACK_I_THREE
          CFI CFA_XSP16 add(XSP16, 35)
        LCALL     ?Subroutine25 & 0xFFFF
??CrossCallReturnLabel_71:
        LCALL     ?DEALLOC_XSTACK8
          CFI CFA_XSP16 add(XSP16, 32)
//  551     pBuf += sizeof ( uint32 );
//  552 
//  553     *pBuf++ = pCmd->cmdId;
        MOV       A,?V2
        ADD       A,#0x13
        MOV       DPL,A
        CLR       A
        ADDC      A,?V3
        LCALL     ?Subroutine7 & 0xFFFF
//  554     
//  555     *pBuf++ = pCmd->payloadLen;
??CrossCallReturnLabel_1:
        JNC       ??zclGp_SendGpCommissioningNotificationCommand_5
        INC       R7
//  556     if ( pCmd->payloadLen > 0 )
??zclGp_SendGpCommissioningNotificationCommand_5:
        MOV       DPL,?V10
        MOV       DPH,?V11
        MOVX      A,@DPTR
        MOV       R1,A
        JZ        ??CrossCallReturnLabel_15
//  557     {
//  558       zcl_memcpy( pBuf, &pCmd->cmdPayload, pCmd->payloadLen );
        ; Setup parameters for call to function osal_memcpy
        MOV       A,?V2
        ADD       A,#0x15
        LCALL     ?Subroutine26 & 0xFFFF
??CrossCallReturnLabel_32:
        LCALL     ?PUSH_XSTACK_I_THREE
          CFI CFA_XSP16 add(XSP16, 35)
        MOV       A,R1
        MOV       R4,A
        LCALL     ??Subroutine40_0 & 0xFFFF
??CrossCallReturnLabel_76:
        LCALL     ?DEALLOC_XSTACK8
          CFI CFA_XSP16 add(XSP16, 32)
//  559       pBuf += pCmd->payloadLen;
        LCALL     ?Subroutine20 & 0xFFFF
//  560     }
//  561     
//  562     zcl_memcpy( pBuf, &pCmd->gppShortAddr, sizeof ( uint16 ) );
??CrossCallReturnLabel_15:
        ; Setup parameters for call to function osal_memcpy
        MOV       A,?V2
        ADD       A,#0x17
        LCALL     ?Subroutine26 & 0xFFFF
??CrossCallReturnLabel_33:
        LCALL     ?PUSH_XSTACK_I_THREE
          CFI CFA_XSP16 add(XSP16, 35)
        MOV       R4,#0x2
        LCALL     ??Subroutine40_0 & 0xFFFF
??CrossCallReturnLabel_77:
        LCALL     ?DEALLOC_XSTACK8
          CFI CFA_XSP16 add(XSP16, 32)
//  563     pBuf += sizeof ( uint16 );
//  564     
//  565     *pBuf++ = pCmd->gppGpdLink;
        MOV       A,?V2
        ADD       A,#0x19
        MOV       DPL,A
        CLR       A
        ADDC      A,?V3
        LCALL     ?Subroutine21 & 0xFFFF
//  566     
//  567     afAddrType_t addr;
//  568     addr.endPoint = GREEN_POWER_INTERNAL_ENDPOINT;
??CrossCallReturnLabel_17:
        MOV       A,#0x9
        LCALL     ?XSTACK_DISP0_8
        LCALL     ?Subroutine17 & 0xFFFF
//  569     addr.panId = _NIB.nwkPanId;
??CrossCallReturnLabel_123:
        MOV       A,#0xa
        LCALL     ?XSTACK_DISP0_8
        LCALL     ?Subroutine22 & 0xFFFF
//  570     addr.addr.shortAddr = gp_commissionerAddress; 
??CrossCallReturnLabel_23:
        MOV       DPTR,#gp_commissionerAddress
        LCALL     ?Subroutine16 & 0xFFFF
??CrossCallReturnLabel_13:
        LCALL     ?Subroutine22 & 0xFFFF
//  571         
//  572     if ( gp_commissionerAddress == 0xFFFF )
??CrossCallReturnLabel_24:
        MOV       DPTR,#gp_commissionerAddress
        MOVX      A,@DPTR
        CPL       A
        JNZ       ??zclGp_SendGpCommissioningNotificationCommand_6
        INC       DPTR
        MOVX      A,@DPTR
        CPL       A
??zclGp_SendGpCommissioningNotificationCommand_6:
        JNZ       ??zclGp_SendGpCommissioningNotificationCommand_7
//  573     {
//  574       addr.addrMode = afAddrBroadcast;
        MOV       A,#0x8
        LCALL     ?XSTACK_DISP0_8
        MOV       A,#0xf
        SJMP      ??zclGp_SendGpCommissioningNotificationCommand_8
//  575     }
//  576     else
//  577     {
//  578       addr.addrMode = afAddr16Bit;
??zclGp_SendGpCommissioningNotificationCommand_7:
        MOV       A,#0x8
        LCALL     ?XSTACK_DISP0_8
        MOV       A,#0x2
??zclGp_SendGpCommissioningNotificationCommand_8:
        MOVX      @DPTR,A
//  579     }
//  580         
//  581     zcl_SendCommand( GREEN_POWER_INTERNAL_ENDPOINT, &addr, ZCL_CLUSTER_ID_GREEN_POWER,
//  582                       COMMAND_GP_COMMISSIONING_NOTIFICATION, TRUE, ZCL_FRAME_CLIENT_SERVER_DIR,
//  583                       TRUE, 0,  bdb_getZCLFrameCounter(), len, buf ); 
        ; Setup parameters for call to function bdb_getZCLFrameCounter
        LCALL     `??bdb_getZCLFrameCounter::?relay`; Banked call to: bdb_getZCLFrameCounter
        MOV       A,R1
        MOV       R1,A
        ; Setup parameters for call to function zcl_SendCommand
        MOV       R0,#?V8
        LCALL     ?PUSH_XSTACK_I_TWO
          CFI CFA_XSP16 add(XSP16, 34)
        MOV       R0,#?V0
        LCALL     ?PUSH_XSTACK_I_TWO
          CFI CFA_XSP16 add(XSP16, 36)
        MOV       A,R1
        MOV       ?V0,A
        MOV       R0,#?V0
        LCALL     ?PUSH_XSTACK_I_ONE
          CFI CFA_XSP16 add(XSP16, 37)
        CLR       A
        MOV       ?V0,A
        MOV       ?V1,A
        MOV       R0,#?V0
        LCALL     ?PUSH_XSTACK_I_TWO
          CFI CFA_XSP16 add(XSP16, 39)
        MOV       ?V0,#0x1
        MOV       R0,#?V0
        LCALL     ?PUSH_XSTACK_I_ONE
          CFI CFA_XSP16 add(XSP16, 40)
        MOV       ?V0,#0x0
        MOV       R0,#?V0
        LCALL     ?PUSH_XSTACK_I_ONE
          CFI CFA_XSP16 add(XSP16, 41)
        MOV       ?V0,#0x1
        MOV       R0,#?V0
        LCALL     ?PUSH_XSTACK_I_ONE
          CFI CFA_XSP16 add(XSP16, 42)
        MOV       ?V0,#0x4
        MOV       R0,#?V0
        LCALL     ?PUSH_XSTACK_I_ONE
          CFI CFA_XSP16 add(XSP16, 43)
        MOV       R4,#0x21
        MOV       R5,#0x0
        MOV       A,#0xb
        LCALL     ?XSTACK_DISP101_8
        MOV       R1,#-0xe
        LCALL     `??zcl_SendCommand::?relay`; Banked call to: zcl_SendCommand
        MOV       A,#0xb
        LCALL     ?DEALLOC_XSTACK8
          CFI CFA_XSP16 add(XSP16, 32)
//  584       
//  585     zcl_mem_free( buf );
        ; Setup parameters for call to function osal_mem_free
        MOV       R2,?V8
        MOV       R3,?V9
        LCALL     `??osal_mem_free::?relay`; Banked call to: osal_mem_free
        SJMP      ??zclGp_SendGpCommissioningNotificationCommand_9
//  586   }
//  587   else
//  588     status = ZMemError;
??zclGp_SendGpCommissioningNotificationCommand_2:
        MOV       ?V7,#0x10
//  589 
//  590   return ( status );
??zclGp_SendGpCommissioningNotificationCommand_9:
        MOV       R1,?V7
        MOV       A,#0xc
        LJMP      ?Subroutine2 & 0xFFFF
//  591 }
          CFI EndBlock cfiBlock49

        RSEG BANKED_CODE:HUGECODE:NOROOT(0)
?Subroutine26:
          CFI Block cfiCond50 Using cfiCommon0
          CFI Function zclGp_SendGpCommissioningNotificationCommand
          CFI Conditional ??CrossCallReturnLabel_30
          CFI R6 load(1, XDATA, add(CFA_XSP16, literal(-20)))
          CFI VB load(1, XDATA, add(CFA_XSP16, literal(-19)))
          CFI V0 load(1, XDATA, add(CFA_XSP16, literal(-18)))
          CFI V1 load(1, XDATA, add(CFA_XSP16, literal(-17)))
          CFI V2 load(1, XDATA, add(CFA_XSP16, literal(-16)))
          CFI V3 load(1, XDATA, add(CFA_XSP16, literal(-15)))
          CFI V4 load(1, XDATA, add(CFA_XSP16, literal(-14)))
          CFI V5 load(1, XDATA, add(CFA_XSP16, literal(-13)))
          CFI V6 load(1, XDATA, add(CFA_XSP16, literal(-12)))
          CFI V7 load(1, XDATA, add(CFA_XSP16, literal(-11)))
          CFI V8 load(1, XDATA, add(CFA_XSP16, literal(-10)))
          CFI V9 load(1, XDATA, add(CFA_XSP16, literal(-9)))
          CFI V10 load(1, XDATA, add(CFA_XSP16, literal(-8)))
          CFI V11 load(1, XDATA, add(CFA_XSP16, literal(-7)))
          CFI R7 load(1, XDATA, add(CFA_XSP16, literal(-6)))
          CFI ?RET_LOW load(1, XDATA, add(CFA_XSP16, literal(-5)))
          CFI ?RET_HIGH load(1, XDATA, add(CFA_XSP16, literal(-4)))
          CFI ?BRET_EXT load(1, XDATA, add(CFA_XSP16, literal(-3)))
          CFI DPL0 load(1, XDATA, add(CFA_XSP16, literal(-2)))
          CFI DPH0 load(1, XDATA, add(CFA_XSP16, literal(-1)))
          CFI CFA_SP SP+-2
          CFI CFA_XSP16 add(XSP16, 32)
          CFI Block cfiCond51 Using cfiCommon0
          CFI (cfiCond51) Function zclGp_SendGpCommissioningNotificationCommand
          CFI (cfiCond51) Conditional ??CrossCallReturnLabel_31
          CFI (cfiCond51) R6 load(1, XDATA, add(CFA_XSP16, literal(-20)))
          CFI (cfiCond51) VB load(1, XDATA, add(CFA_XSP16, literal(-19)))
          CFI (cfiCond51) V0 load(1, XDATA, add(CFA_XSP16, literal(-18)))
          CFI (cfiCond51) V1 load(1, XDATA, add(CFA_XSP16, literal(-17)))
          CFI (cfiCond51) V2 load(1, XDATA, add(CFA_XSP16, literal(-16)))
          CFI (cfiCond51) V3 load(1, XDATA, add(CFA_XSP16, literal(-15)))
          CFI (cfiCond51) V4 load(1, XDATA, add(CFA_XSP16, literal(-14)))
          CFI (cfiCond51) V5 load(1, XDATA, add(CFA_XSP16, literal(-13)))
          CFI (cfiCond51) V6 load(1, XDATA, add(CFA_XSP16, literal(-12)))
          CFI (cfiCond51) V7 load(1, XDATA, add(CFA_XSP16, literal(-11)))
          CFI (cfiCond51) V8 load(1, XDATA, add(CFA_XSP16, literal(-10)))
          CFI (cfiCond51) V9 load(1, XDATA, add(CFA_XSP16, literal(-9)))
          CFI (cfiCond51) V10 load(1, XDATA, add(CFA_XSP16, literal(-8)))
          CFI (cfiCond51) V11 load(1, XDATA, add(CFA_XSP16, literal(-7)))
          CFI (cfiCond51) R7 load(1, XDATA, add(CFA_XSP16, literal(-6)))
          CFI (cfiCond51) ?RET_LOW load(1, XDATA, add(CFA_XSP16, literal(-5)))
          CFI (cfiCond51) ?RET_HIGH load(1, XDATA, add(CFA_XSP16, literal(-4)))
          CFI (cfiCond51) ?BRET_EXT load(1, XDATA, add(CFA_XSP16, literal(-3)))
          CFI (cfiCond51) DPL0 load(1, XDATA, add(CFA_XSP16, literal(-2)))
          CFI (cfiCond51) DPH0 load(1, XDATA, add(CFA_XSP16, literal(-1)))
          CFI (cfiCond51) CFA_SP SP+-2
          CFI (cfiCond51) CFA_XSP16 add(XSP16, 32)
          CFI Block cfiCond52 Using cfiCommon0
          CFI (cfiCond52) Function zclGp_SendGpCommissioningNotificationCommand
          CFI (cfiCond52) Conditional ??CrossCallReturnLabel_32
          CFI (cfiCond52) R6 load(1, XDATA, add(CFA_XSP16, literal(-20)))
          CFI (cfiCond52) VB load(1, XDATA, add(CFA_XSP16, literal(-19)))
          CFI (cfiCond52) V0 load(1, XDATA, add(CFA_XSP16, literal(-18)))
          CFI (cfiCond52) V1 load(1, XDATA, add(CFA_XSP16, literal(-17)))
          CFI (cfiCond52) V2 load(1, XDATA, add(CFA_XSP16, literal(-16)))
          CFI (cfiCond52) V3 load(1, XDATA, add(CFA_XSP16, literal(-15)))
          CFI (cfiCond52) V4 load(1, XDATA, add(CFA_XSP16, literal(-14)))
          CFI (cfiCond52) V5 load(1, XDATA, add(CFA_XSP16, literal(-13)))
          CFI (cfiCond52) V6 load(1, XDATA, add(CFA_XSP16, literal(-12)))
          CFI (cfiCond52) V7 load(1, XDATA, add(CFA_XSP16, literal(-11)))
          CFI (cfiCond52) V8 load(1, XDATA, add(CFA_XSP16, literal(-10)))
          CFI (cfiCond52) V9 load(1, XDATA, add(CFA_XSP16, literal(-9)))
          CFI (cfiCond52) V10 load(1, XDATA, add(CFA_XSP16, literal(-8)))
          CFI (cfiCond52) V11 load(1, XDATA, add(CFA_XSP16, literal(-7)))
          CFI (cfiCond52) R7 load(1, XDATA, add(CFA_XSP16, literal(-6)))
          CFI (cfiCond52) ?RET_LOW load(1, XDATA, add(CFA_XSP16, literal(-5)))
          CFI (cfiCond52) ?RET_HIGH load(1, XDATA, add(CFA_XSP16, literal(-4)))
          CFI (cfiCond52) ?BRET_EXT load(1, XDATA, add(CFA_XSP16, literal(-3)))
          CFI (cfiCond52) DPL0 load(1, XDATA, add(CFA_XSP16, literal(-2)))
          CFI (cfiCond52) DPH0 load(1, XDATA, add(CFA_XSP16, literal(-1)))
          CFI (cfiCond52) CFA_SP SP+-2
          CFI (cfiCond52) CFA_XSP16 add(XSP16, 32)
          CFI Block cfiCond53 Using cfiCommon0
          CFI (cfiCond53) Function zclGp_SendGpCommissioningNotificationCommand
          CFI (cfiCond53) Conditional ??CrossCallReturnLabel_33
          CFI (cfiCond53) R6 load(1, XDATA, add(CFA_XSP16, literal(-20)))
          CFI (cfiCond53) VB load(1, XDATA, add(CFA_XSP16, literal(-19)))
          CFI (cfiCond53) V0 load(1, XDATA, add(CFA_XSP16, literal(-18)))
          CFI (cfiCond53) V1 load(1, XDATA, add(CFA_XSP16, literal(-17)))
          CFI (cfiCond53) V2 load(1, XDATA, add(CFA_XSP16, literal(-16)))
          CFI (cfiCond53) V3 load(1, XDATA, add(CFA_XSP16, literal(-15)))
          CFI (cfiCond53) V4 load(1, XDATA, add(CFA_XSP16, literal(-14)))
          CFI (cfiCond53) V5 load(1, XDATA, add(CFA_XSP16, literal(-13)))
          CFI (cfiCond53) V6 load(1, XDATA, add(CFA_XSP16, literal(-12)))
          CFI (cfiCond53) V7 load(1, XDATA, add(CFA_XSP16, literal(-11)))
          CFI (cfiCond53) V8 load(1, XDATA, add(CFA_XSP16, literal(-10)))
          CFI (cfiCond53) V9 load(1, XDATA, add(CFA_XSP16, literal(-9)))
          CFI (cfiCond53) V10 load(1, XDATA, add(CFA_XSP16, literal(-8)))
          CFI (cfiCond53) V11 load(1, XDATA, add(CFA_XSP16, literal(-7)))
          CFI (cfiCond53) R7 load(1, XDATA, add(CFA_XSP16, literal(-6)))
          CFI (cfiCond53) ?RET_LOW load(1, XDATA, add(CFA_XSP16, literal(-5)))
          CFI (cfiCond53) ?RET_HIGH load(1, XDATA, add(CFA_XSP16, literal(-4)))
          CFI (cfiCond53) ?BRET_EXT load(1, XDATA, add(CFA_XSP16, literal(-3)))
          CFI (cfiCond53) DPL0 load(1, XDATA, add(CFA_XSP16, literal(-2)))
          CFI (cfiCond53) DPH0 load(1, XDATA, add(CFA_XSP16, literal(-1)))
          CFI (cfiCond53) CFA_SP SP+-2
          CFI (cfiCond53) CFA_XSP16 add(XSP16, 32)
          CFI Block cfiPicker54 Using cfiCommon1
          CFI (cfiPicker54) NoFunction
          CFI (cfiPicker54) Picker
        MOV       ?V4,A
        CLR       A
        ADDC      A,?V3
        MOV       ?V5,A
        MOV       R0,#?V4
        RET
          CFI EndBlock cfiCond50
          CFI EndBlock cfiCond51
          CFI EndBlock cfiCond52
          CFI EndBlock cfiCond53
          CFI EndBlock cfiPicker54

        RSEG BANKED_CODE:HUGECODE:NOROOT(0)
?Subroutine25:
          CFI Block cfiCond55 Using cfiCommon0
          CFI Function zclGp_SendGpNotificationCommand
          CFI Conditional ??CrossCallReturnLabel_68
          CFI R6 load(1, XDATA, add(CFA_XSP16, literal(-24)))
          CFI VB load(1, XDATA, add(CFA_XSP16, literal(-23)))
          CFI V0 load(1, XDATA, add(CFA_XSP16, literal(-22)))
          CFI V1 load(1, XDATA, add(CFA_XSP16, literal(-21)))
          CFI V2 load(1, XDATA, add(CFA_XSP16, literal(-20)))
          CFI V3 load(1, XDATA, add(CFA_XSP16, literal(-19)))
          CFI V4 load(1, XDATA, add(CFA_XSP16, literal(-18)))
          CFI V5 load(1, XDATA, add(CFA_XSP16, literal(-17)))
          CFI V6 load(1, XDATA, add(CFA_XSP16, literal(-16)))
          CFI V7 load(1, XDATA, add(CFA_XSP16, literal(-15)))
          CFI V8 load(1, XDATA, add(CFA_XSP16, literal(-14)))
          CFI V9 load(1, XDATA, add(CFA_XSP16, literal(-13)))
          CFI V10 load(1, XDATA, add(CFA_XSP16, literal(-12)))
          CFI V11 load(1, XDATA, add(CFA_XSP16, literal(-11)))
          CFI V12 load(1, XDATA, add(CFA_XSP16, literal(-10)))
          CFI V13 load(1, XDATA, add(CFA_XSP16, literal(-9)))
          CFI V14 load(1, XDATA, add(CFA_XSP16, literal(-8)))
          CFI V15 load(1, XDATA, add(CFA_XSP16, literal(-7)))
          CFI R7 load(1, XDATA, add(CFA_XSP16, literal(-6)))
          CFI ?RET_LOW load(1, XDATA, add(CFA_XSP16, literal(-5)))
          CFI ?RET_HIGH load(1, XDATA, add(CFA_XSP16, literal(-4)))
          CFI ?BRET_EXT load(1, XDATA, add(CFA_XSP16, literal(-3)))
          CFI DPL0 load(1, XDATA, add(CFA_XSP16, literal(-2)))
          CFI DPH0 load(1, XDATA, add(CFA_XSP16, literal(-1)))
          CFI CFA_SP SP+-2
          CFI CFA_XSP16 add(XSP16, 27)
          CFI Block cfiCond56 Using cfiCommon0
          CFI (cfiCond56) Function zclGp_SendGpNotificationCommand
          CFI (cfiCond56) Conditional ??CrossCallReturnLabel_69
          CFI (cfiCond56) R6 load(1, XDATA, add(CFA_XSP16, literal(-24)))
          CFI (cfiCond56) VB load(1, XDATA, add(CFA_XSP16, literal(-23)))
          CFI (cfiCond56) V0 load(1, XDATA, add(CFA_XSP16, literal(-22)))
          CFI (cfiCond56) V1 load(1, XDATA, add(CFA_XSP16, literal(-21)))
          CFI (cfiCond56) V2 load(1, XDATA, add(CFA_XSP16, literal(-20)))
          CFI (cfiCond56) V3 load(1, XDATA, add(CFA_XSP16, literal(-19)))
          CFI (cfiCond56) V4 load(1, XDATA, add(CFA_XSP16, literal(-18)))
          CFI (cfiCond56) V5 load(1, XDATA, add(CFA_XSP16, literal(-17)))
          CFI (cfiCond56) V6 load(1, XDATA, add(CFA_XSP16, literal(-16)))
          CFI (cfiCond56) V7 load(1, XDATA, add(CFA_XSP16, literal(-15)))
          CFI (cfiCond56) V8 load(1, XDATA, add(CFA_XSP16, literal(-14)))
          CFI (cfiCond56) V9 load(1, XDATA, add(CFA_XSP16, literal(-13)))
          CFI (cfiCond56) V10 load(1, XDATA, add(CFA_XSP16, literal(-12)))
          CFI (cfiCond56) V11 load(1, XDATA, add(CFA_XSP16, literal(-11)))
          CFI (cfiCond56) V12 load(1, XDATA, add(CFA_XSP16, literal(-10)))
          CFI (cfiCond56) V13 load(1, XDATA, add(CFA_XSP16, literal(-9)))
          CFI (cfiCond56) V14 load(1, XDATA, add(CFA_XSP16, literal(-8)))
          CFI (cfiCond56) V15 load(1, XDATA, add(CFA_XSP16, literal(-7)))
          CFI (cfiCond56) R7 load(1, XDATA, add(CFA_XSP16, literal(-6)))
          CFI (cfiCond56) ?RET_LOW load(1, XDATA, add(CFA_XSP16, literal(-5)))
          CFI (cfiCond56) ?RET_HIGH load(1, XDATA, add(CFA_XSP16, literal(-4)))
          CFI (cfiCond56) ?BRET_EXT load(1, XDATA, add(CFA_XSP16, literal(-3)))
          CFI (cfiCond56) DPL0 load(1, XDATA, add(CFA_XSP16, literal(-2)))
          CFI (cfiCond56) DPH0 load(1, XDATA, add(CFA_XSP16, literal(-1)))
          CFI (cfiCond56) CFA_SP SP+-2
          CFI (cfiCond56) CFA_XSP16 add(XSP16, 27)
          CFI Block cfiCond57 Using cfiCommon0
          CFI (cfiCond57) Function zclGp_SendGpCommissioningNotificationCommand
          CFI (cfiCond57) Conditional ??CrossCallReturnLabel_70
          CFI (cfiCond57) R6 load(1, XDATA, add(CFA_XSP16, literal(-20)))
          CFI (cfiCond57) VB load(1, XDATA, add(CFA_XSP16, literal(-19)))
          CFI (cfiCond57) V0 load(1, XDATA, add(CFA_XSP16, literal(-18)))
          CFI (cfiCond57) V1 load(1, XDATA, add(CFA_XSP16, literal(-17)))
          CFI (cfiCond57) V2 load(1, XDATA, add(CFA_XSP16, literal(-16)))
          CFI (cfiCond57) V3 load(1, XDATA, add(CFA_XSP16, literal(-15)))
          CFI (cfiCond57) V4 load(1, XDATA, add(CFA_XSP16, literal(-14)))
          CFI (cfiCond57) V5 load(1, XDATA, add(CFA_XSP16, literal(-13)))
          CFI (cfiCond57) V6 load(1, XDATA, add(CFA_XSP16, literal(-12)))
          CFI (cfiCond57) V7 load(1, XDATA, add(CFA_XSP16, literal(-11)))
          CFI (cfiCond57) V8 load(1, XDATA, add(CFA_XSP16, literal(-10)))
          CFI (cfiCond57) V9 load(1, XDATA, add(CFA_XSP16, literal(-9)))
          CFI (cfiCond57) V10 load(1, XDATA, add(CFA_XSP16, literal(-8)))
          CFI (cfiCond57) V11 load(1, XDATA, add(CFA_XSP16, literal(-7)))
          CFI (cfiCond57) R7 load(1, XDATA, add(CFA_XSP16, literal(-6)))
          CFI (cfiCond57) ?RET_LOW load(1, XDATA, add(CFA_XSP16, literal(-5)))
          CFI (cfiCond57) ?RET_HIGH load(1, XDATA, add(CFA_XSP16, literal(-4)))
          CFI (cfiCond57) ?BRET_EXT load(1, XDATA, add(CFA_XSP16, literal(-3)))
          CFI (cfiCond57) DPL0 load(1, XDATA, add(CFA_XSP16, literal(-2)))
          CFI (cfiCond57) DPH0 load(1, XDATA, add(CFA_XSP16, literal(-1)))
          CFI (cfiCond57) CFA_SP SP+-2
          CFI (cfiCond57) CFA_XSP16 add(XSP16, 35)
          CFI Block cfiCond58 Using cfiCommon0
          CFI (cfiCond58) Function zclGp_SendGpCommissioningNotificationCommand
          CFI (cfiCond58) Conditional ??CrossCallReturnLabel_71
          CFI (cfiCond58) R6 load(1, XDATA, add(CFA_XSP16, literal(-20)))
          CFI (cfiCond58) VB load(1, XDATA, add(CFA_XSP16, literal(-19)))
          CFI (cfiCond58) V0 load(1, XDATA, add(CFA_XSP16, literal(-18)))
          CFI (cfiCond58) V1 load(1, XDATA, add(CFA_XSP16, literal(-17)))
          CFI (cfiCond58) V2 load(1, XDATA, add(CFA_XSP16, literal(-16)))
          CFI (cfiCond58) V3 load(1, XDATA, add(CFA_XSP16, literal(-15)))
          CFI (cfiCond58) V4 load(1, XDATA, add(CFA_XSP16, literal(-14)))
          CFI (cfiCond58) V5 load(1, XDATA, add(CFA_XSP16, literal(-13)))
          CFI (cfiCond58) V6 load(1, XDATA, add(CFA_XSP16, literal(-12)))
          CFI (cfiCond58) V7 load(1, XDATA, add(CFA_XSP16, literal(-11)))
          CFI (cfiCond58) V8 load(1, XDATA, add(CFA_XSP16, literal(-10)))
          CFI (cfiCond58) V9 load(1, XDATA, add(CFA_XSP16, literal(-9)))
          CFI (cfiCond58) V10 load(1, XDATA, add(CFA_XSP16, literal(-8)))
          CFI (cfiCond58) V11 load(1, XDATA, add(CFA_XSP16, literal(-7)))
          CFI (cfiCond58) R7 load(1, XDATA, add(CFA_XSP16, literal(-6)))
          CFI (cfiCond58) ?RET_LOW load(1, XDATA, add(CFA_XSP16, literal(-5)))
          CFI (cfiCond58) ?RET_HIGH load(1, XDATA, add(CFA_XSP16, literal(-4)))
          CFI (cfiCond58) ?BRET_EXT load(1, XDATA, add(CFA_XSP16, literal(-3)))
          CFI (cfiCond58) DPL0 load(1, XDATA, add(CFA_XSP16, literal(-2)))
          CFI (cfiCond58) DPH0 load(1, XDATA, add(CFA_XSP16, literal(-1)))
          CFI (cfiCond58) CFA_SP SP+-2
          CFI (cfiCond58) CFA_XSP16 add(XSP16, 35)
          CFI Block cfiPicker59 Using cfiCommon1
          CFI (cfiPicker59) NoFunction
          CFI (cfiPicker59) Picker
        MOV       R4,#0x4
          CFI EndBlock cfiCond55
          CFI EndBlock cfiCond56
          CFI EndBlock cfiCond57
          CFI EndBlock cfiCond58
          CFI EndBlock cfiPicker59
        REQUIRE ??Subroutine40_0
        ; // Fall through to label ??Subroutine40_0

        RSEG BANKED_CODE:HUGECODE:NOROOT(0)
??Subroutine40_0:
          CFI Block cfiCond60 Using cfiCommon0
          CFI Function zclGp_SendGpNotificationCommand
          CFI Conditional ??CrossCallReturnLabel_72
          CFI R6 load(1, XDATA, add(CFA_XSP16, literal(-24)))
          CFI VB load(1, XDATA, add(CFA_XSP16, literal(-23)))
          CFI V0 load(1, XDATA, add(CFA_XSP16, literal(-22)))
          CFI V1 load(1, XDATA, add(CFA_XSP16, literal(-21)))
          CFI V2 load(1, XDATA, add(CFA_XSP16, literal(-20)))
          CFI V3 load(1, XDATA, add(CFA_XSP16, literal(-19)))
          CFI V4 load(1, XDATA, add(CFA_XSP16, literal(-18)))
          CFI V5 load(1, XDATA, add(CFA_XSP16, literal(-17)))
          CFI V6 load(1, XDATA, add(CFA_XSP16, literal(-16)))
          CFI V7 load(1, XDATA, add(CFA_XSP16, literal(-15)))
          CFI V8 load(1, XDATA, add(CFA_XSP16, literal(-14)))
          CFI V9 load(1, XDATA, add(CFA_XSP16, literal(-13)))
          CFI V10 load(1, XDATA, add(CFA_XSP16, literal(-12)))
          CFI V11 load(1, XDATA, add(CFA_XSP16, literal(-11)))
          CFI V12 load(1, XDATA, add(CFA_XSP16, literal(-10)))
          CFI V13 load(1, XDATA, add(CFA_XSP16, literal(-9)))
          CFI V14 load(1, XDATA, add(CFA_XSP16, literal(-8)))
          CFI V15 load(1, XDATA, add(CFA_XSP16, literal(-7)))
          CFI R7 load(1, XDATA, add(CFA_XSP16, literal(-6)))
          CFI ?RET_LOW load(1, XDATA, add(CFA_XSP16, literal(-5)))
          CFI ?RET_HIGH load(1, XDATA, add(CFA_XSP16, literal(-4)))
          CFI ?BRET_EXT load(1, XDATA, add(CFA_XSP16, literal(-3)))
          CFI DPL0 load(1, XDATA, add(CFA_XSP16, literal(-2)))
          CFI DPH0 load(1, XDATA, add(CFA_XSP16, literal(-1)))
          CFI CFA_SP SP+-2
          CFI CFA_XSP16 add(XSP16, 27)
          CFI Block cfiCond61 Using cfiCommon0
          CFI (cfiCond61) Function zclGp_SendGpNotificationCommand
          CFI (cfiCond61) Conditional ??CrossCallReturnLabel_73
          CFI (cfiCond61) R6 load(1, XDATA, add(CFA_XSP16, literal(-24)))
          CFI (cfiCond61) VB load(1, XDATA, add(CFA_XSP16, literal(-23)))
          CFI (cfiCond61) V0 load(1, XDATA, add(CFA_XSP16, literal(-22)))
          CFI (cfiCond61) V1 load(1, XDATA, add(CFA_XSP16, literal(-21)))
          CFI (cfiCond61) V2 load(1, XDATA, add(CFA_XSP16, literal(-20)))
          CFI (cfiCond61) V3 load(1, XDATA, add(CFA_XSP16, literal(-19)))
          CFI (cfiCond61) V4 load(1, XDATA, add(CFA_XSP16, literal(-18)))
          CFI (cfiCond61) V5 load(1, XDATA, add(CFA_XSP16, literal(-17)))
          CFI (cfiCond61) V6 load(1, XDATA, add(CFA_XSP16, literal(-16)))
          CFI (cfiCond61) V7 load(1, XDATA, add(CFA_XSP16, literal(-15)))
          CFI (cfiCond61) V8 load(1, XDATA, add(CFA_XSP16, literal(-14)))
          CFI (cfiCond61) V9 load(1, XDATA, add(CFA_XSP16, literal(-13)))
          CFI (cfiCond61) V10 load(1, XDATA, add(CFA_XSP16, literal(-12)))
          CFI (cfiCond61) V11 load(1, XDATA, add(CFA_XSP16, literal(-11)))
          CFI (cfiCond61) V12 load(1, XDATA, add(CFA_XSP16, literal(-10)))
          CFI (cfiCond61) V13 load(1, XDATA, add(CFA_XSP16, literal(-9)))
          CFI (cfiCond61) V14 load(1, XDATA, add(CFA_XSP16, literal(-8)))
          CFI (cfiCond61) V15 load(1, XDATA, add(CFA_XSP16, literal(-7)))
          CFI (cfiCond61) R7 load(1, XDATA, add(CFA_XSP16, literal(-6)))
          CFI (cfiCond61) ?RET_LOW load(1, XDATA, add(CFA_XSP16, literal(-5)))
          CFI (cfiCond61) ?RET_HIGH load(1, XDATA, add(CFA_XSP16, literal(-4)))
          CFI (cfiCond61) ?BRET_EXT load(1, XDATA, add(CFA_XSP16, literal(-3)))
          CFI (cfiCond61) DPL0 load(1, XDATA, add(CFA_XSP16, literal(-2)))
          CFI (cfiCond61) DPH0 load(1, XDATA, add(CFA_XSP16, literal(-1)))
          CFI (cfiCond61) CFA_SP SP+-2
          CFI (cfiCond61) CFA_XSP16 add(XSP16, 27)
          CFI Block cfiCond62 Using cfiCommon0
          CFI (cfiCond62) Function zclGp_SendGpNotificationCommand
          CFI (cfiCond62) Conditional ??CrossCallReturnLabel_74
          CFI (cfiCond62) R6 load(1, XDATA, add(CFA_XSP16, literal(-24)))
          CFI (cfiCond62) VB load(1, XDATA, add(CFA_XSP16, literal(-23)))
          CFI (cfiCond62) V0 load(1, XDATA, add(CFA_XSP16, literal(-22)))
          CFI (cfiCond62) V1 load(1, XDATA, add(CFA_XSP16, literal(-21)))
          CFI (cfiCond62) V2 load(1, XDATA, add(CFA_XSP16, literal(-20)))
          CFI (cfiCond62) V3 load(1, XDATA, add(CFA_XSP16, literal(-19)))
          CFI (cfiCond62) V4 load(1, XDATA, add(CFA_XSP16, literal(-18)))
          CFI (cfiCond62) V5 load(1, XDATA, add(CFA_XSP16, literal(-17)))
          CFI (cfiCond62) V6 load(1, XDATA, add(CFA_XSP16, literal(-16)))
          CFI (cfiCond62) V7 load(1, XDATA, add(CFA_XSP16, literal(-15)))
          CFI (cfiCond62) V8 load(1, XDATA, add(CFA_XSP16, literal(-14)))
          CFI (cfiCond62) V9 load(1, XDATA, add(CFA_XSP16, literal(-13)))
          CFI (cfiCond62) V10 load(1, XDATA, add(CFA_XSP16, literal(-12)))
          CFI (cfiCond62) V11 load(1, XDATA, add(CFA_XSP16, literal(-11)))
          CFI (cfiCond62) V12 load(1, XDATA, add(CFA_XSP16, literal(-10)))
          CFI (cfiCond62) V13 load(1, XDATA, add(CFA_XSP16, literal(-9)))
          CFI (cfiCond62) V14 load(1, XDATA, add(CFA_XSP16, literal(-8)))
          CFI (cfiCond62) V15 load(1, XDATA, add(CFA_XSP16, literal(-7)))
          CFI (cfiCond62) R7 load(1, XDATA, add(CFA_XSP16, literal(-6)))
          CFI (cfiCond62) ?RET_LOW load(1, XDATA, add(CFA_XSP16, literal(-5)))
          CFI (cfiCond62) ?RET_HIGH load(1, XDATA, add(CFA_XSP16, literal(-4)))
          CFI (cfiCond62) ?BRET_EXT load(1, XDATA, add(CFA_XSP16, literal(-3)))
          CFI (cfiCond62) DPL0 load(1, XDATA, add(CFA_XSP16, literal(-2)))
          CFI (cfiCond62) DPH0 load(1, XDATA, add(CFA_XSP16, literal(-1)))
          CFI (cfiCond62) CFA_SP SP+-2
          CFI (cfiCond62) CFA_XSP16 add(XSP16, 27)
          CFI Block cfiCond63 Using cfiCommon0
          CFI (cfiCond63) Function zclGp_SendGpCommissioningNotificationCommand
          CFI (cfiCond63) Conditional ??CrossCallReturnLabel_75
          CFI (cfiCond63) R6 load(1, XDATA, add(CFA_XSP16, literal(-20)))
          CFI (cfiCond63) VB load(1, XDATA, add(CFA_XSP16, literal(-19)))
          CFI (cfiCond63) V0 load(1, XDATA, add(CFA_XSP16, literal(-18)))
          CFI (cfiCond63) V1 load(1, XDATA, add(CFA_XSP16, literal(-17)))
          CFI (cfiCond63) V2 load(1, XDATA, add(CFA_XSP16, literal(-16)))
          CFI (cfiCond63) V3 load(1, XDATA, add(CFA_XSP16, literal(-15)))
          CFI (cfiCond63) V4 load(1, XDATA, add(CFA_XSP16, literal(-14)))
          CFI (cfiCond63) V5 load(1, XDATA, add(CFA_XSP16, literal(-13)))
          CFI (cfiCond63) V6 load(1, XDATA, add(CFA_XSP16, literal(-12)))
          CFI (cfiCond63) V7 load(1, XDATA, add(CFA_XSP16, literal(-11)))
          CFI (cfiCond63) V8 load(1, XDATA, add(CFA_XSP16, literal(-10)))
          CFI (cfiCond63) V9 load(1, XDATA, add(CFA_XSP16, literal(-9)))
          CFI (cfiCond63) V10 load(1, XDATA, add(CFA_XSP16, literal(-8)))
          CFI (cfiCond63) V11 load(1, XDATA, add(CFA_XSP16, literal(-7)))
          CFI (cfiCond63) R7 load(1, XDATA, add(CFA_XSP16, literal(-6)))
          CFI (cfiCond63) ?RET_LOW load(1, XDATA, add(CFA_XSP16, literal(-5)))
          CFI (cfiCond63) ?RET_HIGH load(1, XDATA, add(CFA_XSP16, literal(-4)))
          CFI (cfiCond63) ?BRET_EXT load(1, XDATA, add(CFA_XSP16, literal(-3)))
          CFI (cfiCond63) DPL0 load(1, XDATA, add(CFA_XSP16, literal(-2)))
          CFI (cfiCond63) DPH0 load(1, XDATA, add(CFA_XSP16, literal(-1)))
          CFI (cfiCond63) CFA_SP SP+-2
          CFI (cfiCond63) CFA_XSP16 add(XSP16, 35)
          CFI Block cfiCond64 Using cfiCommon0
          CFI (cfiCond64) Function zclGp_SendGpCommissioningNotificationCommand
          CFI (cfiCond64) Conditional ??CrossCallReturnLabel_76
          CFI (cfiCond64) R6 load(1, XDATA, add(CFA_XSP16, literal(-20)))
          CFI (cfiCond64) VB load(1, XDATA, add(CFA_XSP16, literal(-19)))
          CFI (cfiCond64) V0 load(1, XDATA, add(CFA_XSP16, literal(-18)))
          CFI (cfiCond64) V1 load(1, XDATA, add(CFA_XSP16, literal(-17)))
          CFI (cfiCond64) V2 load(1, XDATA, add(CFA_XSP16, literal(-16)))
          CFI (cfiCond64) V3 load(1, XDATA, add(CFA_XSP16, literal(-15)))
          CFI (cfiCond64) V4 load(1, XDATA, add(CFA_XSP16, literal(-14)))
          CFI (cfiCond64) V5 load(1, XDATA, add(CFA_XSP16, literal(-13)))
          CFI (cfiCond64) V6 load(1, XDATA, add(CFA_XSP16, literal(-12)))
          CFI (cfiCond64) V7 load(1, XDATA, add(CFA_XSP16, literal(-11)))
          CFI (cfiCond64) V8 load(1, XDATA, add(CFA_XSP16, literal(-10)))
          CFI (cfiCond64) V9 load(1, XDATA, add(CFA_XSP16, literal(-9)))
          CFI (cfiCond64) V10 load(1, XDATA, add(CFA_XSP16, literal(-8)))
          CFI (cfiCond64) V11 load(1, XDATA, add(CFA_XSP16, literal(-7)))
          CFI (cfiCond64) R7 load(1, XDATA, add(CFA_XSP16, literal(-6)))
          CFI (cfiCond64) ?RET_LOW load(1, XDATA, add(CFA_XSP16, literal(-5)))
          CFI (cfiCond64) ?RET_HIGH load(1, XDATA, add(CFA_XSP16, literal(-4)))
          CFI (cfiCond64) ?BRET_EXT load(1, XDATA, add(CFA_XSP16, literal(-3)))
          CFI (cfiCond64) DPL0 load(1, XDATA, add(CFA_XSP16, literal(-2)))
          CFI (cfiCond64) DPH0 load(1, XDATA, add(CFA_XSP16, literal(-1)))
          CFI (cfiCond64) CFA_SP SP+-2
          CFI (cfiCond64) CFA_XSP16 add(XSP16, 35)
          CFI Block cfiCond65 Using cfiCommon0
          CFI (cfiCond65) Function zclGp_SendGpCommissioningNotificationCommand
          CFI (cfiCond65) Conditional ??CrossCallReturnLabel_77
          CFI (cfiCond65) R6 load(1, XDATA, add(CFA_XSP16, literal(-20)))
          CFI (cfiCond65) VB load(1, XDATA, add(CFA_XSP16, literal(-19)))
          CFI (cfiCond65) V0 load(1, XDATA, add(CFA_XSP16, literal(-18)))
          CFI (cfiCond65) V1 load(1, XDATA, add(CFA_XSP16, literal(-17)))
          CFI (cfiCond65) V2 load(1, XDATA, add(CFA_XSP16, literal(-16)))
          CFI (cfiCond65) V3 load(1, XDATA, add(CFA_XSP16, literal(-15)))
          CFI (cfiCond65) V4 load(1, XDATA, add(CFA_XSP16, literal(-14)))
          CFI (cfiCond65) V5 load(1, XDATA, add(CFA_XSP16, literal(-13)))
          CFI (cfiCond65) V6 load(1, XDATA, add(CFA_XSP16, literal(-12)))
          CFI (cfiCond65) V7 load(1, XDATA, add(CFA_XSP16, literal(-11)))
          CFI (cfiCond65) V8 load(1, XDATA, add(CFA_XSP16, literal(-10)))
          CFI (cfiCond65) V9 load(1, XDATA, add(CFA_XSP16, literal(-9)))
          CFI (cfiCond65) V10 load(1, XDATA, add(CFA_XSP16, literal(-8)))
          CFI (cfiCond65) V11 load(1, XDATA, add(CFA_XSP16, literal(-7)))
          CFI (cfiCond65) R7 load(1, XDATA, add(CFA_XSP16, literal(-6)))
          CFI (cfiCond65) ?RET_LOW load(1, XDATA, add(CFA_XSP16, literal(-5)))
          CFI (cfiCond65) ?RET_HIGH load(1, XDATA, add(CFA_XSP16, literal(-4)))
          CFI (cfiCond65) ?BRET_EXT load(1, XDATA, add(CFA_XSP16, literal(-3)))
          CFI (cfiCond65) DPL0 load(1, XDATA, add(CFA_XSP16, literal(-2)))
          CFI (cfiCond65) DPH0 load(1, XDATA, add(CFA_XSP16, literal(-1)))
          CFI (cfiCond65) CFA_SP SP+-2
          CFI (cfiCond65) CFA_XSP16 add(XSP16, 35)
          CFI Block cfiCond66 Using cfiCommon0
          CFI (cfiCond66) Function zclGp_SendGpNotificationCommand
          CFI (cfiCond66) Conditional ??CrossCallReturnLabel_68
          CFI (cfiCond66) R6 load(1, XDATA, add(CFA_XSP16, literal(-24)))
          CFI (cfiCond66) VB load(1, XDATA, add(CFA_XSP16, literal(-23)))
          CFI (cfiCond66) V0 load(1, XDATA, add(CFA_XSP16, literal(-22)))
          CFI (cfiCond66) V1 load(1, XDATA, add(CFA_XSP16, literal(-21)))
          CFI (cfiCond66) V2 load(1, XDATA, add(CFA_XSP16, literal(-20)))
          CFI (cfiCond66) V3 load(1, XDATA, add(CFA_XSP16, literal(-19)))
          CFI (cfiCond66) V4 load(1, XDATA, add(CFA_XSP16, literal(-18)))
          CFI (cfiCond66) V5 load(1, XDATA, add(CFA_XSP16, literal(-17)))
          CFI (cfiCond66) V6 load(1, XDATA, add(CFA_XSP16, literal(-16)))
          CFI (cfiCond66) V7 load(1, XDATA, add(CFA_XSP16, literal(-15)))
          CFI (cfiCond66) V8 load(1, XDATA, add(CFA_XSP16, literal(-14)))
          CFI (cfiCond66) V9 load(1, XDATA, add(CFA_XSP16, literal(-13)))
          CFI (cfiCond66) V10 load(1, XDATA, add(CFA_XSP16, literal(-12)))
          CFI (cfiCond66) V11 load(1, XDATA, add(CFA_XSP16, literal(-11)))
          CFI (cfiCond66) V12 load(1, XDATA, add(CFA_XSP16, literal(-10)))
          CFI (cfiCond66) V13 load(1, XDATA, add(CFA_XSP16, literal(-9)))
          CFI (cfiCond66) V14 load(1, XDATA, add(CFA_XSP16, literal(-8)))
          CFI (cfiCond66) V15 load(1, XDATA, add(CFA_XSP16, literal(-7)))
          CFI (cfiCond66) R7 load(1, XDATA, add(CFA_XSP16, literal(-6)))
          CFI (cfiCond66) ?RET_LOW load(1, XDATA, add(CFA_XSP16, literal(-5)))
          CFI (cfiCond66) ?RET_HIGH load(1, XDATA, add(CFA_XSP16, literal(-4)))
          CFI (cfiCond66) ?BRET_EXT load(1, XDATA, add(CFA_XSP16, literal(-3)))
          CFI (cfiCond66) DPL0 load(1, XDATA, add(CFA_XSP16, literal(-2)))
          CFI (cfiCond66) DPH0 load(1, XDATA, add(CFA_XSP16, literal(-1)))
          CFI (cfiCond66) CFA_SP SP+-2
          CFI (cfiCond66) CFA_XSP16 add(XSP16, 27)
          CFI Block cfiCond67 Using cfiCommon0
          CFI (cfiCond67) Function zclGp_SendGpNotificationCommand
          CFI (cfiCond67) Conditional ??CrossCallReturnLabel_69
          CFI (cfiCond67) R6 load(1, XDATA, add(CFA_XSP16, literal(-24)))
          CFI (cfiCond67) VB load(1, XDATA, add(CFA_XSP16, literal(-23)))
          CFI (cfiCond67) V0 load(1, XDATA, add(CFA_XSP16, literal(-22)))
          CFI (cfiCond67) V1 load(1, XDATA, add(CFA_XSP16, literal(-21)))
          CFI (cfiCond67) V2 load(1, XDATA, add(CFA_XSP16, literal(-20)))
          CFI (cfiCond67) V3 load(1, XDATA, add(CFA_XSP16, literal(-19)))
          CFI (cfiCond67) V4 load(1, XDATA, add(CFA_XSP16, literal(-18)))
          CFI (cfiCond67) V5 load(1, XDATA, add(CFA_XSP16, literal(-17)))
          CFI (cfiCond67) V6 load(1, XDATA, add(CFA_XSP16, literal(-16)))
          CFI (cfiCond67) V7 load(1, XDATA, add(CFA_XSP16, literal(-15)))
          CFI (cfiCond67) V8 load(1, XDATA, add(CFA_XSP16, literal(-14)))
          CFI (cfiCond67) V9 load(1, XDATA, add(CFA_XSP16, literal(-13)))
          CFI (cfiCond67) V10 load(1, XDATA, add(CFA_XSP16, literal(-12)))
          CFI (cfiCond67) V11 load(1, XDATA, add(CFA_XSP16, literal(-11)))
          CFI (cfiCond67) V12 load(1, XDATA, add(CFA_XSP16, literal(-10)))
          CFI (cfiCond67) V13 load(1, XDATA, add(CFA_XSP16, literal(-9)))
          CFI (cfiCond67) V14 load(1, XDATA, add(CFA_XSP16, literal(-8)))
          CFI (cfiCond67) V15 load(1, XDATA, add(CFA_XSP16, literal(-7)))
          CFI (cfiCond67) R7 load(1, XDATA, add(CFA_XSP16, literal(-6)))
          CFI (cfiCond67) ?RET_LOW load(1, XDATA, add(CFA_XSP16, literal(-5)))
          CFI (cfiCond67) ?RET_HIGH load(1, XDATA, add(CFA_XSP16, literal(-4)))
          CFI (cfiCond67) ?BRET_EXT load(1, XDATA, add(CFA_XSP16, literal(-3)))
          CFI (cfiCond67) DPL0 load(1, XDATA, add(CFA_XSP16, literal(-2)))
          CFI (cfiCond67) DPH0 load(1, XDATA, add(CFA_XSP16, literal(-1)))
          CFI (cfiCond67) CFA_SP SP+-2
          CFI (cfiCond67) CFA_XSP16 add(XSP16, 27)
          CFI Block cfiCond68 Using cfiCommon0
          CFI (cfiCond68) Function zclGp_SendGpCommissioningNotificationCommand
          CFI (cfiCond68) Conditional ??CrossCallReturnLabel_70
          CFI (cfiCond68) R6 load(1, XDATA, add(CFA_XSP16, literal(-20)))
          CFI (cfiCond68) VB load(1, XDATA, add(CFA_XSP16, literal(-19)))
          CFI (cfiCond68) V0 load(1, XDATA, add(CFA_XSP16, literal(-18)))
          CFI (cfiCond68) V1 load(1, XDATA, add(CFA_XSP16, literal(-17)))
          CFI (cfiCond68) V2 load(1, XDATA, add(CFA_XSP16, literal(-16)))
          CFI (cfiCond68) V3 load(1, XDATA, add(CFA_XSP16, literal(-15)))
          CFI (cfiCond68) V4 load(1, XDATA, add(CFA_XSP16, literal(-14)))
          CFI (cfiCond68) V5 load(1, XDATA, add(CFA_XSP16, literal(-13)))
          CFI (cfiCond68) V6 load(1, XDATA, add(CFA_XSP16, literal(-12)))
          CFI (cfiCond68) V7 load(1, XDATA, add(CFA_XSP16, literal(-11)))
          CFI (cfiCond68) V8 load(1, XDATA, add(CFA_XSP16, literal(-10)))
          CFI (cfiCond68) V9 load(1, XDATA, add(CFA_XSP16, literal(-9)))
          CFI (cfiCond68) V10 load(1, XDATA, add(CFA_XSP16, literal(-8)))
          CFI (cfiCond68) V11 load(1, XDATA, add(CFA_XSP16, literal(-7)))
          CFI (cfiCond68) R7 load(1, XDATA, add(CFA_XSP16, literal(-6)))
          CFI (cfiCond68) ?RET_LOW load(1, XDATA, add(CFA_XSP16, literal(-5)))
          CFI (cfiCond68) ?RET_HIGH load(1, XDATA, add(CFA_XSP16, literal(-4)))
          CFI (cfiCond68) ?BRET_EXT load(1, XDATA, add(CFA_XSP16, literal(-3)))
          CFI (cfiCond68) DPL0 load(1, XDATA, add(CFA_XSP16, literal(-2)))
          CFI (cfiCond68) DPH0 load(1, XDATA, add(CFA_XSP16, literal(-1)))
          CFI (cfiCond68) CFA_SP SP+-2
          CFI (cfiCond68) CFA_XSP16 add(XSP16, 35)
          CFI Block cfiCond69 Using cfiCommon0
          CFI (cfiCond69) Function zclGp_SendGpCommissioningNotificationCommand
          CFI (cfiCond69) Conditional ??CrossCallReturnLabel_71
          CFI (cfiCond69) R6 load(1, XDATA, add(CFA_XSP16, literal(-20)))
          CFI (cfiCond69) VB load(1, XDATA, add(CFA_XSP16, literal(-19)))
          CFI (cfiCond69) V0 load(1, XDATA, add(CFA_XSP16, literal(-18)))
          CFI (cfiCond69) V1 load(1, XDATA, add(CFA_XSP16, literal(-17)))
          CFI (cfiCond69) V2 load(1, XDATA, add(CFA_XSP16, literal(-16)))
          CFI (cfiCond69) V3 load(1, XDATA, add(CFA_XSP16, literal(-15)))
          CFI (cfiCond69) V4 load(1, XDATA, add(CFA_XSP16, literal(-14)))
          CFI (cfiCond69) V5 load(1, XDATA, add(CFA_XSP16, literal(-13)))
          CFI (cfiCond69) V6 load(1, XDATA, add(CFA_XSP16, literal(-12)))
          CFI (cfiCond69) V7 load(1, XDATA, add(CFA_XSP16, literal(-11)))
          CFI (cfiCond69) V8 load(1, XDATA, add(CFA_XSP16, literal(-10)))
          CFI (cfiCond69) V9 load(1, XDATA, add(CFA_XSP16, literal(-9)))
          CFI (cfiCond69) V10 load(1, XDATA, add(CFA_XSP16, literal(-8)))
          CFI (cfiCond69) V11 load(1, XDATA, add(CFA_XSP16, literal(-7)))
          CFI (cfiCond69) R7 load(1, XDATA, add(CFA_XSP16, literal(-6)))
          CFI (cfiCond69) ?RET_LOW load(1, XDATA, add(CFA_XSP16, literal(-5)))
          CFI (cfiCond69) ?RET_HIGH load(1, XDATA, add(CFA_XSP16, literal(-4)))
          CFI (cfiCond69) ?BRET_EXT load(1, XDATA, add(CFA_XSP16, literal(-3)))
          CFI (cfiCond69) DPL0 load(1, XDATA, add(CFA_XSP16, literal(-2)))
          CFI (cfiCond69) DPH0 load(1, XDATA, add(CFA_XSP16, literal(-1)))
          CFI (cfiCond69) CFA_SP SP+-2
          CFI (cfiCond69) CFA_XSP16 add(XSP16, 35)
          CFI Block cfiPicker70 Using cfiCommon1
          CFI (cfiPicker70) NoFunction
          CFI (cfiPicker70) Picker
        MOV       R5,#0x0
        MOV       A,R6
        MOV       R2,A
        MOV       A,R7
          CFI EndBlock cfiCond60
          CFI EndBlock cfiCond61
          CFI EndBlock cfiCond62
          CFI EndBlock cfiCond63
          CFI EndBlock cfiCond64
          CFI EndBlock cfiCond65
          CFI EndBlock cfiCond66
          CFI EndBlock cfiCond67
          CFI EndBlock cfiCond68
          CFI EndBlock cfiCond69
          CFI EndBlock cfiPicker70
        REQUIRE ??Subroutine41_0
        ; // Fall through to label ??Subroutine41_0

        RSEG BANKED_CODE:HUGECODE:NOROOT(0)
??Subroutine41_0:
          CFI Block cfiCond71 Using cfiCommon0
          CFI Function zclGp_SendGpProxyTableResponse
          CFI Conditional ??CrossCallReturnLabel_78
          CFI R6 load(1, XDATA, add(CFA_XSP16, literal(-22)))
          CFI VB load(1, XDATA, add(CFA_XSP16, literal(-21)))
          CFI V0 load(1, XDATA, add(CFA_XSP16, literal(-20)))
          CFI V1 load(1, XDATA, add(CFA_XSP16, literal(-19)))
          CFI V2 load(1, XDATA, add(CFA_XSP16, literal(-18)))
          CFI V3 load(1, XDATA, add(CFA_XSP16, literal(-17)))
          CFI V4 load(1, XDATA, add(CFA_XSP16, literal(-16)))
          CFI V5 load(1, XDATA, add(CFA_XSP16, literal(-15)))
          CFI V6 load(1, XDATA, add(CFA_XSP16, literal(-14)))
          CFI V7 load(1, XDATA, add(CFA_XSP16, literal(-13)))
          CFI V8 load(1, XDATA, add(CFA_XSP16, literal(-12)))
          CFI V9 load(1, XDATA, add(CFA_XSP16, literal(-11)))
          CFI V10 load(1, XDATA, add(CFA_XSP16, literal(-10)))
          CFI V11 load(1, XDATA, add(CFA_XSP16, literal(-9)))
          CFI V12 load(1, XDATA, add(CFA_XSP16, literal(-8)))
          CFI V13 load(1, XDATA, add(CFA_XSP16, literal(-7)))
          CFI R7 load(1, XDATA, add(CFA_XSP16, literal(-6)))
          CFI ?RET_LOW load(1, XDATA, add(CFA_XSP16, literal(-5)))
          CFI ?RET_HIGH load(1, XDATA, add(CFA_XSP16, literal(-4)))
          CFI ?BRET_EXT load(1, XDATA, add(CFA_XSP16, literal(-3)))
          CFI DPL0 load(1, XDATA, add(CFA_XSP16, literal(-2)))
          CFI DPH0 load(1, XDATA, add(CFA_XSP16, literal(-1)))
          CFI CFA_SP SP+-2
          CFI CFA_XSP16 add(XSP16, 27)
          CFI Block cfiCond72 Using cfiCommon0
          CFI (cfiCond72) Function zclGp_SendGpNotificationCommand
          CFI (cfiCond72) Conditional ??CrossCallReturnLabel_72
          CFI (cfiCond72) R6 load(1, XDATA, add(CFA_XSP16, literal(-24)))
          CFI (cfiCond72) VB load(1, XDATA, add(CFA_XSP16, literal(-23)))
          CFI (cfiCond72) V0 load(1, XDATA, add(CFA_XSP16, literal(-22)))
          CFI (cfiCond72) V1 load(1, XDATA, add(CFA_XSP16, literal(-21)))
          CFI (cfiCond72) V2 load(1, XDATA, add(CFA_XSP16, literal(-20)))
          CFI (cfiCond72) V3 load(1, XDATA, add(CFA_XSP16, literal(-19)))
          CFI (cfiCond72) V4 load(1, XDATA, add(CFA_XSP16, literal(-18)))
          CFI (cfiCond72) V5 load(1, XDATA, add(CFA_XSP16, literal(-17)))
          CFI (cfiCond72) V6 load(1, XDATA, add(CFA_XSP16, literal(-16)))
          CFI (cfiCond72) V7 load(1, XDATA, add(CFA_XSP16, literal(-15)))
          CFI (cfiCond72) V8 load(1, XDATA, add(CFA_XSP16, literal(-14)))
          CFI (cfiCond72) V9 load(1, XDATA, add(CFA_XSP16, literal(-13)))
          CFI (cfiCond72) V10 load(1, XDATA, add(CFA_XSP16, literal(-12)))
          CFI (cfiCond72) V11 load(1, XDATA, add(CFA_XSP16, literal(-11)))
          CFI (cfiCond72) V12 load(1, XDATA, add(CFA_XSP16, literal(-10)))
          CFI (cfiCond72) V13 load(1, XDATA, add(CFA_XSP16, literal(-9)))
          CFI (cfiCond72) V14 load(1, XDATA, add(CFA_XSP16, literal(-8)))
          CFI (cfiCond72) V15 load(1, XDATA, add(CFA_XSP16, literal(-7)))
          CFI (cfiCond72) R7 load(1, XDATA, add(CFA_XSP16, literal(-6)))
          CFI (cfiCond72) ?RET_LOW load(1, XDATA, add(CFA_XSP16, literal(-5)))
          CFI (cfiCond72) ?RET_HIGH load(1, XDATA, add(CFA_XSP16, literal(-4)))
          CFI (cfiCond72) ?BRET_EXT load(1, XDATA, add(CFA_XSP16, literal(-3)))
          CFI (cfiCond72) DPL0 load(1, XDATA, add(CFA_XSP16, literal(-2)))
          CFI (cfiCond72) DPH0 load(1, XDATA, add(CFA_XSP16, literal(-1)))
          CFI (cfiCond72) CFA_SP SP+-2
          CFI (cfiCond72) CFA_XSP16 add(XSP16, 27)
          CFI Block cfiCond73 Using cfiCommon0
          CFI (cfiCond73) Function zclGp_SendGpNotificationCommand
          CFI (cfiCond73) Conditional ??CrossCallReturnLabel_73
          CFI (cfiCond73) R6 load(1, XDATA, add(CFA_XSP16, literal(-24)))
          CFI (cfiCond73) VB load(1, XDATA, add(CFA_XSP16, literal(-23)))
          CFI (cfiCond73) V0 load(1, XDATA, add(CFA_XSP16, literal(-22)))
          CFI (cfiCond73) V1 load(1, XDATA, add(CFA_XSP16, literal(-21)))
          CFI (cfiCond73) V2 load(1, XDATA, add(CFA_XSP16, literal(-20)))
          CFI (cfiCond73) V3 load(1, XDATA, add(CFA_XSP16, literal(-19)))
          CFI (cfiCond73) V4 load(1, XDATA, add(CFA_XSP16, literal(-18)))
          CFI (cfiCond73) V5 load(1, XDATA, add(CFA_XSP16, literal(-17)))
          CFI (cfiCond73) V6 load(1, XDATA, add(CFA_XSP16, literal(-16)))
          CFI (cfiCond73) V7 load(1, XDATA, add(CFA_XSP16, literal(-15)))
          CFI (cfiCond73) V8 load(1, XDATA, add(CFA_XSP16, literal(-14)))
          CFI (cfiCond73) V9 load(1, XDATA, add(CFA_XSP16, literal(-13)))
          CFI (cfiCond73) V10 load(1, XDATA, add(CFA_XSP16, literal(-12)))
          CFI (cfiCond73) V11 load(1, XDATA, add(CFA_XSP16, literal(-11)))
          CFI (cfiCond73) V12 load(1, XDATA, add(CFA_XSP16, literal(-10)))
          CFI (cfiCond73) V13 load(1, XDATA, add(CFA_XSP16, literal(-9)))
          CFI (cfiCond73) V14 load(1, XDATA, add(CFA_XSP16, literal(-8)))
          CFI (cfiCond73) V15 load(1, XDATA, add(CFA_XSP16, literal(-7)))
          CFI (cfiCond73) R7 load(1, XDATA, add(CFA_XSP16, literal(-6)))
          CFI (cfiCond73) ?RET_LOW load(1, XDATA, add(CFA_XSP16, literal(-5)))
          CFI (cfiCond73) ?RET_HIGH load(1, XDATA, add(CFA_XSP16, literal(-4)))
          CFI (cfiCond73) ?BRET_EXT load(1, XDATA, add(CFA_XSP16, literal(-3)))
          CFI (cfiCond73) DPL0 load(1, XDATA, add(CFA_XSP16, literal(-2)))
          CFI (cfiCond73) DPH0 load(1, XDATA, add(CFA_XSP16, literal(-1)))
          CFI (cfiCond73) CFA_SP SP+-2
          CFI (cfiCond73) CFA_XSP16 add(XSP16, 27)
          CFI Block cfiCond74 Using cfiCommon0
          CFI (cfiCond74) Function zclGp_SendGpNotificationCommand
          CFI (cfiCond74) Conditional ??CrossCallReturnLabel_74
          CFI (cfiCond74) R6 load(1, XDATA, add(CFA_XSP16, literal(-24)))
          CFI (cfiCond74) VB load(1, XDATA, add(CFA_XSP16, literal(-23)))
          CFI (cfiCond74) V0 load(1, XDATA, add(CFA_XSP16, literal(-22)))
          CFI (cfiCond74) V1 load(1, XDATA, add(CFA_XSP16, literal(-21)))
          CFI (cfiCond74) V2 load(1, XDATA, add(CFA_XSP16, literal(-20)))
          CFI (cfiCond74) V3 load(1, XDATA, add(CFA_XSP16, literal(-19)))
          CFI (cfiCond74) V4 load(1, XDATA, add(CFA_XSP16, literal(-18)))
          CFI (cfiCond74) V5 load(1, XDATA, add(CFA_XSP16, literal(-17)))
          CFI (cfiCond74) V6 load(1, XDATA, add(CFA_XSP16, literal(-16)))
          CFI (cfiCond74) V7 load(1, XDATA, add(CFA_XSP16, literal(-15)))
          CFI (cfiCond74) V8 load(1, XDATA, add(CFA_XSP16, literal(-14)))
          CFI (cfiCond74) V9 load(1, XDATA, add(CFA_XSP16, literal(-13)))
          CFI (cfiCond74) V10 load(1, XDATA, add(CFA_XSP16, literal(-12)))
          CFI (cfiCond74) V11 load(1, XDATA, add(CFA_XSP16, literal(-11)))
          CFI (cfiCond74) V12 load(1, XDATA, add(CFA_XSP16, literal(-10)))
          CFI (cfiCond74) V13 load(1, XDATA, add(CFA_XSP16, literal(-9)))
          CFI (cfiCond74) V14 load(1, XDATA, add(CFA_XSP16, literal(-8)))
          CFI (cfiCond74) V15 load(1, XDATA, add(CFA_XSP16, literal(-7)))
          CFI (cfiCond74) R7 load(1, XDATA, add(CFA_XSP16, literal(-6)))
          CFI (cfiCond74) ?RET_LOW load(1, XDATA, add(CFA_XSP16, literal(-5)))
          CFI (cfiCond74) ?RET_HIGH load(1, XDATA, add(CFA_XSP16, literal(-4)))
          CFI (cfiCond74) ?BRET_EXT load(1, XDATA, add(CFA_XSP16, literal(-3)))
          CFI (cfiCond74) DPL0 load(1, XDATA, add(CFA_XSP16, literal(-2)))
          CFI (cfiCond74) DPH0 load(1, XDATA, add(CFA_XSP16, literal(-1)))
          CFI (cfiCond74) CFA_SP SP+-2
          CFI (cfiCond74) CFA_XSP16 add(XSP16, 27)
          CFI Block cfiCond75 Using cfiCommon0
          CFI (cfiCond75) Function zclGp_SendGpCommissioningNotificationCommand
          CFI (cfiCond75) Conditional ??CrossCallReturnLabel_75
          CFI (cfiCond75) R6 load(1, XDATA, add(CFA_XSP16, literal(-20)))
          CFI (cfiCond75) VB load(1, XDATA, add(CFA_XSP16, literal(-19)))
          CFI (cfiCond75) V0 load(1, XDATA, add(CFA_XSP16, literal(-18)))
          CFI (cfiCond75) V1 load(1, XDATA, add(CFA_XSP16, literal(-17)))
          CFI (cfiCond75) V2 load(1, XDATA, add(CFA_XSP16, literal(-16)))
          CFI (cfiCond75) V3 load(1, XDATA, add(CFA_XSP16, literal(-15)))
          CFI (cfiCond75) V4 load(1, XDATA, add(CFA_XSP16, literal(-14)))
          CFI (cfiCond75) V5 load(1, XDATA, add(CFA_XSP16, literal(-13)))
          CFI (cfiCond75) V6 load(1, XDATA, add(CFA_XSP16, literal(-12)))
          CFI (cfiCond75) V7 load(1, XDATA, add(CFA_XSP16, literal(-11)))
          CFI (cfiCond75) V8 load(1, XDATA, add(CFA_XSP16, literal(-10)))
          CFI (cfiCond75) V9 load(1, XDATA, add(CFA_XSP16, literal(-9)))
          CFI (cfiCond75) V10 load(1, XDATA, add(CFA_XSP16, literal(-8)))
          CFI (cfiCond75) V11 load(1, XDATA, add(CFA_XSP16, literal(-7)))
          CFI (cfiCond75) R7 load(1, XDATA, add(CFA_XSP16, literal(-6)))
          CFI (cfiCond75) ?RET_LOW load(1, XDATA, add(CFA_XSP16, literal(-5)))
          CFI (cfiCond75) ?RET_HIGH load(1, XDATA, add(CFA_XSP16, literal(-4)))
          CFI (cfiCond75) ?BRET_EXT load(1, XDATA, add(CFA_XSP16, literal(-3)))
          CFI (cfiCond75) DPL0 load(1, XDATA, add(CFA_XSP16, literal(-2)))
          CFI (cfiCond75) DPH0 load(1, XDATA, add(CFA_XSP16, literal(-1)))
          CFI (cfiCond75) CFA_SP SP+-2
          CFI (cfiCond75) CFA_XSP16 add(XSP16, 35)
          CFI Block cfiCond76 Using cfiCommon0
          CFI (cfiCond76) Function zclGp_SendGpCommissioningNotificationCommand
          CFI (cfiCond76) Conditional ??CrossCallReturnLabel_76
          CFI (cfiCond76) R6 load(1, XDATA, add(CFA_XSP16, literal(-20)))
          CFI (cfiCond76) VB load(1, XDATA, add(CFA_XSP16, literal(-19)))
          CFI (cfiCond76) V0 load(1, XDATA, add(CFA_XSP16, literal(-18)))
          CFI (cfiCond76) V1 load(1, XDATA, add(CFA_XSP16, literal(-17)))
          CFI (cfiCond76) V2 load(1, XDATA, add(CFA_XSP16, literal(-16)))
          CFI (cfiCond76) V3 load(1, XDATA, add(CFA_XSP16, literal(-15)))
          CFI (cfiCond76) V4 load(1, XDATA, add(CFA_XSP16, literal(-14)))
          CFI (cfiCond76) V5 load(1, XDATA, add(CFA_XSP16, literal(-13)))
          CFI (cfiCond76) V6 load(1, XDATA, add(CFA_XSP16, literal(-12)))
          CFI (cfiCond76) V7 load(1, XDATA, add(CFA_XSP16, literal(-11)))
          CFI (cfiCond76) V8 load(1, XDATA, add(CFA_XSP16, literal(-10)))
          CFI (cfiCond76) V9 load(1, XDATA, add(CFA_XSP16, literal(-9)))
          CFI (cfiCond76) V10 load(1, XDATA, add(CFA_XSP16, literal(-8)))
          CFI (cfiCond76) V11 load(1, XDATA, add(CFA_XSP16, literal(-7)))
          CFI (cfiCond76) R7 load(1, XDATA, add(CFA_XSP16, literal(-6)))
          CFI (cfiCond76) ?RET_LOW load(1, XDATA, add(CFA_XSP16, literal(-5)))
          CFI (cfiCond76) ?RET_HIGH load(1, XDATA, add(CFA_XSP16, literal(-4)))
          CFI (cfiCond76) ?BRET_EXT load(1, XDATA, add(CFA_XSP16, literal(-3)))
          CFI (cfiCond76) DPL0 load(1, XDATA, add(CFA_XSP16, literal(-2)))
          CFI (cfiCond76) DPH0 load(1, XDATA, add(CFA_XSP16, literal(-1)))
          CFI (cfiCond76) CFA_SP SP+-2
          CFI (cfiCond76) CFA_XSP16 add(XSP16, 35)
          CFI Block cfiCond77 Using cfiCommon0
          CFI (cfiCond77) Function zclGp_SendGpCommissioningNotificationCommand
          CFI (cfiCond77) Conditional ??CrossCallReturnLabel_77
          CFI (cfiCond77) R6 load(1, XDATA, add(CFA_XSP16, literal(-20)))
          CFI (cfiCond77) VB load(1, XDATA, add(CFA_XSP16, literal(-19)))
          CFI (cfiCond77) V0 load(1, XDATA, add(CFA_XSP16, literal(-18)))
          CFI (cfiCond77) V1 load(1, XDATA, add(CFA_XSP16, literal(-17)))
          CFI (cfiCond77) V2 load(1, XDATA, add(CFA_XSP16, literal(-16)))
          CFI (cfiCond77) V3 load(1, XDATA, add(CFA_XSP16, literal(-15)))
          CFI (cfiCond77) V4 load(1, XDATA, add(CFA_XSP16, literal(-14)))
          CFI (cfiCond77) V5 load(1, XDATA, add(CFA_XSP16, literal(-13)))
          CFI (cfiCond77) V6 load(1, XDATA, add(CFA_XSP16, literal(-12)))
          CFI (cfiCond77) V7 load(1, XDATA, add(CFA_XSP16, literal(-11)))
          CFI (cfiCond77) V8 load(1, XDATA, add(CFA_XSP16, literal(-10)))
          CFI (cfiCond77) V9 load(1, XDATA, add(CFA_XSP16, literal(-9)))
          CFI (cfiCond77) V10 load(1, XDATA, add(CFA_XSP16, literal(-8)))
          CFI (cfiCond77) V11 load(1, XDATA, add(CFA_XSP16, literal(-7)))
          CFI (cfiCond77) R7 load(1, XDATA, add(CFA_XSP16, literal(-6)))
          CFI (cfiCond77) ?RET_LOW load(1, XDATA, add(CFA_XSP16, literal(-5)))
          CFI (cfiCond77) ?RET_HIGH load(1, XDATA, add(CFA_XSP16, literal(-4)))
          CFI (cfiCond77) ?BRET_EXT load(1, XDATA, add(CFA_XSP16, literal(-3)))
          CFI (cfiCond77) DPL0 load(1, XDATA, add(CFA_XSP16, literal(-2)))
          CFI (cfiCond77) DPH0 load(1, XDATA, add(CFA_XSP16, literal(-1)))
          CFI (cfiCond77) CFA_SP SP+-2
          CFI (cfiCond77) CFA_XSP16 add(XSP16, 35)
          CFI Block cfiCond78 Using cfiCommon0
          CFI (cfiCond78) Function zclGp_SendGpNotificationCommand
          CFI (cfiCond78) Conditional ??CrossCallReturnLabel_68
          CFI (cfiCond78) R6 load(1, XDATA, add(CFA_XSP16, literal(-24)))
          CFI (cfiCond78) VB load(1, XDATA, add(CFA_XSP16, literal(-23)))
          CFI (cfiCond78) V0 load(1, XDATA, add(CFA_XSP16, literal(-22)))
          CFI (cfiCond78) V1 load(1, XDATA, add(CFA_XSP16, literal(-21)))
          CFI (cfiCond78) V2 load(1, XDATA, add(CFA_XSP16, literal(-20)))
          CFI (cfiCond78) V3 load(1, XDATA, add(CFA_XSP16, literal(-19)))
          CFI (cfiCond78) V4 load(1, XDATA, add(CFA_XSP16, literal(-18)))
          CFI (cfiCond78) V5 load(1, XDATA, add(CFA_XSP16, literal(-17)))
          CFI (cfiCond78) V6 load(1, XDATA, add(CFA_XSP16, literal(-16)))
          CFI (cfiCond78) V7 load(1, XDATA, add(CFA_XSP16, literal(-15)))
          CFI (cfiCond78) V8 load(1, XDATA, add(CFA_XSP16, literal(-14)))
          CFI (cfiCond78) V9 load(1, XDATA, add(CFA_XSP16, literal(-13)))
          CFI (cfiCond78) V10 load(1, XDATA, add(CFA_XSP16, literal(-12)))
          CFI (cfiCond78) V11 load(1, XDATA, add(CFA_XSP16, literal(-11)))
          CFI (cfiCond78) V12 load(1, XDATA, add(CFA_XSP16, literal(-10)))
          CFI (cfiCond78) V13 load(1, XDATA, add(CFA_XSP16, literal(-9)))
          CFI (cfiCond78) V14 load(1, XDATA, add(CFA_XSP16, literal(-8)))
          CFI (cfiCond78) V15 load(1, XDATA, add(CFA_XSP16, literal(-7)))
          CFI (cfiCond78) R7 load(1, XDATA, add(CFA_XSP16, literal(-6)))
          CFI (cfiCond78) ?RET_LOW load(1, XDATA, add(CFA_XSP16, literal(-5)))
          CFI (cfiCond78) ?RET_HIGH load(1, XDATA, add(CFA_XSP16, literal(-4)))
          CFI (cfiCond78) ?BRET_EXT load(1, XDATA, add(CFA_XSP16, literal(-3)))
          CFI (cfiCond78) DPL0 load(1, XDATA, add(CFA_XSP16, literal(-2)))
          CFI (cfiCond78) DPH0 load(1, XDATA, add(CFA_XSP16, literal(-1)))
          CFI (cfiCond78) CFA_SP SP+-2
          CFI (cfiCond78) CFA_XSP16 add(XSP16, 27)
          CFI Block cfiCond79 Using cfiCommon0
          CFI (cfiCond79) Function zclGp_SendGpNotificationCommand
          CFI (cfiCond79) Conditional ??CrossCallReturnLabel_69
          CFI (cfiCond79) R6 load(1, XDATA, add(CFA_XSP16, literal(-24)))
          CFI (cfiCond79) VB load(1, XDATA, add(CFA_XSP16, literal(-23)))
          CFI (cfiCond79) V0 load(1, XDATA, add(CFA_XSP16, literal(-22)))
          CFI (cfiCond79) V1 load(1, XDATA, add(CFA_XSP16, literal(-21)))
          CFI (cfiCond79) V2 load(1, XDATA, add(CFA_XSP16, literal(-20)))
          CFI (cfiCond79) V3 load(1, XDATA, add(CFA_XSP16, literal(-19)))
          CFI (cfiCond79) V4 load(1, XDATA, add(CFA_XSP16, literal(-18)))
          CFI (cfiCond79) V5 load(1, XDATA, add(CFA_XSP16, literal(-17)))
          CFI (cfiCond79) V6 load(1, XDATA, add(CFA_XSP16, literal(-16)))
          CFI (cfiCond79) V7 load(1, XDATA, add(CFA_XSP16, literal(-15)))
          CFI (cfiCond79) V8 load(1, XDATA, add(CFA_XSP16, literal(-14)))
          CFI (cfiCond79) V9 load(1, XDATA, add(CFA_XSP16, literal(-13)))
          CFI (cfiCond79) V10 load(1, XDATA, add(CFA_XSP16, literal(-12)))
          CFI (cfiCond79) V11 load(1, XDATA, add(CFA_XSP16, literal(-11)))
          CFI (cfiCond79) V12 load(1, XDATA, add(CFA_XSP16, literal(-10)))
          CFI (cfiCond79) V13 load(1, XDATA, add(CFA_XSP16, literal(-9)))
          CFI (cfiCond79) V14 load(1, XDATA, add(CFA_XSP16, literal(-8)))
          CFI (cfiCond79) V15 load(1, XDATA, add(CFA_XSP16, literal(-7)))
          CFI (cfiCond79) R7 load(1, XDATA, add(CFA_XSP16, literal(-6)))
          CFI (cfiCond79) ?RET_LOW load(1, XDATA, add(CFA_XSP16, literal(-5)))
          CFI (cfiCond79) ?RET_HIGH load(1, XDATA, add(CFA_XSP16, literal(-4)))
          CFI (cfiCond79) ?BRET_EXT load(1, XDATA, add(CFA_XSP16, literal(-3)))
          CFI (cfiCond79) DPL0 load(1, XDATA, add(CFA_XSP16, literal(-2)))
          CFI (cfiCond79) DPH0 load(1, XDATA, add(CFA_XSP16, literal(-1)))
          CFI (cfiCond79) CFA_SP SP+-2
          CFI (cfiCond79) CFA_XSP16 add(XSP16, 27)
          CFI Block cfiCond80 Using cfiCommon0
          CFI (cfiCond80) Function zclGp_SendGpCommissioningNotificationCommand
          CFI (cfiCond80) Conditional ??CrossCallReturnLabel_70
          CFI (cfiCond80) R6 load(1, XDATA, add(CFA_XSP16, literal(-20)))
          CFI (cfiCond80) VB load(1, XDATA, add(CFA_XSP16, literal(-19)))
          CFI (cfiCond80) V0 load(1, XDATA, add(CFA_XSP16, literal(-18)))
          CFI (cfiCond80) V1 load(1, XDATA, add(CFA_XSP16, literal(-17)))
          CFI (cfiCond80) V2 load(1, XDATA, add(CFA_XSP16, literal(-16)))
          CFI (cfiCond80) V3 load(1, XDATA, add(CFA_XSP16, literal(-15)))
          CFI (cfiCond80) V4 load(1, XDATA, add(CFA_XSP16, literal(-14)))
          CFI (cfiCond80) V5 load(1, XDATA, add(CFA_XSP16, literal(-13)))
          CFI (cfiCond80) V6 load(1, XDATA, add(CFA_XSP16, literal(-12)))
          CFI (cfiCond80) V7 load(1, XDATA, add(CFA_XSP16, literal(-11)))
          CFI (cfiCond80) V8 load(1, XDATA, add(CFA_XSP16, literal(-10)))
          CFI (cfiCond80) V9 load(1, XDATA, add(CFA_XSP16, literal(-9)))
          CFI (cfiCond80) V10 load(1, XDATA, add(CFA_XSP16, literal(-8)))
          CFI (cfiCond80) V11 load(1, XDATA, add(CFA_XSP16, literal(-7)))
          CFI (cfiCond80) R7 load(1, XDATA, add(CFA_XSP16, literal(-6)))
          CFI (cfiCond80) ?RET_LOW load(1, XDATA, add(CFA_XSP16, literal(-5)))
          CFI (cfiCond80) ?RET_HIGH load(1, XDATA, add(CFA_XSP16, literal(-4)))
          CFI (cfiCond80) ?BRET_EXT load(1, XDATA, add(CFA_XSP16, literal(-3)))
          CFI (cfiCond80) DPL0 load(1, XDATA, add(CFA_XSP16, literal(-2)))
          CFI (cfiCond80) DPH0 load(1, XDATA, add(CFA_XSP16, literal(-1)))
          CFI (cfiCond80) CFA_SP SP+-2
          CFI (cfiCond80) CFA_XSP16 add(XSP16, 35)
          CFI Block cfiCond81 Using cfiCommon0
          CFI (cfiCond81) Function zclGp_SendGpCommissioningNotificationCommand
          CFI (cfiCond81) Conditional ??CrossCallReturnLabel_71
          CFI (cfiCond81) R6 load(1, XDATA, add(CFA_XSP16, literal(-20)))
          CFI (cfiCond81) VB load(1, XDATA, add(CFA_XSP16, literal(-19)))
          CFI (cfiCond81) V0 load(1, XDATA, add(CFA_XSP16, literal(-18)))
          CFI (cfiCond81) V1 load(1, XDATA, add(CFA_XSP16, literal(-17)))
          CFI (cfiCond81) V2 load(1, XDATA, add(CFA_XSP16, literal(-16)))
          CFI (cfiCond81) V3 load(1, XDATA, add(CFA_XSP16, literal(-15)))
          CFI (cfiCond81) V4 load(1, XDATA, add(CFA_XSP16, literal(-14)))
          CFI (cfiCond81) V5 load(1, XDATA, add(CFA_XSP16, literal(-13)))
          CFI (cfiCond81) V6 load(1, XDATA, add(CFA_XSP16, literal(-12)))
          CFI (cfiCond81) V7 load(1, XDATA, add(CFA_XSP16, literal(-11)))
          CFI (cfiCond81) V8 load(1, XDATA, add(CFA_XSP16, literal(-10)))
          CFI (cfiCond81) V9 load(1, XDATA, add(CFA_XSP16, literal(-9)))
          CFI (cfiCond81) V10 load(1, XDATA, add(CFA_XSP16, literal(-8)))
          CFI (cfiCond81) V11 load(1, XDATA, add(CFA_XSP16, literal(-7)))
          CFI (cfiCond81) R7 load(1, XDATA, add(CFA_XSP16, literal(-6)))
          CFI (cfiCond81) ?RET_LOW load(1, XDATA, add(CFA_XSP16, literal(-5)))
          CFI (cfiCond81) ?RET_HIGH load(1, XDATA, add(CFA_XSP16, literal(-4)))
          CFI (cfiCond81) ?BRET_EXT load(1, XDATA, add(CFA_XSP16, literal(-3)))
          CFI (cfiCond81) DPL0 load(1, XDATA, add(CFA_XSP16, literal(-2)))
          CFI (cfiCond81) DPH0 load(1, XDATA, add(CFA_XSP16, literal(-1)))
          CFI (cfiCond81) CFA_SP SP+-2
          CFI (cfiCond81) CFA_XSP16 add(XSP16, 35)
          CFI Block cfiPicker82 Using cfiCommon1
          CFI (cfiPicker82) NoFunction
          CFI (cfiPicker82) Picker
        MOV       R3,A
          CFI EndBlock cfiCond71
          CFI EndBlock cfiCond72
          CFI EndBlock cfiCond73
          CFI EndBlock cfiCond74
          CFI EndBlock cfiCond75
          CFI EndBlock cfiCond76
          CFI EndBlock cfiCond77
          CFI EndBlock cfiCond78
          CFI EndBlock cfiCond79
          CFI EndBlock cfiCond80
          CFI EndBlock cfiCond81
          CFI EndBlock cfiPicker82
        REQUIRE ??Subroutine42_0
        ; // Fall through to label ??Subroutine42_0

        RSEG BANKED_CODE:HUGECODE:NOROOT(0)
??Subroutine42_0:
          CFI Block cfiCond83 Using cfiCommon0
          CFI Function zclGp_ProcessInProxyBasic
          CFI Conditional ??CrossCallReturnLabel_79
          CFI R6 load(1, XDATA, add(CFA_XSP16, literal(-20)))
          CFI VB load(1, XDATA, add(CFA_XSP16, literal(-19)))
          CFI V0 load(1, XDATA, add(CFA_XSP16, literal(-18)))
          CFI V1 load(1, XDATA, add(CFA_XSP16, literal(-17)))
          CFI V2 load(1, XDATA, add(CFA_XSP16, literal(-16)))
          CFI V3 load(1, XDATA, add(CFA_XSP16, literal(-15)))
          CFI V4 load(1, XDATA, add(CFA_XSP16, literal(-14)))
          CFI V5 load(1, XDATA, add(CFA_XSP16, literal(-13)))
          CFI V6 load(1, XDATA, add(CFA_XSP16, literal(-12)))
          CFI V7 load(1, XDATA, add(CFA_XSP16, literal(-11)))
          CFI V8 load(1, XDATA, add(CFA_XSP16, literal(-10)))
          CFI V9 load(1, XDATA, add(CFA_XSP16, literal(-9)))
          CFI V10 load(1, XDATA, add(CFA_XSP16, literal(-8)))
          CFI V11 load(1, XDATA, add(CFA_XSP16, literal(-7)))
          CFI R7 load(1, XDATA, add(CFA_XSP16, literal(-6)))
          CFI ?RET_LOW load(1, XDATA, add(CFA_XSP16, literal(-5)))
          CFI ?RET_HIGH load(1, XDATA, add(CFA_XSP16, literal(-4)))
          CFI ?BRET_EXT load(1, XDATA, add(CFA_XSP16, literal(-3)))
          CFI DPL0 load(1, XDATA, add(CFA_XSP16, literal(-2)))
          CFI DPH0 load(1, XDATA, add(CFA_XSP16, literal(-1)))
          CFI CFA_SP SP+-2
          CFI CFA_XSP16 add(XSP16, 45)
          CFI Block cfiCond84 Using cfiCommon0
          CFI (cfiCond84) Function zclGp_ProcessInProxyBasic
          CFI (cfiCond84) Conditional ??CrossCallReturnLabel_80
          CFI (cfiCond84) R6 load(1, XDATA, add(CFA_XSP16, literal(-20)))
          CFI (cfiCond84) VB load(1, XDATA, add(CFA_XSP16, literal(-19)))
          CFI (cfiCond84) V0 load(1, XDATA, add(CFA_XSP16, literal(-18)))
          CFI (cfiCond84) V1 load(1, XDATA, add(CFA_XSP16, literal(-17)))
          CFI (cfiCond84) V2 load(1, XDATA, add(CFA_XSP16, literal(-16)))
          CFI (cfiCond84) V3 load(1, XDATA, add(CFA_XSP16, literal(-15)))
          CFI (cfiCond84) V4 load(1, XDATA, add(CFA_XSP16, literal(-14)))
          CFI (cfiCond84) V5 load(1, XDATA, add(CFA_XSP16, literal(-13)))
          CFI (cfiCond84) V6 load(1, XDATA, add(CFA_XSP16, literal(-12)))
          CFI (cfiCond84) V7 load(1, XDATA, add(CFA_XSP16, literal(-11)))
          CFI (cfiCond84) V8 load(1, XDATA, add(CFA_XSP16, literal(-10)))
          CFI (cfiCond84) V9 load(1, XDATA, add(CFA_XSP16, literal(-9)))
          CFI (cfiCond84) V10 load(1, XDATA, add(CFA_XSP16, literal(-8)))
          CFI (cfiCond84) V11 load(1, XDATA, add(CFA_XSP16, literal(-7)))
          CFI (cfiCond84) R7 load(1, XDATA, add(CFA_XSP16, literal(-6)))
          CFI (cfiCond84) ?RET_LOW load(1, XDATA, add(CFA_XSP16, literal(-5)))
          CFI (cfiCond84) ?RET_HIGH load(1, XDATA, add(CFA_XSP16, literal(-4)))
          CFI (cfiCond84) ?BRET_EXT load(1, XDATA, add(CFA_XSP16, literal(-3)))
          CFI (cfiCond84) DPL0 load(1, XDATA, add(CFA_XSP16, literal(-2)))
          CFI (cfiCond84) DPH0 load(1, XDATA, add(CFA_XSP16, literal(-1)))
          CFI (cfiCond84) CFA_SP SP+-2
          CFI (cfiCond84) CFA_XSP16 add(XSP16, 45)
          CFI Block cfiCond85 Using cfiCommon0
          CFI (cfiCond85) Function zclGp_ProcessInProxyBasic
          CFI (cfiCond85) Conditional ??CrossCallReturnLabel_81
          CFI (cfiCond85) R6 load(1, XDATA, add(CFA_XSP16, literal(-20)))
          CFI (cfiCond85) VB load(1, XDATA, add(CFA_XSP16, literal(-19)))
          CFI (cfiCond85) V0 load(1, XDATA, add(CFA_XSP16, literal(-18)))
          CFI (cfiCond85) V1 load(1, XDATA, add(CFA_XSP16, literal(-17)))
          CFI (cfiCond85) V2 load(1, XDATA, add(CFA_XSP16, literal(-16)))
          CFI (cfiCond85) V3 load(1, XDATA, add(CFA_XSP16, literal(-15)))
          CFI (cfiCond85) V4 load(1, XDATA, add(CFA_XSP16, literal(-14)))
          CFI (cfiCond85) V5 load(1, XDATA, add(CFA_XSP16, literal(-13)))
          CFI (cfiCond85) V6 load(1, XDATA, add(CFA_XSP16, literal(-12)))
          CFI (cfiCond85) V7 load(1, XDATA, add(CFA_XSP16, literal(-11)))
          CFI (cfiCond85) V8 load(1, XDATA, add(CFA_XSP16, literal(-10)))
          CFI (cfiCond85) V9 load(1, XDATA, add(CFA_XSP16, literal(-9)))
          CFI (cfiCond85) V10 load(1, XDATA, add(CFA_XSP16, literal(-8)))
          CFI (cfiCond85) V11 load(1, XDATA, add(CFA_XSP16, literal(-7)))
          CFI (cfiCond85) R7 load(1, XDATA, add(CFA_XSP16, literal(-6)))
          CFI (cfiCond85) ?RET_LOW load(1, XDATA, add(CFA_XSP16, literal(-5)))
          CFI (cfiCond85) ?RET_HIGH load(1, XDATA, add(CFA_XSP16, literal(-4)))
          CFI (cfiCond85) ?BRET_EXT load(1, XDATA, add(CFA_XSP16, literal(-3)))
          CFI (cfiCond85) DPL0 load(1, XDATA, add(CFA_XSP16, literal(-2)))
          CFI (cfiCond85) DPH0 load(1, XDATA, add(CFA_XSP16, literal(-1)))
          CFI (cfiCond85) CFA_SP SP+-2
          CFI (cfiCond85) CFA_XSP16 add(XSP16, 45)
          CFI Block cfiCond86 Using cfiCommon0
          CFI (cfiCond86) Function zclGp_ProcessInProxyBasic
          CFI (cfiCond86) Conditional ??CrossCallReturnLabel_82
          CFI (cfiCond86) R6 load(1, XDATA, add(CFA_XSP16, literal(-20)))
          CFI (cfiCond86) VB load(1, XDATA, add(CFA_XSP16, literal(-19)))
          CFI (cfiCond86) V0 load(1, XDATA, add(CFA_XSP16, literal(-18)))
          CFI (cfiCond86) V1 load(1, XDATA, add(CFA_XSP16, literal(-17)))
          CFI (cfiCond86) V2 load(1, XDATA, add(CFA_XSP16, literal(-16)))
          CFI (cfiCond86) V3 load(1, XDATA, add(CFA_XSP16, literal(-15)))
          CFI (cfiCond86) V4 load(1, XDATA, add(CFA_XSP16, literal(-14)))
          CFI (cfiCond86) V5 load(1, XDATA, add(CFA_XSP16, literal(-13)))
          CFI (cfiCond86) V6 load(1, XDATA, add(CFA_XSP16, literal(-12)))
          CFI (cfiCond86) V7 load(1, XDATA, add(CFA_XSP16, literal(-11)))
          CFI (cfiCond86) V8 load(1, XDATA, add(CFA_XSP16, literal(-10)))
          CFI (cfiCond86) V9 load(1, XDATA, add(CFA_XSP16, literal(-9)))
          CFI (cfiCond86) V10 load(1, XDATA, add(CFA_XSP16, literal(-8)))
          CFI (cfiCond86) V11 load(1, XDATA, add(CFA_XSP16, literal(-7)))
          CFI (cfiCond86) R7 load(1, XDATA, add(CFA_XSP16, literal(-6)))
          CFI (cfiCond86) ?RET_LOW load(1, XDATA, add(CFA_XSP16, literal(-5)))
          CFI (cfiCond86) ?RET_HIGH load(1, XDATA, add(CFA_XSP16, literal(-4)))
          CFI (cfiCond86) ?BRET_EXT load(1, XDATA, add(CFA_XSP16, literal(-3)))
          CFI (cfiCond86) DPL0 load(1, XDATA, add(CFA_XSP16, literal(-2)))
          CFI (cfiCond86) DPH0 load(1, XDATA, add(CFA_XSP16, literal(-1)))
          CFI (cfiCond86) CFA_SP SP+-2
          CFI (cfiCond86) CFA_XSP16 add(XSP16, 45)
          CFI Block cfiCond87 Using cfiCommon0
          CFI (cfiCond87) Function zclGp_ProcessInProxyBasic
          CFI (cfiCond87) Conditional ??CrossCallReturnLabel_83
          CFI (cfiCond87) R6 load(1, XDATA, add(CFA_XSP16, literal(-20)))
          CFI (cfiCond87) VB load(1, XDATA, add(CFA_XSP16, literal(-19)))
          CFI (cfiCond87) V0 load(1, XDATA, add(CFA_XSP16, literal(-18)))
          CFI (cfiCond87) V1 load(1, XDATA, add(CFA_XSP16, literal(-17)))
          CFI (cfiCond87) V2 load(1, XDATA, add(CFA_XSP16, literal(-16)))
          CFI (cfiCond87) V3 load(1, XDATA, add(CFA_XSP16, literal(-15)))
          CFI (cfiCond87) V4 load(1, XDATA, add(CFA_XSP16, literal(-14)))
          CFI (cfiCond87) V5 load(1, XDATA, add(CFA_XSP16, literal(-13)))
          CFI (cfiCond87) V6 load(1, XDATA, add(CFA_XSP16, literal(-12)))
          CFI (cfiCond87) V7 load(1, XDATA, add(CFA_XSP16, literal(-11)))
          CFI (cfiCond87) V8 load(1, XDATA, add(CFA_XSP16, literal(-10)))
          CFI (cfiCond87) V9 load(1, XDATA, add(CFA_XSP16, literal(-9)))
          CFI (cfiCond87) V10 load(1, XDATA, add(CFA_XSP16, literal(-8)))
          CFI (cfiCond87) V11 load(1, XDATA, add(CFA_XSP16, literal(-7)))
          CFI (cfiCond87) R7 load(1, XDATA, add(CFA_XSP16, literal(-6)))
          CFI (cfiCond87) ?RET_LOW load(1, XDATA, add(CFA_XSP16, literal(-5)))
          CFI (cfiCond87) ?RET_HIGH load(1, XDATA, add(CFA_XSP16, literal(-4)))
          CFI (cfiCond87) ?BRET_EXT load(1, XDATA, add(CFA_XSP16, literal(-3)))
          CFI (cfiCond87) DPL0 load(1, XDATA, add(CFA_XSP16, literal(-2)))
          CFI (cfiCond87) DPH0 load(1, XDATA, add(CFA_XSP16, literal(-1)))
          CFI (cfiCond87) CFA_SP SP+-2
          CFI (cfiCond87) CFA_XSP16 add(XSP16, 45)
          CFI Block cfiCond88 Using cfiCommon0
          CFI (cfiCond88) Function zclGp_SendGpNotificationCommand
          CFI (cfiCond88) Conditional ??CrossCallReturnLabel_84
          CFI (cfiCond88) R6 load(1, XDATA, add(CFA_XSP16, literal(-24)))
          CFI (cfiCond88) VB load(1, XDATA, add(CFA_XSP16, literal(-23)))
          CFI (cfiCond88) V0 load(1, XDATA, add(CFA_XSP16, literal(-22)))
          CFI (cfiCond88) V1 load(1, XDATA, add(CFA_XSP16, literal(-21)))
          CFI (cfiCond88) V2 load(1, XDATA, add(CFA_XSP16, literal(-20)))
          CFI (cfiCond88) V3 load(1, XDATA, add(CFA_XSP16, literal(-19)))
          CFI (cfiCond88) V4 load(1, XDATA, add(CFA_XSP16, literal(-18)))
          CFI (cfiCond88) V5 load(1, XDATA, add(CFA_XSP16, literal(-17)))
          CFI (cfiCond88) V6 load(1, XDATA, add(CFA_XSP16, literal(-16)))
          CFI (cfiCond88) V7 load(1, XDATA, add(CFA_XSP16, literal(-15)))
          CFI (cfiCond88) V8 load(1, XDATA, add(CFA_XSP16, literal(-14)))
          CFI (cfiCond88) V9 load(1, XDATA, add(CFA_XSP16, literal(-13)))
          CFI (cfiCond88) V10 load(1, XDATA, add(CFA_XSP16, literal(-12)))
          CFI (cfiCond88) V11 load(1, XDATA, add(CFA_XSP16, literal(-11)))
          CFI (cfiCond88) V12 load(1, XDATA, add(CFA_XSP16, literal(-10)))
          CFI (cfiCond88) V13 load(1, XDATA, add(CFA_XSP16, literal(-9)))
          CFI (cfiCond88) V14 load(1, XDATA, add(CFA_XSP16, literal(-8)))
          CFI (cfiCond88) V15 load(1, XDATA, add(CFA_XSP16, literal(-7)))
          CFI (cfiCond88) R7 load(1, XDATA, add(CFA_XSP16, literal(-6)))
          CFI (cfiCond88) ?RET_LOW load(1, XDATA, add(CFA_XSP16, literal(-5)))
          CFI (cfiCond88) ?RET_HIGH load(1, XDATA, add(CFA_XSP16, literal(-4)))
          CFI (cfiCond88) ?BRET_EXT load(1, XDATA, add(CFA_XSP16, literal(-3)))
          CFI (cfiCond88) DPL0 load(1, XDATA, add(CFA_XSP16, literal(-2)))
          CFI (cfiCond88) DPH0 load(1, XDATA, add(CFA_XSP16, literal(-1)))
          CFI (cfiCond88) CFA_SP SP+-2
          CFI (cfiCond88) CFA_XSP16 add(XSP16, 27)
          CFI Block cfiCond89 Using cfiCommon0
          CFI (cfiCond89) Function zclGp_SendGpCommissioningNotificationCommand
          CFI (cfiCond89) Conditional ??CrossCallReturnLabel_85
          CFI (cfiCond89) R6 load(1, XDATA, add(CFA_XSP16, literal(-20)))
          CFI (cfiCond89) VB load(1, XDATA, add(CFA_XSP16, literal(-19)))
          CFI (cfiCond89) V0 load(1, XDATA, add(CFA_XSP16, literal(-18)))
          CFI (cfiCond89) V1 load(1, XDATA, add(CFA_XSP16, literal(-17)))
          CFI (cfiCond89) V2 load(1, XDATA, add(CFA_XSP16, literal(-16)))
          CFI (cfiCond89) V3 load(1, XDATA, add(CFA_XSP16, literal(-15)))
          CFI (cfiCond89) V4 load(1, XDATA, add(CFA_XSP16, literal(-14)))
          CFI (cfiCond89) V5 load(1, XDATA, add(CFA_XSP16, literal(-13)))
          CFI (cfiCond89) V6 load(1, XDATA, add(CFA_XSP16, literal(-12)))
          CFI (cfiCond89) V7 load(1, XDATA, add(CFA_XSP16, literal(-11)))
          CFI (cfiCond89) V8 load(1, XDATA, add(CFA_XSP16, literal(-10)))
          CFI (cfiCond89) V9 load(1, XDATA, add(CFA_XSP16, literal(-9)))
          CFI (cfiCond89) V10 load(1, XDATA, add(CFA_XSP16, literal(-8)))
          CFI (cfiCond89) V11 load(1, XDATA, add(CFA_XSP16, literal(-7)))
          CFI (cfiCond89) R7 load(1, XDATA, add(CFA_XSP16, literal(-6)))
          CFI (cfiCond89) ?RET_LOW load(1, XDATA, add(CFA_XSP16, literal(-5)))
          CFI (cfiCond89) ?RET_HIGH load(1, XDATA, add(CFA_XSP16, literal(-4)))
          CFI (cfiCond89) ?BRET_EXT load(1, XDATA, add(CFA_XSP16, literal(-3)))
          CFI (cfiCond89) DPL0 load(1, XDATA, add(CFA_XSP16, literal(-2)))
          CFI (cfiCond89) DPH0 load(1, XDATA, add(CFA_XSP16, literal(-1)))
          CFI (cfiCond89) CFA_SP SP+-2
          CFI (cfiCond89) CFA_XSP16 add(XSP16, 35)
          CFI Block cfiCond90 Using cfiCommon0
          CFI (cfiCond90) Function zclGp_SendGpProxyTableResponse
          CFI (cfiCond90) Conditional ??CrossCallReturnLabel_86
          CFI (cfiCond90) R6 load(1, XDATA, add(CFA_XSP16, literal(-22)))
          CFI (cfiCond90) VB load(1, XDATA, add(CFA_XSP16, literal(-21)))
          CFI (cfiCond90) V0 load(1, XDATA, add(CFA_XSP16, literal(-20)))
          CFI (cfiCond90) V1 load(1, XDATA, add(CFA_XSP16, literal(-19)))
          CFI (cfiCond90) V2 load(1, XDATA, add(CFA_XSP16, literal(-18)))
          CFI (cfiCond90) V3 load(1, XDATA, add(CFA_XSP16, literal(-17)))
          CFI (cfiCond90) V4 load(1, XDATA, add(CFA_XSP16, literal(-16)))
          CFI (cfiCond90) V5 load(1, XDATA, add(CFA_XSP16, literal(-15)))
          CFI (cfiCond90) V6 load(1, XDATA, add(CFA_XSP16, literal(-14)))
          CFI (cfiCond90) V7 load(1, XDATA, add(CFA_XSP16, literal(-13)))
          CFI (cfiCond90) V8 load(1, XDATA, add(CFA_XSP16, literal(-12)))
          CFI (cfiCond90) V9 load(1, XDATA, add(CFA_XSP16, literal(-11)))
          CFI (cfiCond90) V10 load(1, XDATA, add(CFA_XSP16, literal(-10)))
          CFI (cfiCond90) V11 load(1, XDATA, add(CFA_XSP16, literal(-9)))
          CFI (cfiCond90) V12 load(1, XDATA, add(CFA_XSP16, literal(-8)))
          CFI (cfiCond90) V13 load(1, XDATA, add(CFA_XSP16, literal(-7)))
          CFI (cfiCond90) R7 load(1, XDATA, add(CFA_XSP16, literal(-6)))
          CFI (cfiCond90) ?RET_LOW load(1, XDATA, add(CFA_XSP16, literal(-5)))
          CFI (cfiCond90) ?RET_HIGH load(1, XDATA, add(CFA_XSP16, literal(-4)))
          CFI (cfiCond90) ?BRET_EXT load(1, XDATA, add(CFA_XSP16, literal(-3)))
          CFI (cfiCond90) DPL0 load(1, XDATA, add(CFA_XSP16, literal(-2)))
          CFI (cfiCond90) DPH0 load(1, XDATA, add(CFA_XSP16, literal(-1)))
          CFI (cfiCond90) CFA_SP SP+-2
          CFI (cfiCond90) CFA_XSP16 add(XSP16, 27)
          CFI Block cfiCond91 Using cfiCommon0
          CFI (cfiCond91) Function gp_addPairedSinksToMsgQueue
          CFI (cfiCond91) Conditional ??CrossCallReturnLabel_87
          CFI (cfiCond91) R6 load(1, XDATA, add(CFA_XSP16, literal(-18)))
          CFI (cfiCond91) VB load(1, XDATA, add(CFA_XSP16, literal(-17)))
          CFI (cfiCond91) V0 load(1, XDATA, add(CFA_XSP16, literal(-16)))
          CFI (cfiCond91) V1 load(1, XDATA, add(CFA_XSP16, literal(-15)))
          CFI (cfiCond91) V2 load(1, XDATA, add(CFA_XSP16, literal(-14)))
          CFI (cfiCond91) V3 load(1, XDATA, add(CFA_XSP16, literal(-13)))
          CFI (cfiCond91) V4 load(1, XDATA, add(CFA_XSP16, literal(-12)))
          CFI (cfiCond91) V5 load(1, XDATA, add(CFA_XSP16, literal(-11)))
          CFI (cfiCond91) V6 load(1, XDATA, add(CFA_XSP16, literal(-10)))
          CFI (cfiCond91) V7 load(1, XDATA, add(CFA_XSP16, literal(-9)))
          CFI (cfiCond91) V8 load(1, XDATA, add(CFA_XSP16, literal(-8)))
          CFI (cfiCond91) V9 load(1, XDATA, add(CFA_XSP16, literal(-7)))
          CFI (cfiCond91) R7 load(1, XDATA, add(CFA_XSP16, literal(-6)))
          CFI (cfiCond91) ?RET_LOW load(1, XDATA, add(CFA_XSP16, literal(-5)))
          CFI (cfiCond91) ?RET_HIGH load(1, XDATA, add(CFA_XSP16, literal(-4)))
          CFI (cfiCond91) ?BRET_EXT load(1, XDATA, add(CFA_XSP16, literal(-3)))
          CFI (cfiCond91) DPL0 load(1, XDATA, add(CFA_XSP16, literal(-2)))
          CFI (cfiCond91) DPH0 load(1, XDATA, add(CFA_XSP16, literal(-1)))
          CFI (cfiCond91) CFA_SP SP+-2
          CFI (cfiCond91) CFA_XSP16 add(XSP16, 108)
          CFI Block cfiCond92 Using cfiCommon0
          CFI (cfiCond92) Function gp_addPairedSinksToMsgQueue
          CFI (cfiCond92) Conditional ??CrossCallReturnLabel_88
          CFI (cfiCond92) R6 load(1, XDATA, add(CFA_XSP16, literal(-18)))
          CFI (cfiCond92) VB load(1, XDATA, add(CFA_XSP16, literal(-17)))
          CFI (cfiCond92) V0 load(1, XDATA, add(CFA_XSP16, literal(-16)))
          CFI (cfiCond92) V1 load(1, XDATA, add(CFA_XSP16, literal(-15)))
          CFI (cfiCond92) V2 load(1, XDATA, add(CFA_XSP16, literal(-14)))
          CFI (cfiCond92) V3 load(1, XDATA, add(CFA_XSP16, literal(-13)))
          CFI (cfiCond92) V4 load(1, XDATA, add(CFA_XSP16, literal(-12)))
          CFI (cfiCond92) V5 load(1, XDATA, add(CFA_XSP16, literal(-11)))
          CFI (cfiCond92) V6 load(1, XDATA, add(CFA_XSP16, literal(-10)))
          CFI (cfiCond92) V7 load(1, XDATA, add(CFA_XSP16, literal(-9)))
          CFI (cfiCond92) V8 load(1, XDATA, add(CFA_XSP16, literal(-8)))
          CFI (cfiCond92) V9 load(1, XDATA, add(CFA_XSP16, literal(-7)))
          CFI (cfiCond92) R7 load(1, XDATA, add(CFA_XSP16, literal(-6)))
          CFI (cfiCond92) ?RET_LOW load(1, XDATA, add(CFA_XSP16, literal(-5)))
          CFI (cfiCond92) ?RET_HIGH load(1, XDATA, add(CFA_XSP16, literal(-4)))
          CFI (cfiCond92) ?BRET_EXT load(1, XDATA, add(CFA_XSP16, literal(-3)))
          CFI (cfiCond92) DPL0 load(1, XDATA, add(CFA_XSP16, literal(-2)))
          CFI (cfiCond92) DPH0 load(1, XDATA, add(CFA_XSP16, literal(-1)))
          CFI (cfiCond92) CFA_SP SP+-2
          CFI (cfiCond92) CFA_XSP16 add(XSP16, 108)
          CFI Block cfiCond93 Using cfiCommon0
          CFI (cfiCond93) Function gp_addPairedSinksToMsgQueue
          CFI (cfiCond93) Conditional ??CrossCallReturnLabel_89
          CFI (cfiCond93) R6 load(1, XDATA, add(CFA_XSP16, literal(-18)))
          CFI (cfiCond93) VB load(1, XDATA, add(CFA_XSP16, literal(-17)))
          CFI (cfiCond93) V0 load(1, XDATA, add(CFA_XSP16, literal(-16)))
          CFI (cfiCond93) V1 load(1, XDATA, add(CFA_XSP16, literal(-15)))
          CFI (cfiCond93) V2 load(1, XDATA, add(CFA_XSP16, literal(-14)))
          CFI (cfiCond93) V3 load(1, XDATA, add(CFA_XSP16, literal(-13)))
          CFI (cfiCond93) V4 load(1, XDATA, add(CFA_XSP16, literal(-12)))
          CFI (cfiCond93) V5 load(1, XDATA, add(CFA_XSP16, literal(-11)))
          CFI (cfiCond93) V6 load(1, XDATA, add(CFA_XSP16, literal(-10)))
          CFI (cfiCond93) V7 load(1, XDATA, add(CFA_XSP16, literal(-9)))
          CFI (cfiCond93) V8 load(1, XDATA, add(CFA_XSP16, literal(-8)))
          CFI (cfiCond93) V9 load(1, XDATA, add(CFA_XSP16, literal(-7)))
          CFI (cfiCond93) R7 load(1, XDATA, add(CFA_XSP16, literal(-6)))
          CFI (cfiCond93) ?RET_LOW load(1, XDATA, add(CFA_XSP16, literal(-5)))
          CFI (cfiCond93) ?RET_HIGH load(1, XDATA, add(CFA_XSP16, literal(-4)))
          CFI (cfiCond93) ?BRET_EXT load(1, XDATA, add(CFA_XSP16, literal(-3)))
          CFI (cfiCond93) DPL0 load(1, XDATA, add(CFA_XSP16, literal(-2)))
          CFI (cfiCond93) DPH0 load(1, XDATA, add(CFA_XSP16, literal(-1)))
          CFI (cfiCond93) CFA_SP SP+-2
          CFI (cfiCond93) CFA_XSP16 add(XSP16, 108)
          CFI Block cfiCond94 Using cfiCommon0
          CFI (cfiCond94) Function gp_addPairedSinksToMsgQueue
          CFI (cfiCond94) Conditional ??CrossCallReturnLabel_90
          CFI (cfiCond94) R6 load(1, XDATA, add(CFA_XSP16, literal(-18)))
          CFI (cfiCond94) VB load(1, XDATA, add(CFA_XSP16, literal(-17)))
          CFI (cfiCond94) V0 load(1, XDATA, add(CFA_XSP16, literal(-16)))
          CFI (cfiCond94) V1 load(1, XDATA, add(CFA_XSP16, literal(-15)))
          CFI (cfiCond94) V2 load(1, XDATA, add(CFA_XSP16, literal(-14)))
          CFI (cfiCond94) V3 load(1, XDATA, add(CFA_XSP16, literal(-13)))
          CFI (cfiCond94) V4 load(1, XDATA, add(CFA_XSP16, literal(-12)))
          CFI (cfiCond94) V5 load(1, XDATA, add(CFA_XSP16, literal(-11)))
          CFI (cfiCond94) V6 load(1, XDATA, add(CFA_XSP16, literal(-10)))
          CFI (cfiCond94) V7 load(1, XDATA, add(CFA_XSP16, literal(-9)))
          CFI (cfiCond94) V8 load(1, XDATA, add(CFA_XSP16, literal(-8)))
          CFI (cfiCond94) V9 load(1, XDATA, add(CFA_XSP16, literal(-7)))
          CFI (cfiCond94) R7 load(1, XDATA, add(CFA_XSP16, literal(-6)))
          CFI (cfiCond94) ?RET_LOW load(1, XDATA, add(CFA_XSP16, literal(-5)))
          CFI (cfiCond94) ?RET_HIGH load(1, XDATA, add(CFA_XSP16, literal(-4)))
          CFI (cfiCond94) ?BRET_EXT load(1, XDATA, add(CFA_XSP16, literal(-3)))
          CFI (cfiCond94) DPL0 load(1, XDATA, add(CFA_XSP16, literal(-2)))
          CFI (cfiCond94) DPH0 load(1, XDATA, add(CFA_XSP16, literal(-1)))
          CFI (cfiCond94) CFA_SP SP+-2
          CFI (cfiCond94) CFA_XSP16 add(XSP16, 108)
          CFI Block cfiCond95 Using cfiCommon0
          CFI (cfiCond95) Function zclGp_SendGpProxyTableResponse
          CFI (cfiCond95) Conditional ??CrossCallReturnLabel_78
          CFI (cfiCond95) R6 load(1, XDATA, add(CFA_XSP16, literal(-22)))
          CFI (cfiCond95) VB load(1, XDATA, add(CFA_XSP16, literal(-21)))
          CFI (cfiCond95) V0 load(1, XDATA, add(CFA_XSP16, literal(-20)))
          CFI (cfiCond95) V1 load(1, XDATA, add(CFA_XSP16, literal(-19)))
          CFI (cfiCond95) V2 load(1, XDATA, add(CFA_XSP16, literal(-18)))
          CFI (cfiCond95) V3 load(1, XDATA, add(CFA_XSP16, literal(-17)))
          CFI (cfiCond95) V4 load(1, XDATA, add(CFA_XSP16, literal(-16)))
          CFI (cfiCond95) V5 load(1, XDATA, add(CFA_XSP16, literal(-15)))
          CFI (cfiCond95) V6 load(1, XDATA, add(CFA_XSP16, literal(-14)))
          CFI (cfiCond95) V7 load(1, XDATA, add(CFA_XSP16, literal(-13)))
          CFI (cfiCond95) V8 load(1, XDATA, add(CFA_XSP16, literal(-12)))
          CFI (cfiCond95) V9 load(1, XDATA, add(CFA_XSP16, literal(-11)))
          CFI (cfiCond95) V10 load(1, XDATA, add(CFA_XSP16, literal(-10)))
          CFI (cfiCond95) V11 load(1, XDATA, add(CFA_XSP16, literal(-9)))
          CFI (cfiCond95) V12 load(1, XDATA, add(CFA_XSP16, literal(-8)))
          CFI (cfiCond95) V13 load(1, XDATA, add(CFA_XSP16, literal(-7)))
          CFI (cfiCond95) R7 load(1, XDATA, add(CFA_XSP16, literal(-6)))
          CFI (cfiCond95) ?RET_LOW load(1, XDATA, add(CFA_XSP16, literal(-5)))
          CFI (cfiCond95) ?RET_HIGH load(1, XDATA, add(CFA_XSP16, literal(-4)))
          CFI (cfiCond95) ?BRET_EXT load(1, XDATA, add(CFA_XSP16, literal(-3)))
          CFI (cfiCond95) DPL0 load(1, XDATA, add(CFA_XSP16, literal(-2)))
          CFI (cfiCond95) DPH0 load(1, XDATA, add(CFA_XSP16, literal(-1)))
          CFI (cfiCond95) CFA_SP SP+-2
          CFI (cfiCond95) CFA_XSP16 add(XSP16, 27)
          CFI Block cfiCond96 Using cfiCommon0
          CFI (cfiCond96) Function zclGp_SendGpNotificationCommand
          CFI (cfiCond96) Conditional ??CrossCallReturnLabel_72
          CFI (cfiCond96) R6 load(1, XDATA, add(CFA_XSP16, literal(-24)))
          CFI (cfiCond96) VB load(1, XDATA, add(CFA_XSP16, literal(-23)))
          CFI (cfiCond96) V0 load(1, XDATA, add(CFA_XSP16, literal(-22)))
          CFI (cfiCond96) V1 load(1, XDATA, add(CFA_XSP16, literal(-21)))
          CFI (cfiCond96) V2 load(1, XDATA, add(CFA_XSP16, literal(-20)))
          CFI (cfiCond96) V3 load(1, XDATA, add(CFA_XSP16, literal(-19)))
          CFI (cfiCond96) V4 load(1, XDATA, add(CFA_XSP16, literal(-18)))
          CFI (cfiCond96) V5 load(1, XDATA, add(CFA_XSP16, literal(-17)))
          CFI (cfiCond96) V6 load(1, XDATA, add(CFA_XSP16, literal(-16)))
          CFI (cfiCond96) V7 load(1, XDATA, add(CFA_XSP16, literal(-15)))
          CFI (cfiCond96) V8 load(1, XDATA, add(CFA_XSP16, literal(-14)))
          CFI (cfiCond96) V9 load(1, XDATA, add(CFA_XSP16, literal(-13)))
          CFI (cfiCond96) V10 load(1, XDATA, add(CFA_XSP16, literal(-12)))
          CFI (cfiCond96) V11 load(1, XDATA, add(CFA_XSP16, literal(-11)))
          CFI (cfiCond96) V12 load(1, XDATA, add(CFA_XSP16, literal(-10)))
          CFI (cfiCond96) V13 load(1, XDATA, add(CFA_XSP16, literal(-9)))
          CFI (cfiCond96) V14 load(1, XDATA, add(CFA_XSP16, literal(-8)))
          CFI (cfiCond96) V15 load(1, XDATA, add(CFA_XSP16, literal(-7)))
          CFI (cfiCond96) R7 load(1, XDATA, add(CFA_XSP16, literal(-6)))
          CFI (cfiCond96) ?RET_LOW load(1, XDATA, add(CFA_XSP16, literal(-5)))
          CFI (cfiCond96) ?RET_HIGH load(1, XDATA, add(CFA_XSP16, literal(-4)))
          CFI (cfiCond96) ?BRET_EXT load(1, XDATA, add(CFA_XSP16, literal(-3)))
          CFI (cfiCond96) DPL0 load(1, XDATA, add(CFA_XSP16, literal(-2)))
          CFI (cfiCond96) DPH0 load(1, XDATA, add(CFA_XSP16, literal(-1)))
          CFI (cfiCond96) CFA_SP SP+-2
          CFI (cfiCond96) CFA_XSP16 add(XSP16, 27)
          CFI Block cfiCond97 Using cfiCommon0
          CFI (cfiCond97) Function zclGp_SendGpNotificationCommand
          CFI (cfiCond97) Conditional ??CrossCallReturnLabel_73
          CFI (cfiCond97) R6 load(1, XDATA, add(CFA_XSP16, literal(-24)))
          CFI (cfiCond97) VB load(1, XDATA, add(CFA_XSP16, literal(-23)))
          CFI (cfiCond97) V0 load(1, XDATA, add(CFA_XSP16, literal(-22)))
          CFI (cfiCond97) V1 load(1, XDATA, add(CFA_XSP16, literal(-21)))
          CFI (cfiCond97) V2 load(1, XDATA, add(CFA_XSP16, literal(-20)))
          CFI (cfiCond97) V3 load(1, XDATA, add(CFA_XSP16, literal(-19)))
          CFI (cfiCond97) V4 load(1, XDATA, add(CFA_XSP16, literal(-18)))
          CFI (cfiCond97) V5 load(1, XDATA, add(CFA_XSP16, literal(-17)))
          CFI (cfiCond97) V6 load(1, XDATA, add(CFA_XSP16, literal(-16)))
          CFI (cfiCond97) V7 load(1, XDATA, add(CFA_XSP16, literal(-15)))
          CFI (cfiCond97) V8 load(1, XDATA, add(CFA_XSP16, literal(-14)))
          CFI (cfiCond97) V9 load(1, XDATA, add(CFA_XSP16, literal(-13)))
          CFI (cfiCond97) V10 load(1, XDATA, add(CFA_XSP16, literal(-12)))
          CFI (cfiCond97) V11 load(1, XDATA, add(CFA_XSP16, literal(-11)))
          CFI (cfiCond97) V12 load(1, XDATA, add(CFA_XSP16, literal(-10)))
          CFI (cfiCond97) V13 load(1, XDATA, add(CFA_XSP16, literal(-9)))
          CFI (cfiCond97) V14 load(1, XDATA, add(CFA_XSP16, literal(-8)))
          CFI (cfiCond97) V15 load(1, XDATA, add(CFA_XSP16, literal(-7)))
          CFI (cfiCond97) R7 load(1, XDATA, add(CFA_XSP16, literal(-6)))
          CFI (cfiCond97) ?RET_LOW load(1, XDATA, add(CFA_XSP16, literal(-5)))
          CFI (cfiCond97) ?RET_HIGH load(1, XDATA, add(CFA_XSP16, literal(-4)))
          CFI (cfiCond97) ?BRET_EXT load(1, XDATA, add(CFA_XSP16, literal(-3)))
          CFI (cfiCond97) DPL0 load(1, XDATA, add(CFA_XSP16, literal(-2)))
          CFI (cfiCond97) DPH0 load(1, XDATA, add(CFA_XSP16, literal(-1)))
          CFI (cfiCond97) CFA_SP SP+-2
          CFI (cfiCond97) CFA_XSP16 add(XSP16, 27)
          CFI Block cfiCond98 Using cfiCommon0
          CFI (cfiCond98) Function zclGp_SendGpNotificationCommand
          CFI (cfiCond98) Conditional ??CrossCallReturnLabel_74
          CFI (cfiCond98) R6 load(1, XDATA, add(CFA_XSP16, literal(-24)))
          CFI (cfiCond98) VB load(1, XDATA, add(CFA_XSP16, literal(-23)))
          CFI (cfiCond98) V0 load(1, XDATA, add(CFA_XSP16, literal(-22)))
          CFI (cfiCond98) V1 load(1, XDATA, add(CFA_XSP16, literal(-21)))
          CFI (cfiCond98) V2 load(1, XDATA, add(CFA_XSP16, literal(-20)))
          CFI (cfiCond98) V3 load(1, XDATA, add(CFA_XSP16, literal(-19)))
          CFI (cfiCond98) V4 load(1, XDATA, add(CFA_XSP16, literal(-18)))
          CFI (cfiCond98) V5 load(1, XDATA, add(CFA_XSP16, literal(-17)))
          CFI (cfiCond98) V6 load(1, XDATA, add(CFA_XSP16, literal(-16)))
          CFI (cfiCond98) V7 load(1, XDATA, add(CFA_XSP16, literal(-15)))
          CFI (cfiCond98) V8 load(1, XDATA, add(CFA_XSP16, literal(-14)))
          CFI (cfiCond98) V9 load(1, XDATA, add(CFA_XSP16, literal(-13)))
          CFI (cfiCond98) V10 load(1, XDATA, add(CFA_XSP16, literal(-12)))
          CFI (cfiCond98) V11 load(1, XDATA, add(CFA_XSP16, literal(-11)))
          CFI (cfiCond98) V12 load(1, XDATA, add(CFA_XSP16, literal(-10)))
          CFI (cfiCond98) V13 load(1, XDATA, add(CFA_XSP16, literal(-9)))
          CFI (cfiCond98) V14 load(1, XDATA, add(CFA_XSP16, literal(-8)))
          CFI (cfiCond98) V15 load(1, XDATA, add(CFA_XSP16, literal(-7)))
          CFI (cfiCond98) R7 load(1, XDATA, add(CFA_XSP16, literal(-6)))
          CFI (cfiCond98) ?RET_LOW load(1, XDATA, add(CFA_XSP16, literal(-5)))
          CFI (cfiCond98) ?RET_HIGH load(1, XDATA, add(CFA_XSP16, literal(-4)))
          CFI (cfiCond98) ?BRET_EXT load(1, XDATA, add(CFA_XSP16, literal(-3)))
          CFI (cfiCond98) DPL0 load(1, XDATA, add(CFA_XSP16, literal(-2)))
          CFI (cfiCond98) DPH0 load(1, XDATA, add(CFA_XSP16, literal(-1)))
          CFI (cfiCond98) CFA_SP SP+-2
          CFI (cfiCond98) CFA_XSP16 add(XSP16, 27)
          CFI Block cfiCond99 Using cfiCommon0
          CFI (cfiCond99) Function zclGp_SendGpCommissioningNotificationCommand
          CFI (cfiCond99) Conditional ??CrossCallReturnLabel_75
          CFI (cfiCond99) R6 load(1, XDATA, add(CFA_XSP16, literal(-20)))
          CFI (cfiCond99) VB load(1, XDATA, add(CFA_XSP16, literal(-19)))
          CFI (cfiCond99) V0 load(1, XDATA, add(CFA_XSP16, literal(-18)))
          CFI (cfiCond99) V1 load(1, XDATA, add(CFA_XSP16, literal(-17)))
          CFI (cfiCond99) V2 load(1, XDATA, add(CFA_XSP16, literal(-16)))
          CFI (cfiCond99) V3 load(1, XDATA, add(CFA_XSP16, literal(-15)))
          CFI (cfiCond99) V4 load(1, XDATA, add(CFA_XSP16, literal(-14)))
          CFI (cfiCond99) V5 load(1, XDATA, add(CFA_XSP16, literal(-13)))
          CFI (cfiCond99) V6 load(1, XDATA, add(CFA_XSP16, literal(-12)))
          CFI (cfiCond99) V7 load(1, XDATA, add(CFA_XSP16, literal(-11)))
          CFI (cfiCond99) V8 load(1, XDATA, add(CFA_XSP16, literal(-10)))
          CFI (cfiCond99) V9 load(1, XDATA, add(CFA_XSP16, literal(-9)))
          CFI (cfiCond99) V10 load(1, XDATA, add(CFA_XSP16, literal(-8)))
          CFI (cfiCond99) V11 load(1, XDATA, add(CFA_XSP16, literal(-7)))
          CFI (cfiCond99) R7 load(1, XDATA, add(CFA_XSP16, literal(-6)))
          CFI (cfiCond99) ?RET_LOW load(1, XDATA, add(CFA_XSP16, literal(-5)))
          CFI (cfiCond99) ?RET_HIGH load(1, XDATA, add(CFA_XSP16, literal(-4)))
          CFI (cfiCond99) ?BRET_EXT load(1, XDATA, add(CFA_XSP16, literal(-3)))
          CFI (cfiCond99) DPL0 load(1, XDATA, add(CFA_XSP16, literal(-2)))
          CFI (cfiCond99) DPH0 load(1, XDATA, add(CFA_XSP16, literal(-1)))
          CFI (cfiCond99) CFA_SP SP+-2
          CFI (cfiCond99) CFA_XSP16 add(XSP16, 35)
          CFI Block cfiCond100 Using cfiCommon0
          CFI (cfiCond100) Function zclGp_SendGpCommissioningNotificationCommand
          CFI (cfiCond100) Conditional ??CrossCallReturnLabel_76
          CFI (cfiCond100) R6 load(1, XDATA, add(CFA_XSP16, literal(-20)))
          CFI (cfiCond100) VB load(1, XDATA, add(CFA_XSP16, literal(-19)))
          CFI (cfiCond100) V0 load(1, XDATA, add(CFA_XSP16, literal(-18)))
          CFI (cfiCond100) V1 load(1, XDATA, add(CFA_XSP16, literal(-17)))
          CFI (cfiCond100) V2 load(1, XDATA, add(CFA_XSP16, literal(-16)))
          CFI (cfiCond100) V3 load(1, XDATA, add(CFA_XSP16, literal(-15)))
          CFI (cfiCond100) V4 load(1, XDATA, add(CFA_XSP16, literal(-14)))
          CFI (cfiCond100) V5 load(1, XDATA, add(CFA_XSP16, literal(-13)))
          CFI (cfiCond100) V6 load(1, XDATA, add(CFA_XSP16, literal(-12)))
          CFI (cfiCond100) V7 load(1, XDATA, add(CFA_XSP16, literal(-11)))
          CFI (cfiCond100) V8 load(1, XDATA, add(CFA_XSP16, literal(-10)))
          CFI (cfiCond100) V9 load(1, XDATA, add(CFA_XSP16, literal(-9)))
          CFI (cfiCond100) V10 load(1, XDATA, add(CFA_XSP16, literal(-8)))
          CFI (cfiCond100) V11 load(1, XDATA, add(CFA_XSP16, literal(-7)))
          CFI (cfiCond100) R7 load(1, XDATA, add(CFA_XSP16, literal(-6)))
          CFI (cfiCond100) ?RET_LOW load(1, XDATA, add(CFA_XSP16, literal(-5)))
          CFI (cfiCond100) ?RET_HIGH load(1, XDATA, add(CFA_XSP16, literal(-4)))
          CFI (cfiCond100) ?BRET_EXT load(1, XDATA, add(CFA_XSP16, literal(-3)))
          CFI (cfiCond100) DPL0 load(1, XDATA, add(CFA_XSP16, literal(-2)))
          CFI (cfiCond100) DPH0 load(1, XDATA, add(CFA_XSP16, literal(-1)))
          CFI (cfiCond100) CFA_SP SP+-2
          CFI (cfiCond100) CFA_XSP16 add(XSP16, 35)
          CFI Block cfiCond101 Using cfiCommon0
          CFI (cfiCond101) Function zclGp_SendGpCommissioningNotificationCommand
          CFI (cfiCond101) Conditional ??CrossCallReturnLabel_77
          CFI (cfiCond101) R6 load(1, XDATA, add(CFA_XSP16, literal(-20)))
          CFI (cfiCond101) VB load(1, XDATA, add(CFA_XSP16, literal(-19)))
          CFI (cfiCond101) V0 load(1, XDATA, add(CFA_XSP16, literal(-18)))
          CFI (cfiCond101) V1 load(1, XDATA, add(CFA_XSP16, literal(-17)))
          CFI (cfiCond101) V2 load(1, XDATA, add(CFA_XSP16, literal(-16)))
          CFI (cfiCond101) V3 load(1, XDATA, add(CFA_XSP16, literal(-15)))
          CFI (cfiCond101) V4 load(1, XDATA, add(CFA_XSP16, literal(-14)))
          CFI (cfiCond101) V5 load(1, XDATA, add(CFA_XSP16, literal(-13)))
          CFI (cfiCond101) V6 load(1, XDATA, add(CFA_XSP16, literal(-12)))
          CFI (cfiCond101) V7 load(1, XDATA, add(CFA_XSP16, literal(-11)))
          CFI (cfiCond101) V8 load(1, XDATA, add(CFA_XSP16, literal(-10)))
          CFI (cfiCond101) V9 load(1, XDATA, add(CFA_XSP16, literal(-9)))
          CFI (cfiCond101) V10 load(1, XDATA, add(CFA_XSP16, literal(-8)))
          CFI (cfiCond101) V11 load(1, XDATA, add(CFA_XSP16, literal(-7)))
          CFI (cfiCond101) R7 load(1, XDATA, add(CFA_XSP16, literal(-6)))
          CFI (cfiCond101) ?RET_LOW load(1, XDATA, add(CFA_XSP16, literal(-5)))
          CFI (cfiCond101) ?RET_HIGH load(1, XDATA, add(CFA_XSP16, literal(-4)))
          CFI (cfiCond101) ?BRET_EXT load(1, XDATA, add(CFA_XSP16, literal(-3)))
          CFI (cfiCond101) DPL0 load(1, XDATA, add(CFA_XSP16, literal(-2)))
          CFI (cfiCond101) DPH0 load(1, XDATA, add(CFA_XSP16, literal(-1)))
          CFI (cfiCond101) CFA_SP SP+-2
          CFI (cfiCond101) CFA_XSP16 add(XSP16, 35)
          CFI Block cfiCond102 Using cfiCommon0
          CFI (cfiCond102) Function zclGp_SendGpNotificationCommand
          CFI (cfiCond102) Conditional ??CrossCallReturnLabel_68
          CFI (cfiCond102) R6 load(1, XDATA, add(CFA_XSP16, literal(-24)))
          CFI (cfiCond102) VB load(1, XDATA, add(CFA_XSP16, literal(-23)))
          CFI (cfiCond102) V0 load(1, XDATA, add(CFA_XSP16, literal(-22)))
          CFI (cfiCond102) V1 load(1, XDATA, add(CFA_XSP16, literal(-21)))
          CFI (cfiCond102) V2 load(1, XDATA, add(CFA_XSP16, literal(-20)))
          CFI (cfiCond102) V3 load(1, XDATA, add(CFA_XSP16, literal(-19)))
          CFI (cfiCond102) V4 load(1, XDATA, add(CFA_XSP16, literal(-18)))
          CFI (cfiCond102) V5 load(1, XDATA, add(CFA_XSP16, literal(-17)))
          CFI (cfiCond102) V6 load(1, XDATA, add(CFA_XSP16, literal(-16)))
          CFI (cfiCond102) V7 load(1, XDATA, add(CFA_XSP16, literal(-15)))
          CFI (cfiCond102) V8 load(1, XDATA, add(CFA_XSP16, literal(-14)))
          CFI (cfiCond102) V9 load(1, XDATA, add(CFA_XSP16, literal(-13)))
          CFI (cfiCond102) V10 load(1, XDATA, add(CFA_XSP16, literal(-12)))
          CFI (cfiCond102) V11 load(1, XDATA, add(CFA_XSP16, literal(-11)))
          CFI (cfiCond102) V12 load(1, XDATA, add(CFA_XSP16, literal(-10)))
          CFI (cfiCond102) V13 load(1, XDATA, add(CFA_XSP16, literal(-9)))
          CFI (cfiCond102) V14 load(1, XDATA, add(CFA_XSP16, literal(-8)))
          CFI (cfiCond102) V15 load(1, XDATA, add(CFA_XSP16, literal(-7)))
          CFI (cfiCond102) R7 load(1, XDATA, add(CFA_XSP16, literal(-6)))
          CFI (cfiCond102) ?RET_LOW load(1, XDATA, add(CFA_XSP16, literal(-5)))
          CFI (cfiCond102) ?RET_HIGH load(1, XDATA, add(CFA_XSP16, literal(-4)))
          CFI (cfiCond102) ?BRET_EXT load(1, XDATA, add(CFA_XSP16, literal(-3)))
          CFI (cfiCond102) DPL0 load(1, XDATA, add(CFA_XSP16, literal(-2)))
          CFI (cfiCond102) DPH0 load(1, XDATA, add(CFA_XSP16, literal(-1)))
          CFI (cfiCond102) CFA_SP SP+-2
          CFI (cfiCond102) CFA_XSP16 add(XSP16, 27)
          CFI Block cfiCond103 Using cfiCommon0
          CFI (cfiCond103) Function zclGp_SendGpNotificationCommand
          CFI (cfiCond103) Conditional ??CrossCallReturnLabel_69
          CFI (cfiCond103) R6 load(1, XDATA, add(CFA_XSP16, literal(-24)))
          CFI (cfiCond103) VB load(1, XDATA, add(CFA_XSP16, literal(-23)))
          CFI (cfiCond103) V0 load(1, XDATA, add(CFA_XSP16, literal(-22)))
          CFI (cfiCond103) V1 load(1, XDATA, add(CFA_XSP16, literal(-21)))
          CFI (cfiCond103) V2 load(1, XDATA, add(CFA_XSP16, literal(-20)))
          CFI (cfiCond103) V3 load(1, XDATA, add(CFA_XSP16, literal(-19)))
          CFI (cfiCond103) V4 load(1, XDATA, add(CFA_XSP16, literal(-18)))
          CFI (cfiCond103) V5 load(1, XDATA, add(CFA_XSP16, literal(-17)))
          CFI (cfiCond103) V6 load(1, XDATA, add(CFA_XSP16, literal(-16)))
          CFI (cfiCond103) V7 load(1, XDATA, add(CFA_XSP16, literal(-15)))
          CFI (cfiCond103) V8 load(1, XDATA, add(CFA_XSP16, literal(-14)))
          CFI (cfiCond103) V9 load(1, XDATA, add(CFA_XSP16, literal(-13)))
          CFI (cfiCond103) V10 load(1, XDATA, add(CFA_XSP16, literal(-12)))
          CFI (cfiCond103) V11 load(1, XDATA, add(CFA_XSP16, literal(-11)))
          CFI (cfiCond103) V12 load(1, XDATA, add(CFA_XSP16, literal(-10)))
          CFI (cfiCond103) V13 load(1, XDATA, add(CFA_XSP16, literal(-9)))
          CFI (cfiCond103) V14 load(1, XDATA, add(CFA_XSP16, literal(-8)))
          CFI (cfiCond103) V15 load(1, XDATA, add(CFA_XSP16, literal(-7)))
          CFI (cfiCond103) R7 load(1, XDATA, add(CFA_XSP16, literal(-6)))
          CFI (cfiCond103) ?RET_LOW load(1, XDATA, add(CFA_XSP16, literal(-5)))
          CFI (cfiCond103) ?RET_HIGH load(1, XDATA, add(CFA_XSP16, literal(-4)))
          CFI (cfiCond103) ?BRET_EXT load(1, XDATA, add(CFA_XSP16, literal(-3)))
          CFI (cfiCond103) DPL0 load(1, XDATA, add(CFA_XSP16, literal(-2)))
          CFI (cfiCond103) DPH0 load(1, XDATA, add(CFA_XSP16, literal(-1)))
          CFI (cfiCond103) CFA_SP SP+-2
          CFI (cfiCond103) CFA_XSP16 add(XSP16, 27)
          CFI Block cfiCond104 Using cfiCommon0
          CFI (cfiCond104) Function zclGp_SendGpCommissioningNotificationCommand
          CFI (cfiCond104) Conditional ??CrossCallReturnLabel_70
          CFI (cfiCond104) R6 load(1, XDATA, add(CFA_XSP16, literal(-20)))
          CFI (cfiCond104) VB load(1, XDATA, add(CFA_XSP16, literal(-19)))
          CFI (cfiCond104) V0 load(1, XDATA, add(CFA_XSP16, literal(-18)))
          CFI (cfiCond104) V1 load(1, XDATA, add(CFA_XSP16, literal(-17)))
          CFI (cfiCond104) V2 load(1, XDATA, add(CFA_XSP16, literal(-16)))
          CFI (cfiCond104) V3 load(1, XDATA, add(CFA_XSP16, literal(-15)))
          CFI (cfiCond104) V4 load(1, XDATA, add(CFA_XSP16, literal(-14)))
          CFI (cfiCond104) V5 load(1, XDATA, add(CFA_XSP16, literal(-13)))
          CFI (cfiCond104) V6 load(1, XDATA, add(CFA_XSP16, literal(-12)))
          CFI (cfiCond104) V7 load(1, XDATA, add(CFA_XSP16, literal(-11)))
          CFI (cfiCond104) V8 load(1, XDATA, add(CFA_XSP16, literal(-10)))
          CFI (cfiCond104) V9 load(1, XDATA, add(CFA_XSP16, literal(-9)))
          CFI (cfiCond104) V10 load(1, XDATA, add(CFA_XSP16, literal(-8)))
          CFI (cfiCond104) V11 load(1, XDATA, add(CFA_XSP16, literal(-7)))
          CFI (cfiCond104) R7 load(1, XDATA, add(CFA_XSP16, literal(-6)))
          CFI (cfiCond104) ?RET_LOW load(1, XDATA, add(CFA_XSP16, literal(-5)))
          CFI (cfiCond104) ?RET_HIGH load(1, XDATA, add(CFA_XSP16, literal(-4)))
          CFI (cfiCond104) ?BRET_EXT load(1, XDATA, add(CFA_XSP16, literal(-3)))
          CFI (cfiCond104) DPL0 load(1, XDATA, add(CFA_XSP16, literal(-2)))
          CFI (cfiCond104) DPH0 load(1, XDATA, add(CFA_XSP16, literal(-1)))
          CFI (cfiCond104) CFA_SP SP+-2
          CFI (cfiCond104) CFA_XSP16 add(XSP16, 35)
          CFI Block cfiCond105 Using cfiCommon0
          CFI (cfiCond105) Function zclGp_SendGpCommissioningNotificationCommand
          CFI (cfiCond105) Conditional ??CrossCallReturnLabel_71
          CFI (cfiCond105) R6 load(1, XDATA, add(CFA_XSP16, literal(-20)))
          CFI (cfiCond105) VB load(1, XDATA, add(CFA_XSP16, literal(-19)))
          CFI (cfiCond105) V0 load(1, XDATA, add(CFA_XSP16, literal(-18)))
          CFI (cfiCond105) V1 load(1, XDATA, add(CFA_XSP16, literal(-17)))
          CFI (cfiCond105) V2 load(1, XDATA, add(CFA_XSP16, literal(-16)))
          CFI (cfiCond105) V3 load(1, XDATA, add(CFA_XSP16, literal(-15)))
          CFI (cfiCond105) V4 load(1, XDATA, add(CFA_XSP16, literal(-14)))
          CFI (cfiCond105) V5 load(1, XDATA, add(CFA_XSP16, literal(-13)))
          CFI (cfiCond105) V6 load(1, XDATA, add(CFA_XSP16, literal(-12)))
          CFI (cfiCond105) V7 load(1, XDATA, add(CFA_XSP16, literal(-11)))
          CFI (cfiCond105) V8 load(1, XDATA, add(CFA_XSP16, literal(-10)))
          CFI (cfiCond105) V9 load(1, XDATA, add(CFA_XSP16, literal(-9)))
          CFI (cfiCond105) V10 load(1, XDATA, add(CFA_XSP16, literal(-8)))
          CFI (cfiCond105) V11 load(1, XDATA, add(CFA_XSP16, literal(-7)))
          CFI (cfiCond105) R7 load(1, XDATA, add(CFA_XSP16, literal(-6)))
          CFI (cfiCond105) ?RET_LOW load(1, XDATA, add(CFA_XSP16, literal(-5)))
          CFI (cfiCond105) ?RET_HIGH load(1, XDATA, add(CFA_XSP16, literal(-4)))
          CFI (cfiCond105) ?BRET_EXT load(1, XDATA, add(CFA_XSP16, literal(-3)))
          CFI (cfiCond105) DPL0 load(1, XDATA, add(CFA_XSP16, literal(-2)))
          CFI (cfiCond105) DPH0 load(1, XDATA, add(CFA_XSP16, literal(-1)))
          CFI (cfiCond105) CFA_SP SP+-2
          CFI (cfiCond105) CFA_XSP16 add(XSP16, 35)
          CFI Block cfiPicker106 Using cfiCommon1
          CFI (cfiPicker106) NoFunction
          CFI (cfiPicker106) Picker
        LCALL     `??osal_memcpy::?relay`; Banked call to: osal_memcpy
        MOV       A,#0x3
        RET
          CFI EndBlock cfiCond83
          CFI EndBlock cfiCond84
          CFI EndBlock cfiCond85
          CFI EndBlock cfiCond86
          CFI EndBlock cfiCond87
          CFI EndBlock cfiCond88
          CFI EndBlock cfiCond89
          CFI EndBlock cfiCond90
          CFI EndBlock cfiCond91
          CFI EndBlock cfiCond92
          CFI EndBlock cfiCond93
          CFI EndBlock cfiCond94
          CFI EndBlock cfiCond95
          CFI EndBlock cfiCond96
          CFI EndBlock cfiCond97
          CFI EndBlock cfiCond98
          CFI EndBlock cfiCond99
          CFI EndBlock cfiCond100
          CFI EndBlock cfiCond101
          CFI EndBlock cfiCond102
          CFI EndBlock cfiCond103
          CFI EndBlock cfiCond104
          CFI EndBlock cfiCond105
          CFI EndBlock cfiPicker106

        RSEG BANKED_CODE:HUGECODE:NOROOT(0)
?Subroutine22:
          CFI Block cfiCond107 Using cfiCommon0
          CFI Function zclGp_RegisterCmdCallbacks
          CFI Conditional ??CrossCallReturnLabel_18
          CFI R6 load(1, XDATA, add(CFA_XSP16, literal(-12)))
          CFI VB load(1, XDATA, add(CFA_XSP16, literal(-11)))
          CFI V0 load(1, XDATA, add(CFA_XSP16, literal(-10)))
          CFI V1 load(1, XDATA, add(CFA_XSP16, literal(-9)))
          CFI V2 load(1, XDATA, add(CFA_XSP16, literal(-8)))
          CFI V3 load(1, XDATA, add(CFA_XSP16, literal(-7)))
          CFI R7 load(1, XDATA, add(CFA_XSP16, literal(-6)))
          CFI ?RET_LOW load(1, XDATA, add(CFA_XSP16, literal(-5)))
          CFI ?RET_HIGH load(1, XDATA, add(CFA_XSP16, literal(-4)))
          CFI ?BRET_EXT load(1, XDATA, add(CFA_XSP16, literal(-3)))
          CFI DPL0 load(1, XDATA, add(CFA_XSP16, literal(-2)))
          CFI DPH0 load(1, XDATA, add(CFA_XSP16, literal(-1)))
          CFI CFA_SP SP+-2
          CFI CFA_XSP16 add(XSP16, 12)
          CFI Block cfiCond108 Using cfiCommon0
          CFI (cfiCond108) Function zclGp_ProcessInProxyBasic
          CFI (cfiCond108) Conditional ??CrossCallReturnLabel_19
          CFI (cfiCond108) R6 load(1, XDATA, add(CFA_XSP16, literal(-20)))
          CFI (cfiCond108) VB load(1, XDATA, add(CFA_XSP16, literal(-19)))
          CFI (cfiCond108) V0 load(1, XDATA, add(CFA_XSP16, literal(-18)))
          CFI (cfiCond108) V1 load(1, XDATA, add(CFA_XSP16, literal(-17)))
          CFI (cfiCond108) V2 load(1, XDATA, add(CFA_XSP16, literal(-16)))
          CFI (cfiCond108) V3 load(1, XDATA, add(CFA_XSP16, literal(-15)))
          CFI (cfiCond108) V4 load(1, XDATA, add(CFA_XSP16, literal(-14)))
          CFI (cfiCond108) V5 load(1, XDATA, add(CFA_XSP16, literal(-13)))
          CFI (cfiCond108) V6 load(1, XDATA, add(CFA_XSP16, literal(-12)))
          CFI (cfiCond108) V7 load(1, XDATA, add(CFA_XSP16, literal(-11)))
          CFI (cfiCond108) V8 load(1, XDATA, add(CFA_XSP16, literal(-10)))
          CFI (cfiCond108) V9 load(1, XDATA, add(CFA_XSP16, literal(-9)))
          CFI (cfiCond108) V10 load(1, XDATA, add(CFA_XSP16, literal(-8)))
          CFI (cfiCond108) V11 load(1, XDATA, add(CFA_XSP16, literal(-7)))
          CFI (cfiCond108) R7 load(1, XDATA, add(CFA_XSP16, literal(-6)))
          CFI (cfiCond108) ?RET_LOW load(1, XDATA, add(CFA_XSP16, literal(-5)))
          CFI (cfiCond108) ?RET_HIGH load(1, XDATA, add(CFA_XSP16, literal(-4)))
          CFI (cfiCond108) ?BRET_EXT load(1, XDATA, add(CFA_XSP16, literal(-3)))
          CFI (cfiCond108) DPL0 load(1, XDATA, add(CFA_XSP16, literal(-2)))
          CFI (cfiCond108) DPH0 load(1, XDATA, add(CFA_XSP16, literal(-1)))
          CFI (cfiCond108) CFA_SP SP+-2
          CFI (cfiCond108) CFA_XSP16 add(XSP16, 42)
          CFI Block cfiCond109 Using cfiCommon0
          CFI (cfiCond109) Function zclGp_ProcessInProxyBasic
          CFI (cfiCond109) Conditional ??CrossCallReturnLabel_20
          CFI (cfiCond109) R6 load(1, XDATA, add(CFA_XSP16, literal(-20)))
          CFI (cfiCond109) VB load(1, XDATA, add(CFA_XSP16, literal(-19)))
          CFI (cfiCond109) V0 load(1, XDATA, add(CFA_XSP16, literal(-18)))
          CFI (cfiCond109) V1 load(1, XDATA, add(CFA_XSP16, literal(-17)))
          CFI (cfiCond109) V2 load(1, XDATA, add(CFA_XSP16, literal(-16)))
          CFI (cfiCond109) V3 load(1, XDATA, add(CFA_XSP16, literal(-15)))
          CFI (cfiCond109) V4 load(1, XDATA, add(CFA_XSP16, literal(-14)))
          CFI (cfiCond109) V5 load(1, XDATA, add(CFA_XSP16, literal(-13)))
          CFI (cfiCond109) V6 load(1, XDATA, add(CFA_XSP16, literal(-12)))
          CFI (cfiCond109) V7 load(1, XDATA, add(CFA_XSP16, literal(-11)))
          CFI (cfiCond109) V8 load(1, XDATA, add(CFA_XSP16, literal(-10)))
          CFI (cfiCond109) V9 load(1, XDATA, add(CFA_XSP16, literal(-9)))
          CFI (cfiCond109) V10 load(1, XDATA, add(CFA_XSP16, literal(-8)))
          CFI (cfiCond109) V11 load(1, XDATA, add(CFA_XSP16, literal(-7)))
          CFI (cfiCond109) R7 load(1, XDATA, add(CFA_XSP16, literal(-6)))
          CFI (cfiCond109) ?RET_LOW load(1, XDATA, add(CFA_XSP16, literal(-5)))
          CFI (cfiCond109) ?RET_HIGH load(1, XDATA, add(CFA_XSP16, literal(-4)))
          CFI (cfiCond109) ?BRET_EXT load(1, XDATA, add(CFA_XSP16, literal(-3)))
          CFI (cfiCond109) DPL0 load(1, XDATA, add(CFA_XSP16, literal(-2)))
          CFI (cfiCond109) DPH0 load(1, XDATA, add(CFA_XSP16, literal(-1)))
          CFI (cfiCond109) CFA_SP SP+-2
          CFI (cfiCond109) CFA_XSP16 add(XSP16, 42)
          CFI Block cfiCond110 Using cfiCommon0
          CFI (cfiCond110) Function zclGp_ProcessInProxyBasic
          CFI (cfiCond110) Conditional ??CrossCallReturnLabel_21
          CFI (cfiCond110) R6 load(1, XDATA, add(CFA_XSP16, literal(-20)))
          CFI (cfiCond110) VB load(1, XDATA, add(CFA_XSP16, literal(-19)))
          CFI (cfiCond110) V0 load(1, XDATA, add(CFA_XSP16, literal(-18)))
          CFI (cfiCond110) V1 load(1, XDATA, add(CFA_XSP16, literal(-17)))
          CFI (cfiCond110) V2 load(1, XDATA, add(CFA_XSP16, literal(-16)))
          CFI (cfiCond110) V3 load(1, XDATA, add(CFA_XSP16, literal(-15)))
          CFI (cfiCond110) V4 load(1, XDATA, add(CFA_XSP16, literal(-14)))
          CFI (cfiCond110) V5 load(1, XDATA, add(CFA_XSP16, literal(-13)))
          CFI (cfiCond110) V6 load(1, XDATA, add(CFA_XSP16, literal(-12)))
          CFI (cfiCond110) V7 load(1, XDATA, add(CFA_XSP16, literal(-11)))
          CFI (cfiCond110) V8 load(1, XDATA, add(CFA_XSP16, literal(-10)))
          CFI (cfiCond110) V9 load(1, XDATA, add(CFA_XSP16, literal(-9)))
          CFI (cfiCond110) V10 load(1, XDATA, add(CFA_XSP16, literal(-8)))
          CFI (cfiCond110) V11 load(1, XDATA, add(CFA_XSP16, literal(-7)))
          CFI (cfiCond110) R7 load(1, XDATA, add(CFA_XSP16, literal(-6)))
          CFI (cfiCond110) ?RET_LOW load(1, XDATA, add(CFA_XSP16, literal(-5)))
          CFI (cfiCond110) ?RET_HIGH load(1, XDATA, add(CFA_XSP16, literal(-4)))
          CFI (cfiCond110) ?BRET_EXT load(1, XDATA, add(CFA_XSP16, literal(-3)))
          CFI (cfiCond110) DPL0 load(1, XDATA, add(CFA_XSP16, literal(-2)))
          CFI (cfiCond110) DPH0 load(1, XDATA, add(CFA_XSP16, literal(-1)))
          CFI (cfiCond110) CFA_SP SP+-2
          CFI (cfiCond110) CFA_XSP16 add(XSP16, 42)
          CFI Block cfiCond111 Using cfiCommon0
          CFI (cfiCond111) Function zclGp_ProcessInProxyBasic
          CFI (cfiCond111) Conditional ??CrossCallReturnLabel_22
          CFI (cfiCond111) R6 load(1, XDATA, add(CFA_XSP16, literal(-20)))
          CFI (cfiCond111) VB load(1, XDATA, add(CFA_XSP16, literal(-19)))
          CFI (cfiCond111) V0 load(1, XDATA, add(CFA_XSP16, literal(-18)))
          CFI (cfiCond111) V1 load(1, XDATA, add(CFA_XSP16, literal(-17)))
          CFI (cfiCond111) V2 load(1, XDATA, add(CFA_XSP16, literal(-16)))
          CFI (cfiCond111) V3 load(1, XDATA, add(CFA_XSP16, literal(-15)))
          CFI (cfiCond111) V4 load(1, XDATA, add(CFA_XSP16, literal(-14)))
          CFI (cfiCond111) V5 load(1, XDATA, add(CFA_XSP16, literal(-13)))
          CFI (cfiCond111) V6 load(1, XDATA, add(CFA_XSP16, literal(-12)))
          CFI (cfiCond111) V7 load(1, XDATA, add(CFA_XSP16, literal(-11)))
          CFI (cfiCond111) V8 load(1, XDATA, add(CFA_XSP16, literal(-10)))
          CFI (cfiCond111) V9 load(1, XDATA, add(CFA_XSP16, literal(-9)))
          CFI (cfiCond111) V10 load(1, XDATA, add(CFA_XSP16, literal(-8)))
          CFI (cfiCond111) V11 load(1, XDATA, add(CFA_XSP16, literal(-7)))
          CFI (cfiCond111) R7 load(1, XDATA, add(CFA_XSP16, literal(-6)))
          CFI (cfiCond111) ?RET_LOW load(1, XDATA, add(CFA_XSP16, literal(-5)))
          CFI (cfiCond111) ?RET_HIGH load(1, XDATA, add(CFA_XSP16, literal(-4)))
          CFI (cfiCond111) ?BRET_EXT load(1, XDATA, add(CFA_XSP16, literal(-3)))
          CFI (cfiCond111) DPL0 load(1, XDATA, add(CFA_XSP16, literal(-2)))
          CFI (cfiCond111) DPH0 load(1, XDATA, add(CFA_XSP16, literal(-1)))
          CFI (cfiCond111) CFA_SP SP+-2
          CFI (cfiCond111) CFA_XSP16 add(XSP16, 42)
          CFI Block cfiCond112 Using cfiCommon0
          CFI (cfiCond112) Function zclGp_SendGpCommissioningNotificationCommand
          CFI (cfiCond112) Conditional ??CrossCallReturnLabel_23
          CFI (cfiCond112) R6 load(1, XDATA, add(CFA_XSP16, literal(-20)))
          CFI (cfiCond112) VB load(1, XDATA, add(CFA_XSP16, literal(-19)))
          CFI (cfiCond112) V0 load(1, XDATA, add(CFA_XSP16, literal(-18)))
          CFI (cfiCond112) V1 load(1, XDATA, add(CFA_XSP16, literal(-17)))
          CFI (cfiCond112) V2 load(1, XDATA, add(CFA_XSP16, literal(-16)))
          CFI (cfiCond112) V3 load(1, XDATA, add(CFA_XSP16, literal(-15)))
          CFI (cfiCond112) V4 load(1, XDATA, add(CFA_XSP16, literal(-14)))
          CFI (cfiCond112) V5 load(1, XDATA, add(CFA_XSP16, literal(-13)))
          CFI (cfiCond112) V6 load(1, XDATA, add(CFA_XSP16, literal(-12)))
          CFI (cfiCond112) V7 load(1, XDATA, add(CFA_XSP16, literal(-11)))
          CFI (cfiCond112) V8 load(1, XDATA, add(CFA_XSP16, literal(-10)))
          CFI (cfiCond112) V9 load(1, XDATA, add(CFA_XSP16, literal(-9)))
          CFI (cfiCond112) V10 load(1, XDATA, add(CFA_XSP16, literal(-8)))
          CFI (cfiCond112) V11 load(1, XDATA, add(CFA_XSP16, literal(-7)))
          CFI (cfiCond112) R7 load(1, XDATA, add(CFA_XSP16, literal(-6)))
          CFI (cfiCond112) ?RET_LOW load(1, XDATA, add(CFA_XSP16, literal(-5)))
          CFI (cfiCond112) ?RET_HIGH load(1, XDATA, add(CFA_XSP16, literal(-4)))
          CFI (cfiCond112) ?BRET_EXT load(1, XDATA, add(CFA_XSP16, literal(-3)))
          CFI (cfiCond112) DPL0 load(1, XDATA, add(CFA_XSP16, literal(-2)))
          CFI (cfiCond112) DPH0 load(1, XDATA, add(CFA_XSP16, literal(-1)))
          CFI (cfiCond112) CFA_SP SP+-2
          CFI (cfiCond112) CFA_XSP16 add(XSP16, 32)
          CFI Block cfiCond113 Using cfiCommon0
          CFI (cfiCond113) Function zclGp_SendGpCommissioningNotificationCommand
          CFI (cfiCond113) Conditional ??CrossCallReturnLabel_24
          CFI (cfiCond113) R6 load(1, XDATA, add(CFA_XSP16, literal(-20)))
          CFI (cfiCond113) VB load(1, XDATA, add(CFA_XSP16, literal(-19)))
          CFI (cfiCond113) V0 load(1, XDATA, add(CFA_XSP16, literal(-18)))
          CFI (cfiCond113) V1 load(1, XDATA, add(CFA_XSP16, literal(-17)))
          CFI (cfiCond113) V2 load(1, XDATA, add(CFA_XSP16, literal(-16)))
          CFI (cfiCond113) V3 load(1, XDATA, add(CFA_XSP16, literal(-15)))
          CFI (cfiCond113) V4 load(1, XDATA, add(CFA_XSP16, literal(-14)))
          CFI (cfiCond113) V5 load(1, XDATA, add(CFA_XSP16, literal(-13)))
          CFI (cfiCond113) V6 load(1, XDATA, add(CFA_XSP16, literal(-12)))
          CFI (cfiCond113) V7 load(1, XDATA, add(CFA_XSP16, literal(-11)))
          CFI (cfiCond113) V8 load(1, XDATA, add(CFA_XSP16, literal(-10)))
          CFI (cfiCond113) V9 load(1, XDATA, add(CFA_XSP16, literal(-9)))
          CFI (cfiCond113) V10 load(1, XDATA, add(CFA_XSP16, literal(-8)))
          CFI (cfiCond113) V11 load(1, XDATA, add(CFA_XSP16, literal(-7)))
          CFI (cfiCond113) R7 load(1, XDATA, add(CFA_XSP16, literal(-6)))
          CFI (cfiCond113) ?RET_LOW load(1, XDATA, add(CFA_XSP16, literal(-5)))
          CFI (cfiCond113) ?RET_HIGH load(1, XDATA, add(CFA_XSP16, literal(-4)))
          CFI (cfiCond113) ?BRET_EXT load(1, XDATA, add(CFA_XSP16, literal(-3)))
          CFI (cfiCond113) DPL0 load(1, XDATA, add(CFA_XSP16, literal(-2)))
          CFI (cfiCond113) DPH0 load(1, XDATA, add(CFA_XSP16, literal(-1)))
          CFI (cfiCond113) CFA_SP SP+-2
          CFI (cfiCond113) CFA_XSP16 add(XSP16, 32)
          CFI Block cfiCond114 Using cfiCommon0
          CFI (cfiCond114) Function gp_addPairedSinksToMsgQueue
          CFI (cfiCond114) Conditional ??CrossCallReturnLabel_25
          CFI (cfiCond114) R6 load(1, XDATA, add(CFA_XSP16, literal(-18)))
          CFI (cfiCond114) VB load(1, XDATA, add(CFA_XSP16, literal(-17)))
          CFI (cfiCond114) V0 load(1, XDATA, add(CFA_XSP16, literal(-16)))
          CFI (cfiCond114) V1 load(1, XDATA, add(CFA_XSP16, literal(-15)))
          CFI (cfiCond114) V2 load(1, XDATA, add(CFA_XSP16, literal(-14)))
          CFI (cfiCond114) V3 load(1, XDATA, add(CFA_XSP16, literal(-13)))
          CFI (cfiCond114) V4 load(1, XDATA, add(CFA_XSP16, literal(-12)))
          CFI (cfiCond114) V5 load(1, XDATA, add(CFA_XSP16, literal(-11)))
          CFI (cfiCond114) V6 load(1, XDATA, add(CFA_XSP16, literal(-10)))
          CFI (cfiCond114) V7 load(1, XDATA, add(CFA_XSP16, literal(-9)))
          CFI (cfiCond114) V8 load(1, XDATA, add(CFA_XSP16, literal(-8)))
          CFI (cfiCond114) V9 load(1, XDATA, add(CFA_XSP16, literal(-7)))
          CFI (cfiCond114) R7 load(1, XDATA, add(CFA_XSP16, literal(-6)))
          CFI (cfiCond114) ?RET_LOW load(1, XDATA, add(CFA_XSP16, literal(-5)))
          CFI (cfiCond114) ?RET_HIGH load(1, XDATA, add(CFA_XSP16, literal(-4)))
          CFI (cfiCond114) ?BRET_EXT load(1, XDATA, add(CFA_XSP16, literal(-3)))
          CFI (cfiCond114) DPL0 load(1, XDATA, add(CFA_XSP16, literal(-2)))
          CFI (cfiCond114) DPH0 load(1, XDATA, add(CFA_XSP16, literal(-1)))
          CFI (cfiCond114) CFA_SP SP+-2
          CFI (cfiCond114) CFA_XSP16 add(XSP16, 105)
          CFI Block cfiCond115 Using cfiCommon0
          CFI (cfiCond115) Function gp_NotificationMsgClean
          CFI (cfiCond115) Conditional ??CrossCallReturnLabel_26
          CFI (cfiCond115) R6 load(1, XDATA, add(CFA_XSP16, literal(-12)))
          CFI (cfiCond115) VB load(1, XDATA, add(CFA_XSP16, literal(-11)))
          CFI (cfiCond115) V0 load(1, XDATA, add(CFA_XSP16, literal(-10)))
          CFI (cfiCond115) V1 load(1, XDATA, add(CFA_XSP16, literal(-9)))
          CFI (cfiCond115) V2 load(1, XDATA, add(CFA_XSP16, literal(-8)))
          CFI (cfiCond115) V3 load(1, XDATA, add(CFA_XSP16, literal(-7)))
          CFI (cfiCond115) R7 load(1, XDATA, add(CFA_XSP16, literal(-6)))
          CFI (cfiCond115) ?RET_LOW load(1, XDATA, add(CFA_XSP16, literal(-5)))
          CFI (cfiCond115) ?RET_HIGH load(1, XDATA, add(CFA_XSP16, literal(-4)))
          CFI (cfiCond115) ?BRET_EXT load(1, XDATA, add(CFA_XSP16, literal(-3)))
          CFI (cfiCond115) DPL0 load(1, XDATA, add(CFA_XSP16, literal(-2)))
          CFI (cfiCond115) DPH0 load(1, XDATA, add(CFA_XSP16, literal(-1)))
          CFI (cfiCond115) CFA_SP SP+-2
          CFI (cfiCond115) CFA_XSP16 add(XSP16, 12)
          CFI Block cfiPicker116 Using cfiCommon1
          CFI (cfiPicker116) NoFunction
          CFI (cfiPicker116) Picker
        MOV       A,R0
        MOVX      @DPTR,A
        INC       DPTR
        MOV       A,R1
        MOVX      @DPTR,A
        RET
          CFI EndBlock cfiCond107
          CFI EndBlock cfiCond108
          CFI EndBlock cfiCond109
          CFI EndBlock cfiCond110
          CFI EndBlock cfiCond111
          CFI EndBlock cfiCond112
          CFI EndBlock cfiCond113
          CFI EndBlock cfiCond114
          CFI EndBlock cfiCond115
          CFI EndBlock cfiPicker116

        RSEG BANKED_CODE:HUGECODE:NOROOT(0)
?Subroutine21:
          CFI Block cfiCond117 Using cfiCommon0
          CFI Function zclGp_SendGpNotificationCommand
          CFI Conditional ??CrossCallReturnLabel_16
          CFI R6 load(1, XDATA, add(CFA_XSP16, literal(-24)))
          CFI VB load(1, XDATA, add(CFA_XSP16, literal(-23)))
          CFI V0 load(1, XDATA, add(CFA_XSP16, literal(-22)))
          CFI V1 load(1, XDATA, add(CFA_XSP16, literal(-21)))
          CFI V2 load(1, XDATA, add(CFA_XSP16, literal(-20)))
          CFI V3 load(1, XDATA, add(CFA_XSP16, literal(-19)))
          CFI V4 load(1, XDATA, add(CFA_XSP16, literal(-18)))
          CFI V5 load(1, XDATA, add(CFA_XSP16, literal(-17)))
          CFI V6 load(1, XDATA, add(CFA_XSP16, literal(-16)))
          CFI V7 load(1, XDATA, add(CFA_XSP16, literal(-15)))
          CFI V8 load(1, XDATA, add(CFA_XSP16, literal(-14)))
          CFI V9 load(1, XDATA, add(CFA_XSP16, literal(-13)))
          CFI V10 load(1, XDATA, add(CFA_XSP16, literal(-12)))
          CFI V11 load(1, XDATA, add(CFA_XSP16, literal(-11)))
          CFI V12 load(1, XDATA, add(CFA_XSP16, literal(-10)))
          CFI V13 load(1, XDATA, add(CFA_XSP16, literal(-9)))
          CFI V14 load(1, XDATA, add(CFA_XSP16, literal(-8)))
          CFI V15 load(1, XDATA, add(CFA_XSP16, literal(-7)))
          CFI R7 load(1, XDATA, add(CFA_XSP16, literal(-6)))
          CFI ?RET_LOW load(1, XDATA, add(CFA_XSP16, literal(-5)))
          CFI ?RET_HIGH load(1, XDATA, add(CFA_XSP16, literal(-4)))
          CFI ?BRET_EXT load(1, XDATA, add(CFA_XSP16, literal(-3)))
          CFI DPL0 load(1, XDATA, add(CFA_XSP16, literal(-2)))
          CFI DPH0 load(1, XDATA, add(CFA_XSP16, literal(-1)))
          CFI CFA_SP SP+-2
          CFI CFA_XSP16 add(XSP16, 24)
          CFI Block cfiCond118 Using cfiCommon0
          CFI (cfiCond118) Function zclGp_SendGpCommissioningNotificationCommand
          CFI (cfiCond118) Conditional ??CrossCallReturnLabel_17
          CFI (cfiCond118) R6 load(1, XDATA, add(CFA_XSP16, literal(-20)))
          CFI (cfiCond118) VB load(1, XDATA, add(CFA_XSP16, literal(-19)))
          CFI (cfiCond118) V0 load(1, XDATA, add(CFA_XSP16, literal(-18)))
          CFI (cfiCond118) V1 load(1, XDATA, add(CFA_XSP16, literal(-17)))
          CFI (cfiCond118) V2 load(1, XDATA, add(CFA_XSP16, literal(-16)))
          CFI (cfiCond118) V3 load(1, XDATA, add(CFA_XSP16, literal(-15)))
          CFI (cfiCond118) V4 load(1, XDATA, add(CFA_XSP16, literal(-14)))
          CFI (cfiCond118) V5 load(1, XDATA, add(CFA_XSP16, literal(-13)))
          CFI (cfiCond118) V6 load(1, XDATA, add(CFA_XSP16, literal(-12)))
          CFI (cfiCond118) V7 load(1, XDATA, add(CFA_XSP16, literal(-11)))
          CFI (cfiCond118) V8 load(1, XDATA, add(CFA_XSP16, literal(-10)))
          CFI (cfiCond118) V9 load(1, XDATA, add(CFA_XSP16, literal(-9)))
          CFI (cfiCond118) V10 load(1, XDATA, add(CFA_XSP16, literal(-8)))
          CFI (cfiCond118) V11 load(1, XDATA, add(CFA_XSP16, literal(-7)))
          CFI (cfiCond118) R7 load(1, XDATA, add(CFA_XSP16, literal(-6)))
          CFI (cfiCond118) ?RET_LOW load(1, XDATA, add(CFA_XSP16, literal(-5)))
          CFI (cfiCond118) ?RET_HIGH load(1, XDATA, add(CFA_XSP16, literal(-4)))
          CFI (cfiCond118) ?BRET_EXT load(1, XDATA, add(CFA_XSP16, literal(-3)))
          CFI (cfiCond118) DPL0 load(1, XDATA, add(CFA_XSP16, literal(-2)))
          CFI (cfiCond118) DPH0 load(1, XDATA, add(CFA_XSP16, literal(-1)))
          CFI (cfiCond118) CFA_SP SP+-2
          CFI (cfiCond118) CFA_XSP16 add(XSP16, 32)
          CFI Block cfiPicker119 Using cfiCommon1
          CFI (cfiPicker119) NoFunction
          CFI (cfiPicker119) Picker
        MOV       DPH,A
        MOVX      A,@DPTR
        MOV       DPL,R6
        MOV       DPH,R7
        INC       DPTR
        INC       DPTR
        MOVX      @DPTR,A
        RET
          CFI EndBlock cfiCond117
          CFI EndBlock cfiCond118
          CFI EndBlock cfiPicker119

        RSEG BANKED_CODE:HUGECODE:NOROOT(0)
?Subroutine20:
          CFI Block cfiCond120 Using cfiCommon0
          CFI Function zclGp_SendGpNotificationCommand
          CFI Conditional ??CrossCallReturnLabel_14
          CFI R6 load(1, XDATA, add(CFA_XSP16, literal(-24)))
          CFI VB load(1, XDATA, add(CFA_XSP16, literal(-23)))
          CFI V0 load(1, XDATA, add(CFA_XSP16, literal(-22)))
          CFI V1 load(1, XDATA, add(CFA_XSP16, literal(-21)))
          CFI V2 load(1, XDATA, add(CFA_XSP16, literal(-20)))
          CFI V3 load(1, XDATA, add(CFA_XSP16, literal(-19)))
          CFI V4 load(1, XDATA, add(CFA_XSP16, literal(-18)))
          CFI V5 load(1, XDATA, add(CFA_XSP16, literal(-17)))
          CFI V6 load(1, XDATA, add(CFA_XSP16, literal(-16)))
          CFI V7 load(1, XDATA, add(CFA_XSP16, literal(-15)))
          CFI V8 load(1, XDATA, add(CFA_XSP16, literal(-14)))
          CFI V9 load(1, XDATA, add(CFA_XSP16, literal(-13)))
          CFI V10 load(1, XDATA, add(CFA_XSP16, literal(-12)))
          CFI V11 load(1, XDATA, add(CFA_XSP16, literal(-11)))
          CFI V12 load(1, XDATA, add(CFA_XSP16, literal(-10)))
          CFI V13 load(1, XDATA, add(CFA_XSP16, literal(-9)))
          CFI V14 load(1, XDATA, add(CFA_XSP16, literal(-8)))
          CFI V15 load(1, XDATA, add(CFA_XSP16, literal(-7)))
          CFI R7 load(1, XDATA, add(CFA_XSP16, literal(-6)))
          CFI ?RET_LOW load(1, XDATA, add(CFA_XSP16, literal(-5)))
          CFI ?RET_HIGH load(1, XDATA, add(CFA_XSP16, literal(-4)))
          CFI ?BRET_EXT load(1, XDATA, add(CFA_XSP16, literal(-3)))
          CFI DPL0 load(1, XDATA, add(CFA_XSP16, literal(-2)))
          CFI DPH0 load(1, XDATA, add(CFA_XSP16, literal(-1)))
          CFI CFA_SP SP+-2
          CFI CFA_XSP16 add(XSP16, 24)
          CFI Block cfiCond121 Using cfiCommon0
          CFI (cfiCond121) Function zclGp_SendGpCommissioningNotificationCommand
          CFI (cfiCond121) Conditional ??CrossCallReturnLabel_15
          CFI (cfiCond121) R6 load(1, XDATA, add(CFA_XSP16, literal(-20)))
          CFI (cfiCond121) VB load(1, XDATA, add(CFA_XSP16, literal(-19)))
          CFI (cfiCond121) V0 load(1, XDATA, add(CFA_XSP16, literal(-18)))
          CFI (cfiCond121) V1 load(1, XDATA, add(CFA_XSP16, literal(-17)))
          CFI (cfiCond121) V2 load(1, XDATA, add(CFA_XSP16, literal(-16)))
          CFI (cfiCond121) V3 load(1, XDATA, add(CFA_XSP16, literal(-15)))
          CFI (cfiCond121) V4 load(1, XDATA, add(CFA_XSP16, literal(-14)))
          CFI (cfiCond121) V5 load(1, XDATA, add(CFA_XSP16, literal(-13)))
          CFI (cfiCond121) V6 load(1, XDATA, add(CFA_XSP16, literal(-12)))
          CFI (cfiCond121) V7 load(1, XDATA, add(CFA_XSP16, literal(-11)))
          CFI (cfiCond121) V8 load(1, XDATA, add(CFA_XSP16, literal(-10)))
          CFI (cfiCond121) V9 load(1, XDATA, add(CFA_XSP16, literal(-9)))
          CFI (cfiCond121) V10 load(1, XDATA, add(CFA_XSP16, literal(-8)))
          CFI (cfiCond121) V11 load(1, XDATA, add(CFA_XSP16, literal(-7)))
          CFI (cfiCond121) R7 load(1, XDATA, add(CFA_XSP16, literal(-6)))
          CFI (cfiCond121) ?RET_LOW load(1, XDATA, add(CFA_XSP16, literal(-5)))
          CFI (cfiCond121) ?RET_HIGH load(1, XDATA, add(CFA_XSP16, literal(-4)))
          CFI (cfiCond121) ?BRET_EXT load(1, XDATA, add(CFA_XSP16, literal(-3)))
          CFI (cfiCond121) DPL0 load(1, XDATA, add(CFA_XSP16, literal(-2)))
          CFI (cfiCond121) DPH0 load(1, XDATA, add(CFA_XSP16, literal(-1)))
          CFI (cfiCond121) CFA_SP SP+-2
          CFI (cfiCond121) CFA_XSP16 add(XSP16, 32)
          CFI Block cfiPicker122 Using cfiCommon1
          CFI (cfiPicker122) NoFunction
          CFI (cfiPicker122) Picker
        MOV       DPL,?V10
        MOV       DPH,?V11
        MOVX      A,@DPTR
        MOV       R0,A
        MOV       A,R6
        ADD       A,R0
        MOV       R6,A
        CLR       A
        ADDC      A,R7
        MOV       R7,A
        RET
          CFI EndBlock cfiCond120
          CFI EndBlock cfiCond121
          CFI EndBlock cfiPicker122

        RSEG BANKED_CODE:HUGECODE:NOROOT(0)
?Subroutine16:
          CFI Block cfiCond123 Using cfiCommon0
          CFI Function zclGp_ProcessInProxyBasic
          CFI Conditional ??CrossCallReturnLabel_12
          CFI R6 load(1, XDATA, add(CFA_XSP16, literal(-20)))
          CFI VB load(1, XDATA, add(CFA_XSP16, literal(-19)))
          CFI V0 load(1, XDATA, add(CFA_XSP16, literal(-18)))
          CFI V1 load(1, XDATA, add(CFA_XSP16, literal(-17)))
          CFI V2 load(1, XDATA, add(CFA_XSP16, literal(-16)))
          CFI V3 load(1, XDATA, add(CFA_XSP16, literal(-15)))
          CFI V4 load(1, XDATA, add(CFA_XSP16, literal(-14)))
          CFI V5 load(1, XDATA, add(CFA_XSP16, literal(-13)))
          CFI V6 load(1, XDATA, add(CFA_XSP16, literal(-12)))
          CFI V7 load(1, XDATA, add(CFA_XSP16, literal(-11)))
          CFI V8 load(1, XDATA, add(CFA_XSP16, literal(-10)))
          CFI V9 load(1, XDATA, add(CFA_XSP16, literal(-9)))
          CFI V10 load(1, XDATA, add(CFA_XSP16, literal(-8)))
          CFI V11 load(1, XDATA, add(CFA_XSP16, literal(-7)))
          CFI R7 load(1, XDATA, add(CFA_XSP16, literal(-6)))
          CFI ?RET_LOW load(1, XDATA, add(CFA_XSP16, literal(-5)))
          CFI ?RET_HIGH load(1, XDATA, add(CFA_XSP16, literal(-4)))
          CFI ?BRET_EXT load(1, XDATA, add(CFA_XSP16, literal(-3)))
          CFI DPL0 load(1, XDATA, add(CFA_XSP16, literal(-2)))
          CFI DPH0 load(1, XDATA, add(CFA_XSP16, literal(-1)))
          CFI CFA_SP SP+-2
          CFI CFA_XSP16 add(XSP16, 42)
          CFI Block cfiCond124 Using cfiCommon0
          CFI (cfiCond124) Function zclGp_SendGpCommissioningNotificationCommand
          CFI (cfiCond124) Conditional ??CrossCallReturnLabel_13
          CFI (cfiCond124) R6 load(1, XDATA, add(CFA_XSP16, literal(-20)))
          CFI (cfiCond124) VB load(1, XDATA, add(CFA_XSP16, literal(-19)))
          CFI (cfiCond124) V0 load(1, XDATA, add(CFA_XSP16, literal(-18)))
          CFI (cfiCond124) V1 load(1, XDATA, add(CFA_XSP16, literal(-17)))
          CFI (cfiCond124) V2 load(1, XDATA, add(CFA_XSP16, literal(-16)))
          CFI (cfiCond124) V3 load(1, XDATA, add(CFA_XSP16, literal(-15)))
          CFI (cfiCond124) V4 load(1, XDATA, add(CFA_XSP16, literal(-14)))
          CFI (cfiCond124) V5 load(1, XDATA, add(CFA_XSP16, literal(-13)))
          CFI (cfiCond124) V6 load(1, XDATA, add(CFA_XSP16, literal(-12)))
          CFI (cfiCond124) V7 load(1, XDATA, add(CFA_XSP16, literal(-11)))
          CFI (cfiCond124) V8 load(1, XDATA, add(CFA_XSP16, literal(-10)))
          CFI (cfiCond124) V9 load(1, XDATA, add(CFA_XSP16, literal(-9)))
          CFI (cfiCond124) V10 load(1, XDATA, add(CFA_XSP16, literal(-8)))
          CFI (cfiCond124) V11 load(1, XDATA, add(CFA_XSP16, literal(-7)))
          CFI (cfiCond124) R7 load(1, XDATA, add(CFA_XSP16, literal(-6)))
          CFI (cfiCond124) ?RET_LOW load(1, XDATA, add(CFA_XSP16, literal(-5)))
          CFI (cfiCond124) ?RET_HIGH load(1, XDATA, add(CFA_XSP16, literal(-4)))
          CFI (cfiCond124) ?BRET_EXT load(1, XDATA, add(CFA_XSP16, literal(-3)))
          CFI (cfiCond124) DPL0 load(1, XDATA, add(CFA_XSP16, literal(-2)))
          CFI (cfiCond124) DPH0 load(1, XDATA, add(CFA_XSP16, literal(-1)))
          CFI (cfiCond124) CFA_SP SP+-2
          CFI (cfiCond124) CFA_XSP16 add(XSP16, 32)
          CFI Block cfiPicker125 Using cfiCommon1
          CFI (cfiPicker125) NoFunction
          CFI (cfiPicker125) Picker
        MOVX      A,@DPTR
        MOV       R0,A
        INC       DPTR
        MOVX      A,@DPTR
        MOV       R1,A
        MOV       DPL,?XSP + 0
        MOV       DPH,?XSP + 1
        RET
          CFI EndBlock cfiCond123
          CFI EndBlock cfiCond124
          CFI EndBlock cfiPicker125

        RSEG BANKED_CODE:HUGECODE:NOROOT(0)
?Subroutine11:
          CFI Block cfiCond126 Using cfiCommon0
          CFI Function zclGp_SendGpNotificationCommand
          CFI Conditional ??CrossCallReturnLabel_6
          CFI R6 load(1, XDATA, add(CFA_XSP16, literal(-24)))
          CFI VB load(1, XDATA, add(CFA_XSP16, literal(-23)))
          CFI V0 load(1, XDATA, add(CFA_XSP16, literal(-22)))
          CFI V1 load(1, XDATA, add(CFA_XSP16, literal(-21)))
          CFI V2 load(1, XDATA, add(CFA_XSP16, literal(-20)))
          CFI V3 load(1, XDATA, add(CFA_XSP16, literal(-19)))
          CFI V4 load(1, XDATA, add(CFA_XSP16, literal(-18)))
          CFI V5 load(1, XDATA, add(CFA_XSP16, literal(-17)))
          CFI V6 load(1, XDATA, add(CFA_XSP16, literal(-16)))
          CFI V7 load(1, XDATA, add(CFA_XSP16, literal(-15)))
          CFI V8 load(1, XDATA, add(CFA_XSP16, literal(-14)))
          CFI V9 load(1, XDATA, add(CFA_XSP16, literal(-13)))
          CFI V10 load(1, XDATA, add(CFA_XSP16, literal(-12)))
          CFI V11 load(1, XDATA, add(CFA_XSP16, literal(-11)))
          CFI V12 load(1, XDATA, add(CFA_XSP16, literal(-10)))
          CFI V13 load(1, XDATA, add(CFA_XSP16, literal(-9)))
          CFI V14 load(1, XDATA, add(CFA_XSP16, literal(-8)))
          CFI V15 load(1, XDATA, add(CFA_XSP16, literal(-7)))
          CFI R7 load(1, XDATA, add(CFA_XSP16, literal(-6)))
          CFI ?RET_LOW load(1, XDATA, add(CFA_XSP16, literal(-5)))
          CFI ?RET_HIGH load(1, XDATA, add(CFA_XSP16, literal(-4)))
          CFI ?BRET_EXT load(1, XDATA, add(CFA_XSP16, literal(-3)))
          CFI DPL0 load(1, XDATA, add(CFA_XSP16, literal(-2)))
          CFI DPH0 load(1, XDATA, add(CFA_XSP16, literal(-1)))
          CFI CFA_SP SP+-2
          CFI CFA_XSP16 add(XSP16, 24)
          CFI Block cfiCond127 Using cfiCommon0
          CFI (cfiCond127) Function zclGp_SendGpCommissioningNotificationCommand
          CFI (cfiCond127) Conditional ??CrossCallReturnLabel_7
          CFI (cfiCond127) R6 load(1, XDATA, add(CFA_XSP16, literal(-20)))
          CFI (cfiCond127) VB load(1, XDATA, add(CFA_XSP16, literal(-19)))
          CFI (cfiCond127) V0 load(1, XDATA, add(CFA_XSP16, literal(-18)))
          CFI (cfiCond127) V1 load(1, XDATA, add(CFA_XSP16, literal(-17)))
          CFI (cfiCond127) V2 load(1, XDATA, add(CFA_XSP16, literal(-16)))
          CFI (cfiCond127) V3 load(1, XDATA, add(CFA_XSP16, literal(-15)))
          CFI (cfiCond127) V4 load(1, XDATA, add(CFA_XSP16, literal(-14)))
          CFI (cfiCond127) V5 load(1, XDATA, add(CFA_XSP16, literal(-13)))
          CFI (cfiCond127) V6 load(1, XDATA, add(CFA_XSP16, literal(-12)))
          CFI (cfiCond127) V7 load(1, XDATA, add(CFA_XSP16, literal(-11)))
          CFI (cfiCond127) V8 load(1, XDATA, add(CFA_XSP16, literal(-10)))
          CFI (cfiCond127) V9 load(1, XDATA, add(CFA_XSP16, literal(-9)))
          CFI (cfiCond127) V10 load(1, XDATA, add(CFA_XSP16, literal(-8)))
          CFI (cfiCond127) V11 load(1, XDATA, add(CFA_XSP16, literal(-7)))
          CFI (cfiCond127) R7 load(1, XDATA, add(CFA_XSP16, literal(-6)))
          CFI (cfiCond127) ?RET_LOW load(1, XDATA, add(CFA_XSP16, literal(-5)))
          CFI (cfiCond127) ?RET_HIGH load(1, XDATA, add(CFA_XSP16, literal(-4)))
          CFI (cfiCond127) ?BRET_EXT load(1, XDATA, add(CFA_XSP16, literal(-3)))
          CFI (cfiCond127) DPL0 load(1, XDATA, add(CFA_XSP16, literal(-2)))
          CFI (cfiCond127) DPH0 load(1, XDATA, add(CFA_XSP16, literal(-1)))
          CFI (cfiCond127) CFA_SP SP+-2
          CFI (cfiCond127) CFA_XSP16 add(XSP16, 32)
          CFI Block cfiPicker128 Using cfiCommon1
          CFI (cfiPicker128) NoFunction
          CFI (cfiPicker128) Picker
        MOV       DPH,A
        LCALL     ?Subroutine33 & 0xFFFF
??CrossCallReturnLabel_45:
        INC       DPTR
        INC       DPTR
        INC       DPTR
        MOVX      @DPTR,A
        MOV       A,R6
        ADD       A,#0x9
        RET
          CFI EndBlock cfiCond126
          CFI EndBlock cfiCond127
          CFI EndBlock cfiPicker128

        RSEG BANKED_CODE:HUGECODE:NOROOT(0)
?Subroutine7:
          CFI Block cfiCond129 Using cfiCommon0
          CFI Function zclGp_SendGpNotificationCommand
          CFI Conditional ??CrossCallReturnLabel_0
          CFI R6 load(1, XDATA, add(CFA_XSP16, literal(-24)))
          CFI VB load(1, XDATA, add(CFA_XSP16, literal(-23)))
          CFI V0 load(1, XDATA, add(CFA_XSP16, literal(-22)))
          CFI V1 load(1, XDATA, add(CFA_XSP16, literal(-21)))
          CFI V2 load(1, XDATA, add(CFA_XSP16, literal(-20)))
          CFI V3 load(1, XDATA, add(CFA_XSP16, literal(-19)))
          CFI V4 load(1, XDATA, add(CFA_XSP16, literal(-18)))
          CFI V5 load(1, XDATA, add(CFA_XSP16, literal(-17)))
          CFI V6 load(1, XDATA, add(CFA_XSP16, literal(-16)))
          CFI V7 load(1, XDATA, add(CFA_XSP16, literal(-15)))
          CFI V8 load(1, XDATA, add(CFA_XSP16, literal(-14)))
          CFI V9 load(1, XDATA, add(CFA_XSP16, literal(-13)))
          CFI V10 load(1, XDATA, add(CFA_XSP16, literal(-12)))
          CFI V11 load(1, XDATA, add(CFA_XSP16, literal(-11)))
          CFI V12 load(1, XDATA, add(CFA_XSP16, literal(-10)))
          CFI V13 load(1, XDATA, add(CFA_XSP16, literal(-9)))
          CFI V14 load(1, XDATA, add(CFA_XSP16, literal(-8)))
          CFI V15 load(1, XDATA, add(CFA_XSP16, literal(-7)))
          CFI R7 load(1, XDATA, add(CFA_XSP16, literal(-6)))
          CFI ?RET_LOW load(1, XDATA, add(CFA_XSP16, literal(-5)))
          CFI ?RET_HIGH load(1, XDATA, add(CFA_XSP16, literal(-4)))
          CFI ?BRET_EXT load(1, XDATA, add(CFA_XSP16, literal(-3)))
          CFI DPL0 load(1, XDATA, add(CFA_XSP16, literal(-2)))
          CFI DPH0 load(1, XDATA, add(CFA_XSP16, literal(-1)))
          CFI CFA_SP SP+-2
          CFI CFA_XSP16 add(XSP16, 24)
          CFI Block cfiCond130 Using cfiCommon0
          CFI (cfiCond130) Function zclGp_SendGpCommissioningNotificationCommand
          CFI (cfiCond130) Conditional ??CrossCallReturnLabel_1
          CFI (cfiCond130) R6 load(1, XDATA, add(CFA_XSP16, literal(-20)))
          CFI (cfiCond130) VB load(1, XDATA, add(CFA_XSP16, literal(-19)))
          CFI (cfiCond130) V0 load(1, XDATA, add(CFA_XSP16, literal(-18)))
          CFI (cfiCond130) V1 load(1, XDATA, add(CFA_XSP16, literal(-17)))
          CFI (cfiCond130) V2 load(1, XDATA, add(CFA_XSP16, literal(-16)))
          CFI (cfiCond130) V3 load(1, XDATA, add(CFA_XSP16, literal(-15)))
          CFI (cfiCond130) V4 load(1, XDATA, add(CFA_XSP16, literal(-14)))
          CFI (cfiCond130) V5 load(1, XDATA, add(CFA_XSP16, literal(-13)))
          CFI (cfiCond130) V6 load(1, XDATA, add(CFA_XSP16, literal(-12)))
          CFI (cfiCond130) V7 load(1, XDATA, add(CFA_XSP16, literal(-11)))
          CFI (cfiCond130) V8 load(1, XDATA, add(CFA_XSP16, literal(-10)))
          CFI (cfiCond130) V9 load(1, XDATA, add(CFA_XSP16, literal(-9)))
          CFI (cfiCond130) V10 load(1, XDATA, add(CFA_XSP16, literal(-8)))
          CFI (cfiCond130) V11 load(1, XDATA, add(CFA_XSP16, literal(-7)))
          CFI (cfiCond130) R7 load(1, XDATA, add(CFA_XSP16, literal(-6)))
          CFI (cfiCond130) ?RET_LOW load(1, XDATA, add(CFA_XSP16, literal(-5)))
          CFI (cfiCond130) ?RET_HIGH load(1, XDATA, add(CFA_XSP16, literal(-4)))
          CFI (cfiCond130) ?BRET_EXT load(1, XDATA, add(CFA_XSP16, literal(-3)))
          CFI (cfiCond130) DPL0 load(1, XDATA, add(CFA_XSP16, literal(-2)))
          CFI (cfiCond130) DPH0 load(1, XDATA, add(CFA_XSP16, literal(-1)))
          CFI (cfiCond130) CFA_SP SP+-2
          CFI (cfiCond130) CFA_XSP16 add(XSP16, 32)
          CFI Block cfiPicker131 Using cfiCommon1
          CFI (cfiPicker131) NoFunction
          CFI (cfiPicker131) Picker
        MOV       DPH,A
        LCALL     ?Subroutine36 & 0xFFFF
??CrossCallReturnLabel_53:
        MOVX      @DPTR,A
        MOV       DPL,?V10
        MOV       DPH,?V11
        LCALL     ?Subroutine33 & 0xFFFF
??CrossCallReturnLabel_44:
        MOVX      @DPTR,A
        MOV       A,R6
        ADD       A,#0x6
        MOV       R6,A
        RET
          CFI EndBlock cfiCond129
          CFI EndBlock cfiCond130
          CFI EndBlock cfiPicker131

        RSEG BANKED_CODE:HUGECODE:NOROOT(0)
?Subroutine33:
          CFI Block cfiCond132 Using cfiCommon0
          CFI Function zclGp_SendGpNotificationCommand
          CFI Conditional ??CrossCallReturnLabel_45, ??CrossCallReturnLabel_6
          CFI R6 load(1, XDATA, add(CFA_XSP16, literal(-24)))
          CFI VB load(1, XDATA, add(CFA_XSP16, literal(-23)))
          CFI V0 load(1, XDATA, add(CFA_XSP16, literal(-22)))
          CFI V1 load(1, XDATA, add(CFA_XSP16, literal(-21)))
          CFI V2 load(1, XDATA, add(CFA_XSP16, literal(-20)))
          CFI V3 load(1, XDATA, add(CFA_XSP16, literal(-19)))
          CFI V4 load(1, XDATA, add(CFA_XSP16, literal(-18)))
          CFI V5 load(1, XDATA, add(CFA_XSP16, literal(-17)))
          CFI V6 load(1, XDATA, add(CFA_XSP16, literal(-16)))
          CFI V7 load(1, XDATA, add(CFA_XSP16, literal(-15)))
          CFI V8 load(1, XDATA, add(CFA_XSP16, literal(-14)))
          CFI V9 load(1, XDATA, add(CFA_XSP16, literal(-13)))
          CFI V10 load(1, XDATA, add(CFA_XSP16, literal(-12)))
          CFI V11 load(1, XDATA, add(CFA_XSP16, literal(-11)))
          CFI V12 load(1, XDATA, add(CFA_XSP16, literal(-10)))
          CFI V13 load(1, XDATA, add(CFA_XSP16, literal(-9)))
          CFI V14 load(1, XDATA, add(CFA_XSP16, literal(-8)))
          CFI V15 load(1, XDATA, add(CFA_XSP16, literal(-7)))
          CFI R7 load(1, XDATA, add(CFA_XSP16, literal(-6)))
          CFI ?RET_LOW load(1, XDATA, add(CFA_XSP16, literal(-5)))
          CFI ?RET_HIGH load(1, XDATA, add(CFA_XSP16, literal(-4)))
          CFI ?BRET_EXT load(1, XDATA, add(CFA_XSP16, literal(-3)))
          CFI DPL0 load(1, XDATA, add(CFA_XSP16, literal(-2)))
          CFI DPH0 load(1, XDATA, add(CFA_XSP16, literal(-1)))
          CFI CFA_SP SP+-4
          CFI CFA_XSP16 add(XSP16, 24)
          CFI Block cfiCond133 Using cfiCommon0
          CFI (cfiCond133) Function zclGp_SendGpCommissioningNotificationCommand
          CFI (cfiCond133) Conditional ??CrossCallReturnLabel_45, ??CrossCallReturnLabel_7
          CFI (cfiCond133) R6 load(1, XDATA, add(CFA_XSP16, literal(-20)))
          CFI (cfiCond133) VB load(1, XDATA, add(CFA_XSP16, literal(-19)))
          CFI (cfiCond133) V0 load(1, XDATA, add(CFA_XSP16, literal(-18)))
          CFI (cfiCond133) V1 load(1, XDATA, add(CFA_XSP16, literal(-17)))
          CFI (cfiCond133) V2 load(1, XDATA, add(CFA_XSP16, literal(-16)))
          CFI (cfiCond133) V3 load(1, XDATA, add(CFA_XSP16, literal(-15)))
          CFI (cfiCond133) V4 load(1, XDATA, add(CFA_XSP16, literal(-14)))
          CFI (cfiCond133) V5 load(1, XDATA, add(CFA_XSP16, literal(-13)))
          CFI (cfiCond133) V6 load(1, XDATA, add(CFA_XSP16, literal(-12)))
          CFI (cfiCond133) V7 load(1, XDATA, add(CFA_XSP16, literal(-11)))
          CFI (cfiCond133) V8 load(1, XDATA, add(CFA_XSP16, literal(-10)))
          CFI (cfiCond133) V9 load(1, XDATA, add(CFA_XSP16, literal(-9)))
          CFI (cfiCond133) V10 load(1, XDATA, add(CFA_XSP16, literal(-8)))
          CFI (cfiCond133) V11 load(1, XDATA, add(CFA_XSP16, literal(-7)))
          CFI (cfiCond133) R7 load(1, XDATA, add(CFA_XSP16, literal(-6)))
          CFI (cfiCond133) ?RET_LOW load(1, XDATA, add(CFA_XSP16, literal(-5)))
          CFI (cfiCond133) ?RET_HIGH load(1, XDATA, add(CFA_XSP16, literal(-4)))
          CFI (cfiCond133) ?BRET_EXT load(1, XDATA, add(CFA_XSP16, literal(-3)))
          CFI (cfiCond133) DPL0 load(1, XDATA, add(CFA_XSP16, literal(-2)))
          CFI (cfiCond133) DPH0 load(1, XDATA, add(CFA_XSP16, literal(-1)))
          CFI (cfiCond133) CFA_SP SP+-4
          CFI (cfiCond133) CFA_XSP16 add(XSP16, 32)
          CFI Block cfiCond134 Using cfiCommon0
          CFI (cfiCond134) Function zclGp_SendGpNotificationCommand
          CFI (cfiCond134) Conditional ??CrossCallReturnLabel_44, ??CrossCallReturnLabel_0
          CFI (cfiCond134) R6 load(1, XDATA, add(CFA_XSP16, literal(-24)))
          CFI (cfiCond134) VB load(1, XDATA, add(CFA_XSP16, literal(-23)))
          CFI (cfiCond134) V0 load(1, XDATA, add(CFA_XSP16, literal(-22)))
          CFI (cfiCond134) V1 load(1, XDATA, add(CFA_XSP16, literal(-21)))
          CFI (cfiCond134) V2 load(1, XDATA, add(CFA_XSP16, literal(-20)))
          CFI (cfiCond134) V3 load(1, XDATA, add(CFA_XSP16, literal(-19)))
          CFI (cfiCond134) V4 load(1, XDATA, add(CFA_XSP16, literal(-18)))
          CFI (cfiCond134) V5 load(1, XDATA, add(CFA_XSP16, literal(-17)))
          CFI (cfiCond134) V6 load(1, XDATA, add(CFA_XSP16, literal(-16)))
          CFI (cfiCond134) V7 load(1, XDATA, add(CFA_XSP16, literal(-15)))
          CFI (cfiCond134) V8 load(1, XDATA, add(CFA_XSP16, literal(-14)))
          CFI (cfiCond134) V9 load(1, XDATA, add(CFA_XSP16, literal(-13)))
          CFI (cfiCond134) V10 load(1, XDATA, add(CFA_XSP16, literal(-12)))
          CFI (cfiCond134) V11 load(1, XDATA, add(CFA_XSP16, literal(-11)))
          CFI (cfiCond134) V12 load(1, XDATA, add(CFA_XSP16, literal(-10)))
          CFI (cfiCond134) V13 load(1, XDATA, add(CFA_XSP16, literal(-9)))
          CFI (cfiCond134) V14 load(1, XDATA, add(CFA_XSP16, literal(-8)))
          CFI (cfiCond134) V15 load(1, XDATA, add(CFA_XSP16, literal(-7)))
          CFI (cfiCond134) R7 load(1, XDATA, add(CFA_XSP16, literal(-6)))
          CFI (cfiCond134) ?RET_LOW load(1, XDATA, add(CFA_XSP16, literal(-5)))
          CFI (cfiCond134) ?RET_HIGH load(1, XDATA, add(CFA_XSP16, literal(-4)))
          CFI (cfiCond134) ?BRET_EXT load(1, XDATA, add(CFA_XSP16, literal(-3)))
          CFI (cfiCond134) DPL0 load(1, XDATA, add(CFA_XSP16, literal(-2)))
          CFI (cfiCond134) DPH0 load(1, XDATA, add(CFA_XSP16, literal(-1)))
          CFI (cfiCond134) CFA_SP SP+-4
          CFI (cfiCond134) CFA_XSP16 add(XSP16, 24)
          CFI Block cfiCond135 Using cfiCommon0
          CFI (cfiCond135) Function zclGp_SendGpCommissioningNotificationCommand
          CFI (cfiCond135) Conditional ??CrossCallReturnLabel_44, ??CrossCallReturnLabel_1
          CFI (cfiCond135) R6 load(1, XDATA, add(CFA_XSP16, literal(-20)))
          CFI (cfiCond135) VB load(1, XDATA, add(CFA_XSP16, literal(-19)))
          CFI (cfiCond135) V0 load(1, XDATA, add(CFA_XSP16, literal(-18)))
          CFI (cfiCond135) V1 load(1, XDATA, add(CFA_XSP16, literal(-17)))
          CFI (cfiCond135) V2 load(1, XDATA, add(CFA_XSP16, literal(-16)))
          CFI (cfiCond135) V3 load(1, XDATA, add(CFA_XSP16, literal(-15)))
          CFI (cfiCond135) V4 load(1, XDATA, add(CFA_XSP16, literal(-14)))
          CFI (cfiCond135) V5 load(1, XDATA, add(CFA_XSP16, literal(-13)))
          CFI (cfiCond135) V6 load(1, XDATA, add(CFA_XSP16, literal(-12)))
          CFI (cfiCond135) V7 load(1, XDATA, add(CFA_XSP16, literal(-11)))
          CFI (cfiCond135) V8 load(1, XDATA, add(CFA_XSP16, literal(-10)))
          CFI (cfiCond135) V9 load(1, XDATA, add(CFA_XSP16, literal(-9)))
          CFI (cfiCond135) V10 load(1, XDATA, add(CFA_XSP16, literal(-8)))
          CFI (cfiCond135) V11 load(1, XDATA, add(CFA_XSP16, literal(-7)))
          CFI (cfiCond135) R7 load(1, XDATA, add(CFA_XSP16, literal(-6)))
          CFI (cfiCond135) ?RET_LOW load(1, XDATA, add(CFA_XSP16, literal(-5)))
          CFI (cfiCond135) ?RET_HIGH load(1, XDATA, add(CFA_XSP16, literal(-4)))
          CFI (cfiCond135) ?BRET_EXT load(1, XDATA, add(CFA_XSP16, literal(-3)))
          CFI (cfiCond135) DPL0 load(1, XDATA, add(CFA_XSP16, literal(-2)))
          CFI (cfiCond135) DPH0 load(1, XDATA, add(CFA_XSP16, literal(-1)))
          CFI (cfiCond135) CFA_SP SP+-4
          CFI (cfiCond135) CFA_XSP16 add(XSP16, 32)
          CFI Block cfiPicker136 Using cfiCommon1
          CFI (cfiPicker136) NoFunction
          CFI (cfiPicker136) Picker
        LCALL     ?Subroutine36 & 0xFFFF
??CrossCallReturnLabel_54:
        INC       DPTR
        RET
          CFI EndBlock cfiCond132
          CFI EndBlock cfiCond133
          CFI EndBlock cfiCond134
          CFI EndBlock cfiCond135
          CFI EndBlock cfiPicker136

        RSEG BANKED_CODE:HUGECODE:NOROOT(0)
?Subroutine36:
          CFI Block cfiCond137 Using cfiCommon0
          CFI Function zclGp_SendGpNotificationCommand
          CFI Conditional ??CrossCallReturnLabel_53, ??CrossCallReturnLabel_0
          CFI R6 load(1, XDATA, add(CFA_XSP16, literal(-24)))
          CFI VB load(1, XDATA, add(CFA_XSP16, literal(-23)))
          CFI V0 load(1, XDATA, add(CFA_XSP16, literal(-22)))
          CFI V1 load(1, XDATA, add(CFA_XSP16, literal(-21)))
          CFI V2 load(1, XDATA, add(CFA_XSP16, literal(-20)))
          CFI V3 load(1, XDATA, add(CFA_XSP16, literal(-19)))
          CFI V4 load(1, XDATA, add(CFA_XSP16, literal(-18)))
          CFI V5 load(1, XDATA, add(CFA_XSP16, literal(-17)))
          CFI V6 load(1, XDATA, add(CFA_XSP16, literal(-16)))
          CFI V7 load(1, XDATA, add(CFA_XSP16, literal(-15)))
          CFI V8 load(1, XDATA, add(CFA_XSP16, literal(-14)))
          CFI V9 load(1, XDATA, add(CFA_XSP16, literal(-13)))
          CFI V10 load(1, XDATA, add(CFA_XSP16, literal(-12)))
          CFI V11 load(1, XDATA, add(CFA_XSP16, literal(-11)))
          CFI V12 load(1, XDATA, add(CFA_XSP16, literal(-10)))
          CFI V13 load(1, XDATA, add(CFA_XSP16, literal(-9)))
          CFI V14 load(1, XDATA, add(CFA_XSP16, literal(-8)))
          CFI V15 load(1, XDATA, add(CFA_XSP16, literal(-7)))
          CFI R7 load(1, XDATA, add(CFA_XSP16, literal(-6)))
          CFI ?RET_LOW load(1, XDATA, add(CFA_XSP16, literal(-5)))
          CFI ?RET_HIGH load(1, XDATA, add(CFA_XSP16, literal(-4)))
          CFI ?BRET_EXT load(1, XDATA, add(CFA_XSP16, literal(-3)))
          CFI DPL0 load(1, XDATA, add(CFA_XSP16, literal(-2)))
          CFI DPH0 load(1, XDATA, add(CFA_XSP16, literal(-1)))
          CFI CFA_SP SP+-4
          CFI CFA_XSP16 add(XSP16, 24)
          CFI Block cfiCond138 Using cfiCommon0
          CFI (cfiCond138) Function zclGp_SendGpCommissioningNotificationCommand
          CFI (cfiCond138) Conditional ??CrossCallReturnLabel_53, ??CrossCallReturnLabel_1
          CFI (cfiCond138) R6 load(1, XDATA, add(CFA_XSP16, literal(-20)))
          CFI (cfiCond138) VB load(1, XDATA, add(CFA_XSP16, literal(-19)))
          CFI (cfiCond138) V0 load(1, XDATA, add(CFA_XSP16, literal(-18)))
          CFI (cfiCond138) V1 load(1, XDATA, add(CFA_XSP16, literal(-17)))
          CFI (cfiCond138) V2 load(1, XDATA, add(CFA_XSP16, literal(-16)))
          CFI (cfiCond138) V3 load(1, XDATA, add(CFA_XSP16, literal(-15)))
          CFI (cfiCond138) V4 load(1, XDATA, add(CFA_XSP16, literal(-14)))
          CFI (cfiCond138) V5 load(1, XDATA, add(CFA_XSP16, literal(-13)))
          CFI (cfiCond138) V6 load(1, XDATA, add(CFA_XSP16, literal(-12)))
          CFI (cfiCond138) V7 load(1, XDATA, add(CFA_XSP16, literal(-11)))
          CFI (cfiCond138) V8 load(1, XDATA, add(CFA_XSP16, literal(-10)))
          CFI (cfiCond138) V9 load(1, XDATA, add(CFA_XSP16, literal(-9)))
          CFI (cfiCond138) V10 load(1, XDATA, add(CFA_XSP16, literal(-8)))
          CFI (cfiCond138) V11 load(1, XDATA, add(CFA_XSP16, literal(-7)))
          CFI (cfiCond138) R7 load(1, XDATA, add(CFA_XSP16, literal(-6)))
          CFI (cfiCond138) ?RET_LOW load(1, XDATA, add(CFA_XSP16, literal(-5)))
          CFI (cfiCond138) ?RET_HIGH load(1, XDATA, add(CFA_XSP16, literal(-4)))
          CFI (cfiCond138) ?BRET_EXT load(1, XDATA, add(CFA_XSP16, literal(-3)))
          CFI (cfiCond138) DPL0 load(1, XDATA, add(CFA_XSP16, literal(-2)))
          CFI (cfiCond138) DPH0 load(1, XDATA, add(CFA_XSP16, literal(-1)))
          CFI (cfiCond138) CFA_SP SP+-4
          CFI (cfiCond138) CFA_XSP16 add(XSP16, 32)
          CFI Block cfiCond139 Using cfiCommon0
          CFI (cfiCond139) Function zclGp_SendGpNotificationCommand
          CFI (cfiCond139) Conditional ??CrossCallReturnLabel_54, ??CrossCallReturnLabel_45, ??CrossCallReturnLabel_6
          CFI (cfiCond139) R6 load(1, XDATA, add(CFA_XSP16, literal(-24)))
          CFI (cfiCond139) VB load(1, XDATA, add(CFA_XSP16, literal(-23)))
          CFI (cfiCond139) V0 load(1, XDATA, add(CFA_XSP16, literal(-22)))
          CFI (cfiCond139) V1 load(1, XDATA, add(CFA_XSP16, literal(-21)))
          CFI (cfiCond139) V2 load(1, XDATA, add(CFA_XSP16, literal(-20)))
          CFI (cfiCond139) V3 load(1, XDATA, add(CFA_XSP16, literal(-19)))
          CFI (cfiCond139) V4 load(1, XDATA, add(CFA_XSP16, literal(-18)))
          CFI (cfiCond139) V5 load(1, XDATA, add(CFA_XSP16, literal(-17)))
          CFI (cfiCond139) V6 load(1, XDATA, add(CFA_XSP16, literal(-16)))
          CFI (cfiCond139) V7 load(1, XDATA, add(CFA_XSP16, literal(-15)))
          CFI (cfiCond139) V8 load(1, XDATA, add(CFA_XSP16, literal(-14)))
          CFI (cfiCond139) V9 load(1, XDATA, add(CFA_XSP16, literal(-13)))
          CFI (cfiCond139) V10 load(1, XDATA, add(CFA_XSP16, literal(-12)))
          CFI (cfiCond139) V11 load(1, XDATA, add(CFA_XSP16, literal(-11)))
          CFI (cfiCond139) V12 load(1, XDATA, add(CFA_XSP16, literal(-10)))
          CFI (cfiCond139) V13 load(1, XDATA, add(CFA_XSP16, literal(-9)))
          CFI (cfiCond139) V14 load(1, XDATA, add(CFA_XSP16, literal(-8)))
          CFI (cfiCond139) V15 load(1, XDATA, add(CFA_XSP16, literal(-7)))
          CFI (cfiCond139) R7 load(1, XDATA, add(CFA_XSP16, literal(-6)))
          CFI (cfiCond139) ?RET_LOW load(1, XDATA, add(CFA_XSP16, literal(-5)))
          CFI (cfiCond139) ?RET_HIGH load(1, XDATA, add(CFA_XSP16, literal(-4)))
          CFI (cfiCond139) ?BRET_EXT load(1, XDATA, add(CFA_XSP16, literal(-3)))
          CFI (cfiCond139) DPL0 load(1, XDATA, add(CFA_XSP16, literal(-2)))
          CFI (cfiCond139) DPH0 load(1, XDATA, add(CFA_XSP16, literal(-1)))
          CFI (cfiCond139) CFA_SP SP+-6
          CFI (cfiCond139) CFA_XSP16 add(XSP16, 24)
          CFI Block cfiCond140 Using cfiCommon0
          CFI (cfiCond140) Function zclGp_SendGpCommissioningNotificationCommand
          CFI (cfiCond140) Conditional ??CrossCallReturnLabel_54, ??CrossCallReturnLabel_45, ??CrossCallReturnLabel_7
          CFI (cfiCond140) R6 load(1, XDATA, add(CFA_XSP16, literal(-20)))
          CFI (cfiCond140) VB load(1, XDATA, add(CFA_XSP16, literal(-19)))
          CFI (cfiCond140) V0 load(1, XDATA, add(CFA_XSP16, literal(-18)))
          CFI (cfiCond140) V1 load(1, XDATA, add(CFA_XSP16, literal(-17)))
          CFI (cfiCond140) V2 load(1, XDATA, add(CFA_XSP16, literal(-16)))
          CFI (cfiCond140) V3 load(1, XDATA, add(CFA_XSP16, literal(-15)))
          CFI (cfiCond140) V4 load(1, XDATA, add(CFA_XSP16, literal(-14)))
          CFI (cfiCond140) V5 load(1, XDATA, add(CFA_XSP16, literal(-13)))
          CFI (cfiCond140) V6 load(1, XDATA, add(CFA_XSP16, literal(-12)))
          CFI (cfiCond140) V7 load(1, XDATA, add(CFA_XSP16, literal(-11)))
          CFI (cfiCond140) V8 load(1, XDATA, add(CFA_XSP16, literal(-10)))
          CFI (cfiCond140) V9 load(1, XDATA, add(CFA_XSP16, literal(-9)))
          CFI (cfiCond140) V10 load(1, XDATA, add(CFA_XSP16, literal(-8)))
          CFI (cfiCond140) V11 load(1, XDATA, add(CFA_XSP16, literal(-7)))
          CFI (cfiCond140) R7 load(1, XDATA, add(CFA_XSP16, literal(-6)))
          CFI (cfiCond140) ?RET_LOW load(1, XDATA, add(CFA_XSP16, literal(-5)))
          CFI (cfiCond140) ?RET_HIGH load(1, XDATA, add(CFA_XSP16, literal(-4)))
          CFI (cfiCond140) ?BRET_EXT load(1, XDATA, add(CFA_XSP16, literal(-3)))
          CFI (cfiCond140) DPL0 load(1, XDATA, add(CFA_XSP16, literal(-2)))
          CFI (cfiCond140) DPH0 load(1, XDATA, add(CFA_XSP16, literal(-1)))
          CFI (cfiCond140) CFA_SP SP+-6
          CFI (cfiCond140) CFA_XSP16 add(XSP16, 32)
          CFI Block cfiCond141 Using cfiCommon0
          CFI (cfiCond141) Function zclGp_SendGpNotificationCommand
          CFI (cfiCond141) Conditional ??CrossCallReturnLabel_54, ??CrossCallReturnLabel_44, ??CrossCallReturnLabel_0
          CFI (cfiCond141) R6 load(1, XDATA, add(CFA_XSP16, literal(-24)))
          CFI (cfiCond141) VB load(1, XDATA, add(CFA_XSP16, literal(-23)))
          CFI (cfiCond141) V0 load(1, XDATA, add(CFA_XSP16, literal(-22)))
          CFI (cfiCond141) V1 load(1, XDATA, add(CFA_XSP16, literal(-21)))
          CFI (cfiCond141) V2 load(1, XDATA, add(CFA_XSP16, literal(-20)))
          CFI (cfiCond141) V3 load(1, XDATA, add(CFA_XSP16, literal(-19)))
          CFI (cfiCond141) V4 load(1, XDATA, add(CFA_XSP16, literal(-18)))
          CFI (cfiCond141) V5 load(1, XDATA, add(CFA_XSP16, literal(-17)))
          CFI (cfiCond141) V6 load(1, XDATA, add(CFA_XSP16, literal(-16)))
          CFI (cfiCond141) V7 load(1, XDATA, add(CFA_XSP16, literal(-15)))
          CFI (cfiCond141) V8 load(1, XDATA, add(CFA_XSP16, literal(-14)))
          CFI (cfiCond141) V9 load(1, XDATA, add(CFA_XSP16, literal(-13)))
          CFI (cfiCond141) V10 load(1, XDATA, add(CFA_XSP16, literal(-12)))
          CFI (cfiCond141) V11 load(1, XDATA, add(CFA_XSP16, literal(-11)))
          CFI (cfiCond141) V12 load(1, XDATA, add(CFA_XSP16, literal(-10)))
          CFI (cfiCond141) V13 load(1, XDATA, add(CFA_XSP16, literal(-9)))
          CFI (cfiCond141) V14 load(1, XDATA, add(CFA_XSP16, literal(-8)))
          CFI (cfiCond141) V15 load(1, XDATA, add(CFA_XSP16, literal(-7)))
          CFI (cfiCond141) R7 load(1, XDATA, add(CFA_XSP16, literal(-6)))
          CFI (cfiCond141) ?RET_LOW load(1, XDATA, add(CFA_XSP16, literal(-5)))
          CFI (cfiCond141) ?RET_HIGH load(1, XDATA, add(CFA_XSP16, literal(-4)))
          CFI (cfiCond141) ?BRET_EXT load(1, XDATA, add(CFA_XSP16, literal(-3)))
          CFI (cfiCond141) DPL0 load(1, XDATA, add(CFA_XSP16, literal(-2)))
          CFI (cfiCond141) DPH0 load(1, XDATA, add(CFA_XSP16, literal(-1)))
          CFI (cfiCond141) CFA_SP SP+-6
          CFI (cfiCond141) CFA_XSP16 add(XSP16, 24)
          CFI Block cfiCond142 Using cfiCommon0
          CFI (cfiCond142) Function zclGp_SendGpCommissioningNotificationCommand
          CFI (cfiCond142) Conditional ??CrossCallReturnLabel_54, ??CrossCallReturnLabel_44, ??CrossCallReturnLabel_1
          CFI (cfiCond142) R6 load(1, XDATA, add(CFA_XSP16, literal(-20)))
          CFI (cfiCond142) VB load(1, XDATA, add(CFA_XSP16, literal(-19)))
          CFI (cfiCond142) V0 load(1, XDATA, add(CFA_XSP16, literal(-18)))
          CFI (cfiCond142) V1 load(1, XDATA, add(CFA_XSP16, literal(-17)))
          CFI (cfiCond142) V2 load(1, XDATA, add(CFA_XSP16, literal(-16)))
          CFI (cfiCond142) V3 load(1, XDATA, add(CFA_XSP16, literal(-15)))
          CFI (cfiCond142) V4 load(1, XDATA, add(CFA_XSP16, literal(-14)))
          CFI (cfiCond142) V5 load(1, XDATA, add(CFA_XSP16, literal(-13)))
          CFI (cfiCond142) V6 load(1, XDATA, add(CFA_XSP16, literal(-12)))
          CFI (cfiCond142) V7 load(1, XDATA, add(CFA_XSP16, literal(-11)))
          CFI (cfiCond142) V8 load(1, XDATA, add(CFA_XSP16, literal(-10)))
          CFI (cfiCond142) V9 load(1, XDATA, add(CFA_XSP16, literal(-9)))
          CFI (cfiCond142) V10 load(1, XDATA, add(CFA_XSP16, literal(-8)))
          CFI (cfiCond142) V11 load(1, XDATA, add(CFA_XSP16, literal(-7)))
          CFI (cfiCond142) R7 load(1, XDATA, add(CFA_XSP16, literal(-6)))
          CFI (cfiCond142) ?RET_LOW load(1, XDATA, add(CFA_XSP16, literal(-5)))
          CFI (cfiCond142) ?RET_HIGH load(1, XDATA, add(CFA_XSP16, literal(-4)))
          CFI (cfiCond142) ?BRET_EXT load(1, XDATA, add(CFA_XSP16, literal(-3)))
          CFI (cfiCond142) DPL0 load(1, XDATA, add(CFA_XSP16, literal(-2)))
          CFI (cfiCond142) DPH0 load(1, XDATA, add(CFA_XSP16, literal(-1)))
          CFI (cfiCond142) CFA_SP SP+-6
          CFI (cfiCond142) CFA_XSP16 add(XSP16, 32)
          CFI Block cfiPicker143 Using cfiCommon1
          CFI (cfiPicker143) NoFunction
          CFI (cfiPicker143) Picker
        MOVX      A,@DPTR
        MOV       DPL,R6
        MOV       DPH,R7
        INC       DPTR
        INC       DPTR
        INC       DPTR
        INC       DPTR
        RET
          CFI EndBlock cfiCond137
          CFI EndBlock cfiCond138
          CFI EndBlock cfiCond139
          CFI EndBlock cfiCond140
          CFI EndBlock cfiCond141
          CFI EndBlock cfiCond142
          CFI EndBlock cfiPicker143
//  592 /*********************************************************************
//  593  * @fn      zclGp_SendGpProxyTableResponse
//  594  *
//  595  * @brief   Send the Green Power Proxy Table Response to a device
//  596  *
//  597  * @param   dstAddr - where to send the request
//  598  * @param   groupID - pointer to the group structure
//  599  * @param   groupName - pointer to Group Name.  This is a Zigbee
//  600  *          string data type, so the first byte is the length of the
//  601  *          name (in bytes), then the name.
//  602  *
//  603  * @return  ZStatus_t
//  604  */

        RSEG BANKED_CODE:HUGECODE:NOROOT(0)
//  605 ZStatus_t zclGp_SendGpProxyTableResponse( afAddrType_t *dstAddr, zclGpProxyTableResponse_t *rsp, 
zclGp_SendGpProxyTableResponse:
          CFI Block cfiBlock144 Using cfiCommon0
          CFI Function zclGp_SendGpProxyTableResponse
        CODE
//  606                                           uint8 seqNum )
//  607 {
        FUNCALL zclGp_SendGpProxyTableResponse, osal_memcpy
        LOCFRAME ISTACK, 0, STACK
        LOCFRAME PSTACK, 0, STACK
        LOCFRAME XSTACK, 27, STACK
        LOCFRAME IOVERLAY, 0, STATIC
        LOCFRAME DOVERLAY, 0, STATIC
        ARGFRAME ISTACK, 0, STACK
        ARGFRAME PSTACK, 0, STACK
        ARGFRAME XSTACK, 27, STACK
        ARGFRAME IOVERLAY, 0, STATIC
        ARGFRAME DOVERLAY, 0, STATIC
        FUNCALL zclGp_SendGpProxyTableResponse, osal_mem_alloc
        LOCFRAME ISTACK, 0, STACK
        LOCFRAME PSTACK, 0, STACK
        LOCFRAME XSTACK, 24, STACK
        LOCFRAME IOVERLAY, 0, STATIC
        LOCFRAME DOVERLAY, 0, STATIC
        ARGFRAME ISTACK, 0, STACK
        ARGFRAME PSTACK, 0, STACK
        ARGFRAME XSTACK, 24, STACK
        ARGFRAME IOVERLAY, 0, STATIC
        ARGFRAME DOVERLAY, 0, STATIC
        FUNCALL zclGp_SendGpProxyTableResponse, osal_memcpy
        LOCFRAME ISTACK, 0, STACK
        LOCFRAME PSTACK, 0, STACK
        LOCFRAME XSTACK, 27, STACK
        LOCFRAME IOVERLAY, 0, STATIC
        LOCFRAME DOVERLAY, 0, STATIC
        ARGFRAME ISTACK, 0, STACK
        ARGFRAME PSTACK, 0, STACK
        ARGFRAME XSTACK, 27, STACK
        ARGFRAME IOVERLAY, 0, STATIC
        ARGFRAME DOVERLAY, 0, STATIC
        FUNCALL zclGp_SendGpProxyTableResponse, zcl_SendCommand
        LOCFRAME ISTACK, 0, STACK
        LOCFRAME PSTACK, 0, STACK
        LOCFRAME XSTACK, 35, STACK
        LOCFRAME IOVERLAY, 0, STATIC
        LOCFRAME DOVERLAY, 0, STATIC
        ARGFRAME ISTACK, 0, STACK
        ARGFRAME PSTACK, 0, STACK
        ARGFRAME XSTACK, 35, STACK
        ARGFRAME IOVERLAY, 0, STATIC
        ARGFRAME DOVERLAY, 0, STATIC
        FUNCALL zclGp_SendGpProxyTableResponse, osal_mem_free
        LOCFRAME ISTACK, 0, STACK
        LOCFRAME PSTACK, 0, STACK
        LOCFRAME XSTACK, 24, STACK
        LOCFRAME IOVERLAY, 0, STATIC
        LOCFRAME DOVERLAY, 0, STATIC
        ARGFRAME ISTACK, 0, STACK
        ARGFRAME PSTACK, 0, STACK
        ARGFRAME XSTACK, 24, STACK
        ARGFRAME IOVERLAY, 0, STATIC
        ARGFRAME DOVERLAY, 0, STATIC
        REQUIRE ?V0
        REQUIRE ?V1
        REQUIRE ?V2
        REQUIRE ?V3
        REQUIRE ?V4
        REQUIRE ?V5
        REQUIRE ?V6
        REQUIRE ?V7
        REQUIRE ?V8
        REQUIRE ?V9
        REQUIRE ?V10
        REQUIRE ?V11
        REQUIRE ?V12
        REQUIRE ?V13
        MOV       A,#-0x16
        LCALL     ?BANKED_ENTER_XDATA
          CFI DPH0 load(1, XDATA, add(CFA_XSP16, literal(-1)))
          CFI DPL0 load(1, XDATA, add(CFA_XSP16, literal(-2)))
          CFI ?BRET_EXT load(1, XDATA, add(CFA_XSP16, literal(-3)))
          CFI ?RET_HIGH load(1, XDATA, add(CFA_XSP16, literal(-4)))
          CFI ?RET_LOW load(1, XDATA, add(CFA_XSP16, literal(-5)))
          CFI R7 load(1, XDATA, add(CFA_XSP16, literal(-6)))
          CFI V13 load(1, XDATA, add(CFA_XSP16, literal(-7)))
          CFI V12 load(1, XDATA, add(CFA_XSP16, literal(-8)))
          CFI V11 load(1, XDATA, add(CFA_XSP16, literal(-9)))
          CFI V10 load(1, XDATA, add(CFA_XSP16, literal(-10)))
          CFI V9 load(1, XDATA, add(CFA_XSP16, literal(-11)))
          CFI V8 load(1, XDATA, add(CFA_XSP16, literal(-12)))
          CFI V7 load(1, XDATA, add(CFA_XSP16, literal(-13)))
          CFI V6 load(1, XDATA, add(CFA_XSP16, literal(-14)))
          CFI V5 load(1, XDATA, add(CFA_XSP16, literal(-15)))
          CFI V4 load(1, XDATA, add(CFA_XSP16, literal(-16)))
          CFI V3 load(1, XDATA, add(CFA_XSP16, literal(-17)))
          CFI V2 load(1, XDATA, add(CFA_XSP16, literal(-18)))
          CFI V1 load(1, XDATA, add(CFA_XSP16, literal(-19)))
          CFI V0 load(1, XDATA, add(CFA_XSP16, literal(-20)))
          CFI VB load(1, XDATA, add(CFA_XSP16, literal(-21)))
          CFI R6 load(1, XDATA, add(CFA_XSP16, literal(-22)))
          CFI CFA_SP SP+0
          CFI CFA_XSP16 add(XSP16, 22)
        ; Saved register size: 22
        ; Auto size: 2
        MOV       A,#-0x2
        LCALL     ?ALLOC_XSTACK8
          CFI CFA_XSP16 add(XSP16, 24)
        MOV       ?V12,R2
        MOV       ?V13,R3
        MOV       A,R4
        MOV       R6,A
        MOV       A,R5
        MOV       R7,A
        MOV       ?V11,R1
//  608   uint8 *buf = NULL;
//  609   uint8 *pBuf = NULL;
//  610   uint8 *pEntry = NULL;
        MOV       ?V2,#0x0
        MOV       ?V3,#0x0
//  611   
//  612   ZStatus_t status;
//  613   uint16 entryLen = 0;
        MOV       DPL,?XSP + 0
        MOV       DPH,?XSP + 1
        CLR       A
        MOVX      @DPTR,A
        INC       DPTR
        MOVX      @DPTR,A
//  614   uint16 len;
//  615   
//  616   if ( rsp->proxyTableEntry != NULL )
        MOV       A,R4
        ADD       A,#0x4
        MOV       ?V6,A
        CLR       A
        ADDC      A,R7
        MOV       ?V7,A
        MOV       DPL,?V6
        LCALL     ??Subroutine48_0 & 0xFFFF
??CrossCallReturnLabel_120:
        JZ        ??zclGp_SendGpProxyTableResponse_0
//  617   {
//  618     pEntry = rsp->proxyTableEntry;
        MOV       ?V2,R0
        MOV       ?V3,R1
//  619     zcl_memcpy( &entryLen, pEntry, sizeof ( uint16 ) );
        ; Setup parameters for call to function osal_memcpy
        MOV       ?V8,R0
        MOV       ?V9,R1
        MOV       ?V10,#0x0
        MOV       R0,#?V8
        LCALL     ?PUSH_XSTACK_I_THREE
          CFI CFA_XSP16 add(XSP16, 27)
        MOV       R4,#0x2
        MOV       R5,#0x0
        MOV       A,#0x3
        LCALL     ?XSTACK_DISP101_8
        LCALL     ??Subroutine42_0 & 0xFFFF
??CrossCallReturnLabel_86:
        LCALL     ?DEALLOC_XSTACK8
          CFI CFA_XSP16 add(XSP16, 24)
//  620     pEntry += sizeof ( uint16 );
        MOV       A,?V2
        ADD       A,#0x2
        MOV       ?V2,A
        JNC       ??zclGp_SendGpProxyTableResponse_0
        INC       ?V3
//  621   }
//  622   
//  623   len = entryLen + 4;
??zclGp_SendGpProxyTableResponse_0:
        MOV       DPL,?XSP + 0
        MOV       DPH,?XSP + 1
        MOVX      A,@DPTR
        ADD       A,#0x4
        MOV       ?V4,A
        INC       DPTR
        MOVX      A,@DPTR
        ADDC      A,#0x0
        MOV       ?V5,A
//  624 
//  625   buf = zcl_mem_alloc( len );
        ; Setup parameters for call to function osal_mem_alloc
        MOV       R2,?V4
        MOV       R3,A
        LCALL     `??osal_mem_alloc::?relay`; Banked call to: osal_mem_alloc
        MOV       ?V0,R2
        MOV       ?V1,R3
//  626   if ( buf )
        MOV       A,R2
        ORL       A,R3
        JNZ       $+5
        LJMP      ??zclGp_SendGpProxyTableResponse_1 & 0xFFFF
//  627   {
//  628     pBuf = buf;
//  629     *pBuf++ = rsp->status;
        MOV       DPL,R6
        MOV       DPH,R7
        MOVX      A,@DPTR
        MOV       DPL,R2
        MOV       DPH,R3
        LCALL     ?Subroutine35 & 0xFFFF
//  630     *pBuf++ = rsp->tableEntriesTotal;
??CrossCallReturnLabel_49:
        LCALL     ??Subroutine43_0 & 0xFFFF
??CrossCallReturnLabel_91:
        LCALL     ?Subroutine35 & 0xFFFF
//  631     *pBuf++ = rsp->startIndex;
??CrossCallReturnLabel_50:
        LCALL     ?Subroutine19 & 0xFFFF
??CrossCallReturnLabel_92:
        INC       DPTR
        LCALL     ?Subroutine35 & 0xFFFF
//  632     *pBuf++ = rsp->entriesCount;
??CrossCallReturnLabel_51:
        INC       DPTR
        LCALL     ?Subroutine19 & 0xFFFF
??CrossCallReturnLabel_93:
        INC       DPTR
        INC       DPTR
        MOVX      @DPTR,A
//  633     if ( rsp->proxyTableEntry != NULL )
        MOV       DPL,?V6
        MOV       DPH,?V7
        LCALL     ??Subroutine49_0 & 0xFFFF
??CrossCallReturnLabel_116:
        JZ        ??zclGp_SendGpProxyTableResponse_2
//  634     {
//  635       zcl_memcpy( pBuf, pEntry, entryLen );
        ; Setup parameters for call to function osal_memcpy
        MOV       ?V8,?V2
        MOV       ?V9,?V3
        MOV       ?V10,#0x0
        MOV       R0,#?V8
        LCALL     ?PUSH_XSTACK_I_THREE
          CFI CFA_XSP16 add(XSP16, 27)
        MOV       A,#0x3
        LCALL     ?XSTACK_DISP0_8
        LCALL     ??Subroutine37_0 & 0xFFFF
//  636     }
??CrossCallReturnLabel_55:
        MOV       A,R2
        ADD       A,#0x4
        MOV       R2,A
        CLR       A
        ADDC      A,?V1
        LCALL     ??Subroutine41_0 & 0xFFFF
??CrossCallReturnLabel_78:
        LCALL     ?DEALLOC_XSTACK8
          CFI CFA_XSP16 add(XSP16, 24)
//  637 
//  638     status = zcl_SendCommand( GREEN_POWER_INTERNAL_ENDPOINT, dstAddr, ZCL_CLUSTER_ID_GREEN_POWER,
//  639                               COMMAND_GP_PROXY_TABLE_RESPONSE, TRUE, ZCL_FRAME_CLIENT_SERVER_DIR,
//  640                               TRUE, 0, seqNum, len, buf );
??zclGp_SendGpProxyTableResponse_2:
        ; Setup parameters for call to function zcl_SendCommand
        MOV       R0,#?V0
        LCALL     ?PUSH_XSTACK_I_TWO
          CFI CFA_XSP16 add(XSP16, 26)
        MOV       R0,#?V4
        LCALL     ?PUSH_XSTACK_I_TWO
          CFI CFA_XSP16 add(XSP16, 28)
        MOV       A,?V11
        MOV       ?V2,A
        MOV       R0,#?V2
        LCALL     ?PUSH_XSTACK_I_ONE
          CFI CFA_XSP16 add(XSP16, 29)
        CLR       A
        MOV       ?V2,A
        MOV       ?V3,A
        MOV       R0,#?V2
        LCALL     ?PUSH_XSTACK_I_TWO
          CFI CFA_XSP16 add(XSP16, 31)
        MOV       ?V2,#0x1
        MOV       R0,#?V2
        LCALL     ?PUSH_XSTACK_I_ONE
          CFI CFA_XSP16 add(XSP16, 32)
        MOV       ?V2,#0x0
        MOV       R0,#?V2
        LCALL     ?PUSH_XSTACK_I_ONE
          CFI CFA_XSP16 add(XSP16, 33)
        MOV       ?V2,#0x1
        MOV       R0,#?V2
        LCALL     ?PUSH_XSTACK_I_ONE
          CFI CFA_XSP16 add(XSP16, 34)
        MOV       ?V2,#0xb
        MOV       R0,#?V2
        LCALL     ?PUSH_XSTACK_I_ONE
          CFI CFA_XSP16 add(XSP16, 35)
        MOV       R4,#0x21
        MOV       R5,#0x0
        MOV       R2,?V12
        MOV       R3,?V13
        MOV       R1,#-0xe
        LCALL     `??zcl_SendCommand::?relay`; Banked call to: zcl_SendCommand
        MOV       A,#0xb
        LCALL     ?DEALLOC_XSTACK8
          CFI CFA_XSP16 add(XSP16, 24)
        MOV       A,R1
        MOV       R6,A
//  641     zcl_mem_free( buf );
        ; Setup parameters for call to function osal_mem_free
        MOV       R2,?V0
        MOV       R3,?V1
        LCALL     `??osal_mem_free::?relay`; Banked call to: osal_mem_free
        SJMP      ??zclGp_SendGpProxyTableResponse_3
//  642   }
//  643   else
//  644     status = ZMemError;
??zclGp_SendGpProxyTableResponse_1:
        MOV       R6,#0x10
//  645 
//  646   return ( status );
??zclGp_SendGpProxyTableResponse_3:
        MOV       A,R6
        MOV       R1,A
        MOV       A,#0x2
        LCALL     ?DEALLOC_XSTACK8
          CFI CFA_XSP16 add(XSP16, 22)
        MOV       R7,#0xe
        LJMP      ?BANKED_LEAVE_XDATA
//  647 }
          CFI EndBlock cfiBlock144

        RSEG BANKED_CODE:HUGECODE:NOROOT(0)
?Subroutine35:
          CFI Block cfiCond145 Using cfiCommon0
          CFI Function zclGp_ProcessInProxyBasic
          CFI Conditional ??CrossCallReturnLabel_48, ??CrossCallReturnLabel_2
          CFI R6 load(1, XDATA, add(CFA_XSP16, literal(-20)))
          CFI VB load(1, XDATA, add(CFA_XSP16, literal(-19)))
          CFI V0 load(1, XDATA, add(CFA_XSP16, literal(-18)))
          CFI V1 load(1, XDATA, add(CFA_XSP16, literal(-17)))
          CFI V2 load(1, XDATA, add(CFA_XSP16, literal(-16)))
          CFI V3 load(1, XDATA, add(CFA_XSP16, literal(-15)))
          CFI V4 load(1, XDATA, add(CFA_XSP16, literal(-14)))
          CFI V5 load(1, XDATA, add(CFA_XSP16, literal(-13)))
          CFI V6 load(1, XDATA, add(CFA_XSP16, literal(-12)))
          CFI V7 load(1, XDATA, add(CFA_XSP16, literal(-11)))
          CFI V8 load(1, XDATA, add(CFA_XSP16, literal(-10)))
          CFI V9 load(1, XDATA, add(CFA_XSP16, literal(-9)))
          CFI V10 load(1, XDATA, add(CFA_XSP16, literal(-8)))
          CFI V11 load(1, XDATA, add(CFA_XSP16, literal(-7)))
          CFI R7 load(1, XDATA, add(CFA_XSP16, literal(-6)))
          CFI ?RET_LOW load(1, XDATA, add(CFA_XSP16, literal(-5)))
          CFI ?RET_HIGH load(1, XDATA, add(CFA_XSP16, literal(-4)))
          CFI ?BRET_EXT load(1, XDATA, add(CFA_XSP16, literal(-3)))
          CFI DPL0 load(1, XDATA, add(CFA_XSP16, literal(-2)))
          CFI DPH0 load(1, XDATA, add(CFA_XSP16, literal(-1)))
          CFI CFA_SP SP+-4
          CFI CFA_XSP16 add(XSP16, 42)
          CFI Block cfiCond146 Using cfiCommon0
          CFI (cfiCond146) Function zclGp_ProcessInProxyBasic
          CFI (cfiCond146) Conditional ??CrossCallReturnLabel_48, ??CrossCallReturnLabel_3
          CFI (cfiCond146) R6 load(1, XDATA, add(CFA_XSP16, literal(-20)))
          CFI (cfiCond146) VB load(1, XDATA, add(CFA_XSP16, literal(-19)))
          CFI (cfiCond146) V0 load(1, XDATA, add(CFA_XSP16, literal(-18)))
          CFI (cfiCond146) V1 load(1, XDATA, add(CFA_XSP16, literal(-17)))
          CFI (cfiCond146) V2 load(1, XDATA, add(CFA_XSP16, literal(-16)))
          CFI (cfiCond146) V3 load(1, XDATA, add(CFA_XSP16, literal(-15)))
          CFI (cfiCond146) V4 load(1, XDATA, add(CFA_XSP16, literal(-14)))
          CFI (cfiCond146) V5 load(1, XDATA, add(CFA_XSP16, literal(-13)))
          CFI (cfiCond146) V6 load(1, XDATA, add(CFA_XSP16, literal(-12)))
          CFI (cfiCond146) V7 load(1, XDATA, add(CFA_XSP16, literal(-11)))
          CFI (cfiCond146) V8 load(1, XDATA, add(CFA_XSP16, literal(-10)))
          CFI (cfiCond146) V9 load(1, XDATA, add(CFA_XSP16, literal(-9)))
          CFI (cfiCond146) V10 load(1, XDATA, add(CFA_XSP16, literal(-8)))
          CFI (cfiCond146) V11 load(1, XDATA, add(CFA_XSP16, literal(-7)))
          CFI (cfiCond146) R7 load(1, XDATA, add(CFA_XSP16, literal(-6)))
          CFI (cfiCond146) ?RET_LOW load(1, XDATA, add(CFA_XSP16, literal(-5)))
          CFI (cfiCond146) ?RET_HIGH load(1, XDATA, add(CFA_XSP16, literal(-4)))
          CFI (cfiCond146) ?BRET_EXT load(1, XDATA, add(CFA_XSP16, literal(-3)))
          CFI (cfiCond146) DPL0 load(1, XDATA, add(CFA_XSP16, literal(-2)))
          CFI (cfiCond146) DPH0 load(1, XDATA, add(CFA_XSP16, literal(-1)))
          CFI (cfiCond146) CFA_SP SP+-4
          CFI (cfiCond146) CFA_XSP16 add(XSP16, 42)
          CFI Block cfiCond147 Using cfiCommon0
          CFI (cfiCond147) Function zclGp_SendGpProxyTableResponse
          CFI (cfiCond147) Conditional ??CrossCallReturnLabel_49
          CFI (cfiCond147) R6 load(1, XDATA, add(CFA_XSP16, literal(-22)))
          CFI (cfiCond147) VB load(1, XDATA, add(CFA_XSP16, literal(-21)))
          CFI (cfiCond147) V0 load(1, XDATA, add(CFA_XSP16, literal(-20)))
          CFI (cfiCond147) V1 load(1, XDATA, add(CFA_XSP16, literal(-19)))
          CFI (cfiCond147) V2 load(1, XDATA, add(CFA_XSP16, literal(-18)))
          CFI (cfiCond147) V3 load(1, XDATA, add(CFA_XSP16, literal(-17)))
          CFI (cfiCond147) V4 load(1, XDATA, add(CFA_XSP16, literal(-16)))
          CFI (cfiCond147) V5 load(1, XDATA, add(CFA_XSP16, literal(-15)))
          CFI (cfiCond147) V6 load(1, XDATA, add(CFA_XSP16, literal(-14)))
          CFI (cfiCond147) V7 load(1, XDATA, add(CFA_XSP16, literal(-13)))
          CFI (cfiCond147) V8 load(1, XDATA, add(CFA_XSP16, literal(-12)))
          CFI (cfiCond147) V9 load(1, XDATA, add(CFA_XSP16, literal(-11)))
          CFI (cfiCond147) V10 load(1, XDATA, add(CFA_XSP16, literal(-10)))
          CFI (cfiCond147) V11 load(1, XDATA, add(CFA_XSP16, literal(-9)))
          CFI (cfiCond147) V12 load(1, XDATA, add(CFA_XSP16, literal(-8)))
          CFI (cfiCond147) V13 load(1, XDATA, add(CFA_XSP16, literal(-7)))
          CFI (cfiCond147) R7 load(1, XDATA, add(CFA_XSP16, literal(-6)))
          CFI (cfiCond147) ?RET_LOW load(1, XDATA, add(CFA_XSP16, literal(-5)))
          CFI (cfiCond147) ?RET_HIGH load(1, XDATA, add(CFA_XSP16, literal(-4)))
          CFI (cfiCond147) ?BRET_EXT load(1, XDATA, add(CFA_XSP16, literal(-3)))
          CFI (cfiCond147) DPL0 load(1, XDATA, add(CFA_XSP16, literal(-2)))
          CFI (cfiCond147) DPH0 load(1, XDATA, add(CFA_XSP16, literal(-1)))
          CFI (cfiCond147) CFA_SP SP+-2
          CFI (cfiCond147) CFA_XSP16 add(XSP16, 24)
          CFI Block cfiCond148 Using cfiCommon0
          CFI (cfiCond148) Function zclGp_SendGpProxyTableResponse
          CFI (cfiCond148) Conditional ??CrossCallReturnLabel_50
          CFI (cfiCond148) R6 load(1, XDATA, add(CFA_XSP16, literal(-22)))
          CFI (cfiCond148) VB load(1, XDATA, add(CFA_XSP16, literal(-21)))
          CFI (cfiCond148) V0 load(1, XDATA, add(CFA_XSP16, literal(-20)))
          CFI (cfiCond148) V1 load(1, XDATA, add(CFA_XSP16, literal(-19)))
          CFI (cfiCond148) V2 load(1, XDATA, add(CFA_XSP16, literal(-18)))
          CFI (cfiCond148) V3 load(1, XDATA, add(CFA_XSP16, literal(-17)))
          CFI (cfiCond148) V4 load(1, XDATA, add(CFA_XSP16, literal(-16)))
          CFI (cfiCond148) V5 load(1, XDATA, add(CFA_XSP16, literal(-15)))
          CFI (cfiCond148) V6 load(1, XDATA, add(CFA_XSP16, literal(-14)))
          CFI (cfiCond148) V7 load(1, XDATA, add(CFA_XSP16, literal(-13)))
          CFI (cfiCond148) V8 load(1, XDATA, add(CFA_XSP16, literal(-12)))
          CFI (cfiCond148) V9 load(1, XDATA, add(CFA_XSP16, literal(-11)))
          CFI (cfiCond148) V10 load(1, XDATA, add(CFA_XSP16, literal(-10)))
          CFI (cfiCond148) V11 load(1, XDATA, add(CFA_XSP16, literal(-9)))
          CFI (cfiCond148) V12 load(1, XDATA, add(CFA_XSP16, literal(-8)))
          CFI (cfiCond148) V13 load(1, XDATA, add(CFA_XSP16, literal(-7)))
          CFI (cfiCond148) R7 load(1, XDATA, add(CFA_XSP16, literal(-6)))
          CFI (cfiCond148) ?RET_LOW load(1, XDATA, add(CFA_XSP16, literal(-5)))
          CFI (cfiCond148) ?RET_HIGH load(1, XDATA, add(CFA_XSP16, literal(-4)))
          CFI (cfiCond148) ?BRET_EXT load(1, XDATA, add(CFA_XSP16, literal(-3)))
          CFI (cfiCond148) DPL0 load(1, XDATA, add(CFA_XSP16, literal(-2)))
          CFI (cfiCond148) DPH0 load(1, XDATA, add(CFA_XSP16, literal(-1)))
          CFI (cfiCond148) CFA_SP SP+-2
          CFI (cfiCond148) CFA_XSP16 add(XSP16, 24)
          CFI Block cfiCond149 Using cfiCommon0
          CFI (cfiCond149) Function zclGp_SendGpProxyTableResponse
          CFI (cfiCond149) Conditional ??CrossCallReturnLabel_51
          CFI (cfiCond149) R6 load(1, XDATA, add(CFA_XSP16, literal(-22)))
          CFI (cfiCond149) VB load(1, XDATA, add(CFA_XSP16, literal(-21)))
          CFI (cfiCond149) V0 load(1, XDATA, add(CFA_XSP16, literal(-20)))
          CFI (cfiCond149) V1 load(1, XDATA, add(CFA_XSP16, literal(-19)))
          CFI (cfiCond149) V2 load(1, XDATA, add(CFA_XSP16, literal(-18)))
          CFI (cfiCond149) V3 load(1, XDATA, add(CFA_XSP16, literal(-17)))
          CFI (cfiCond149) V4 load(1, XDATA, add(CFA_XSP16, literal(-16)))
          CFI (cfiCond149) V5 load(1, XDATA, add(CFA_XSP16, literal(-15)))
          CFI (cfiCond149) V6 load(1, XDATA, add(CFA_XSP16, literal(-14)))
          CFI (cfiCond149) V7 load(1, XDATA, add(CFA_XSP16, literal(-13)))
          CFI (cfiCond149) V8 load(1, XDATA, add(CFA_XSP16, literal(-12)))
          CFI (cfiCond149) V9 load(1, XDATA, add(CFA_XSP16, literal(-11)))
          CFI (cfiCond149) V10 load(1, XDATA, add(CFA_XSP16, literal(-10)))
          CFI (cfiCond149) V11 load(1, XDATA, add(CFA_XSP16, literal(-9)))
          CFI (cfiCond149) V12 load(1, XDATA, add(CFA_XSP16, literal(-8)))
          CFI (cfiCond149) V13 load(1, XDATA, add(CFA_XSP16, literal(-7)))
          CFI (cfiCond149) R7 load(1, XDATA, add(CFA_XSP16, literal(-6)))
          CFI (cfiCond149) ?RET_LOW load(1, XDATA, add(CFA_XSP16, literal(-5)))
          CFI (cfiCond149) ?RET_HIGH load(1, XDATA, add(CFA_XSP16, literal(-4)))
          CFI (cfiCond149) ?BRET_EXT load(1, XDATA, add(CFA_XSP16, literal(-3)))
          CFI (cfiCond149) DPL0 load(1, XDATA, add(CFA_XSP16, literal(-2)))
          CFI (cfiCond149) DPH0 load(1, XDATA, add(CFA_XSP16, literal(-1)))
          CFI (cfiCond149) CFA_SP SP+-2
          CFI (cfiCond149) CFA_XSP16 add(XSP16, 24)
          CFI Block cfiCond150 Using cfiCommon0
          CFI (cfiCond150) Function gp_AddCmdPayloadMsgNode
          CFI (cfiCond150) Conditional ??CrossCallReturnLabel_52, ??CrossCallReturnLabel_4
          CFI (cfiCond150) R6 load(1, XDATA, add(CFA_XSP16, literal(-14)))
          CFI (cfiCond150) VB load(1, XDATA, add(CFA_XSP16, literal(-13)))
          CFI (cfiCond150) V0 load(1, XDATA, add(CFA_XSP16, literal(-12)))
          CFI (cfiCond150) V1 load(1, XDATA, add(CFA_XSP16, literal(-11)))
          CFI (cfiCond150) V2 load(1, XDATA, add(CFA_XSP16, literal(-10)))
          CFI (cfiCond150) V3 load(1, XDATA, add(CFA_XSP16, literal(-9)))
          CFI (cfiCond150) V4 load(1, XDATA, add(CFA_XSP16, literal(-8)))
          CFI (cfiCond150) V5 load(1, XDATA, add(CFA_XSP16, literal(-7)))
          CFI (cfiCond150) R7 load(1, XDATA, add(CFA_XSP16, literal(-6)))
          CFI (cfiCond150) ?RET_LOW load(1, XDATA, add(CFA_XSP16, literal(-5)))
          CFI (cfiCond150) ?RET_HIGH load(1, XDATA, add(CFA_XSP16, literal(-4)))
          CFI (cfiCond150) ?BRET_EXT load(1, XDATA, add(CFA_XSP16, literal(-3)))
          CFI (cfiCond150) DPL0 load(1, XDATA, add(CFA_XSP16, literal(-2)))
          CFI (cfiCond150) DPH0 load(1, XDATA, add(CFA_XSP16, literal(-1)))
          CFI (cfiCond150) CFA_SP SP+-4
          CFI (cfiCond150) CFA_XSP16 add(XSP16, 14)
          CFI Block cfiCond151 Using cfiCommon0
          CFI (cfiCond151) Function gp_AddCmdPayloadMsgNode
          CFI (cfiCond151) Conditional ??CrossCallReturnLabel_52, ??CrossCallReturnLabel_5
          CFI (cfiCond151) R6 load(1, XDATA, add(CFA_XSP16, literal(-14)))
          CFI (cfiCond151) VB load(1, XDATA, add(CFA_XSP16, literal(-13)))
          CFI (cfiCond151) V0 load(1, XDATA, add(CFA_XSP16, literal(-12)))
          CFI (cfiCond151) V1 load(1, XDATA, add(CFA_XSP16, literal(-11)))
          CFI (cfiCond151) V2 load(1, XDATA, add(CFA_XSP16, literal(-10)))
          CFI (cfiCond151) V3 load(1, XDATA, add(CFA_XSP16, literal(-9)))
          CFI (cfiCond151) V4 load(1, XDATA, add(CFA_XSP16, literal(-8)))
          CFI (cfiCond151) V5 load(1, XDATA, add(CFA_XSP16, literal(-7)))
          CFI (cfiCond151) R7 load(1, XDATA, add(CFA_XSP16, literal(-6)))
          CFI (cfiCond151) ?RET_LOW load(1, XDATA, add(CFA_XSP16, literal(-5)))
          CFI (cfiCond151) ?RET_HIGH load(1, XDATA, add(CFA_XSP16, literal(-4)))
          CFI (cfiCond151) ?BRET_EXT load(1, XDATA, add(CFA_XSP16, literal(-3)))
          CFI (cfiCond151) DPL0 load(1, XDATA, add(CFA_XSP16, literal(-2)))
          CFI (cfiCond151) DPH0 load(1, XDATA, add(CFA_XSP16, literal(-1)))
          CFI (cfiCond151) CFA_SP SP+-4
          CFI (cfiCond151) CFA_XSP16 add(XSP16, 14)
          CFI Block cfiPicker152 Using cfiCommon1
          CFI (cfiPicker152) NoFunction
          CFI (cfiPicker152) Picker
        MOVX      @DPTR,A
        MOV       DPL,R6
        MOV       DPH,R7
        RET
          CFI EndBlock cfiCond145
          CFI EndBlock cfiCond146
          CFI EndBlock cfiCond147
          CFI EndBlock cfiCond148
          CFI EndBlock cfiCond149
          CFI EndBlock cfiCond150
          CFI EndBlock cfiCond151
          CFI EndBlock cfiPicker152

        RSEG BANKED_CODE:HUGECODE:NOROOT(0)
?Subroutine19:
          CFI Block cfiCond153 Using cfiCommon0
          CFI Function zclGp_SendGpProxyTableResponse
          CFI Conditional ??CrossCallReturnLabel_92
          CFI R6 load(1, XDATA, add(CFA_XSP16, literal(-22)))
          CFI VB load(1, XDATA, add(CFA_XSP16, literal(-21)))
          CFI V0 load(1, XDATA, add(CFA_XSP16, literal(-20)))
          CFI V1 load(1, XDATA, add(CFA_XSP16, literal(-19)))
          CFI V2 load(1, XDATA, add(CFA_XSP16, literal(-18)))
          CFI V3 load(1, XDATA, add(CFA_XSP16, literal(-17)))
          CFI V4 load(1, XDATA, add(CFA_XSP16, literal(-16)))
          CFI V5 load(1, XDATA, add(CFA_XSP16, literal(-15)))
          CFI V6 load(1, XDATA, add(CFA_XSP16, literal(-14)))
          CFI V7 load(1, XDATA, add(CFA_XSP16, literal(-13)))
          CFI V8 load(1, XDATA, add(CFA_XSP16, literal(-12)))
          CFI V9 load(1, XDATA, add(CFA_XSP16, literal(-11)))
          CFI V10 load(1, XDATA, add(CFA_XSP16, literal(-10)))
          CFI V11 load(1, XDATA, add(CFA_XSP16, literal(-9)))
          CFI V12 load(1, XDATA, add(CFA_XSP16, literal(-8)))
          CFI V13 load(1, XDATA, add(CFA_XSP16, literal(-7)))
          CFI R7 load(1, XDATA, add(CFA_XSP16, literal(-6)))
          CFI ?RET_LOW load(1, XDATA, add(CFA_XSP16, literal(-5)))
          CFI ?RET_HIGH load(1, XDATA, add(CFA_XSP16, literal(-4)))
          CFI ?BRET_EXT load(1, XDATA, add(CFA_XSP16, literal(-3)))
          CFI DPL0 load(1, XDATA, add(CFA_XSP16, literal(-2)))
          CFI DPH0 load(1, XDATA, add(CFA_XSP16, literal(-1)))
          CFI CFA_SP SP+-2
          CFI CFA_XSP16 add(XSP16, 24)
          CFI Block cfiCond154 Using cfiCommon0
          CFI (cfiCond154) Function zclGp_SendGpProxyTableResponse
          CFI (cfiCond154) Conditional ??CrossCallReturnLabel_93
          CFI (cfiCond154) R6 load(1, XDATA, add(CFA_XSP16, literal(-22)))
          CFI (cfiCond154) VB load(1, XDATA, add(CFA_XSP16, literal(-21)))
          CFI (cfiCond154) V0 load(1, XDATA, add(CFA_XSP16, literal(-20)))
          CFI (cfiCond154) V1 load(1, XDATA, add(CFA_XSP16, literal(-19)))
          CFI (cfiCond154) V2 load(1, XDATA, add(CFA_XSP16, literal(-18)))
          CFI (cfiCond154) V3 load(1, XDATA, add(CFA_XSP16, literal(-17)))
          CFI (cfiCond154) V4 load(1, XDATA, add(CFA_XSP16, literal(-16)))
          CFI (cfiCond154) V5 load(1, XDATA, add(CFA_XSP16, literal(-15)))
          CFI (cfiCond154) V6 load(1, XDATA, add(CFA_XSP16, literal(-14)))
          CFI (cfiCond154) V7 load(1, XDATA, add(CFA_XSP16, literal(-13)))
          CFI (cfiCond154) V8 load(1, XDATA, add(CFA_XSP16, literal(-12)))
          CFI (cfiCond154) V9 load(1, XDATA, add(CFA_XSP16, literal(-11)))
          CFI (cfiCond154) V10 load(1, XDATA, add(CFA_XSP16, literal(-10)))
          CFI (cfiCond154) V11 load(1, XDATA, add(CFA_XSP16, literal(-9)))
          CFI (cfiCond154) V12 load(1, XDATA, add(CFA_XSP16, literal(-8)))
          CFI (cfiCond154) V13 load(1, XDATA, add(CFA_XSP16, literal(-7)))
          CFI (cfiCond154) R7 load(1, XDATA, add(CFA_XSP16, literal(-6)))
          CFI (cfiCond154) ?RET_LOW load(1, XDATA, add(CFA_XSP16, literal(-5)))
          CFI (cfiCond154) ?RET_HIGH load(1, XDATA, add(CFA_XSP16, literal(-4)))
          CFI (cfiCond154) ?BRET_EXT load(1, XDATA, add(CFA_XSP16, literal(-3)))
          CFI (cfiCond154) DPL0 load(1, XDATA, add(CFA_XSP16, literal(-2)))
          CFI (cfiCond154) DPH0 load(1, XDATA, add(CFA_XSP16, literal(-1)))
          CFI (cfiCond154) CFA_SP SP+-2
          CFI (cfiCond154) CFA_XSP16 add(XSP16, 24)
          CFI Block cfiPicker155 Using cfiCommon1
          CFI (cfiPicker155) NoFunction
          CFI (cfiPicker155) Picker
        INC       DPTR
          CFI EndBlock cfiCond153
          CFI EndBlock cfiCond154
          CFI EndBlock cfiPicker155
        REQUIRE ??Subroutine43_0
        ; // Fall through to label ??Subroutine43_0

        RSEG BANKED_CODE:HUGECODE:NOROOT(0)
??Subroutine43_0:
          CFI Block cfiCond156 Using cfiCommon0
          CFI Function zclGp_SendGpProxyTableResponse
          CFI Conditional ??CrossCallReturnLabel_91
          CFI R6 load(1, XDATA, add(CFA_XSP16, literal(-22)))
          CFI VB load(1, XDATA, add(CFA_XSP16, literal(-21)))
          CFI V0 load(1, XDATA, add(CFA_XSP16, literal(-20)))
          CFI V1 load(1, XDATA, add(CFA_XSP16, literal(-19)))
          CFI V2 load(1, XDATA, add(CFA_XSP16, literal(-18)))
          CFI V3 load(1, XDATA, add(CFA_XSP16, literal(-17)))
          CFI V4 load(1, XDATA, add(CFA_XSP16, literal(-16)))
          CFI V5 load(1, XDATA, add(CFA_XSP16, literal(-15)))
          CFI V6 load(1, XDATA, add(CFA_XSP16, literal(-14)))
          CFI V7 load(1, XDATA, add(CFA_XSP16, literal(-13)))
          CFI V8 load(1, XDATA, add(CFA_XSP16, literal(-12)))
          CFI V9 load(1, XDATA, add(CFA_XSP16, literal(-11)))
          CFI V10 load(1, XDATA, add(CFA_XSP16, literal(-10)))
          CFI V11 load(1, XDATA, add(CFA_XSP16, literal(-9)))
          CFI V12 load(1, XDATA, add(CFA_XSP16, literal(-8)))
          CFI V13 load(1, XDATA, add(CFA_XSP16, literal(-7)))
          CFI R7 load(1, XDATA, add(CFA_XSP16, literal(-6)))
          CFI ?RET_LOW load(1, XDATA, add(CFA_XSP16, literal(-5)))
          CFI ?RET_HIGH load(1, XDATA, add(CFA_XSP16, literal(-4)))
          CFI ?BRET_EXT load(1, XDATA, add(CFA_XSP16, literal(-3)))
          CFI DPL0 load(1, XDATA, add(CFA_XSP16, literal(-2)))
          CFI DPH0 load(1, XDATA, add(CFA_XSP16, literal(-1)))
          CFI CFA_SP SP+-2
          CFI CFA_XSP16 add(XSP16, 24)
          CFI Block cfiCond157 Using cfiCommon0
          CFI (cfiCond157) Function zclGp_SendGpProxyTableResponse
          CFI (cfiCond157) Conditional ??CrossCallReturnLabel_92
          CFI (cfiCond157) R6 load(1, XDATA, add(CFA_XSP16, literal(-22)))
          CFI (cfiCond157) VB load(1, XDATA, add(CFA_XSP16, literal(-21)))
          CFI (cfiCond157) V0 load(1, XDATA, add(CFA_XSP16, literal(-20)))
          CFI (cfiCond157) V1 load(1, XDATA, add(CFA_XSP16, literal(-19)))
          CFI (cfiCond157) V2 load(1, XDATA, add(CFA_XSP16, literal(-18)))
          CFI (cfiCond157) V3 load(1, XDATA, add(CFA_XSP16, literal(-17)))
          CFI (cfiCond157) V4 load(1, XDATA, add(CFA_XSP16, literal(-16)))
          CFI (cfiCond157) V5 load(1, XDATA, add(CFA_XSP16, literal(-15)))
          CFI (cfiCond157) V6 load(1, XDATA, add(CFA_XSP16, literal(-14)))
          CFI (cfiCond157) V7 load(1, XDATA, add(CFA_XSP16, literal(-13)))
          CFI (cfiCond157) V8 load(1, XDATA, add(CFA_XSP16, literal(-12)))
          CFI (cfiCond157) V9 load(1, XDATA, add(CFA_XSP16, literal(-11)))
          CFI (cfiCond157) V10 load(1, XDATA, add(CFA_XSP16, literal(-10)))
          CFI (cfiCond157) V11 load(1, XDATA, add(CFA_XSP16, literal(-9)))
          CFI (cfiCond157) V12 load(1, XDATA, add(CFA_XSP16, literal(-8)))
          CFI (cfiCond157) V13 load(1, XDATA, add(CFA_XSP16, literal(-7)))
          CFI (cfiCond157) R7 load(1, XDATA, add(CFA_XSP16, literal(-6)))
          CFI (cfiCond157) ?RET_LOW load(1, XDATA, add(CFA_XSP16, literal(-5)))
          CFI (cfiCond157) ?RET_HIGH load(1, XDATA, add(CFA_XSP16, literal(-4)))
          CFI (cfiCond157) ?BRET_EXT load(1, XDATA, add(CFA_XSP16, literal(-3)))
          CFI (cfiCond157) DPL0 load(1, XDATA, add(CFA_XSP16, literal(-2)))
          CFI (cfiCond157) DPH0 load(1, XDATA, add(CFA_XSP16, literal(-1)))
          CFI (cfiCond157) CFA_SP SP+-2
          CFI (cfiCond157) CFA_XSP16 add(XSP16, 24)
          CFI Block cfiCond158 Using cfiCommon0
          CFI (cfiCond158) Function zclGp_SendGpProxyTableResponse
          CFI (cfiCond158) Conditional ??CrossCallReturnLabel_93
          CFI (cfiCond158) R6 load(1, XDATA, add(CFA_XSP16, literal(-22)))
          CFI (cfiCond158) VB load(1, XDATA, add(CFA_XSP16, literal(-21)))
          CFI (cfiCond158) V0 load(1, XDATA, add(CFA_XSP16, literal(-20)))
          CFI (cfiCond158) V1 load(1, XDATA, add(CFA_XSP16, literal(-19)))
          CFI (cfiCond158) V2 load(1, XDATA, add(CFA_XSP16, literal(-18)))
          CFI (cfiCond158) V3 load(1, XDATA, add(CFA_XSP16, literal(-17)))
          CFI (cfiCond158) V4 load(1, XDATA, add(CFA_XSP16, literal(-16)))
          CFI (cfiCond158) V5 load(1, XDATA, add(CFA_XSP16, literal(-15)))
          CFI (cfiCond158) V6 load(1, XDATA, add(CFA_XSP16, literal(-14)))
          CFI (cfiCond158) V7 load(1, XDATA, add(CFA_XSP16, literal(-13)))
          CFI (cfiCond158) V8 load(1, XDATA, add(CFA_XSP16, literal(-12)))
          CFI (cfiCond158) V9 load(1, XDATA, add(CFA_XSP16, literal(-11)))
          CFI (cfiCond158) V10 load(1, XDATA, add(CFA_XSP16, literal(-10)))
          CFI (cfiCond158) V11 load(1, XDATA, add(CFA_XSP16, literal(-9)))
          CFI (cfiCond158) V12 load(1, XDATA, add(CFA_XSP16, literal(-8)))
          CFI (cfiCond158) V13 load(1, XDATA, add(CFA_XSP16, literal(-7)))
          CFI (cfiCond158) R7 load(1, XDATA, add(CFA_XSP16, literal(-6)))
          CFI (cfiCond158) ?RET_LOW load(1, XDATA, add(CFA_XSP16, literal(-5)))
          CFI (cfiCond158) ?RET_HIGH load(1, XDATA, add(CFA_XSP16, literal(-4)))
          CFI (cfiCond158) ?BRET_EXT load(1, XDATA, add(CFA_XSP16, literal(-3)))
          CFI (cfiCond158) DPL0 load(1, XDATA, add(CFA_XSP16, literal(-2)))
          CFI (cfiCond158) DPH0 load(1, XDATA, add(CFA_XSP16, literal(-1)))
          CFI (cfiCond158) CFA_SP SP+-2
          CFI (cfiCond158) CFA_XSP16 add(XSP16, 24)
          CFI Block cfiPicker159 Using cfiCommon1
          CFI (cfiPicker159) NoFunction
          CFI (cfiPicker159) Picker
        INC       DPTR
        MOVX      A,@DPTR
        MOV       DPL,R2
        MOV       DPH,R3
        INC       DPTR
        RET
          CFI EndBlock cfiCond156
          CFI EndBlock cfiCond157
          CFI EndBlock cfiCond158
          CFI EndBlock cfiPicker159
//  648 
//  649  /*********************************************************************
//  650  * @fn          gp_addPairedSinksToMsgQueue
//  651  *
//  652  * @brief       General function to add Notification Msg to Queue for all 
//  653  *              Sinks paired to the given GPD
//  654  *
//  655  * @param       nvIndex - NV Id of proxy table
//  656  *              pEntry  - pointer to PROXY_TBL_ENTRY_LEN array
//  657  *
//  658  * @return      
//  659  */

        RSEG BANKED_CODE:HUGECODE:NOROOT(0)
//  660 static uint8 gp_addPairedSinksToMsgQueue( uint8 appId, uint8 *pId, gpCmdPayloadMsg_t* pMsg )
gp_addPairedSinksToMsgQueue:
          CFI Block cfiBlock160 Using cfiCommon0
          CFI Function gp_addPairedSinksToMsgQueue
        CODE
//  661 {
        FUNCALL gp_addPairedSinksToMsgQueue, gp_getProxyTableByIndex
        LOCFRAME ISTACK, 0, STACK
        LOCFRAME PSTACK, 0, STACK
        LOCFRAME XSTACK, 105, STACK
        LOCFRAME IOVERLAY, 0, STATIC
        LOCFRAME DOVERLAY, 0, STATIC
        ARGFRAME ISTACK, 0, STACK
        ARGFRAME PSTACK, 0, STACK
        ARGFRAME XSTACK, 105, STACK
        ARGFRAME IOVERLAY, 0, STATIC
        ARGFRAME DOVERLAY, 0, STATIC
        FUNCALL gp_addPairedSinksToMsgQueue, osal_memcmp
        LOCFRAME ISTACK, 0, STACK
        LOCFRAME PSTACK, 0, STACK
        LOCFRAME XSTACK, 108, STACK
        LOCFRAME IOVERLAY, 0, STATIC
        LOCFRAME DOVERLAY, 0, STATIC
        ARGFRAME ISTACK, 0, STACK
        ARGFRAME PSTACK, 0, STACK
        ARGFRAME XSTACK, 108, STACK
        ARGFRAME IOVERLAY, 0, STATIC
        ARGFRAME DOVERLAY, 0, STATIC
        FUNCALL gp_addPairedSinksToMsgQueue, osal_memcmp
        LOCFRAME ISTACK, 0, STACK
        LOCFRAME PSTACK, 0, STACK
        LOCFRAME XSTACK, 108, STACK
        LOCFRAME IOVERLAY, 0, STATIC
        LOCFRAME DOVERLAY, 0, STATIC
        ARGFRAME ISTACK, 0, STACK
        ARGFRAME PSTACK, 0, STACK
        ARGFRAME XSTACK, 108, STACK
        ARGFRAME IOVERLAY, 0, STATIC
        ARGFRAME DOVERLAY, 0, STATIC
        FUNCALL gp_addPairedSinksToMsgQueue, osal_memcmp
        LOCFRAME ISTACK, 0, STACK
        LOCFRAME PSTACK, 0, STACK
        LOCFRAME XSTACK, 108, STACK
        LOCFRAME IOVERLAY, 0, STATIC
        LOCFRAME DOVERLAY, 0, STATIC
        ARGFRAME ISTACK, 0, STACK
        ARGFRAME PSTACK, 0, STACK
        ARGFRAME XSTACK, 108, STACK
        ARGFRAME IOVERLAY, 0, STATIC
        ARGFRAME DOVERLAY, 0, STATIC
        FUNCALL gp_addPairedSinksToMsgQueue, osal_memcpy
        LOCFRAME ISTACK, 0, STACK
        LOCFRAME PSTACK, 0, STACK
        LOCFRAME XSTACK, 108, STACK
        LOCFRAME IOVERLAY, 0, STATIC
        LOCFRAME DOVERLAY, 0, STATIC
        ARGFRAME ISTACK, 0, STACK
        ARGFRAME PSTACK, 0, STACK
        ARGFRAME XSTACK, 108, STACK
        ARGFRAME IOVERLAY, 0, STATIC
        ARGFRAME DOVERLAY, 0, STATIC
        FUNCALL gp_addPairedSinksToMsgQueue, gp_AddNotificationMsgNode
        LOCFRAME ISTACK, 0, STACK
        LOCFRAME PSTACK, 0, STACK
        LOCFRAME XSTACK, 105, STACK
        LOCFRAME IOVERLAY, 0, STATIC
        LOCFRAME DOVERLAY, 0, STATIC
        ARGFRAME ISTACK, 0, STACK
        ARGFRAME PSTACK, 0, STACK
        ARGFRAME XSTACK, 105, STACK
        ARGFRAME IOVERLAY, 0, STATIC
        ARGFRAME DOVERLAY, 0, STATIC
        FUNCALL gp_addPairedSinksToMsgQueue, osal_memcmp
        LOCFRAME ISTACK, 0, STACK
        LOCFRAME PSTACK, 0, STACK
        LOCFRAME XSTACK, 108, STACK
        LOCFRAME IOVERLAY, 0, STATIC
        LOCFRAME DOVERLAY, 0, STATIC
        ARGFRAME ISTACK, 0, STACK
        ARGFRAME PSTACK, 0, STACK
        ARGFRAME XSTACK, 108, STACK
        ARGFRAME IOVERLAY, 0, STATIC
        ARGFRAME DOVERLAY, 0, STATIC
        FUNCALL gp_addPairedSinksToMsgQueue, osal_memcpy
        LOCFRAME ISTACK, 0, STACK
        LOCFRAME PSTACK, 0, STACK
        LOCFRAME XSTACK, 108, STACK
        LOCFRAME IOVERLAY, 0, STATIC
        LOCFRAME DOVERLAY, 0, STATIC
        ARGFRAME ISTACK, 0, STACK
        ARGFRAME PSTACK, 0, STACK
        ARGFRAME XSTACK, 108, STACK
        ARGFRAME IOVERLAY, 0, STATIC
        ARGFRAME DOVERLAY, 0, STATIC
        FUNCALL gp_addPairedSinksToMsgQueue, gp_AddNotificationMsgNode
        LOCFRAME ISTACK, 0, STACK
        LOCFRAME PSTACK, 0, STACK
        LOCFRAME XSTACK, 105, STACK
        LOCFRAME IOVERLAY, 0, STATIC
        LOCFRAME DOVERLAY, 0, STATIC
        ARGFRAME ISTACK, 0, STACK
        ARGFRAME PSTACK, 0, STACK
        ARGFRAME XSTACK, 105, STACK
        ARGFRAME IOVERLAY, 0, STATIC
        ARGFRAME DOVERLAY, 0, STATIC
        FUNCALL gp_addPairedSinksToMsgQueue, osal_memcpy
        LOCFRAME ISTACK, 0, STACK
        LOCFRAME PSTACK, 0, STACK
        LOCFRAME XSTACK, 108, STACK
        LOCFRAME IOVERLAY, 0, STATIC
        LOCFRAME DOVERLAY, 0, STATIC
        ARGFRAME ISTACK, 0, STACK
        ARGFRAME PSTACK, 0, STACK
        ARGFRAME XSTACK, 108, STACK
        ARGFRAME IOVERLAY, 0, STATIC
        ARGFRAME DOVERLAY, 0, STATIC
        FUNCALL gp_addPairedSinksToMsgQueue, gp_AddNotificationMsgNode
        LOCFRAME ISTACK, 0, STACK
        LOCFRAME PSTACK, 0, STACK
        LOCFRAME XSTACK, 105, STACK
        LOCFRAME IOVERLAY, 0, STATIC
        LOCFRAME DOVERLAY, 0, STATIC
        ARGFRAME ISTACK, 0, STACK
        ARGFRAME PSTACK, 0, STACK
        ARGFRAME XSTACK, 105, STACK
        ARGFRAME IOVERLAY, 0, STATIC
        ARGFRAME DOVERLAY, 0, STATIC
        FUNCALL gp_addPairedSinksToMsgQueue, osal_memcpy
        LOCFRAME ISTACK, 0, STACK
        LOCFRAME PSTACK, 0, STACK
        LOCFRAME XSTACK, 108, STACK
        LOCFRAME IOVERLAY, 0, STATIC
        LOCFRAME DOVERLAY, 0, STATIC
        ARGFRAME ISTACK, 0, STACK
        ARGFRAME PSTACK, 0, STACK
        ARGFRAME XSTACK, 108, STACK
        ARGFRAME IOVERLAY, 0, STATIC
        ARGFRAME DOVERLAY, 0, STATIC
        FUNCALL gp_addPairedSinksToMsgQueue, gp_AddNotificationMsgNode
        LOCFRAME ISTACK, 0, STACK
        LOCFRAME PSTACK, 0, STACK
        LOCFRAME XSTACK, 105, STACK
        LOCFRAME IOVERLAY, 0, STATIC
        LOCFRAME DOVERLAY, 0, STATIC
        ARGFRAME ISTACK, 0, STACK
        ARGFRAME PSTACK, 0, STACK
        ARGFRAME XSTACK, 105, STACK
        ARGFRAME IOVERLAY, 0, STATIC
        ARGFRAME DOVERLAY, 0, STATIC
        REQUIRE ?V0
        REQUIRE ?V1
        REQUIRE ?V2
        REQUIRE ?V3
        REQUIRE ?V4
        REQUIRE ?V5
        REQUIRE ?V6
        REQUIRE ?V8
        REQUIRE ?V9
        MOV       A,#-0x12
        LCALL     ?BANKED_ENTER_XDATA
          CFI DPH0 load(1, XDATA, add(CFA_XSP16, literal(-1)))
          CFI DPL0 load(1, XDATA, add(CFA_XSP16, literal(-2)))
          CFI ?BRET_EXT load(1, XDATA, add(CFA_XSP16, literal(-3)))
          CFI ?RET_HIGH load(1, XDATA, add(CFA_XSP16, literal(-4)))
          CFI ?RET_LOW load(1, XDATA, add(CFA_XSP16, literal(-5)))
          CFI R7 load(1, XDATA, add(CFA_XSP16, literal(-6)))
          CFI V9 load(1, XDATA, add(CFA_XSP16, literal(-7)))
          CFI V8 load(1, XDATA, add(CFA_XSP16, literal(-8)))
          CFI V7 load(1, XDATA, add(CFA_XSP16, literal(-9)))
          CFI V6 load(1, XDATA, add(CFA_XSP16, literal(-10)))
          CFI V5 load(1, XDATA, add(CFA_XSP16, literal(-11)))
          CFI V4 load(1, XDATA, add(CFA_XSP16, literal(-12)))
          CFI V3 load(1, XDATA, add(CFA_XSP16, literal(-13)))
          CFI V2 load(1, XDATA, add(CFA_XSP16, literal(-14)))
          CFI V1 load(1, XDATA, add(CFA_XSP16, literal(-15)))
          CFI V0 load(1, XDATA, add(CFA_XSP16, literal(-16)))
          CFI VB load(1, XDATA, add(CFA_XSP16, literal(-17)))
          CFI R6 load(1, XDATA, add(CFA_XSP16, literal(-18)))
          CFI CFA_SP SP+0
          CFI CFA_XSP16 add(XSP16, 18)
        ; Saved register size: 18
        ; Auto size: 87
        MOV       A,#-0x57
        LCALL     ?ALLOC_XSTACK8
          CFI CFA_XSP16 add(XSP16, 105)
        MOV       ?V3,R1
        MOV       ?V8,R4
        MOV       ?V9,R5
//  662   uint8 freeSinkEntry[LSINK_ADDR_LEN] = {0xFF, 0xFF, 0xFF, 0xFF, 0xFF, 0xFF, 0xFF, 0xFF, 0xFF, 0xFF};
        MOV       DPTR,#`?<Constant {255, 255, 255, 255, 255, 255, 255,`
        MOV       A,#0x4d
        LCALL     ?XSTACK_DISP102_8
        MOV       A,#0xa
        LCALL     ?MOVE_LONG8_XDATA_XDATA
//  663   uint8 status;
//  664   uint8 i;
//  665   uint8 currEntry[PROXY_TBL_ENTRY_LEN];
//  666   afAddrType_t dstAddr = {0};
        MOV       DPTR,#`?<Constant {{0}}>`
        MOV       R4,?XSP + 0
        MOV       R5,?XSP + 1
        MOV       A,#0xc
        LCALL     ?MOVE_LONG8_XDATA_XDATA
//  667   gpNotificationMsg_t *pNotificationMsgCurr = NULL;
//  668 
//  669     
//  670   for ( i = 0; i <= GPP_MAX_PROXY_TABLE_ENTRIES ; i++ )
        MOV       R6,#0x0
        MOV       ?V0,R2
        MOV       ?V1,R3
        MOV       ?V2,A
//  671   {
//  672     status = gp_getProxyTableByIndex( ( ZCD_NV_PROXY_TABLE_START + i ), currEntry );
??gp_addPairedSinksToMsgQueue_0:
        ; Setup parameters for call to function gp_getProxyTableByIndex
        MOV       A,#0xc
        LCALL     ?XSTACK_DISP102_8
        MOV       A,R6
        ADD       A,#0x10
        MOV       R2,A
        CLR       A
        ADDC      A,#0x3
        MOV       R3,A
        LCALL     `??gp_getProxyTableByIndex::?relay`; Banked call to: gp_getProxyTableByIndex
        MOV       A,R1
        MOV       R7,A
//  673 
//  674     if ( status == NV_OPER_FAILED )
        MOV       A,#0xa
        XRL       A,R7
        JZ        ??gp_addPairedSinksToMsgQueue_1
//  675     {
//  676       break;
//  677     }
//  678     
//  679     // if the entry is empty
//  680     if ( status == NV_INVALID_DATA )
        MOV       A,#0xd
        XRL       A,R7
        JNZ       ??gp_addPairedSinksToMsgQueue_2
//  681     {
//  682       if ( i >= GPP_MAX_PROXY_TABLE_ENTRIES )
        MOV       A,R6
        CLR       C
        SUBB      A,#0x5
        JC        ??gp_addPairedSinksToMsgQueue_3
        LJMP      ??gp_addPairedSinksToMsgQueue_4 & 0xFFFF
//  683       {
//  684         return status;
//  685       }
//  686       continue;
//  687     }
//  688     
//  689     if ( PROXY_TBL_COMP_APPLICTION_ID( appId, currEntry[PROXY_TBL_ENTRY_OPT] ) )
??gp_addPairedSinksToMsgQueue_2:
        MOV       A,#0x7
        ANL       A,?V3
        MOV       R0,A
        MOV       A,#0xc
        LCALL     ?XSTACK_DISP0_8
        MOVX      A,@DPTR
        ANL       A,#0x7
        XRL       A,R0
        JNZ       ??gp_addPairedSinksToMsgQueue_3
//  690     {
//  691       if ( appId == GP_OPT_APP_ID_GPD )
        MOV       A,?V3
        JNZ       ??gp_addPairedSinksToMsgQueue_5
//  692       {
//  693         if ( osal_memcmp( pId, &currEntry[PROXY_TBL_ENTRY_GPD_ID + 4], sizeof ( uint32 ) ) )
        ; Setup parameters for call to function osal_memcmp
        MOV       A,#0x12
        LCALL     ?XSTACK_DISP0_8
        MOV       R1,DPL
        MOV       R2,DPH
        MOV       ?V4,R1
        MOV       ?V5,R2
        MOV       ?V6,#0x0
        MOV       R0,#?V4
        LCALL     ?PUSH_XSTACK_I_THREE
          CFI CFA_XSP16 add(XSP16, 108)
        MOV       R4,#0x4
        LCALL     ??Subroutine44_0 & 0xFFFF
//  694         {
//  695           // Entry found
//  696           break;
//  697         }
//  698       }
??CrossCallReturnLabel_96:
        LCALL     ?DEALLOC_XSTACK8
          CFI CFA_XSP16 add(XSP16, 105)
        MOV       A,R1
        JNZ       ??gp_addPairedSinksToMsgQueue_1
        SJMP      ??gp_addPairedSinksToMsgQueue_3
//  699       else if ( appId == GP_OPT_APP_ID_IEEE )
??gp_addPairedSinksToMsgQueue_5:
        MOV       A,#0x2
        XRL       A,?V3
        JNZ       ??gp_addPairedSinksToMsgQueue_3
//  700       {
//  701         if ( osal_memcmp( pId, &currEntry[PROXY_TBL_ENTRY_GPD_ID], Z_EXTADDR_LEN ) )
        ; Setup parameters for call to function osal_memcmp
        MOV       A,#0xe
        LCALL     ?XSTACK_DISP0_8
        MOV       R1,DPL
        MOV       R2,DPH
        MOV       ?V4,R1
        MOV       ?V5,R2
        MOV       ?V6,#0x0
        MOV       R0,#?V4
        LCALL     ?PUSH_XSTACK_I_THREE
          CFI CFA_XSP16 add(XSP16, 108)
        MOV       R4,#0x8
        LCALL     ??Subroutine44_0 & 0xFFFF
//  702         {
//  703           // Entry found
//  704           break;
//  705         }
//  706       }
//  707     }
//  708   }
??CrossCallReturnLabel_97:
        LCALL     ?DEALLOC_XSTACK8
          CFI CFA_XSP16 add(XSP16, 105)
        MOV       A,R1
        JNZ       ??gp_addPairedSinksToMsgQueue_1
??gp_addPairedSinksToMsgQueue_3:
        INC       R6
        MOV       A,R6
        CLR       C
        SUBB      A,#0x6
        JNC       $+5
        LJMP      ??gp_addPairedSinksToMsgQueue_0 & 0xFFFF
//  709   
//  710   dstAddr.endPoint = GREEN_POWER_INTERNAL_ENDPOINT;
??gp_addPairedSinksToMsgQueue_1:
        MOV       A,#0x9
        LCALL     ?XSTACK_DISP0_8
        LCALL     ?Subroutine17 & 0xFFFF
//  711   dstAddr.panId = _NIB.nwkPanId;
??CrossCallReturnLabel_124:
        MOV       A,#0xa
        LCALL     ?XSTACK_DISP0_8
        LCALL     ?Subroutine22 & 0xFFFF
//  712   
//  713   if ( PROXY_TBL_GET_LIGHTWIGHT_UNICAST( currEntry[PROXY_TBL_ENTRY_OPT] ) )
??CrossCallReturnLabel_25:
        MOV       A,#0xc
        LCALL     ?XSTACK_DISP0_8
        MOVX      A,@DPTR
        MOV       C,0xE0 /* A   */.6
        JC        $+5
        LJMP      ??gp_addPairedSinksToMsgQueue_6 & 0xFFFF
//  714   {
//  715     dstAddr.addrMode = afAddr16Bit;
        MOV       A,#0x8
        LCALL     ?XSTACK_DISP0_8
        MOV       A,#0x2
        MOVX      @DPTR,A
//  716     if ( !osal_memcmp( freeSinkEntry, &currEntry[PROXY_TBL_ENTRY_1ST_LSINK_ADDR], LSINK_ADDR_LEN ) )
        MOV       A,#0x4d
        LCALL     ?XSTACK_DISP100_8
        MOV       ?V0,R0
        MOV       ?V1,R1
        ; Setup parameters for call to function osal_memcmp
        MOV       A,#0x2e
        LCALL     ?XSTACK_DISP0_8
        MOV       R1,DPL
        MOV       R2,DPH
        MOV       ?V4,R1
        MOV       ?V5,R2
        MOV       ?V6,#0x0
        MOV       R0,#?V4
        LCALL     ?PUSH_XSTACK_I_THREE
          CFI CFA_XSP16 add(XSP16, 108)
        LCALL     ?Subroutine30 & 0xFFFF
??CrossCallReturnLabel_94:
        LCALL     ?DEALLOC_XSTACK8
          CFI CFA_XSP16 add(XSP16, 105)
        MOV       A,R1
        JNZ       ??gp_addPairedSinksToMsgQueue_7
//  717     {
//  718       osal_memcpy( &dstAddr.addr.shortAddr, &currEntry[PROXY_TBL_ENTRY_1ST_LSINK_ADDR + Z_EXTADDR_LEN], sizeof ( uint16 ) );
        ; Setup parameters for call to function osal_memcpy
        MOV       A,#0x36
        LCALL     ?XSTACK_DISP0_8
        MOV       R1,DPL
        MOV       R2,DPH
        MOV       ?V4,R1
        MOV       ?V5,R2
        MOV       R0,#?V4
        LCALL     ?PUSH_XSTACK_I_THREE
          CFI CFA_XSP16 add(XSP16, 108)
        MOV       R4,#0x2
        MOV       R5,#0x0
        MOV       A,#0x3
        LCALL     ?XSTACK_DISP101_8
        LCALL     ??Subroutine42_0 & 0xFFFF
??CrossCallReturnLabel_87:
        LCALL     ?DEALLOC_XSTACK8
          CFI CFA_XSP16 add(XSP16, 105)
//  719       
//  720       pNotificationMsgCurr = gp_AddNotificationMsgNode( &pNotificationMsgHead, pMsg );
        ; Setup parameters for call to function gp_AddNotificationMsgNode
        MOV       R4,?V8
        MOV       R5,?V9
        MOV       R2,#pNotificationMsgHead & 0xff
        MOV       R3,#(pNotificationMsgHead >> 8) & 0xff
        LCALL     `??gp_AddNotificationMsgNode::?relay`; Banked call to: gp_AddNotificationMsgNode
        MOV       ?V4,R2
        MOV       ?V5,R3
        MOV       R4,?V4
        MOV       R5,?V5
//  721       if ( pNotificationMsgCurr != NULL )
        MOV       A,R2
        ORL       A,R5
        JZ        ??gp_addPairedSinksToMsgQueue_7
//  722       {
//  723         pNotificationMsgCurr->addr = dstAddr;
        MOV       DPL,?XSP + 0
        MOV       DPH,?XSP + 1
        MOV       A,#0xc
        LCALL     ?MOVE_LONG8_XDATA_XDATA
//  724       }
//  725     }
//  726     if ( !osal_memcmp( freeSinkEntry, &currEntry[PROXY_TBL_ENTRY_2ND_LSINK_ADDR], LSINK_ADDR_LEN ) )
??gp_addPairedSinksToMsgQueue_7:
        ; Setup parameters for call to function osal_memcmp
        MOV       A,#0x38
        LCALL     ?XSTACK_DISP0_8
        MOV       R1,DPL
        MOV       R2,DPH
        MOV       ?V4,R1
        MOV       ?V5,R2
        MOV       R0,#?V4
        LCALL     ?PUSH_XSTACK_I_THREE
          CFI CFA_XSP16 add(XSP16, 108)
        LCALL     ?Subroutine30 & 0xFFFF
??CrossCallReturnLabel_95:
        LCALL     ?DEALLOC_XSTACK8
          CFI CFA_XSP16 add(XSP16, 105)
        MOV       A,R1
        JNZ       ??gp_addPairedSinksToMsgQueue_6
//  727     {
//  728       osal_memcpy( &dstAddr.addr.shortAddr, &currEntry[PROXY_TBL_ENTRY_2ND_LSINK_ADDR + Z_EXTADDR_LEN], sizeof ( uint16 ) );   
        ; Setup parameters for call to function osal_memcpy
        MOV       A,#0x40
        LCALL     ?XSTACK_DISP0_8
        MOV       R1,DPL
        MOV       R2,DPH
        MOV       ?V0,R1
        MOV       ?V1,R2
        MOV       R0,#?V0
        LCALL     ?PUSH_XSTACK_I_THREE
          CFI CFA_XSP16 add(XSP16, 108)
        MOV       R4,#0x2
        MOV       R5,#0x0
        MOV       A,#0x3
        LCALL     ?XSTACK_DISP101_8
        LCALL     ??Subroutine42_0 & 0xFFFF
??CrossCallReturnLabel_88:
        LCALL     ?DEALLOC_XSTACK8
          CFI CFA_XSP16 add(XSP16, 105)
//  729       
//  730       pNotificationMsgCurr = gp_AddNotificationMsgNode( &pNotificationMsgHead, pMsg );
        ; Setup parameters for call to function gp_AddNotificationMsgNode
        LCALL     ?Subroutine29 & 0xFFFF
//  731       if ( pNotificationMsgCurr != NULL )
??CrossCallReturnLabel_39:
        JZ        ??gp_addPairedSinksToMsgQueue_6
//  732       {
//  733         pNotificationMsgCurr->addr = dstAddr;
        MOV       DPL,?XSP + 0
        MOV       DPH,?XSP + 1
        MOV       A,#0xc
        LCALL     ?MOVE_LONG8_XDATA_XDATA
//  734       }
//  735     }
//  736   }
//  737      
//  738   if ( PROXY_TBL_GET_DGROUP( currEntry[PROXY_TBL_ENTRY_OPT] ) || PROXY_TBL_GET_CGROUP( currEntry[PROXY_TBL_ENTRY_OPT + 1] ) )
??gp_addPairedSinksToMsgQueue_6:
        MOV       A,#0xc
        LCALL     ?XSTACK_DISP0_8
        MOVX      A,@DPTR
        MOV       C,0xE0 /* A   */.7
        JC        ??gp_addPairedSinksToMsgQueue_8
        MOV       A,#0xd
        LCALL     ?XSTACK_DISP0_8
        MOVX      A,@DPTR
        MOV       C,0xE0 /* A   */.0
        JNC       ??gp_addPairedSinksToMsgQueue_4
//  739   {
//  740     dstAddr.addrMode = afAddrGroup;
??gp_addPairedSinksToMsgQueue_8:
        MOV       A,#0x8
        LCALL     ?XSTACK_DISP0_8
        MOV       A,#0x1
        MOVX      @DPTR,A
//  741     if ( GET_BIT( &currEntry[PROXY_TBL_ENTRY_GRP_TBL_ENTRIES], PROXY_TBL_ENTRY_1ST_GRP_BIT ) )
        MOV       A,#0x42
        LCALL     ?XSTACK_DISP0_8
        MOVX      A,@DPTR
        MOV       C,0xE0 /* A   */.0
        JNC       ??gp_addPairedSinksToMsgQueue_9
//  742     {
//  743       osal_memcpy( &dstAddr.addr.shortAddr, &currEntry[PROXY_TBL_ENTRY_1ST_GRP_ADDR], sizeof ( uint16 ) );   
        ; Setup parameters for call to function osal_memcpy
        MOV       A,#0x43
        LCALL     ?XSTACK_DISP0_8
        MOV       R1,DPL
        MOV       R2,DPH
        MOV       ?V0,R1
        MOV       ?V1,R2
        MOV       R0,#?V0
        LCALL     ?PUSH_XSTACK_I_THREE
          CFI CFA_XSP16 add(XSP16, 108)
        MOV       R4,#0x2
        MOV       R5,#0x0
        MOV       A,#0x3
        LCALL     ?XSTACK_DISP101_8
        LCALL     ??Subroutine42_0 & 0xFFFF
??CrossCallReturnLabel_89:
        LCALL     ?DEALLOC_XSTACK8
          CFI CFA_XSP16 add(XSP16, 105)
//  744       
//  745       pNotificationMsgCurr = gp_AddNotificationMsgNode( &pNotificationMsgHead, pMsg );
        ; Setup parameters for call to function gp_AddNotificationMsgNode
        LCALL     ?Subroutine29 & 0xFFFF
//  746       if ( pNotificationMsgCurr != NULL )
??CrossCallReturnLabel_40:
        JZ        ??gp_addPairedSinksToMsgQueue_9
//  747       {
//  748         pNotificationMsgCurr->addr = dstAddr;
        MOV       DPL,?XSP + 0
        MOV       DPH,?XSP + 1
        MOV       A,#0xc
        LCALL     ?MOVE_LONG8_XDATA_XDATA
//  749       }
//  750     }
//  751     if ( GET_BIT( &currEntry[PROXY_TBL_ENTRY_GRP_TBL_ENTRIES], PROXY_TBL_ENTRY_2ND_GRP_BIT ) )
??gp_addPairedSinksToMsgQueue_9:
        MOV       A,#0x42
        LCALL     ?XSTACK_DISP0_8
        MOVX      A,@DPTR
        MOV       C,0xE0 /* A   */.1
        JNC       ??gp_addPairedSinksToMsgQueue_4
//  752     {
//  753       osal_memcpy( &dstAddr.addr.shortAddr, &currEntry[PROXY_TBL_ENTRY_2ND_GRP_ADDR], sizeof ( uint16 ) );   
        ; Setup parameters for call to function osal_memcpy
        MOV       A,#0x47
        LCALL     ?XSTACK_DISP0_8
        MOV       R1,DPL
        MOV       R2,DPH
        MOV       ?V0,R1
        MOV       ?V1,R2
        MOV       R0,#?V0
        LCALL     ?PUSH_XSTACK_I_THREE
          CFI CFA_XSP16 add(XSP16, 108)
        MOV       R4,#0x2
        MOV       R5,#0x0
        MOV       A,#0x3
        LCALL     ?XSTACK_DISP101_8
        LCALL     ??Subroutine42_0 & 0xFFFF
??CrossCallReturnLabel_90:
        LCALL     ?DEALLOC_XSTACK8
          CFI CFA_XSP16 add(XSP16, 105)
//  754       
//  755       pNotificationMsgCurr = gp_AddNotificationMsgNode( &pNotificationMsgHead, pMsg );
        ; Setup parameters for call to function gp_AddNotificationMsgNode
        LCALL     ?Subroutine29 & 0xFFFF
//  756       if ( pNotificationMsgCurr != NULL )
??CrossCallReturnLabel_41:
        JZ        ??gp_addPairedSinksToMsgQueue_4
//  757       {
//  758         pNotificationMsgCurr->addr = dstAddr;
        MOV       DPL,?XSP + 0
        MOV       DPH,?XSP + 1
        MOV       A,#0xc
        LCALL     ?MOVE_LONG8_XDATA_XDATA
//  759       }
//  760     }
//  761   }
//  762 
//  763   return status;
??gp_addPairedSinksToMsgQueue_4:
        MOV       A,R7
        MOV       R1,A
        MOV       A,#0x57
        LCALL     ?DEALLOC_XSTACK8
          CFI CFA_XSP16 add(XSP16, 18)
        MOV       R7,#0xa
        LJMP      ?BANKED_LEAVE_XDATA
//  764 }
          CFI EndBlock cfiBlock160

        RSEG BANKED_CODE:HUGECODE:NOROOT(0)
?Subroutine30:
          CFI Block cfiCond161 Using cfiCommon0
          CFI Function gp_addPairedSinksToMsgQueue
          CFI Conditional ??CrossCallReturnLabel_94
          CFI R6 load(1, XDATA, add(CFA_XSP16, literal(-18)))
          CFI VB load(1, XDATA, add(CFA_XSP16, literal(-17)))
          CFI V0 load(1, XDATA, add(CFA_XSP16, literal(-16)))
          CFI V1 load(1, XDATA, add(CFA_XSP16, literal(-15)))
          CFI V2 load(1, XDATA, add(CFA_XSP16, literal(-14)))
          CFI V3 load(1, XDATA, add(CFA_XSP16, literal(-13)))
          CFI V4 load(1, XDATA, add(CFA_XSP16, literal(-12)))
          CFI V5 load(1, XDATA, add(CFA_XSP16, literal(-11)))
          CFI V6 load(1, XDATA, add(CFA_XSP16, literal(-10)))
          CFI V7 load(1, XDATA, add(CFA_XSP16, literal(-9)))
          CFI V8 load(1, XDATA, add(CFA_XSP16, literal(-8)))
          CFI V9 load(1, XDATA, add(CFA_XSP16, literal(-7)))
          CFI R7 load(1, XDATA, add(CFA_XSP16, literal(-6)))
          CFI ?RET_LOW load(1, XDATA, add(CFA_XSP16, literal(-5)))
          CFI ?RET_HIGH load(1, XDATA, add(CFA_XSP16, literal(-4)))
          CFI ?BRET_EXT load(1, XDATA, add(CFA_XSP16, literal(-3)))
          CFI DPL0 load(1, XDATA, add(CFA_XSP16, literal(-2)))
          CFI DPH0 load(1, XDATA, add(CFA_XSP16, literal(-1)))
          CFI CFA_SP SP+-2
          CFI CFA_XSP16 add(XSP16, 108)
          CFI Block cfiCond162 Using cfiCommon0
          CFI (cfiCond162) Function gp_addPairedSinksToMsgQueue
          CFI (cfiCond162) Conditional ??CrossCallReturnLabel_95
          CFI (cfiCond162) R6 load(1, XDATA, add(CFA_XSP16, literal(-18)))
          CFI (cfiCond162) VB load(1, XDATA, add(CFA_XSP16, literal(-17)))
          CFI (cfiCond162) V0 load(1, XDATA, add(CFA_XSP16, literal(-16)))
          CFI (cfiCond162) V1 load(1, XDATA, add(CFA_XSP16, literal(-15)))
          CFI (cfiCond162) V2 load(1, XDATA, add(CFA_XSP16, literal(-14)))
          CFI (cfiCond162) V3 load(1, XDATA, add(CFA_XSP16, literal(-13)))
          CFI (cfiCond162) V4 load(1, XDATA, add(CFA_XSP16, literal(-12)))
          CFI (cfiCond162) V5 load(1, XDATA, add(CFA_XSP16, literal(-11)))
          CFI (cfiCond162) V6 load(1, XDATA, add(CFA_XSP16, literal(-10)))
          CFI (cfiCond162) V7 load(1, XDATA, add(CFA_XSP16, literal(-9)))
          CFI (cfiCond162) V8 load(1, XDATA, add(CFA_XSP16, literal(-8)))
          CFI (cfiCond162) V9 load(1, XDATA, add(CFA_XSP16, literal(-7)))
          CFI (cfiCond162) R7 load(1, XDATA, add(CFA_XSP16, literal(-6)))
          CFI (cfiCond162) ?RET_LOW load(1, XDATA, add(CFA_XSP16, literal(-5)))
          CFI (cfiCond162) ?RET_HIGH load(1, XDATA, add(CFA_XSP16, literal(-4)))
          CFI (cfiCond162) ?BRET_EXT load(1, XDATA, add(CFA_XSP16, literal(-3)))
          CFI (cfiCond162) DPL0 load(1, XDATA, add(CFA_XSP16, literal(-2)))
          CFI (cfiCond162) DPH0 load(1, XDATA, add(CFA_XSP16, literal(-1)))
          CFI (cfiCond162) CFA_SP SP+-2
          CFI (cfiCond162) CFA_XSP16 add(XSP16, 108)
          CFI Block cfiPicker163 Using cfiCommon1
          CFI (cfiPicker163) NoFunction
          CFI (cfiPicker163) Picker
        MOV       R4,#0xa
          CFI EndBlock cfiCond161
          CFI EndBlock cfiCond162
          CFI EndBlock cfiPicker163
        REQUIRE ??Subroutine44_0
        ; // Fall through to label ??Subroutine44_0

        RSEG BANKED_CODE:HUGECODE:NOROOT(0)
??Subroutine44_0:
          CFI Block cfiCond164 Using cfiCommon0
          CFI Function gp_addPairedSinksToMsgQueue
          CFI Conditional ??CrossCallReturnLabel_96
          CFI R6 load(1, XDATA, add(CFA_XSP16, literal(-18)))
          CFI VB load(1, XDATA, add(CFA_XSP16, literal(-17)))
          CFI V0 load(1, XDATA, add(CFA_XSP16, literal(-16)))
          CFI V1 load(1, XDATA, add(CFA_XSP16, literal(-15)))
          CFI V2 load(1, XDATA, add(CFA_XSP16, literal(-14)))
          CFI V3 load(1, XDATA, add(CFA_XSP16, literal(-13)))
          CFI V4 load(1, XDATA, add(CFA_XSP16, literal(-12)))
          CFI V5 load(1, XDATA, add(CFA_XSP16, literal(-11)))
          CFI V6 load(1, XDATA, add(CFA_XSP16, literal(-10)))
          CFI V7 load(1, XDATA, add(CFA_XSP16, literal(-9)))
          CFI V8 load(1, XDATA, add(CFA_XSP16, literal(-8)))
          CFI V9 load(1, XDATA, add(CFA_XSP16, literal(-7)))
          CFI R7 load(1, XDATA, add(CFA_XSP16, literal(-6)))
          CFI ?RET_LOW load(1, XDATA, add(CFA_XSP16, literal(-5)))
          CFI ?RET_HIGH load(1, XDATA, add(CFA_XSP16, literal(-4)))
          CFI ?BRET_EXT load(1, XDATA, add(CFA_XSP16, literal(-3)))
          CFI DPL0 load(1, XDATA, add(CFA_XSP16, literal(-2)))
          CFI DPH0 load(1, XDATA, add(CFA_XSP16, literal(-1)))
          CFI CFA_SP SP+-2
          CFI CFA_XSP16 add(XSP16, 108)
          CFI Block cfiCond165 Using cfiCommon0
          CFI (cfiCond165) Function gp_addPairedSinksToMsgQueue
          CFI (cfiCond165) Conditional ??CrossCallReturnLabel_97
          CFI (cfiCond165) R6 load(1, XDATA, add(CFA_XSP16, literal(-18)))
          CFI (cfiCond165) VB load(1, XDATA, add(CFA_XSP16, literal(-17)))
          CFI (cfiCond165) V0 load(1, XDATA, add(CFA_XSP16, literal(-16)))
          CFI (cfiCond165) V1 load(1, XDATA, add(CFA_XSP16, literal(-15)))
          CFI (cfiCond165) V2 load(1, XDATA, add(CFA_XSP16, literal(-14)))
          CFI (cfiCond165) V3 load(1, XDATA, add(CFA_XSP16, literal(-13)))
          CFI (cfiCond165) V4 load(1, XDATA, add(CFA_XSP16, literal(-12)))
          CFI (cfiCond165) V5 load(1, XDATA, add(CFA_XSP16, literal(-11)))
          CFI (cfiCond165) V6 load(1, XDATA, add(CFA_XSP16, literal(-10)))
          CFI (cfiCond165) V7 load(1, XDATA, add(CFA_XSP16, literal(-9)))
          CFI (cfiCond165) V8 load(1, XDATA, add(CFA_XSP16, literal(-8)))
          CFI (cfiCond165) V9 load(1, XDATA, add(CFA_XSP16, literal(-7)))
          CFI (cfiCond165) R7 load(1, XDATA, add(CFA_XSP16, literal(-6)))
          CFI (cfiCond165) ?RET_LOW load(1, XDATA, add(CFA_XSP16, literal(-5)))
          CFI (cfiCond165) ?RET_HIGH load(1, XDATA, add(CFA_XSP16, literal(-4)))
          CFI (cfiCond165) ?BRET_EXT load(1, XDATA, add(CFA_XSP16, literal(-3)))
          CFI (cfiCond165) DPL0 load(1, XDATA, add(CFA_XSP16, literal(-2)))
          CFI (cfiCond165) DPH0 load(1, XDATA, add(CFA_XSP16, literal(-1)))
          CFI (cfiCond165) CFA_SP SP+-2
          CFI (cfiCond165) CFA_XSP16 add(XSP16, 108)
          CFI Block cfiCond166 Using cfiCommon0
          CFI (cfiCond166) Function gp_addPairedSinksToMsgQueue
          CFI (cfiCond166) Conditional ??CrossCallReturnLabel_94
          CFI (cfiCond166) R6 load(1, XDATA, add(CFA_XSP16, literal(-18)))
          CFI (cfiCond166) VB load(1, XDATA, add(CFA_XSP16, literal(-17)))
          CFI (cfiCond166) V0 load(1, XDATA, add(CFA_XSP16, literal(-16)))
          CFI (cfiCond166) V1 load(1, XDATA, add(CFA_XSP16, literal(-15)))
          CFI (cfiCond166) V2 load(1, XDATA, add(CFA_XSP16, literal(-14)))
          CFI (cfiCond166) V3 load(1, XDATA, add(CFA_XSP16, literal(-13)))
          CFI (cfiCond166) V4 load(1, XDATA, add(CFA_XSP16, literal(-12)))
          CFI (cfiCond166) V5 load(1, XDATA, add(CFA_XSP16, literal(-11)))
          CFI (cfiCond166) V6 load(1, XDATA, add(CFA_XSP16, literal(-10)))
          CFI (cfiCond166) V7 load(1, XDATA, add(CFA_XSP16, literal(-9)))
          CFI (cfiCond166) V8 load(1, XDATA, add(CFA_XSP16, literal(-8)))
          CFI (cfiCond166) V9 load(1, XDATA, add(CFA_XSP16, literal(-7)))
          CFI (cfiCond166) R7 load(1, XDATA, add(CFA_XSP16, literal(-6)))
          CFI (cfiCond166) ?RET_LOW load(1, XDATA, add(CFA_XSP16, literal(-5)))
          CFI (cfiCond166) ?RET_HIGH load(1, XDATA, add(CFA_XSP16, literal(-4)))
          CFI (cfiCond166) ?BRET_EXT load(1, XDATA, add(CFA_XSP16, literal(-3)))
          CFI (cfiCond166) DPL0 load(1, XDATA, add(CFA_XSP16, literal(-2)))
          CFI (cfiCond166) DPH0 load(1, XDATA, add(CFA_XSP16, literal(-1)))
          CFI (cfiCond166) CFA_SP SP+-2
          CFI (cfiCond166) CFA_XSP16 add(XSP16, 108)
          CFI Block cfiCond167 Using cfiCommon0
          CFI (cfiCond167) Function gp_addPairedSinksToMsgQueue
          CFI (cfiCond167) Conditional ??CrossCallReturnLabel_95
          CFI (cfiCond167) R6 load(1, XDATA, add(CFA_XSP16, literal(-18)))
          CFI (cfiCond167) VB load(1, XDATA, add(CFA_XSP16, literal(-17)))
          CFI (cfiCond167) V0 load(1, XDATA, add(CFA_XSP16, literal(-16)))
          CFI (cfiCond167) V1 load(1, XDATA, add(CFA_XSP16, literal(-15)))
          CFI (cfiCond167) V2 load(1, XDATA, add(CFA_XSP16, literal(-14)))
          CFI (cfiCond167) V3 load(1, XDATA, add(CFA_XSP16, literal(-13)))
          CFI (cfiCond167) V4 load(1, XDATA, add(CFA_XSP16, literal(-12)))
          CFI (cfiCond167) V5 load(1, XDATA, add(CFA_XSP16, literal(-11)))
          CFI (cfiCond167) V6 load(1, XDATA, add(CFA_XSP16, literal(-10)))
          CFI (cfiCond167) V7 load(1, XDATA, add(CFA_XSP16, literal(-9)))
          CFI (cfiCond167) V8 load(1, XDATA, add(CFA_XSP16, literal(-8)))
          CFI (cfiCond167) V9 load(1, XDATA, add(CFA_XSP16, literal(-7)))
          CFI (cfiCond167) R7 load(1, XDATA, add(CFA_XSP16, literal(-6)))
          CFI (cfiCond167) ?RET_LOW load(1, XDATA, add(CFA_XSP16, literal(-5)))
          CFI (cfiCond167) ?RET_HIGH load(1, XDATA, add(CFA_XSP16, literal(-4)))
          CFI (cfiCond167) ?BRET_EXT load(1, XDATA, add(CFA_XSP16, literal(-3)))
          CFI (cfiCond167) DPL0 load(1, XDATA, add(CFA_XSP16, literal(-2)))
          CFI (cfiCond167) DPH0 load(1, XDATA, add(CFA_XSP16, literal(-1)))
          CFI (cfiCond167) CFA_SP SP+-2
          CFI (cfiCond167) CFA_XSP16 add(XSP16, 108)
          CFI Block cfiPicker168 Using cfiCommon1
          CFI (cfiPicker168) NoFunction
          CFI (cfiPicker168) Picker
        MOV       R5,#0x0
        MOV       R1,?V0
        MOV       R2,?V1
        MOV       R3,?V2
        LCALL     `??osal_memcmp::?relay`; Banked call to: osal_memcmp
        MOV       A,#0x3
        RET
          CFI EndBlock cfiCond164
          CFI EndBlock cfiCond165
          CFI EndBlock cfiCond166
          CFI EndBlock cfiCond167
          CFI EndBlock cfiPicker168

        RSEG BANKED_CODE:HUGECODE:NOROOT(0)
?Subroutine29:
          CFI Block cfiCond169 Using cfiCommon0
          CFI Function gp_addPairedSinksToMsgQueue
          CFI Conditional ??CrossCallReturnLabel_39
          CFI R6 load(1, XDATA, add(CFA_XSP16, literal(-18)))
          CFI VB load(1, XDATA, add(CFA_XSP16, literal(-17)))
          CFI V0 load(1, XDATA, add(CFA_XSP16, literal(-16)))
          CFI V1 load(1, XDATA, add(CFA_XSP16, literal(-15)))
          CFI V2 load(1, XDATA, add(CFA_XSP16, literal(-14)))
          CFI V3 load(1, XDATA, add(CFA_XSP16, literal(-13)))
          CFI V4 load(1, XDATA, add(CFA_XSP16, literal(-12)))
          CFI V5 load(1, XDATA, add(CFA_XSP16, literal(-11)))
          CFI V6 load(1, XDATA, add(CFA_XSP16, literal(-10)))
          CFI V7 load(1, XDATA, add(CFA_XSP16, literal(-9)))
          CFI V8 load(1, XDATA, add(CFA_XSP16, literal(-8)))
          CFI V9 load(1, XDATA, add(CFA_XSP16, literal(-7)))
          CFI R7 load(1, XDATA, add(CFA_XSP16, literal(-6)))
          CFI ?RET_LOW load(1, XDATA, add(CFA_XSP16, literal(-5)))
          CFI ?RET_HIGH load(1, XDATA, add(CFA_XSP16, literal(-4)))
          CFI ?BRET_EXT load(1, XDATA, add(CFA_XSP16, literal(-3)))
          CFI DPL0 load(1, XDATA, add(CFA_XSP16, literal(-2)))
          CFI DPH0 load(1, XDATA, add(CFA_XSP16, literal(-1)))
          CFI CFA_SP SP+-2
          CFI CFA_XSP16 add(XSP16, 105)
          CFI Block cfiCond170 Using cfiCommon0
          CFI (cfiCond170) Function gp_addPairedSinksToMsgQueue
          CFI (cfiCond170) Conditional ??CrossCallReturnLabel_40
          CFI (cfiCond170) R6 load(1, XDATA, add(CFA_XSP16, literal(-18)))
          CFI (cfiCond170) VB load(1, XDATA, add(CFA_XSP16, literal(-17)))
          CFI (cfiCond170) V0 load(1, XDATA, add(CFA_XSP16, literal(-16)))
          CFI (cfiCond170) V1 load(1, XDATA, add(CFA_XSP16, literal(-15)))
          CFI (cfiCond170) V2 load(1, XDATA, add(CFA_XSP16, literal(-14)))
          CFI (cfiCond170) V3 load(1, XDATA, add(CFA_XSP16, literal(-13)))
          CFI (cfiCond170) V4 load(1, XDATA, add(CFA_XSP16, literal(-12)))
          CFI (cfiCond170) V5 load(1, XDATA, add(CFA_XSP16, literal(-11)))
          CFI (cfiCond170) V6 load(1, XDATA, add(CFA_XSP16, literal(-10)))
          CFI (cfiCond170) V7 load(1, XDATA, add(CFA_XSP16, literal(-9)))
          CFI (cfiCond170) V8 load(1, XDATA, add(CFA_XSP16, literal(-8)))
          CFI (cfiCond170) V9 load(1, XDATA, add(CFA_XSP16, literal(-7)))
          CFI (cfiCond170) R7 load(1, XDATA, add(CFA_XSP16, literal(-6)))
          CFI (cfiCond170) ?RET_LOW load(1, XDATA, add(CFA_XSP16, literal(-5)))
          CFI (cfiCond170) ?RET_HIGH load(1, XDATA, add(CFA_XSP16, literal(-4)))
          CFI (cfiCond170) ?BRET_EXT load(1, XDATA, add(CFA_XSP16, literal(-3)))
          CFI (cfiCond170) DPL0 load(1, XDATA, add(CFA_XSP16, literal(-2)))
          CFI (cfiCond170) DPH0 load(1, XDATA, add(CFA_XSP16, literal(-1)))
          CFI (cfiCond170) CFA_SP SP+-2
          CFI (cfiCond170) CFA_XSP16 add(XSP16, 105)
          CFI Block cfiCond171 Using cfiCommon0
          CFI (cfiCond171) Function gp_addPairedSinksToMsgQueue
          CFI (cfiCond171) Conditional ??CrossCallReturnLabel_41
          CFI (cfiCond171) R6 load(1, XDATA, add(CFA_XSP16, literal(-18)))
          CFI (cfiCond171) VB load(1, XDATA, add(CFA_XSP16, literal(-17)))
          CFI (cfiCond171) V0 load(1, XDATA, add(CFA_XSP16, literal(-16)))
          CFI (cfiCond171) V1 load(1, XDATA, add(CFA_XSP16, literal(-15)))
          CFI (cfiCond171) V2 load(1, XDATA, add(CFA_XSP16, literal(-14)))
          CFI (cfiCond171) V3 load(1, XDATA, add(CFA_XSP16, literal(-13)))
          CFI (cfiCond171) V4 load(1, XDATA, add(CFA_XSP16, literal(-12)))
          CFI (cfiCond171) V5 load(1, XDATA, add(CFA_XSP16, literal(-11)))
          CFI (cfiCond171) V6 load(1, XDATA, add(CFA_XSP16, literal(-10)))
          CFI (cfiCond171) V7 load(1, XDATA, add(CFA_XSP16, literal(-9)))
          CFI (cfiCond171) V8 load(1, XDATA, add(CFA_XSP16, literal(-8)))
          CFI (cfiCond171) V9 load(1, XDATA, add(CFA_XSP16, literal(-7)))
          CFI (cfiCond171) R7 load(1, XDATA, add(CFA_XSP16, literal(-6)))
          CFI (cfiCond171) ?RET_LOW load(1, XDATA, add(CFA_XSP16, literal(-5)))
          CFI (cfiCond171) ?RET_HIGH load(1, XDATA, add(CFA_XSP16, literal(-4)))
          CFI (cfiCond171) ?BRET_EXT load(1, XDATA, add(CFA_XSP16, literal(-3)))
          CFI (cfiCond171) DPL0 load(1, XDATA, add(CFA_XSP16, literal(-2)))
          CFI (cfiCond171) DPH0 load(1, XDATA, add(CFA_XSP16, literal(-1)))
          CFI (cfiCond171) CFA_SP SP+-2
          CFI (cfiCond171) CFA_XSP16 add(XSP16, 105)
          CFI Block cfiPicker172 Using cfiCommon1
          CFI (cfiPicker172) NoFunction
          CFI (cfiPicker172) Picker
        MOV       R4,?V8
        MOV       R5,?V9
        MOV       R2,#pNotificationMsgHead & 0xff
        MOV       R3,#(pNotificationMsgHead >> 8) & 0xff
        LCALL     `??gp_AddNotificationMsgNode::?relay`; Banked call to: gp_AddNotificationMsgNode
        MOV       ?V0,R2
        MOV       ?V1,R3
        MOV       R4,?V0
        MOV       R5,?V1
        MOV       A,R2
        ORL       A,R5
        RET
          CFI EndBlock cfiCond169
          CFI EndBlock cfiCond170
          CFI EndBlock cfiCond171
          CFI EndBlock cfiPicker172

        RSEG XDATA_ROM_C:CONST:REORDER:NOROOT(0)
        DATA8
`?<Constant {{0}}>`:
        DATA16
        DW 0
        DB 0, 0, 0, 0, 0, 0
        DB 0, 0, 0, 0
//  765 
//  766 /*********************************************************************
//  767  * @fn      gp_CreateNotificationMsgList
//  768  *
//  769  * @brief   Create Notification Msg List for paired sinks if empty
//  770  *
//  771  * @param   pHead - pointer to a pointer of the list head
//  772  *
//  773  * @return  none
//  774  */

        RSEG BANKED_CODE:HUGECODE:NOROOT(0)
//  775 void gp_CreateNotificationMsgList( gpNotificationMsg_t **pHead )
gp_CreateNotificationMsgList:
          CFI Block cfiBlock173 Using cfiCommon0
          CFI Function gp_CreateNotificationMsgList
        CODE
//  776 {
        FUNCALL gp_CreateNotificationMsgList, osal_mem_alloc
        LOCFRAME ISTACK, 0, STACK
        LOCFRAME PSTACK, 0, STACK
        LOCFRAME XSTACK, 10, STACK
        LOCFRAME IOVERLAY, 0, STATIC
        LOCFRAME DOVERLAY, 0, STATIC
        ARGFRAME ISTACK, 0, STACK
        ARGFRAME PSTACK, 0, STACK
        ARGFRAME XSTACK, 10, STACK
        ARGFRAME IOVERLAY, 0, STATIC
        ARGFRAME DOVERLAY, 0, STATIC
        REQUIRE ?V0
        REQUIRE ?V1
        MOV       A,#-0xa
        LCALL     ?BANKED_ENTER_XDATA
          CFI DPH0 load(1, XDATA, add(CFA_XSP16, literal(-1)))
          CFI DPL0 load(1, XDATA, add(CFA_XSP16, literal(-2)))
          CFI ?BRET_EXT load(1, XDATA, add(CFA_XSP16, literal(-3)))
          CFI ?RET_HIGH load(1, XDATA, add(CFA_XSP16, literal(-4)))
          CFI ?RET_LOW load(1, XDATA, add(CFA_XSP16, literal(-5)))
          CFI R7 load(1, XDATA, add(CFA_XSP16, literal(-6)))
          CFI V1 load(1, XDATA, add(CFA_XSP16, literal(-7)))
          CFI V0 load(1, XDATA, add(CFA_XSP16, literal(-8)))
          CFI VB load(1, XDATA, add(CFA_XSP16, literal(-9)))
          CFI R6 load(1, XDATA, add(CFA_XSP16, literal(-10)))
          CFI CFA_SP SP+0
          CFI CFA_XSP16 add(XSP16, 10)
        ; Saved register size: 10
        ; Auto size: 0
        LCALL     ?Subroutine5 & 0xFFFF
//  777 
//  778   // Create the list if empty
//  779   if ( *pHead == NULL )
??CrossCallReturnLabel_108:
        JNZ       ??gp_CreateNotificationMsgList_0
//  780   {
//  781     *pHead = ( gpNotificationMsg_t* )osal_mem_alloc( sizeof( gpNotificationMsg_t ) );
        ; Setup parameters for call to function osal_mem_alloc
        MOV       R2,#0x11
        MOV       R3,#0x0
        LCALL     `??osal_mem_alloc::?relay`; Banked call to: osal_mem_alloc
        MOV       ?V1,R3
        MOV       R1,?V1
        LCALL     ?Subroutine24 & 0xFFFF
//  782     
//  783     if ( *pHead != NULL )
??CrossCallReturnLabel_101:
        MOV       A,R2
        ORL       A,R1
        JZ        ??gp_CreateNotificationMsgList_0
//  784     {
//  785       (*pHead)->pNext = NULL;
        MOV       A,R2
        ADD       A,#0xf
        MOV       DPL,A
        CLR       A
        ADDC      A,R1
        MOV       DPH,A
        CLR       A
        MOVX      @DPTR,A
        INC       DPTR
        MOVX      @DPTR,A
//  786     }
//  787   }
//  788   return;
??gp_CreateNotificationMsgList_0:
          CFI EndBlock cfiBlock173
        REQUIRE ?Subroutine3
        ; // Fall through to label ?Subroutine3
//  789 }

        RSEG BANKED_CODE:HUGECODE:NOROOT(0)
?Subroutine3:
          CFI Block cfiBlock174 Using cfiCommon0
          CFI NoFunction
          CFI CFA_SP SP+0
          CFI CFA_XSP16 add(XSP16, 10)
          CFI VB load(1, XDATA, add(CFA_XSP16, literal(-9)))
          CFI DPL0 load(1, XDATA, add(CFA_XSP16, literal(-2)))
          CFI DPH0 load(1, XDATA, add(CFA_XSP16, literal(-1)))
          CFI R6 load(1, XDATA, add(CFA_XSP16, literal(-10)))
          CFI R7 load(1, XDATA, add(CFA_XSP16, literal(-6)))
          CFI V0 load(1, XDATA, add(CFA_XSP16, literal(-8)))
          CFI V1 load(1, XDATA, add(CFA_XSP16, literal(-7)))
          CFI ?BRET_EXT load(1, XDATA, add(CFA_XSP16, literal(-3)))
          CFI ?RET_HIGH load(1, XDATA, add(CFA_XSP16, literal(-4)))
          CFI ?RET_LOW load(1, XDATA, add(CFA_XSP16, literal(-5)))
        MOV       R7,#0x2
        LJMP      ?BANKED_LEAVE_XDATA
          CFI EndBlock cfiBlock174
//  790 
//  791 /*********************************************************************
//  792  * @fn      gp_CreateCmdPayloadMsgList
//  793  *
//  794  * @brief   Create Notification Msg List for paired sinks if empty
//  795  *
//  796  * @param   pHead - pointer to a pointer of the list head
//  797  *
//  798  * @return  none
//  799  */

        RSEG BANKED_CODE:HUGECODE:NOROOT(0)
//  800 void gp_CreateCmdPayloadMsgList( gpCmdPayloadMsg_t **pHead )
gp_CreateCmdPayloadMsgList:
          CFI Block cfiBlock175 Using cfiCommon0
          CFI Function gp_CreateCmdPayloadMsgList
        CODE
//  801 {
        FUNCALL gp_CreateCmdPayloadMsgList, osal_mem_alloc
        LOCFRAME ISTACK, 0, STACK
        LOCFRAME PSTACK, 0, STACK
        LOCFRAME XSTACK, 10, STACK
        LOCFRAME IOVERLAY, 0, STATIC
        LOCFRAME DOVERLAY, 0, STATIC
        ARGFRAME ISTACK, 0, STACK
        ARGFRAME PSTACK, 0, STACK
        ARGFRAME XSTACK, 10, STACK
        ARGFRAME IOVERLAY, 0, STATIC
        ARGFRAME DOVERLAY, 0, STATIC
        REQUIRE ?V0
        REQUIRE ?V1
        MOV       A,#-0xa
        LCALL     ?BANKED_ENTER_XDATA
          CFI DPH0 load(1, XDATA, add(CFA_XSP16, literal(-1)))
          CFI DPL0 load(1, XDATA, add(CFA_XSP16, literal(-2)))
          CFI ?BRET_EXT load(1, XDATA, add(CFA_XSP16, literal(-3)))
          CFI ?RET_HIGH load(1, XDATA, add(CFA_XSP16, literal(-4)))
          CFI ?RET_LOW load(1, XDATA, add(CFA_XSP16, literal(-5)))
          CFI R7 load(1, XDATA, add(CFA_XSP16, literal(-6)))
          CFI V1 load(1, XDATA, add(CFA_XSP16, literal(-7)))
          CFI V0 load(1, XDATA, add(CFA_XSP16, literal(-8)))
          CFI VB load(1, XDATA, add(CFA_XSP16, literal(-9)))
          CFI R6 load(1, XDATA, add(CFA_XSP16, literal(-10)))
          CFI CFA_SP SP+0
          CFI CFA_XSP16 add(XSP16, 10)
        ; Saved register size: 10
        ; Auto size: 0
        LCALL     ?Subroutine5 & 0xFFFF
//  802 
//  803   // Create the list if empty
//  804   if ( *pHead == NULL )
??CrossCallReturnLabel_109:
        JNZ       ??gp_CreateCmdPayloadMsgList_0
//  805   {
//  806     *pHead = ( gpCmdPayloadMsg_t* )osal_mem_alloc( sizeof( gpCmdPayloadMsg_t ) );
        ; Setup parameters for call to function osal_mem_alloc
        MOV       R2,#0x6
        MOV       R3,#0x0
        LCALL     `??osal_mem_alloc::?relay`; Banked call to: osal_mem_alloc
        MOV       ?V1,R3
        MOV       R1,?V1
        MOV       DPL,R6
        MOV       DPH,R7
        MOV       A,R2
        MOVX      @DPTR,A
        INC       DPTR
        MOV       A,R3
        LCALL     ?Subroutine23 & 0xFFFF
//  807     ( ( gpCmdPayloadMsg_t* )*pHead )->pMsg = NULL;
??CrossCallReturnLabel_29:
        CLR       A
        MOVX      @DPTR,A
        INC       DPTR
        MOVX      @DPTR,A
//  808     
//  809     if ( *pHead != NULL )
        MOV       A,R2
        ORL       A,R1
        JZ        ??gp_CreateCmdPayloadMsgList_0
//  810     {
//  811       (*pHead)->pNext = NULL;
        MOV       DPL,R2
        MOV       DPH,R3
        INC       DPTR
        INC       DPTR
        INC       DPTR
        INC       DPTR
        CLR       A
        MOVX      @DPTR,A
        INC       DPTR
        MOVX      @DPTR,A
//  812     }
//  813   }
//  814   return;
??gp_CreateCmdPayloadMsgList_0:
        SJMP      ?Subroutine3
//  815 }
          CFI EndBlock cfiBlock175

        RSEG BANKED_CODE:HUGECODE:NOROOT(0)
?Subroutine23:
          CFI Block cfiCond176 Using cfiCommon0
          CFI Function zclGp_RegisterCmdCallbacks
          CFI Conditional ??CrossCallReturnLabel_27
          CFI R6 load(1, XDATA, add(CFA_XSP16, literal(-12)))
          CFI VB load(1, XDATA, add(CFA_XSP16, literal(-11)))
          CFI V0 load(1, XDATA, add(CFA_XSP16, literal(-10)))
          CFI V1 load(1, XDATA, add(CFA_XSP16, literal(-9)))
          CFI V2 load(1, XDATA, add(CFA_XSP16, literal(-8)))
          CFI V3 load(1, XDATA, add(CFA_XSP16, literal(-7)))
          CFI R7 load(1, XDATA, add(CFA_XSP16, literal(-6)))
          CFI ?RET_LOW load(1, XDATA, add(CFA_XSP16, literal(-5)))
          CFI ?RET_HIGH load(1, XDATA, add(CFA_XSP16, literal(-4)))
          CFI ?BRET_EXT load(1, XDATA, add(CFA_XSP16, literal(-3)))
          CFI DPL0 load(1, XDATA, add(CFA_XSP16, literal(-2)))
          CFI DPH0 load(1, XDATA, add(CFA_XSP16, literal(-1)))
          CFI CFA_SP SP+-2
          CFI CFA_XSP16 add(XSP16, 12)
          CFI Block cfiCond177 Using cfiCommon0
          CFI (cfiCond177) Function zclGp_RegisterCmdCallbacks
          CFI (cfiCond177) Conditional ??CrossCallReturnLabel_28
          CFI (cfiCond177) R6 load(1, XDATA, add(CFA_XSP16, literal(-12)))
          CFI (cfiCond177) VB load(1, XDATA, add(CFA_XSP16, literal(-11)))
          CFI (cfiCond177) V0 load(1, XDATA, add(CFA_XSP16, literal(-10)))
          CFI (cfiCond177) V1 load(1, XDATA, add(CFA_XSP16, literal(-9)))
          CFI (cfiCond177) V2 load(1, XDATA, add(CFA_XSP16, literal(-8)))
          CFI (cfiCond177) V3 load(1, XDATA, add(CFA_XSP16, literal(-7)))
          CFI (cfiCond177) R7 load(1, XDATA, add(CFA_XSP16, literal(-6)))
          CFI (cfiCond177) ?RET_LOW load(1, XDATA, add(CFA_XSP16, literal(-5)))
          CFI (cfiCond177) ?RET_HIGH load(1, XDATA, add(CFA_XSP16, literal(-4)))
          CFI (cfiCond177) ?BRET_EXT load(1, XDATA, add(CFA_XSP16, literal(-3)))
          CFI (cfiCond177) DPL0 load(1, XDATA, add(CFA_XSP16, literal(-2)))
          CFI (cfiCond177) DPH0 load(1, XDATA, add(CFA_XSP16, literal(-1)))
          CFI (cfiCond177) CFA_SP SP+-2
          CFI (cfiCond177) CFA_XSP16 add(XSP16, 12)
          CFI Block cfiCond178 Using cfiCommon0
          CFI (cfiCond178) Function gp_CreateCmdPayloadMsgList
          CFI (cfiCond178) Conditional ??CrossCallReturnLabel_29
          CFI (cfiCond178) R6 load(1, XDATA, add(CFA_XSP16, literal(-10)))
          CFI (cfiCond178) VB load(1, XDATA, add(CFA_XSP16, literal(-9)))
          CFI (cfiCond178) V0 load(1, XDATA, add(CFA_XSP16, literal(-8)))
          CFI (cfiCond178) V1 load(1, XDATA, add(CFA_XSP16, literal(-7)))
          CFI (cfiCond178) R7 load(1, XDATA, add(CFA_XSP16, literal(-6)))
          CFI (cfiCond178) ?RET_LOW load(1, XDATA, add(CFA_XSP16, literal(-5)))
          CFI (cfiCond178) ?RET_HIGH load(1, XDATA, add(CFA_XSP16, literal(-4)))
          CFI (cfiCond178) ?BRET_EXT load(1, XDATA, add(CFA_XSP16, literal(-3)))
          CFI (cfiCond178) DPL0 load(1, XDATA, add(CFA_XSP16, literal(-2)))
          CFI (cfiCond178) DPH0 load(1, XDATA, add(CFA_XSP16, literal(-1)))
          CFI (cfiCond178) CFA_SP SP+-2
          CFI (cfiCond178) CFA_XSP16 add(XSP16, 10)
          CFI Block cfiPicker179 Using cfiCommon1
          CFI (cfiPicker179) NoFunction
          CFI (cfiPicker179) Picker
        MOVX      @DPTR,A
        MOV       DPL,R2
        MOV       DPH,R3
        INC       DPTR
        INC       DPTR
        RET
          CFI EndBlock cfiCond176
          CFI EndBlock cfiCond177
          CFI EndBlock cfiCond178
          CFI EndBlock cfiPicker179
//  816 
//  817 /*********************************************************************
//  818  * @fn      gp_AddNotificationMsgNode
//  819  *
//  820  * @brief   Add node to Notification Msg list
//  821  *
//  822  * @param   pHead - pointer to a pointer of the list head
//  823  *
//  824  * @return  pointer to new node
//  825  */

        RSEG BANKED_CODE:HUGECODE:NOROOT(0)
//  826 gpNotificationMsg_t* gp_AddNotificationMsgNode( gpNotificationMsg_t **pHead, gpCmdPayloadMsg_t *pMsg )
gp_AddNotificationMsgNode:
          CFI Block cfiBlock180 Using cfiCommon0
          CFI Function gp_AddNotificationMsgNode
        CODE
//  827 {
        FUNCALL gp_AddNotificationMsgNode, gp_CreateNotificationMsgList
        LOCFRAME ISTACK, 0, STACK
        LOCFRAME PSTACK, 0, STACK
        LOCFRAME XSTACK, 12, STACK
        LOCFRAME IOVERLAY, 0, STATIC
        LOCFRAME DOVERLAY, 0, STATIC
        ARGFRAME ISTACK, 0, STACK
        ARGFRAME PSTACK, 0, STACK
        ARGFRAME XSTACK, 12, STACK
        ARGFRAME IOVERLAY, 0, STATIC
        ARGFRAME DOVERLAY, 0, STATIC
        FUNCALL gp_AddNotificationMsgNode, osal_mem_alloc
        LOCFRAME ISTACK, 0, STACK
        LOCFRAME PSTACK, 0, STACK
        LOCFRAME XSTACK, 12, STACK
        LOCFRAME IOVERLAY, 0, STATIC
        LOCFRAME DOVERLAY, 0, STATIC
        ARGFRAME ISTACK, 0, STACK
        ARGFRAME PSTACK, 0, STACK
        ARGFRAME XSTACK, 12, STACK
        ARGFRAME IOVERLAY, 0, STATIC
        ARGFRAME DOVERLAY, 0, STATIC
        REQUIRE ?V0
        REQUIRE ?V1
        REQUIRE ?V2
        REQUIRE ?V3
        MOV       A,#-0xc
        LCALL     ?BANKED_ENTER_XDATA
          CFI DPH0 load(1, XDATA, add(CFA_XSP16, literal(-1)))
          CFI DPL0 load(1, XDATA, add(CFA_XSP16, literal(-2)))
          CFI ?BRET_EXT load(1, XDATA, add(CFA_XSP16, literal(-3)))
          CFI ?RET_HIGH load(1, XDATA, add(CFA_XSP16, literal(-4)))
          CFI ?RET_LOW load(1, XDATA, add(CFA_XSP16, literal(-5)))
          CFI R7 load(1, XDATA, add(CFA_XSP16, literal(-6)))
          CFI V3 load(1, XDATA, add(CFA_XSP16, literal(-7)))
          CFI V2 load(1, XDATA, add(CFA_XSP16, literal(-8)))
          CFI V1 load(1, XDATA, add(CFA_XSP16, literal(-9)))
          CFI V0 load(1, XDATA, add(CFA_XSP16, literal(-10)))
          CFI VB load(1, XDATA, add(CFA_XSP16, literal(-11)))
          CFI R6 load(1, XDATA, add(CFA_XSP16, literal(-12)))
          CFI CFA_SP SP+0
          CFI CFA_XSP16 add(XSP16, 12)
        ; Saved register size: 12
        ; Auto size: 0
        MOV       A,R2
        MOV       R6,A
        MOV       A,R3
        MOV       R7,A
        MOV       ?V0,R4
        MOV       ?V1,R5
//  828   gpNotificationMsg_t **pCurr;
//  829   
//  830     // Create respondent list if empty
//  831   if ( *pHead == NULL )
        LCALL     ??Subroutine47_0 & 0xFFFF
??CrossCallReturnLabel_121:
        JNZ       ??gp_AddNotificationMsgNode_0
//  832   {
//  833     gp_CreateNotificationMsgList( pHead );
        ; Setup parameters for call to function gp_CreateNotificationMsgList
        LCALL     `??gp_CreateNotificationMsgList::?relay`; Banked call to: gp_CreateNotificationMsgList
//  834     ( ( gpNotificationMsg_t* ) *pHead )->pMsg = ( uint8* )pMsg;
        SJMP      ??gp_AddNotificationMsgNode_1
//  835     return *pHead;
//  836   }
//  837   
//  838   pCurr = &((*pHead)->pNext);
??gp_AddNotificationMsgNode_0:
        MOV       A,R0
        ADD       A,#0xf
        MOV       R6,A
        CLR       A
        ADDC      A,R1
        SJMP      ??gp_AddNotificationMsgNode_2
//  839   
//  840   while ( *pCurr != NULL )
//  841   {
//  842     pCurr = &((*pCurr)->pNext);
??gp_AddNotificationMsgNode_3:
        MOV       A,R0
        ADD       A,#0xf
        JNC       ??gp_AddNotificationMsgNode_4
        INC       R1
??gp_AddNotificationMsgNode_4:
        MOV       R6,A
        MOV       A,R1
??gp_AddNotificationMsgNode_2:
        MOV       R7,A
//  843   }
        MOV       DPL,R6
        MOV       DPH,R7
        LCALL     ??Subroutine49_0 & 0xFFFF
??CrossCallReturnLabel_117:
        JNZ       ??gp_AddNotificationMsgNode_3
//  844 
//  845   *pCurr = ( gpNotificationMsg_t* )osal_mem_alloc( sizeof( gpNotificationMsg_t ) );
        ; Setup parameters for call to function osal_mem_alloc
        MOV       R2,#0x11
        MOV       R3,#0x0
        LCALL     `??osal_mem_alloc::?relay`; Banked call to: osal_mem_alloc
        MOV       ?V3,R3
        MOV       R1,?V3
        LCALL     ?Subroutine24 & 0xFFFF
//  846     
//  847   if ( (*pCurr)->pNext != NULL )
??CrossCallReturnLabel_102:
        MOV       A,R2
        ADD       A,#0xf
        MOV       R0,A
        JNC       ??gp_AddNotificationMsgNode_5
        INC       R1
??gp_AddNotificationMsgNode_5:
        LCALL     ?Subroutine12 & 0xFFFF
??CrossCallReturnLabel_106:
        JZ        ??gp_AddNotificationMsgNode_1
//  848   {
//  849     (*pCurr)->pNext = NULL;
        MOV       DPL,R0
        MOV       DPH,R1
        CLR       A
        MOVX      @DPTR,A
        INC       DPTR
        MOVX      @DPTR,A
//  850   }
//  851   ( ( gpNotificationMsg_t* ) *pCurr )->pMsg = ( uint8* )pMsg;
??gp_AddNotificationMsgNode_1:
        LCALL     ?Subroutine15 & 0xFFFF
??CrossCallReturnLabel_132:
        LCALL     ?Subroutine31 & 0xFFFF
??CrossCallReturnLabel_42:
        MOV       A,?V0
        MOVX      @DPTR,A
        INC       DPTR
        MOV       A,?V1
        MOVX      @DPTR,A
//  852   return *pCurr;
        LJMP      ?Subroutine0 & 0xFFFF
//  853 }
          CFI EndBlock cfiBlock180

        RSEG BANKED_CODE:HUGECODE:NOROOT(0)
?Subroutine24:
          CFI Block cfiCond181 Using cfiCommon0
          CFI Function gp_CreateNotificationMsgList
          CFI Conditional ??CrossCallReturnLabel_101
          CFI R6 load(1, XDATA, add(CFA_XSP16, literal(-10)))
          CFI VB load(1, XDATA, add(CFA_XSP16, literal(-9)))
          CFI V0 load(1, XDATA, add(CFA_XSP16, literal(-8)))
          CFI V1 load(1, XDATA, add(CFA_XSP16, literal(-7)))
          CFI R7 load(1, XDATA, add(CFA_XSP16, literal(-6)))
          CFI ?RET_LOW load(1, XDATA, add(CFA_XSP16, literal(-5)))
          CFI ?RET_HIGH load(1, XDATA, add(CFA_XSP16, literal(-4)))
          CFI ?BRET_EXT load(1, XDATA, add(CFA_XSP16, literal(-3)))
          CFI DPL0 load(1, XDATA, add(CFA_XSP16, literal(-2)))
          CFI DPH0 load(1, XDATA, add(CFA_XSP16, literal(-1)))
          CFI CFA_SP SP+-2
          CFI CFA_XSP16 add(XSP16, 10)
          CFI Block cfiCond182 Using cfiCommon0
          CFI (cfiCond182) Function gp_AddNotificationMsgNode
          CFI (cfiCond182) Conditional ??CrossCallReturnLabel_102
          CFI (cfiCond182) R6 load(1, XDATA, add(CFA_XSP16, literal(-12)))
          CFI (cfiCond182) VB load(1, XDATA, add(CFA_XSP16, literal(-11)))
          CFI (cfiCond182) V0 load(1, XDATA, add(CFA_XSP16, literal(-10)))
          CFI (cfiCond182) V1 load(1, XDATA, add(CFA_XSP16, literal(-9)))
          CFI (cfiCond182) V2 load(1, XDATA, add(CFA_XSP16, literal(-8)))
          CFI (cfiCond182) V3 load(1, XDATA, add(CFA_XSP16, literal(-7)))
          CFI (cfiCond182) R7 load(1, XDATA, add(CFA_XSP16, literal(-6)))
          CFI (cfiCond182) ?RET_LOW load(1, XDATA, add(CFA_XSP16, literal(-5)))
          CFI (cfiCond182) ?RET_HIGH load(1, XDATA, add(CFA_XSP16, literal(-4)))
          CFI (cfiCond182) ?BRET_EXT load(1, XDATA, add(CFA_XSP16, literal(-3)))
          CFI (cfiCond182) DPL0 load(1, XDATA, add(CFA_XSP16, literal(-2)))
          CFI (cfiCond182) DPH0 load(1, XDATA, add(CFA_XSP16, literal(-1)))
          CFI (cfiCond182) CFA_SP SP+-2
          CFI (cfiCond182) CFA_XSP16 add(XSP16, 12)
          CFI Block cfiCond183 Using cfiCommon0
          CFI (cfiCond183) Function gp_AddCmdPayloadMsgNode
          CFI (cfiCond183) Conditional ??CrossCallReturnLabel_103
          CFI (cfiCond183) R6 load(1, XDATA, add(CFA_XSP16, literal(-14)))
          CFI (cfiCond183) VB load(1, XDATA, add(CFA_XSP16, literal(-13)))
          CFI (cfiCond183) V0 load(1, XDATA, add(CFA_XSP16, literal(-12)))
          CFI (cfiCond183) V1 load(1, XDATA, add(CFA_XSP16, literal(-11)))
          CFI (cfiCond183) V2 load(1, XDATA, add(CFA_XSP16, literal(-10)))
          CFI (cfiCond183) V3 load(1, XDATA, add(CFA_XSP16, literal(-9)))
          CFI (cfiCond183) V4 load(1, XDATA, add(CFA_XSP16, literal(-8)))
          CFI (cfiCond183) V5 load(1, XDATA, add(CFA_XSP16, literal(-7)))
          CFI (cfiCond183) R7 load(1, XDATA, add(CFA_XSP16, literal(-6)))
          CFI (cfiCond183) ?RET_LOW load(1, XDATA, add(CFA_XSP16, literal(-5)))
          CFI (cfiCond183) ?RET_HIGH load(1, XDATA, add(CFA_XSP16, literal(-4)))
          CFI (cfiCond183) ?BRET_EXT load(1, XDATA, add(CFA_XSP16, literal(-3)))
          CFI (cfiCond183) DPL0 load(1, XDATA, add(CFA_XSP16, literal(-2)))
          CFI (cfiCond183) DPH0 load(1, XDATA, add(CFA_XSP16, literal(-1)))
          CFI (cfiCond183) CFA_SP SP+-2
          CFI (cfiCond183) CFA_XSP16 add(XSP16, 14)
          CFI Block cfiPicker184 Using cfiCommon1
          CFI (cfiPicker184) NoFunction
          CFI (cfiPicker184) Picker
        MOV       DPL,R6
        MOV       DPH,R7
          CFI EndBlock cfiCond181
          CFI EndBlock cfiCond182
          CFI EndBlock cfiCond183
          CFI EndBlock cfiPicker184
        REQUIRE ??Subroutine45_0
        ; // Fall through to label ??Subroutine45_0

        RSEG BANKED_CODE:HUGECODE:NOROOT(0)
??Subroutine45_0:
          CFI Block cfiCond185 Using cfiCommon0
          CFI Function zclGp_ProcessInProxyBasic
          CFI Conditional ??CrossCallReturnLabel_98
          CFI R6 load(1, XDATA, add(CFA_XSP16, literal(-20)))
          CFI VB load(1, XDATA, add(CFA_XSP16, literal(-19)))
          CFI V0 load(1, XDATA, add(CFA_XSP16, literal(-18)))
          CFI V1 load(1, XDATA, add(CFA_XSP16, literal(-17)))
          CFI V2 load(1, XDATA, add(CFA_XSP16, literal(-16)))
          CFI V3 load(1, XDATA, add(CFA_XSP16, literal(-15)))
          CFI V4 load(1, XDATA, add(CFA_XSP16, literal(-14)))
          CFI V5 load(1, XDATA, add(CFA_XSP16, literal(-13)))
          CFI V6 load(1, XDATA, add(CFA_XSP16, literal(-12)))
          CFI V7 load(1, XDATA, add(CFA_XSP16, literal(-11)))
          CFI V8 load(1, XDATA, add(CFA_XSP16, literal(-10)))
          CFI V9 load(1, XDATA, add(CFA_XSP16, literal(-9)))
          CFI V10 load(1, XDATA, add(CFA_XSP16, literal(-8)))
          CFI V11 load(1, XDATA, add(CFA_XSP16, literal(-7)))
          CFI R7 load(1, XDATA, add(CFA_XSP16, literal(-6)))
          CFI ?RET_LOW load(1, XDATA, add(CFA_XSP16, literal(-5)))
          CFI ?RET_HIGH load(1, XDATA, add(CFA_XSP16, literal(-4)))
          CFI ?BRET_EXT load(1, XDATA, add(CFA_XSP16, literal(-3)))
          CFI DPL0 load(1, XDATA, add(CFA_XSP16, literal(-2)))
          CFI DPH0 load(1, XDATA, add(CFA_XSP16, literal(-1)))
          CFI CFA_SP SP+-2
          CFI CFA_XSP16 add(XSP16, 42)
          CFI Block cfiCond186 Using cfiCommon0
          CFI (cfiCond186) Function zclGp_ProcessInProxyBasic
          CFI (cfiCond186) Conditional ??CrossCallReturnLabel_99
          CFI (cfiCond186) R6 load(1, XDATA, add(CFA_XSP16, literal(-20)))
          CFI (cfiCond186) VB load(1, XDATA, add(CFA_XSP16, literal(-19)))
          CFI (cfiCond186) V0 load(1, XDATA, add(CFA_XSP16, literal(-18)))
          CFI (cfiCond186) V1 load(1, XDATA, add(CFA_XSP16, literal(-17)))
          CFI (cfiCond186) V2 load(1, XDATA, add(CFA_XSP16, literal(-16)))
          CFI (cfiCond186) V3 load(1, XDATA, add(CFA_XSP16, literal(-15)))
          CFI (cfiCond186) V4 load(1, XDATA, add(CFA_XSP16, literal(-14)))
          CFI (cfiCond186) V5 load(1, XDATA, add(CFA_XSP16, literal(-13)))
          CFI (cfiCond186) V6 load(1, XDATA, add(CFA_XSP16, literal(-12)))
          CFI (cfiCond186) V7 load(1, XDATA, add(CFA_XSP16, literal(-11)))
          CFI (cfiCond186) V8 load(1, XDATA, add(CFA_XSP16, literal(-10)))
          CFI (cfiCond186) V9 load(1, XDATA, add(CFA_XSP16, literal(-9)))
          CFI (cfiCond186) V10 load(1, XDATA, add(CFA_XSP16, literal(-8)))
          CFI (cfiCond186) V11 load(1, XDATA, add(CFA_XSP16, literal(-7)))
          CFI (cfiCond186) R7 load(1, XDATA, add(CFA_XSP16, literal(-6)))
          CFI (cfiCond186) ?RET_LOW load(1, XDATA, add(CFA_XSP16, literal(-5)))
          CFI (cfiCond186) ?RET_HIGH load(1, XDATA, add(CFA_XSP16, literal(-4)))
          CFI (cfiCond186) ?BRET_EXT load(1, XDATA, add(CFA_XSP16, literal(-3)))
          CFI (cfiCond186) DPL0 load(1, XDATA, add(CFA_XSP16, literal(-2)))
          CFI (cfiCond186) DPH0 load(1, XDATA, add(CFA_XSP16, literal(-1)))
          CFI (cfiCond186) CFA_SP SP+-2
          CFI (cfiCond186) CFA_XSP16 add(XSP16, 42)
          CFI Block cfiCond187 Using cfiCommon0
          CFI (cfiCond187) Function zclGp_ProcessInProxyBasic
          CFI (cfiCond187) Conditional ??CrossCallReturnLabel_100
          CFI (cfiCond187) R6 load(1, XDATA, add(CFA_XSP16, literal(-20)))
          CFI (cfiCond187) VB load(1, XDATA, add(CFA_XSP16, literal(-19)))
          CFI (cfiCond187) V0 load(1, XDATA, add(CFA_XSP16, literal(-18)))
          CFI (cfiCond187) V1 load(1, XDATA, add(CFA_XSP16, literal(-17)))
          CFI (cfiCond187) V2 load(1, XDATA, add(CFA_XSP16, literal(-16)))
          CFI (cfiCond187) V3 load(1, XDATA, add(CFA_XSP16, literal(-15)))
          CFI (cfiCond187) V4 load(1, XDATA, add(CFA_XSP16, literal(-14)))
          CFI (cfiCond187) V5 load(1, XDATA, add(CFA_XSP16, literal(-13)))
          CFI (cfiCond187) V6 load(1, XDATA, add(CFA_XSP16, literal(-12)))
          CFI (cfiCond187) V7 load(1, XDATA, add(CFA_XSP16, literal(-11)))
          CFI (cfiCond187) V8 load(1, XDATA, add(CFA_XSP16, literal(-10)))
          CFI (cfiCond187) V9 load(1, XDATA, add(CFA_XSP16, literal(-9)))
          CFI (cfiCond187) V10 load(1, XDATA, add(CFA_XSP16, literal(-8)))
          CFI (cfiCond187) V11 load(1, XDATA, add(CFA_XSP16, literal(-7)))
          CFI (cfiCond187) R7 load(1, XDATA, add(CFA_XSP16, literal(-6)))
          CFI (cfiCond187) ?RET_LOW load(1, XDATA, add(CFA_XSP16, literal(-5)))
          CFI (cfiCond187) ?RET_HIGH load(1, XDATA, add(CFA_XSP16, literal(-4)))
          CFI (cfiCond187) ?BRET_EXT load(1, XDATA, add(CFA_XSP16, literal(-3)))
          CFI (cfiCond187) DPL0 load(1, XDATA, add(CFA_XSP16, literal(-2)))
          CFI (cfiCond187) DPH0 load(1, XDATA, add(CFA_XSP16, literal(-1)))
          CFI (cfiCond187) CFA_SP SP+-2
          CFI (cfiCond187) CFA_XSP16 add(XSP16, 42)
          CFI Block cfiCond188 Using cfiCommon0
          CFI (cfiCond188) Function gp_CreateNotificationMsgList
          CFI (cfiCond188) Conditional ??CrossCallReturnLabel_101
          CFI (cfiCond188) R6 load(1, XDATA, add(CFA_XSP16, literal(-10)))
          CFI (cfiCond188) VB load(1, XDATA, add(CFA_XSP16, literal(-9)))
          CFI (cfiCond188) V0 load(1, XDATA, add(CFA_XSP16, literal(-8)))
          CFI (cfiCond188) V1 load(1, XDATA, add(CFA_XSP16, literal(-7)))
          CFI (cfiCond188) R7 load(1, XDATA, add(CFA_XSP16, literal(-6)))
          CFI (cfiCond188) ?RET_LOW load(1, XDATA, add(CFA_XSP16, literal(-5)))
          CFI (cfiCond188) ?RET_HIGH load(1, XDATA, add(CFA_XSP16, literal(-4)))
          CFI (cfiCond188) ?BRET_EXT load(1, XDATA, add(CFA_XSP16, literal(-3)))
          CFI (cfiCond188) DPL0 load(1, XDATA, add(CFA_XSP16, literal(-2)))
          CFI (cfiCond188) DPH0 load(1, XDATA, add(CFA_XSP16, literal(-1)))
          CFI (cfiCond188) CFA_SP SP+-2
          CFI (cfiCond188) CFA_XSP16 add(XSP16, 10)
          CFI Block cfiCond189 Using cfiCommon0
          CFI (cfiCond189) Function gp_AddNotificationMsgNode
          CFI (cfiCond189) Conditional ??CrossCallReturnLabel_102
          CFI (cfiCond189) R6 load(1, XDATA, add(CFA_XSP16, literal(-12)))
          CFI (cfiCond189) VB load(1, XDATA, add(CFA_XSP16, literal(-11)))
          CFI (cfiCond189) V0 load(1, XDATA, add(CFA_XSP16, literal(-10)))
          CFI (cfiCond189) V1 load(1, XDATA, add(CFA_XSP16, literal(-9)))
          CFI (cfiCond189) V2 load(1, XDATA, add(CFA_XSP16, literal(-8)))
          CFI (cfiCond189) V3 load(1, XDATA, add(CFA_XSP16, literal(-7)))
          CFI (cfiCond189) R7 load(1, XDATA, add(CFA_XSP16, literal(-6)))
          CFI (cfiCond189) ?RET_LOW load(1, XDATA, add(CFA_XSP16, literal(-5)))
          CFI (cfiCond189) ?RET_HIGH load(1, XDATA, add(CFA_XSP16, literal(-4)))
          CFI (cfiCond189) ?BRET_EXT load(1, XDATA, add(CFA_XSP16, literal(-3)))
          CFI (cfiCond189) DPL0 load(1, XDATA, add(CFA_XSP16, literal(-2)))
          CFI (cfiCond189) DPH0 load(1, XDATA, add(CFA_XSP16, literal(-1)))
          CFI (cfiCond189) CFA_SP SP+-2
          CFI (cfiCond189) CFA_XSP16 add(XSP16, 12)
          CFI Block cfiCond190 Using cfiCommon0
          CFI (cfiCond190) Function gp_AddCmdPayloadMsgNode
          CFI (cfiCond190) Conditional ??CrossCallReturnLabel_103
          CFI (cfiCond190) R6 load(1, XDATA, add(CFA_XSP16, literal(-14)))
          CFI (cfiCond190) VB load(1, XDATA, add(CFA_XSP16, literal(-13)))
          CFI (cfiCond190) V0 load(1, XDATA, add(CFA_XSP16, literal(-12)))
          CFI (cfiCond190) V1 load(1, XDATA, add(CFA_XSP16, literal(-11)))
          CFI (cfiCond190) V2 load(1, XDATA, add(CFA_XSP16, literal(-10)))
          CFI (cfiCond190) V3 load(1, XDATA, add(CFA_XSP16, literal(-9)))
          CFI (cfiCond190) V4 load(1, XDATA, add(CFA_XSP16, literal(-8)))
          CFI (cfiCond190) V5 load(1, XDATA, add(CFA_XSP16, literal(-7)))
          CFI (cfiCond190) R7 load(1, XDATA, add(CFA_XSP16, literal(-6)))
          CFI (cfiCond190) ?RET_LOW load(1, XDATA, add(CFA_XSP16, literal(-5)))
          CFI (cfiCond190) ?RET_HIGH load(1, XDATA, add(CFA_XSP16, literal(-4)))
          CFI (cfiCond190) ?BRET_EXT load(1, XDATA, add(CFA_XSP16, literal(-3)))
          CFI (cfiCond190) DPL0 load(1, XDATA, add(CFA_XSP16, literal(-2)))
          CFI (cfiCond190) DPH0 load(1, XDATA, add(CFA_XSP16, literal(-1)))
          CFI (cfiCond190) CFA_SP SP+-2
          CFI (cfiCond190) CFA_XSP16 add(XSP16, 14)
          CFI Block cfiPicker191 Using cfiCommon1
          CFI (cfiPicker191) NoFunction
          CFI (cfiPicker191) Picker
        MOV       A,R2
        MOVX      @DPTR,A
        INC       DPTR
        MOV       A,R3
        MOVX      @DPTR,A
        RET
          CFI EndBlock cfiCond185
          CFI EndBlock cfiCond186
          CFI EndBlock cfiCond187
          CFI EndBlock cfiCond188
          CFI EndBlock cfiCond189
          CFI EndBlock cfiCond190
          CFI EndBlock cfiPicker191

        RSEG BANKED_CODE:HUGECODE:NOROOT(0)
?Subroutine12:
          CFI Block cfiCond192 Using cfiCommon0
          CFI Function gp_AddNotificationMsgNode
          CFI Conditional ??CrossCallReturnLabel_106
          CFI R6 load(1, XDATA, add(CFA_XSP16, literal(-12)))
          CFI VB load(1, XDATA, add(CFA_XSP16, literal(-11)))
          CFI V0 load(1, XDATA, add(CFA_XSP16, literal(-10)))
          CFI V1 load(1, XDATA, add(CFA_XSP16, literal(-9)))
          CFI V2 load(1, XDATA, add(CFA_XSP16, literal(-8)))
          CFI V3 load(1, XDATA, add(CFA_XSP16, literal(-7)))
          CFI R7 load(1, XDATA, add(CFA_XSP16, literal(-6)))
          CFI ?RET_LOW load(1, XDATA, add(CFA_XSP16, literal(-5)))
          CFI ?RET_HIGH load(1, XDATA, add(CFA_XSP16, literal(-4)))
          CFI ?BRET_EXT load(1, XDATA, add(CFA_XSP16, literal(-3)))
          CFI DPL0 load(1, XDATA, add(CFA_XSP16, literal(-2)))
          CFI DPH0 load(1, XDATA, add(CFA_XSP16, literal(-1)))
          CFI CFA_SP SP+-2
          CFI CFA_XSP16 add(XSP16, 12)
          CFI Block cfiCond193 Using cfiCommon0
          CFI (cfiCond193) Function gp_AddCmdPayloadMsgNode
          CFI (cfiCond193) Conditional ??CrossCallReturnLabel_107
          CFI (cfiCond193) R6 load(1, XDATA, add(CFA_XSP16, literal(-14)))
          CFI (cfiCond193) VB load(1, XDATA, add(CFA_XSP16, literal(-13)))
          CFI (cfiCond193) V0 load(1, XDATA, add(CFA_XSP16, literal(-12)))
          CFI (cfiCond193) V1 load(1, XDATA, add(CFA_XSP16, literal(-11)))
          CFI (cfiCond193) V2 load(1, XDATA, add(CFA_XSP16, literal(-10)))
          CFI (cfiCond193) V3 load(1, XDATA, add(CFA_XSP16, literal(-9)))
          CFI (cfiCond193) V4 load(1, XDATA, add(CFA_XSP16, literal(-8)))
          CFI (cfiCond193) V5 load(1, XDATA, add(CFA_XSP16, literal(-7)))
          CFI (cfiCond193) R7 load(1, XDATA, add(CFA_XSP16, literal(-6)))
          CFI (cfiCond193) ?RET_LOW load(1, XDATA, add(CFA_XSP16, literal(-5)))
          CFI (cfiCond193) ?RET_HIGH load(1, XDATA, add(CFA_XSP16, literal(-4)))
          CFI (cfiCond193) ?BRET_EXT load(1, XDATA, add(CFA_XSP16, literal(-3)))
          CFI (cfiCond193) DPL0 load(1, XDATA, add(CFA_XSP16, literal(-2)))
          CFI (cfiCond193) DPH0 load(1, XDATA, add(CFA_XSP16, literal(-1)))
          CFI (cfiCond193) CFA_SP SP+-2
          CFI (cfiCond193) CFA_XSP16 add(XSP16, 14)
          CFI Block cfiPicker194 Using cfiCommon1
          CFI (cfiPicker194) NoFunction
          CFI (cfiPicker194) Picker
        MOV       DPL,A
        MOV       DPH,R1
          CFI EndBlock cfiCond192
          CFI EndBlock cfiCond193
          CFI EndBlock cfiPicker194
        REQUIRE ??Subroutine46_0
        ; // Fall through to label ??Subroutine46_0

        RSEG BANKED_CODE:HUGECODE:NOROOT(0)
??Subroutine46_0:
          CFI Block cfiCond195 Using cfiCommon0
          CFI Function zclGp_RegisterCmdCallbacks
          CFI Conditional ??CrossCallReturnLabel_104
          CFI R6 load(1, XDATA, add(CFA_XSP16, literal(-12)))
          CFI VB load(1, XDATA, add(CFA_XSP16, literal(-11)))
          CFI V0 load(1, XDATA, add(CFA_XSP16, literal(-10)))
          CFI V1 load(1, XDATA, add(CFA_XSP16, literal(-9)))
          CFI V2 load(1, XDATA, add(CFA_XSP16, literal(-8)))
          CFI V3 load(1, XDATA, add(CFA_XSP16, literal(-7)))
          CFI R7 load(1, XDATA, add(CFA_XSP16, literal(-6)))
          CFI ?RET_LOW load(1, XDATA, add(CFA_XSP16, literal(-5)))
          CFI ?RET_HIGH load(1, XDATA, add(CFA_XSP16, literal(-4)))
          CFI ?BRET_EXT load(1, XDATA, add(CFA_XSP16, literal(-3)))
          CFI DPL0 load(1, XDATA, add(CFA_XSP16, literal(-2)))
          CFI DPH0 load(1, XDATA, add(CFA_XSP16, literal(-1)))
          CFI CFA_SP SP+-2
          CFI CFA_XSP16 add(XSP16, 12)
          CFI Block cfiCond196 Using cfiCommon0
          CFI (cfiCond196) Function zclGp_RegisterCmdCallbacks
          CFI (cfiCond196) Conditional ??CrossCallReturnLabel_105
          CFI (cfiCond196) R6 load(1, XDATA, add(CFA_XSP16, literal(-12)))
          CFI (cfiCond196) VB load(1, XDATA, add(CFA_XSP16, literal(-11)))
          CFI (cfiCond196) V0 load(1, XDATA, add(CFA_XSP16, literal(-10)))
          CFI (cfiCond196) V1 load(1, XDATA, add(CFA_XSP16, literal(-9)))
          CFI (cfiCond196) V2 load(1, XDATA, add(CFA_XSP16, literal(-8)))
          CFI (cfiCond196) V3 load(1, XDATA, add(CFA_XSP16, literal(-7)))
          CFI (cfiCond196) R7 load(1, XDATA, add(CFA_XSP16, literal(-6)))
          CFI (cfiCond196) ?RET_LOW load(1, XDATA, add(CFA_XSP16, literal(-5)))
          CFI (cfiCond196) ?RET_HIGH load(1, XDATA, add(CFA_XSP16, literal(-4)))
          CFI (cfiCond196) ?BRET_EXT load(1, XDATA, add(CFA_XSP16, literal(-3)))
          CFI (cfiCond196) DPL0 load(1, XDATA, add(CFA_XSP16, literal(-2)))
          CFI (cfiCond196) DPH0 load(1, XDATA, add(CFA_XSP16, literal(-1)))
          CFI (cfiCond196) CFA_SP SP+-2
          CFI (cfiCond196) CFA_XSP16 add(XSP16, 12)
          CFI Block cfiCond197 Using cfiCommon0
          CFI (cfiCond197) Function gp_AddNotificationMsgNode
          CFI (cfiCond197) Conditional ??CrossCallReturnLabel_106
          CFI (cfiCond197) R6 load(1, XDATA, add(CFA_XSP16, literal(-12)))
          CFI (cfiCond197) VB load(1, XDATA, add(CFA_XSP16, literal(-11)))
          CFI (cfiCond197) V0 load(1, XDATA, add(CFA_XSP16, literal(-10)))
          CFI (cfiCond197) V1 load(1, XDATA, add(CFA_XSP16, literal(-9)))
          CFI (cfiCond197) V2 load(1, XDATA, add(CFA_XSP16, literal(-8)))
          CFI (cfiCond197) V3 load(1, XDATA, add(CFA_XSP16, literal(-7)))
          CFI (cfiCond197) R7 load(1, XDATA, add(CFA_XSP16, literal(-6)))
          CFI (cfiCond197) ?RET_LOW load(1, XDATA, add(CFA_XSP16, literal(-5)))
          CFI (cfiCond197) ?RET_HIGH load(1, XDATA, add(CFA_XSP16, literal(-4)))
          CFI (cfiCond197) ?BRET_EXT load(1, XDATA, add(CFA_XSP16, literal(-3)))
          CFI (cfiCond197) DPL0 load(1, XDATA, add(CFA_XSP16, literal(-2)))
          CFI (cfiCond197) DPH0 load(1, XDATA, add(CFA_XSP16, literal(-1)))
          CFI (cfiCond197) CFA_SP SP+-2
          CFI (cfiCond197) CFA_XSP16 add(XSP16, 12)
          CFI Block cfiCond198 Using cfiCommon0
          CFI (cfiCond198) Function gp_AddCmdPayloadMsgNode
          CFI (cfiCond198) Conditional ??CrossCallReturnLabel_107
          CFI (cfiCond198) R6 load(1, XDATA, add(CFA_XSP16, literal(-14)))
          CFI (cfiCond198) VB load(1, XDATA, add(CFA_XSP16, literal(-13)))
          CFI (cfiCond198) V0 load(1, XDATA, add(CFA_XSP16, literal(-12)))
          CFI (cfiCond198) V1 load(1, XDATA, add(CFA_XSP16, literal(-11)))
          CFI (cfiCond198) V2 load(1, XDATA, add(CFA_XSP16, literal(-10)))
          CFI (cfiCond198) V3 load(1, XDATA, add(CFA_XSP16, literal(-9)))
          CFI (cfiCond198) V4 load(1, XDATA, add(CFA_XSP16, literal(-8)))
          CFI (cfiCond198) V5 load(1, XDATA, add(CFA_XSP16, literal(-7)))
          CFI (cfiCond198) R7 load(1, XDATA, add(CFA_XSP16, literal(-6)))
          CFI (cfiCond198) ?RET_LOW load(1, XDATA, add(CFA_XSP16, literal(-5)))
          CFI (cfiCond198) ?RET_HIGH load(1, XDATA, add(CFA_XSP16, literal(-4)))
          CFI (cfiCond198) ?BRET_EXT load(1, XDATA, add(CFA_XSP16, literal(-3)))
          CFI (cfiCond198) DPL0 load(1, XDATA, add(CFA_XSP16, literal(-2)))
          CFI (cfiCond198) DPH0 load(1, XDATA, add(CFA_XSP16, literal(-1)))
          CFI (cfiCond198) CFA_SP SP+-2
          CFI (cfiCond198) CFA_XSP16 add(XSP16, 14)
          CFI Block cfiPicker199 Using cfiCommon1
          CFI (cfiPicker199) NoFunction
          CFI (cfiPicker199) Picker
        MOVX      A,@DPTR
        MOV       R2,A
        INC       DPTR
        MOVX      A,@DPTR
        MOV       R3,A
        MOV       A,R2
        ORL       A,R3
        RET
          CFI EndBlock cfiCond195
          CFI EndBlock cfiCond196
          CFI EndBlock cfiCond197
          CFI EndBlock cfiCond198
          CFI EndBlock cfiPicker199
//  854 
//  855 /*********************************************************************
//  856  * @fn      gp_AddCmdPayloadMsgNode
//  857  *
//  858  * @brief   Add node to Notification Msg list
//  859  *
//  860  * @param   pHead - pointer to a pointer of the list head
//  861  *
//  862  * @return  pointer to new node
//  863  */

        RSEG BANKED_CODE:HUGECODE:NOROOT(0)
//  864 gpCmdPayloadMsg_t* gp_AddCmdPayloadMsgNode( gpCmdPayloadMsg_t **pHead, uint8* pBuf, uint8 len )
gp_AddCmdPayloadMsgNode:
          CFI Block cfiBlock200 Using cfiCommon0
          CFI Function gp_AddCmdPayloadMsgNode
        CODE
//  865 {
        FUNCALL gp_AddCmdPayloadMsgNode, gp_CreateCmdPayloadMsgList
        LOCFRAME ISTACK, 0, STACK
        LOCFRAME PSTACK, 0, STACK
        LOCFRAME XSTACK, 14, STACK
        LOCFRAME IOVERLAY, 0, STATIC
        LOCFRAME DOVERLAY, 0, STATIC
        ARGFRAME ISTACK, 0, STACK
        ARGFRAME PSTACK, 0, STACK
        ARGFRAME XSTACK, 14, STACK
        ARGFRAME IOVERLAY, 0, STATIC
        ARGFRAME DOVERLAY, 0, STATIC
        FUNCALL gp_AddCmdPayloadMsgNode, osal_mem_alloc
        LOCFRAME ISTACK, 0, STACK
        LOCFRAME PSTACK, 0, STACK
        LOCFRAME XSTACK, 14, STACK
        LOCFRAME IOVERLAY, 0, STATIC
        LOCFRAME DOVERLAY, 0, STATIC
        ARGFRAME ISTACK, 0, STACK
        ARGFRAME PSTACK, 0, STACK
        ARGFRAME XSTACK, 14, STACK
        ARGFRAME IOVERLAY, 0, STATIC
        ARGFRAME DOVERLAY, 0, STATIC
        REQUIRE ?V0
        REQUIRE ?V1
        REQUIRE ?V2
        REQUIRE ?V4
        REQUIRE ?V5
        MOV       A,#-0xe
        LCALL     ?BANKED_ENTER_XDATA
          CFI DPH0 load(1, XDATA, add(CFA_XSP16, literal(-1)))
          CFI DPL0 load(1, XDATA, add(CFA_XSP16, literal(-2)))
          CFI ?BRET_EXT load(1, XDATA, add(CFA_XSP16, literal(-3)))
          CFI ?RET_HIGH load(1, XDATA, add(CFA_XSP16, literal(-4)))
          CFI ?RET_LOW load(1, XDATA, add(CFA_XSP16, literal(-5)))
          CFI R7 load(1, XDATA, add(CFA_XSP16, literal(-6)))
          CFI V5 load(1, XDATA, add(CFA_XSP16, literal(-7)))
          CFI V4 load(1, XDATA, add(CFA_XSP16, literal(-8)))
          CFI V3 load(1, XDATA, add(CFA_XSP16, literal(-9)))
          CFI V2 load(1, XDATA, add(CFA_XSP16, literal(-10)))
          CFI V1 load(1, XDATA, add(CFA_XSP16, literal(-11)))
          CFI V0 load(1, XDATA, add(CFA_XSP16, literal(-12)))
          CFI VB load(1, XDATA, add(CFA_XSP16, literal(-13)))
          CFI R6 load(1, XDATA, add(CFA_XSP16, literal(-14)))
          CFI CFA_SP SP+0
          CFI CFA_XSP16 add(XSP16, 14)
        ; Saved register size: 14
        ; Auto size: 0
        MOV       A,R2
        MOV       R6,A
        MOV       A,R3
        MOV       R7,A
        MOV       ?V0,R4
        MOV       ?V1,R5
        MOV       ?V2,R1
//  866   gpCmdPayloadMsg_t **pCurr;
//  867   
//  868     // Create respondent list if empty
//  869   if ( *pHead == NULL )
        LCALL     ??Subroutine47_0 & 0xFFFF
??CrossCallReturnLabel_122:
        JNZ       ??gp_AddCmdPayloadMsgNode_0
//  870   {
//  871     gp_CreateCmdPayloadMsgList( pHead );
        ; Setup parameters for call to function gp_CreateCmdPayloadMsgList
        LCALL     `??gp_CreateCmdPayloadMsgList::?relay`; Banked call to: gp_CreateCmdPayloadMsgList
//  872     
//  873     if ( pHead != NULL )
        MOV       A,R6
        ORL       A,R7
        JZ        ??gp_AddCmdPayloadMsgNode_1
//  874     {
//  875       ( ( ( gpCmdPayloadMsg_t* ) *pHead )->lenght ) = len;
        LCALL     ?Subroutine10 & 0xFFFF
//  876       ( ( ( gpCmdPayloadMsg_t* ) *pHead )->pMsg ) = ( uint8* )pBuf;
//  877     }
??CrossCallReturnLabel_4:
        MOV       R0,A
        INC       DPTR
        MOVX      A,@DPTR
        MOV       DPH,A
        MOV       DPL,R0
        INC       DPTR
        INC       DPTR
        MOV       A,?V0
        MOVX      @DPTR,A
        INC       DPTR
        MOV       A,?V1
        MOVX      @DPTR,A
//  878     return *pHead;
??gp_AddCmdPayloadMsgNode_1:
        LCALL     ?Subroutine15 & 0xFFFF
//  879   }
??CrossCallReturnLabel_133:
        SJMP      ??gp_AddCmdPayloadMsgNode_2
//  880   
//  881   pCurr = &((*pHead)->pNext);
//  882   
//  883   while ( *pCurr != NULL )
//  884   {
//  885     pCurr = &((*pCurr)->pNext);
??gp_AddCmdPayloadMsgNode_0:
        MOV       A,R0
        ADD       A,#0x4
        MOV       R6,A
        CLR       A
        ADDC      A,R1
        MOV       R7,A
//  886   }
        MOV       DPL,R6
        MOV       DPH,R7
        LCALL     ??Subroutine49_0 & 0xFFFF
??CrossCallReturnLabel_118:
        JNZ       ??gp_AddCmdPayloadMsgNode_0
//  887 
//  888   *pCurr = ( gpCmdPayloadMsg_t* )osal_mem_alloc( sizeof( gpCmdPayloadMsg_t ) );
        ; Setup parameters for call to function osal_mem_alloc
        MOV       R2,#0x6
        MOV       R3,#0x0
        LCALL     `??osal_mem_alloc::?relay`; Banked call to: osal_mem_alloc
        MOV       ?V5,R3
        MOV       R1,?V5
        LCALL     ?Subroutine24 & 0xFFFF
//  889     
//  890   if ( (*pCurr)->pNext != NULL )
??CrossCallReturnLabel_103:
        MOV       A,R2
        ADD       A,#0x4
        MOV       R0,A
        JNC       ??gp_AddCmdPayloadMsgNode_3
        INC       R1
??gp_AddCmdPayloadMsgNode_3:
        LCALL     ?Subroutine12 & 0xFFFF
??CrossCallReturnLabel_107:
        JZ        ??gp_AddCmdPayloadMsgNode_4
//  891   {
//  892     (*pCurr)->pNext = NULL;
        MOV       DPL,R0
        MOV       DPH,R1
        CLR       A
        MOVX      @DPTR,A
        INC       DPTR
        MOVX      @DPTR,A
//  893   }
//  894   ( ( ( gpCmdPayloadMsg_t* ) *pCurr )->lenght ) = len;
??gp_AddCmdPayloadMsgNode_4:
        LCALL     ?Subroutine10 & 0xFFFF
//  895   ( ( ( gpCmdPayloadMsg_t* ) *pCurr )->pMsg ) = ( uint8* )pBuf;
??CrossCallReturnLabel_5:
        MOV       R2,A
        INC       DPTR
        MOVX      A,@DPTR
        MOV       R3,A
        MOV       DPL,R2
        MOV       DPH,A
        INC       DPTR
        INC       DPTR
        MOV       A,?V0
        MOVX      @DPTR,A
        INC       DPTR
        MOV       A,?V1
        MOVX      @DPTR,A
//  896   
//  897   return *pCurr;
??gp_AddCmdPayloadMsgNode_2:
        MOV       R7,#0x6
        LJMP      ?BANKED_LEAVE_XDATA
//  898 }
          CFI EndBlock cfiBlock200

        RSEG BANKED_CODE:HUGECODE:NOROOT(0)
?Subroutine10:
          CFI Block cfiCond201 Using cfiCommon0
          CFI Function gp_AddCmdPayloadMsgNode
          CFI Conditional ??CrossCallReturnLabel_4
          CFI R6 load(1, XDATA, add(CFA_XSP16, literal(-14)))
          CFI VB load(1, XDATA, add(CFA_XSP16, literal(-13)))
          CFI V0 load(1, XDATA, add(CFA_XSP16, literal(-12)))
          CFI V1 load(1, XDATA, add(CFA_XSP16, literal(-11)))
          CFI V2 load(1, XDATA, add(CFA_XSP16, literal(-10)))
          CFI V3 load(1, XDATA, add(CFA_XSP16, literal(-9)))
          CFI V4 load(1, XDATA, add(CFA_XSP16, literal(-8)))
          CFI V5 load(1, XDATA, add(CFA_XSP16, literal(-7)))
          CFI R7 load(1, XDATA, add(CFA_XSP16, literal(-6)))
          CFI ?RET_LOW load(1, XDATA, add(CFA_XSP16, literal(-5)))
          CFI ?RET_HIGH load(1, XDATA, add(CFA_XSP16, literal(-4)))
          CFI ?BRET_EXT load(1, XDATA, add(CFA_XSP16, literal(-3)))
          CFI DPL0 load(1, XDATA, add(CFA_XSP16, literal(-2)))
          CFI DPH0 load(1, XDATA, add(CFA_XSP16, literal(-1)))
          CFI CFA_SP SP+-2
          CFI CFA_XSP16 add(XSP16, 14)
          CFI Block cfiCond202 Using cfiCommon0
          CFI (cfiCond202) Function gp_AddCmdPayloadMsgNode
          CFI (cfiCond202) Conditional ??CrossCallReturnLabel_5
          CFI (cfiCond202) R6 load(1, XDATA, add(CFA_XSP16, literal(-14)))
          CFI (cfiCond202) VB load(1, XDATA, add(CFA_XSP16, literal(-13)))
          CFI (cfiCond202) V0 load(1, XDATA, add(CFA_XSP16, literal(-12)))
          CFI (cfiCond202) V1 load(1, XDATA, add(CFA_XSP16, literal(-11)))
          CFI (cfiCond202) V2 load(1, XDATA, add(CFA_XSP16, literal(-10)))
          CFI (cfiCond202) V3 load(1, XDATA, add(CFA_XSP16, literal(-9)))
          CFI (cfiCond202) V4 load(1, XDATA, add(CFA_XSP16, literal(-8)))
          CFI (cfiCond202) V5 load(1, XDATA, add(CFA_XSP16, literal(-7)))
          CFI (cfiCond202) R7 load(1, XDATA, add(CFA_XSP16, literal(-6)))
          CFI (cfiCond202) ?RET_LOW load(1, XDATA, add(CFA_XSP16, literal(-5)))
          CFI (cfiCond202) ?RET_HIGH load(1, XDATA, add(CFA_XSP16, literal(-4)))
          CFI (cfiCond202) ?BRET_EXT load(1, XDATA, add(CFA_XSP16, literal(-3)))
          CFI (cfiCond202) DPL0 load(1, XDATA, add(CFA_XSP16, literal(-2)))
          CFI (cfiCond202) DPH0 load(1, XDATA, add(CFA_XSP16, literal(-1)))
          CFI (cfiCond202) CFA_SP SP+-2
          CFI (cfiCond202) CFA_XSP16 add(XSP16, 14)
          CFI Block cfiPicker203 Using cfiCommon1
          CFI (cfiPicker203) NoFunction
          CFI (cfiPicker203) Picker
        MOV       DPL,R6
        MOV       DPH,R7
        LCALL     ?Subroutine34 & 0xFFFF
??CrossCallReturnLabel_47:
        INC       DPTR
        MOV       A,?V2
        LCALL     ?Subroutine35 & 0xFFFF
??CrossCallReturnLabel_52:
        MOVX      A,@DPTR
        RET
          CFI EndBlock cfiCond201
          CFI EndBlock cfiCond202
          CFI EndBlock cfiPicker203

        RSEG BANKED_CODE:HUGECODE:NOROOT(0)
?Subroutine34:
          CFI Block cfiCond204 Using cfiCommon0
          CFI Function zclGp_ProcessInProxyBasic
          CFI Conditional ??CrossCallReturnLabel_46
          CFI R6 load(1, XDATA, add(CFA_XSP16, literal(-20)))
          CFI VB load(1, XDATA, add(CFA_XSP16, literal(-19)))
          CFI V0 load(1, XDATA, add(CFA_XSP16, literal(-18)))
          CFI V1 load(1, XDATA, add(CFA_XSP16, literal(-17)))
          CFI V2 load(1, XDATA, add(CFA_XSP16, literal(-16)))
          CFI V3 load(1, XDATA, add(CFA_XSP16, literal(-15)))
          CFI V4 load(1, XDATA, add(CFA_XSP16, literal(-14)))
          CFI V5 load(1, XDATA, add(CFA_XSP16, literal(-13)))
          CFI V6 load(1, XDATA, add(CFA_XSP16, literal(-12)))
          CFI V7 load(1, XDATA, add(CFA_XSP16, literal(-11)))
          CFI V8 load(1, XDATA, add(CFA_XSP16, literal(-10)))
          CFI V9 load(1, XDATA, add(CFA_XSP16, literal(-9)))
          CFI V10 load(1, XDATA, add(CFA_XSP16, literal(-8)))
          CFI V11 load(1, XDATA, add(CFA_XSP16, literal(-7)))
          CFI R7 load(1, XDATA, add(CFA_XSP16, literal(-6)))
          CFI ?RET_LOW load(1, XDATA, add(CFA_XSP16, literal(-5)))
          CFI ?RET_HIGH load(1, XDATA, add(CFA_XSP16, literal(-4)))
          CFI ?BRET_EXT load(1, XDATA, add(CFA_XSP16, literal(-3)))
          CFI DPL0 load(1, XDATA, add(CFA_XSP16, literal(-2)))
          CFI DPH0 load(1, XDATA, add(CFA_XSP16, literal(-1)))
          CFI CFA_SP SP+-2
          CFI CFA_XSP16 add(XSP16, 42)
          CFI Block cfiCond205 Using cfiCommon0
          CFI (cfiCond205) Function gp_AddCmdPayloadMsgNode
          CFI (cfiCond205) Conditional ??CrossCallReturnLabel_47, ??CrossCallReturnLabel_4
          CFI (cfiCond205) R6 load(1, XDATA, add(CFA_XSP16, literal(-14)))
          CFI (cfiCond205) VB load(1, XDATA, add(CFA_XSP16, literal(-13)))
          CFI (cfiCond205) V0 load(1, XDATA, add(CFA_XSP16, literal(-12)))
          CFI (cfiCond205) V1 load(1, XDATA, add(CFA_XSP16, literal(-11)))
          CFI (cfiCond205) V2 load(1, XDATA, add(CFA_XSP16, literal(-10)))
          CFI (cfiCond205) V3 load(1, XDATA, add(CFA_XSP16, literal(-9)))
          CFI (cfiCond205) V4 load(1, XDATA, add(CFA_XSP16, literal(-8)))
          CFI (cfiCond205) V5 load(1, XDATA, add(CFA_XSP16, literal(-7)))
          CFI (cfiCond205) R7 load(1, XDATA, add(CFA_XSP16, literal(-6)))
          CFI (cfiCond205) ?RET_LOW load(1, XDATA, add(CFA_XSP16, literal(-5)))
          CFI (cfiCond205) ?RET_HIGH load(1, XDATA, add(CFA_XSP16, literal(-4)))
          CFI (cfiCond205) ?BRET_EXT load(1, XDATA, add(CFA_XSP16, literal(-3)))
          CFI (cfiCond205) DPL0 load(1, XDATA, add(CFA_XSP16, literal(-2)))
          CFI (cfiCond205) DPH0 load(1, XDATA, add(CFA_XSP16, literal(-1)))
          CFI (cfiCond205) CFA_SP SP+-4
          CFI (cfiCond205) CFA_XSP16 add(XSP16, 14)
          CFI Block cfiCond206 Using cfiCommon0
          CFI (cfiCond206) Function gp_AddCmdPayloadMsgNode
          CFI (cfiCond206) Conditional ??CrossCallReturnLabel_47, ??CrossCallReturnLabel_5
          CFI (cfiCond206) R6 load(1, XDATA, add(CFA_XSP16, literal(-14)))
          CFI (cfiCond206) VB load(1, XDATA, add(CFA_XSP16, literal(-13)))
          CFI (cfiCond206) V0 load(1, XDATA, add(CFA_XSP16, literal(-12)))
          CFI (cfiCond206) V1 load(1, XDATA, add(CFA_XSP16, literal(-11)))
          CFI (cfiCond206) V2 load(1, XDATA, add(CFA_XSP16, literal(-10)))
          CFI (cfiCond206) V3 load(1, XDATA, add(CFA_XSP16, literal(-9)))
          CFI (cfiCond206) V4 load(1, XDATA, add(CFA_XSP16, literal(-8)))
          CFI (cfiCond206) V5 load(1, XDATA, add(CFA_XSP16, literal(-7)))
          CFI (cfiCond206) R7 load(1, XDATA, add(CFA_XSP16, literal(-6)))
          CFI (cfiCond206) ?RET_LOW load(1, XDATA, add(CFA_XSP16, literal(-5)))
          CFI (cfiCond206) ?RET_HIGH load(1, XDATA, add(CFA_XSP16, literal(-4)))
          CFI (cfiCond206) ?BRET_EXT load(1, XDATA, add(CFA_XSP16, literal(-3)))
          CFI (cfiCond206) DPL0 load(1, XDATA, add(CFA_XSP16, literal(-2)))
          CFI (cfiCond206) DPH0 load(1, XDATA, add(CFA_XSP16, literal(-1)))
          CFI (cfiCond206) CFA_SP SP+-4
          CFI (cfiCond206) CFA_XSP16 add(XSP16, 14)
          CFI Block cfiPicker207 Using cfiCommon1
          CFI (cfiPicker207) NoFunction
          CFI (cfiPicker207) Picker
        MOVX      A,@DPTR
        MOV       R0,A
        INC       DPTR
        MOVX      A,@DPTR
        MOV       DPH,A
        MOV       DPL,R0
        RET
          CFI EndBlock cfiCond204
          CFI EndBlock cfiCond205
          CFI EndBlock cfiCond206
          CFI EndBlock cfiPicker207

        RSEG BANKED_CODE:HUGECODE:NOROOT(0)
?Subroutine5:
          CFI Block cfiCond208 Using cfiCommon0
          CFI Function gp_CreateNotificationMsgList
          CFI Conditional ??CrossCallReturnLabel_108
          CFI R6 load(1, XDATA, add(CFA_XSP16, literal(-10)))
          CFI VB load(1, XDATA, add(CFA_XSP16, literal(-9)))
          CFI V0 load(1, XDATA, add(CFA_XSP16, literal(-8)))
          CFI V1 load(1, XDATA, add(CFA_XSP16, literal(-7)))
          CFI R7 load(1, XDATA, add(CFA_XSP16, literal(-6)))
          CFI ?RET_LOW load(1, XDATA, add(CFA_XSP16, literal(-5)))
          CFI ?RET_HIGH load(1, XDATA, add(CFA_XSP16, literal(-4)))
          CFI ?BRET_EXT load(1, XDATA, add(CFA_XSP16, literal(-3)))
          CFI DPL0 load(1, XDATA, add(CFA_XSP16, literal(-2)))
          CFI DPH0 load(1, XDATA, add(CFA_XSP16, literal(-1)))
          CFI CFA_SP SP+-2
          CFI CFA_XSP16 add(XSP16, 10)
          CFI Block cfiCond209 Using cfiCommon0
          CFI (cfiCond209) Function gp_CreateCmdPayloadMsgList
          CFI (cfiCond209) Conditional ??CrossCallReturnLabel_109
          CFI (cfiCond209) R6 load(1, XDATA, add(CFA_XSP16, literal(-10)))
          CFI (cfiCond209) VB load(1, XDATA, add(CFA_XSP16, literal(-9)))
          CFI (cfiCond209) V0 load(1, XDATA, add(CFA_XSP16, literal(-8)))
          CFI (cfiCond209) V1 load(1, XDATA, add(CFA_XSP16, literal(-7)))
          CFI (cfiCond209) R7 load(1, XDATA, add(CFA_XSP16, literal(-6)))
          CFI (cfiCond209) ?RET_LOW load(1, XDATA, add(CFA_XSP16, literal(-5)))
          CFI (cfiCond209) ?RET_HIGH load(1, XDATA, add(CFA_XSP16, literal(-4)))
          CFI (cfiCond209) ?BRET_EXT load(1, XDATA, add(CFA_XSP16, literal(-3)))
          CFI (cfiCond209) DPL0 load(1, XDATA, add(CFA_XSP16, literal(-2)))
          CFI (cfiCond209) DPH0 load(1, XDATA, add(CFA_XSP16, literal(-1)))
          CFI (cfiCond209) CFA_SP SP+-2
          CFI (cfiCond209) CFA_XSP16 add(XSP16, 10)
          CFI Block cfiCond210 Using cfiCommon0
          CFI (cfiCond210) Function gp_NotificationMsgClean
          CFI (cfiCond210) Conditional ??CrossCallReturnLabel_110
          CFI (cfiCond210) R6 load(1, XDATA, add(CFA_XSP16, literal(-12)))
          CFI (cfiCond210) VB load(1, XDATA, add(CFA_XSP16, literal(-11)))
          CFI (cfiCond210) V0 load(1, XDATA, add(CFA_XSP16, literal(-10)))
          CFI (cfiCond210) V1 load(1, XDATA, add(CFA_XSP16, literal(-9)))
          CFI (cfiCond210) V2 load(1, XDATA, add(CFA_XSP16, literal(-8)))
          CFI (cfiCond210) V3 load(1, XDATA, add(CFA_XSP16, literal(-7)))
          CFI (cfiCond210) R7 load(1, XDATA, add(CFA_XSP16, literal(-6)))
          CFI (cfiCond210) ?RET_LOW load(1, XDATA, add(CFA_XSP16, literal(-5)))
          CFI (cfiCond210) ?RET_HIGH load(1, XDATA, add(CFA_XSP16, literal(-4)))
          CFI (cfiCond210) ?BRET_EXT load(1, XDATA, add(CFA_XSP16, literal(-3)))
          CFI (cfiCond210) DPL0 load(1, XDATA, add(CFA_XSP16, literal(-2)))
          CFI (cfiCond210) DPH0 load(1, XDATA, add(CFA_XSP16, literal(-1)))
          CFI (cfiCond210) CFA_SP SP+-2
          CFI (cfiCond210) CFA_XSP16 add(XSP16, 12)
          CFI Block cfiPicker211 Using cfiCommon1
          CFI (cfiPicker211) NoFunction
          CFI (cfiPicker211) Picker
        MOV       A,R2
        MOV       R6,A
        MOV       A,R3
        MOV       R7,A
          CFI EndBlock cfiCond208
          CFI EndBlock cfiCond209
          CFI EndBlock cfiCond210
          CFI EndBlock cfiPicker211
        REQUIRE ??Subroutine47_0
        ; // Fall through to label ??Subroutine47_0

        RSEG BANKED_CODE:HUGECODE:NOROOT(0)
??Subroutine47_0:
          CFI Block cfiCond212 Using cfiCommon0
          CFI Function gp_AddNotificationMsgNode
          CFI Conditional ??CrossCallReturnLabel_121
          CFI R6 load(1, XDATA, add(CFA_XSP16, literal(-12)))
          CFI VB load(1, XDATA, add(CFA_XSP16, literal(-11)))
          CFI V0 load(1, XDATA, add(CFA_XSP16, literal(-10)))
          CFI V1 load(1, XDATA, add(CFA_XSP16, literal(-9)))
          CFI V2 load(1, XDATA, add(CFA_XSP16, literal(-8)))
          CFI V3 load(1, XDATA, add(CFA_XSP16, literal(-7)))
          CFI R7 load(1, XDATA, add(CFA_XSP16, literal(-6)))
          CFI ?RET_LOW load(1, XDATA, add(CFA_XSP16, literal(-5)))
          CFI ?RET_HIGH load(1, XDATA, add(CFA_XSP16, literal(-4)))
          CFI ?BRET_EXT load(1, XDATA, add(CFA_XSP16, literal(-3)))
          CFI DPL0 load(1, XDATA, add(CFA_XSP16, literal(-2)))
          CFI DPH0 load(1, XDATA, add(CFA_XSP16, literal(-1)))
          CFI CFA_SP SP+-2
          CFI CFA_XSP16 add(XSP16, 12)
          CFI Block cfiCond213 Using cfiCommon0
          CFI (cfiCond213) Function gp_AddCmdPayloadMsgNode
          CFI (cfiCond213) Conditional ??CrossCallReturnLabel_122
          CFI (cfiCond213) R6 load(1, XDATA, add(CFA_XSP16, literal(-14)))
          CFI (cfiCond213) VB load(1, XDATA, add(CFA_XSP16, literal(-13)))
          CFI (cfiCond213) V0 load(1, XDATA, add(CFA_XSP16, literal(-12)))
          CFI (cfiCond213) V1 load(1, XDATA, add(CFA_XSP16, literal(-11)))
          CFI (cfiCond213) V2 load(1, XDATA, add(CFA_XSP16, literal(-10)))
          CFI (cfiCond213) V3 load(1, XDATA, add(CFA_XSP16, literal(-9)))
          CFI (cfiCond213) V4 load(1, XDATA, add(CFA_XSP16, literal(-8)))
          CFI (cfiCond213) V5 load(1, XDATA, add(CFA_XSP16, literal(-7)))
          CFI (cfiCond213) R7 load(1, XDATA, add(CFA_XSP16, literal(-6)))
          CFI (cfiCond213) ?RET_LOW load(1, XDATA, add(CFA_XSP16, literal(-5)))
          CFI (cfiCond213) ?RET_HIGH load(1, XDATA, add(CFA_XSP16, literal(-4)))
          CFI (cfiCond213) ?BRET_EXT load(1, XDATA, add(CFA_XSP16, literal(-3)))
          CFI (cfiCond213) DPL0 load(1, XDATA, add(CFA_XSP16, literal(-2)))
          CFI (cfiCond213) DPH0 load(1, XDATA, add(CFA_XSP16, literal(-1)))
          CFI (cfiCond213) CFA_SP SP+-2
          CFI (cfiCond213) CFA_XSP16 add(XSP16, 14)
          CFI Block cfiCond214 Using cfiCommon0
          CFI (cfiCond214) Function gp_CreateNotificationMsgList
          CFI (cfiCond214) Conditional ??CrossCallReturnLabel_108
          CFI (cfiCond214) R6 load(1, XDATA, add(CFA_XSP16, literal(-10)))
          CFI (cfiCond214) VB load(1, XDATA, add(CFA_XSP16, literal(-9)))
          CFI (cfiCond214) V0 load(1, XDATA, add(CFA_XSP16, literal(-8)))
          CFI (cfiCond214) V1 load(1, XDATA, add(CFA_XSP16, literal(-7)))
          CFI (cfiCond214) R7 load(1, XDATA, add(CFA_XSP16, literal(-6)))
          CFI (cfiCond214) ?RET_LOW load(1, XDATA, add(CFA_XSP16, literal(-5)))
          CFI (cfiCond214) ?RET_HIGH load(1, XDATA, add(CFA_XSP16, literal(-4)))
          CFI (cfiCond214) ?BRET_EXT load(1, XDATA, add(CFA_XSP16, literal(-3)))
          CFI (cfiCond214) DPL0 load(1, XDATA, add(CFA_XSP16, literal(-2)))
          CFI (cfiCond214) DPH0 load(1, XDATA, add(CFA_XSP16, literal(-1)))
          CFI (cfiCond214) CFA_SP SP+-2
          CFI (cfiCond214) CFA_XSP16 add(XSP16, 10)
          CFI Block cfiCond215 Using cfiCommon0
          CFI (cfiCond215) Function gp_CreateCmdPayloadMsgList
          CFI (cfiCond215) Conditional ??CrossCallReturnLabel_109
          CFI (cfiCond215) R6 load(1, XDATA, add(CFA_XSP16, literal(-10)))
          CFI (cfiCond215) VB load(1, XDATA, add(CFA_XSP16, literal(-9)))
          CFI (cfiCond215) V0 load(1, XDATA, add(CFA_XSP16, literal(-8)))
          CFI (cfiCond215) V1 load(1, XDATA, add(CFA_XSP16, literal(-7)))
          CFI (cfiCond215) R7 load(1, XDATA, add(CFA_XSP16, literal(-6)))
          CFI (cfiCond215) ?RET_LOW load(1, XDATA, add(CFA_XSP16, literal(-5)))
          CFI (cfiCond215) ?RET_HIGH load(1, XDATA, add(CFA_XSP16, literal(-4)))
          CFI (cfiCond215) ?BRET_EXT load(1, XDATA, add(CFA_XSP16, literal(-3)))
          CFI (cfiCond215) DPL0 load(1, XDATA, add(CFA_XSP16, literal(-2)))
          CFI (cfiCond215) DPH0 load(1, XDATA, add(CFA_XSP16, literal(-1)))
          CFI (cfiCond215) CFA_SP SP+-2
          CFI (cfiCond215) CFA_XSP16 add(XSP16, 10)
          CFI Block cfiCond216 Using cfiCommon0
          CFI (cfiCond216) Function gp_NotificationMsgClean
          CFI (cfiCond216) Conditional ??CrossCallReturnLabel_110
          CFI (cfiCond216) R6 load(1, XDATA, add(CFA_XSP16, literal(-12)))
          CFI (cfiCond216) VB load(1, XDATA, add(CFA_XSP16, literal(-11)))
          CFI (cfiCond216) V0 load(1, XDATA, add(CFA_XSP16, literal(-10)))
          CFI (cfiCond216) V1 load(1, XDATA, add(CFA_XSP16, literal(-9)))
          CFI (cfiCond216) V2 load(1, XDATA, add(CFA_XSP16, literal(-8)))
          CFI (cfiCond216) V3 load(1, XDATA, add(CFA_XSP16, literal(-7)))
          CFI (cfiCond216) R7 load(1, XDATA, add(CFA_XSP16, literal(-6)))
          CFI (cfiCond216) ?RET_LOW load(1, XDATA, add(CFA_XSP16, literal(-5)))
          CFI (cfiCond216) ?RET_HIGH load(1, XDATA, add(CFA_XSP16, literal(-4)))
          CFI (cfiCond216) ?BRET_EXT load(1, XDATA, add(CFA_XSP16, literal(-3)))
          CFI (cfiCond216) DPL0 load(1, XDATA, add(CFA_XSP16, literal(-2)))
          CFI (cfiCond216) DPH0 load(1, XDATA, add(CFA_XSP16, literal(-1)))
          CFI (cfiCond216) CFA_SP SP+-2
          CFI (cfiCond216) CFA_XSP16 add(XSP16, 12)
          CFI Block cfiPicker217 Using cfiCommon1
          CFI (cfiPicker217) NoFunction
          CFI (cfiPicker217) Picker
        MOV       DPL,R2
          CFI EndBlock cfiCond212
          CFI EndBlock cfiCond213
          CFI EndBlock cfiCond214
          CFI EndBlock cfiCond215
          CFI EndBlock cfiCond216
          CFI EndBlock cfiPicker217
        REQUIRE ??Subroutine48_0
        ; // Fall through to label ??Subroutine48_0

        RSEG BANKED_CODE:HUGECODE:NOROOT(0)
??Subroutine48_0:
          CFI Block cfiCond218 Using cfiCommon0
          CFI Function zclGp_SendGpProxyTableResponse
          CFI Conditional ??CrossCallReturnLabel_120
          CFI R6 load(1, XDATA, add(CFA_XSP16, literal(-22)))
          CFI VB load(1, XDATA, add(CFA_XSP16, literal(-21)))
          CFI V0 load(1, XDATA, add(CFA_XSP16, literal(-20)))
          CFI V1 load(1, XDATA, add(CFA_XSP16, literal(-19)))
          CFI V2 load(1, XDATA, add(CFA_XSP16, literal(-18)))
          CFI V3 load(1, XDATA, add(CFA_XSP16, literal(-17)))
          CFI V4 load(1, XDATA, add(CFA_XSP16, literal(-16)))
          CFI V5 load(1, XDATA, add(CFA_XSP16, literal(-15)))
          CFI V6 load(1, XDATA, add(CFA_XSP16, literal(-14)))
          CFI V7 load(1, XDATA, add(CFA_XSP16, literal(-13)))
          CFI V8 load(1, XDATA, add(CFA_XSP16, literal(-12)))
          CFI V9 load(1, XDATA, add(CFA_XSP16, literal(-11)))
          CFI V10 load(1, XDATA, add(CFA_XSP16, literal(-10)))
          CFI V11 load(1, XDATA, add(CFA_XSP16, literal(-9)))
          CFI V12 load(1, XDATA, add(CFA_XSP16, literal(-8)))
          CFI V13 load(1, XDATA, add(CFA_XSP16, literal(-7)))
          CFI R7 load(1, XDATA, add(CFA_XSP16, literal(-6)))
          CFI ?RET_LOW load(1, XDATA, add(CFA_XSP16, literal(-5)))
          CFI ?RET_HIGH load(1, XDATA, add(CFA_XSP16, literal(-4)))
          CFI ?BRET_EXT load(1, XDATA, add(CFA_XSP16, literal(-3)))
          CFI DPL0 load(1, XDATA, add(CFA_XSP16, literal(-2)))
          CFI DPH0 load(1, XDATA, add(CFA_XSP16, literal(-1)))
          CFI CFA_SP SP+-2
          CFI CFA_XSP16 add(XSP16, 24)
          CFI Block cfiCond219 Using cfiCommon0
          CFI (cfiCond219) Function gp_AddNotificationMsgNode
          CFI (cfiCond219) Conditional ??CrossCallReturnLabel_121
          CFI (cfiCond219) R6 load(1, XDATA, add(CFA_XSP16, literal(-12)))
          CFI (cfiCond219) VB load(1, XDATA, add(CFA_XSP16, literal(-11)))
          CFI (cfiCond219) V0 load(1, XDATA, add(CFA_XSP16, literal(-10)))
          CFI (cfiCond219) V1 load(1, XDATA, add(CFA_XSP16, literal(-9)))
          CFI (cfiCond219) V2 load(1, XDATA, add(CFA_XSP16, literal(-8)))
          CFI (cfiCond219) V3 load(1, XDATA, add(CFA_XSP16, literal(-7)))
          CFI (cfiCond219) R7 load(1, XDATA, add(CFA_XSP16, literal(-6)))
          CFI (cfiCond219) ?RET_LOW load(1, XDATA, add(CFA_XSP16, literal(-5)))
          CFI (cfiCond219) ?RET_HIGH load(1, XDATA, add(CFA_XSP16, literal(-4)))
          CFI (cfiCond219) ?BRET_EXT load(1, XDATA, add(CFA_XSP16, literal(-3)))
          CFI (cfiCond219) DPL0 load(1, XDATA, add(CFA_XSP16, literal(-2)))
          CFI (cfiCond219) DPH0 load(1, XDATA, add(CFA_XSP16, literal(-1)))
          CFI (cfiCond219) CFA_SP SP+-2
          CFI (cfiCond219) CFA_XSP16 add(XSP16, 12)
          CFI Block cfiCond220 Using cfiCommon0
          CFI (cfiCond220) Function gp_AddCmdPayloadMsgNode
          CFI (cfiCond220) Conditional ??CrossCallReturnLabel_122
          CFI (cfiCond220) R6 load(1, XDATA, add(CFA_XSP16, literal(-14)))
          CFI (cfiCond220) VB load(1, XDATA, add(CFA_XSP16, literal(-13)))
          CFI (cfiCond220) V0 load(1, XDATA, add(CFA_XSP16, literal(-12)))
          CFI (cfiCond220) V1 load(1, XDATA, add(CFA_XSP16, literal(-11)))
          CFI (cfiCond220) V2 load(1, XDATA, add(CFA_XSP16, literal(-10)))
          CFI (cfiCond220) V3 load(1, XDATA, add(CFA_XSP16, literal(-9)))
          CFI (cfiCond220) V4 load(1, XDATA, add(CFA_XSP16, literal(-8)))
          CFI (cfiCond220) V5 load(1, XDATA, add(CFA_XSP16, literal(-7)))
          CFI (cfiCond220) R7 load(1, XDATA, add(CFA_XSP16, literal(-6)))
          CFI (cfiCond220) ?RET_LOW load(1, XDATA, add(CFA_XSP16, literal(-5)))
          CFI (cfiCond220) ?RET_HIGH load(1, XDATA, add(CFA_XSP16, literal(-4)))
          CFI (cfiCond220) ?BRET_EXT load(1, XDATA, add(CFA_XSP16, literal(-3)))
          CFI (cfiCond220) DPL0 load(1, XDATA, add(CFA_XSP16, literal(-2)))
          CFI (cfiCond220) DPH0 load(1, XDATA, add(CFA_XSP16, literal(-1)))
          CFI (cfiCond220) CFA_SP SP+-2
          CFI (cfiCond220) CFA_XSP16 add(XSP16, 14)
          CFI Block cfiCond221 Using cfiCommon0
          CFI (cfiCond221) Function gp_CreateNotificationMsgList
          CFI (cfiCond221) Conditional ??CrossCallReturnLabel_108
          CFI (cfiCond221) R6 load(1, XDATA, add(CFA_XSP16, literal(-10)))
          CFI (cfiCond221) VB load(1, XDATA, add(CFA_XSP16, literal(-9)))
          CFI (cfiCond221) V0 load(1, XDATA, add(CFA_XSP16, literal(-8)))
          CFI (cfiCond221) V1 load(1, XDATA, add(CFA_XSP16, literal(-7)))
          CFI (cfiCond221) R7 load(1, XDATA, add(CFA_XSP16, literal(-6)))
          CFI (cfiCond221) ?RET_LOW load(1, XDATA, add(CFA_XSP16, literal(-5)))
          CFI (cfiCond221) ?RET_HIGH load(1, XDATA, add(CFA_XSP16, literal(-4)))
          CFI (cfiCond221) ?BRET_EXT load(1, XDATA, add(CFA_XSP16, literal(-3)))
          CFI (cfiCond221) DPL0 load(1, XDATA, add(CFA_XSP16, literal(-2)))
          CFI (cfiCond221) DPH0 load(1, XDATA, add(CFA_XSP16, literal(-1)))
          CFI (cfiCond221) CFA_SP SP+-2
          CFI (cfiCond221) CFA_XSP16 add(XSP16, 10)
          CFI Block cfiCond222 Using cfiCommon0
          CFI (cfiCond222) Function gp_CreateCmdPayloadMsgList
          CFI (cfiCond222) Conditional ??CrossCallReturnLabel_109
          CFI (cfiCond222) R6 load(1, XDATA, add(CFA_XSP16, literal(-10)))
          CFI (cfiCond222) VB load(1, XDATA, add(CFA_XSP16, literal(-9)))
          CFI (cfiCond222) V0 load(1, XDATA, add(CFA_XSP16, literal(-8)))
          CFI (cfiCond222) V1 load(1, XDATA, add(CFA_XSP16, literal(-7)))
          CFI (cfiCond222) R7 load(1, XDATA, add(CFA_XSP16, literal(-6)))
          CFI (cfiCond222) ?RET_LOW load(1, XDATA, add(CFA_XSP16, literal(-5)))
          CFI (cfiCond222) ?RET_HIGH load(1, XDATA, add(CFA_XSP16, literal(-4)))
          CFI (cfiCond222) ?BRET_EXT load(1, XDATA, add(CFA_XSP16, literal(-3)))
          CFI (cfiCond222) DPL0 load(1, XDATA, add(CFA_XSP16, literal(-2)))
          CFI (cfiCond222) DPH0 load(1, XDATA, add(CFA_XSP16, literal(-1)))
          CFI (cfiCond222) CFA_SP SP+-2
          CFI (cfiCond222) CFA_XSP16 add(XSP16, 10)
          CFI Block cfiCond223 Using cfiCommon0
          CFI (cfiCond223) Function gp_NotificationMsgClean
          CFI (cfiCond223) Conditional ??CrossCallReturnLabel_110
          CFI (cfiCond223) R6 load(1, XDATA, add(CFA_XSP16, literal(-12)))
          CFI (cfiCond223) VB load(1, XDATA, add(CFA_XSP16, literal(-11)))
          CFI (cfiCond223) V0 load(1, XDATA, add(CFA_XSP16, literal(-10)))
          CFI (cfiCond223) V1 load(1, XDATA, add(CFA_XSP16, literal(-9)))
          CFI (cfiCond223) V2 load(1, XDATA, add(CFA_XSP16, literal(-8)))
          CFI (cfiCond223) V3 load(1, XDATA, add(CFA_XSP16, literal(-7)))
          CFI (cfiCond223) R7 load(1, XDATA, add(CFA_XSP16, literal(-6)))
          CFI (cfiCond223) ?RET_LOW load(1, XDATA, add(CFA_XSP16, literal(-5)))
          CFI (cfiCond223) ?RET_HIGH load(1, XDATA, add(CFA_XSP16, literal(-4)))
          CFI (cfiCond223) ?BRET_EXT load(1, XDATA, add(CFA_XSP16, literal(-3)))
          CFI (cfiCond223) DPL0 load(1, XDATA, add(CFA_XSP16, literal(-2)))
          CFI (cfiCond223) DPH0 load(1, XDATA, add(CFA_XSP16, literal(-1)))
          CFI (cfiCond223) CFA_SP SP+-2
          CFI (cfiCond223) CFA_XSP16 add(XSP16, 12)
          CFI Block cfiPicker224 Using cfiCommon1
          CFI (cfiPicker224) NoFunction
          CFI (cfiPicker224) Picker
        MOV       DPH,A
          CFI EndBlock cfiCond218
          CFI EndBlock cfiCond219
          CFI EndBlock cfiCond220
          CFI EndBlock cfiCond221
          CFI EndBlock cfiCond222
          CFI EndBlock cfiCond223
          CFI EndBlock cfiPicker224
        REQUIRE ??Subroutine49_0
        ; // Fall through to label ??Subroutine49_0

        RSEG BANKED_CODE:HUGECODE:NOROOT(0)
??Subroutine49_0:
          CFI Block cfiCond225 Using cfiCommon0
          CFI Function zclGp_HdlIncoming
          CFI Conditional ??CrossCallReturnLabel_111
          CFI R6 load(1, XDATA, add(CFA_XSP16, literal(-9)))
          CFI VB load(1, XDATA, add(CFA_XSP16, literal(-8)))
          CFI V0 load(1, XDATA, add(CFA_XSP16, literal(-7)))
          CFI R7 load(1, XDATA, add(CFA_XSP16, literal(-6)))
          CFI ?RET_LOW load(1, XDATA, add(CFA_XSP16, literal(-5)))
          CFI ?RET_HIGH load(1, XDATA, add(CFA_XSP16, literal(-4)))
          CFI ?BRET_EXT load(1, XDATA, add(CFA_XSP16, literal(-3)))
          CFI DPL0 load(1, XDATA, add(CFA_XSP16, literal(-2)))
          CFI DPH0 load(1, XDATA, add(CFA_XSP16, literal(-1)))
          CFI CFA_SP SP+-2
          CFI CFA_XSP16 add(XSP16, 9)
          CFI Block cfiCond226 Using cfiCommon0
          CFI (cfiCond226) Function zclGp_ProcessInProxyBasic
          CFI (cfiCond226) Conditional ??CrossCallReturnLabel_112
          CFI (cfiCond226) R6 load(1, XDATA, add(CFA_XSP16, literal(-20)))
          CFI (cfiCond226) VB load(1, XDATA, add(CFA_XSP16, literal(-19)))
          CFI (cfiCond226) V0 load(1, XDATA, add(CFA_XSP16, literal(-18)))
          CFI (cfiCond226) V1 load(1, XDATA, add(CFA_XSP16, literal(-17)))
          CFI (cfiCond226) V2 load(1, XDATA, add(CFA_XSP16, literal(-16)))
          CFI (cfiCond226) V3 load(1, XDATA, add(CFA_XSP16, literal(-15)))
          CFI (cfiCond226) V4 load(1, XDATA, add(CFA_XSP16, literal(-14)))
          CFI (cfiCond226) V5 load(1, XDATA, add(CFA_XSP16, literal(-13)))
          CFI (cfiCond226) V6 load(1, XDATA, add(CFA_XSP16, literal(-12)))
          CFI (cfiCond226) V7 load(1, XDATA, add(CFA_XSP16, literal(-11)))
          CFI (cfiCond226) V8 load(1, XDATA, add(CFA_XSP16, literal(-10)))
          CFI (cfiCond226) V9 load(1, XDATA, add(CFA_XSP16, literal(-9)))
          CFI (cfiCond226) V10 load(1, XDATA, add(CFA_XSP16, literal(-8)))
          CFI (cfiCond226) V11 load(1, XDATA, add(CFA_XSP16, literal(-7)))
          CFI (cfiCond226) R7 load(1, XDATA, add(CFA_XSP16, literal(-6)))
          CFI (cfiCond226) ?RET_LOW load(1, XDATA, add(CFA_XSP16, literal(-5)))
          CFI (cfiCond226) ?RET_HIGH load(1, XDATA, add(CFA_XSP16, literal(-4)))
          CFI (cfiCond226) ?BRET_EXT load(1, XDATA, add(CFA_XSP16, literal(-3)))
          CFI (cfiCond226) DPL0 load(1, XDATA, add(CFA_XSP16, literal(-2)))
          CFI (cfiCond226) DPH0 load(1, XDATA, add(CFA_XSP16, literal(-1)))
          CFI (cfiCond226) CFA_SP SP+-2
          CFI (cfiCond226) CFA_XSP16 add(XSP16, 42)
          CFI Block cfiCond227 Using cfiCommon0
          CFI (cfiCond227) Function zclGp_ProcessInProxyBasic
          CFI (cfiCond227) Conditional ??CrossCallReturnLabel_113
          CFI (cfiCond227) R6 load(1, XDATA, add(CFA_XSP16, literal(-20)))
          CFI (cfiCond227) VB load(1, XDATA, add(CFA_XSP16, literal(-19)))
          CFI (cfiCond227) V0 load(1, XDATA, add(CFA_XSP16, literal(-18)))
          CFI (cfiCond227) V1 load(1, XDATA, add(CFA_XSP16, literal(-17)))
          CFI (cfiCond227) V2 load(1, XDATA, add(CFA_XSP16, literal(-16)))
          CFI (cfiCond227) V3 load(1, XDATA, add(CFA_XSP16, literal(-15)))
          CFI (cfiCond227) V4 load(1, XDATA, add(CFA_XSP16, literal(-14)))
          CFI (cfiCond227) V5 load(1, XDATA, add(CFA_XSP16, literal(-13)))
          CFI (cfiCond227) V6 load(1, XDATA, add(CFA_XSP16, literal(-12)))
          CFI (cfiCond227) V7 load(1, XDATA, add(CFA_XSP16, literal(-11)))
          CFI (cfiCond227) V8 load(1, XDATA, add(CFA_XSP16, literal(-10)))
          CFI (cfiCond227) V9 load(1, XDATA, add(CFA_XSP16, literal(-9)))
          CFI (cfiCond227) V10 load(1, XDATA, add(CFA_XSP16, literal(-8)))
          CFI (cfiCond227) V11 load(1, XDATA, add(CFA_XSP16, literal(-7)))
          CFI (cfiCond227) R7 load(1, XDATA, add(CFA_XSP16, literal(-6)))
          CFI (cfiCond227) ?RET_LOW load(1, XDATA, add(CFA_XSP16, literal(-5)))
          CFI (cfiCond227) ?RET_HIGH load(1, XDATA, add(CFA_XSP16, literal(-4)))
          CFI (cfiCond227) ?BRET_EXT load(1, XDATA, add(CFA_XSP16, literal(-3)))
          CFI (cfiCond227) DPL0 load(1, XDATA, add(CFA_XSP16, literal(-2)))
          CFI (cfiCond227) DPH0 load(1, XDATA, add(CFA_XSP16, literal(-1)))
          CFI (cfiCond227) CFA_SP SP+-2
          CFI (cfiCond227) CFA_XSP16 add(XSP16, 42)
          CFI Block cfiCond228 Using cfiCommon0
          CFI (cfiCond228) Function zclGp_ProcessInProxyBasic
          CFI (cfiCond228) Conditional ??CrossCallReturnLabel_114
          CFI (cfiCond228) R6 load(1, XDATA, add(CFA_XSP16, literal(-20)))
          CFI (cfiCond228) VB load(1, XDATA, add(CFA_XSP16, literal(-19)))
          CFI (cfiCond228) V0 load(1, XDATA, add(CFA_XSP16, literal(-18)))
          CFI (cfiCond228) V1 load(1, XDATA, add(CFA_XSP16, literal(-17)))
          CFI (cfiCond228) V2 load(1, XDATA, add(CFA_XSP16, literal(-16)))
          CFI (cfiCond228) V3 load(1, XDATA, add(CFA_XSP16, literal(-15)))
          CFI (cfiCond228) V4 load(1, XDATA, add(CFA_XSP16, literal(-14)))
          CFI (cfiCond228) V5 load(1, XDATA, add(CFA_XSP16, literal(-13)))
          CFI (cfiCond228) V6 load(1, XDATA, add(CFA_XSP16, literal(-12)))
          CFI (cfiCond228) V7 load(1, XDATA, add(CFA_XSP16, literal(-11)))
          CFI (cfiCond228) V8 load(1, XDATA, add(CFA_XSP16, literal(-10)))
          CFI (cfiCond228) V9 load(1, XDATA, add(CFA_XSP16, literal(-9)))
          CFI (cfiCond228) V10 load(1, XDATA, add(CFA_XSP16, literal(-8)))
          CFI (cfiCond228) V11 load(1, XDATA, add(CFA_XSP16, literal(-7)))
          CFI (cfiCond228) R7 load(1, XDATA, add(CFA_XSP16, literal(-6)))
          CFI (cfiCond228) ?RET_LOW load(1, XDATA, add(CFA_XSP16, literal(-5)))
          CFI (cfiCond228) ?RET_HIGH load(1, XDATA, add(CFA_XSP16, literal(-4)))
          CFI (cfiCond228) ?BRET_EXT load(1, XDATA, add(CFA_XSP16, literal(-3)))
          CFI (cfiCond228) DPL0 load(1, XDATA, add(CFA_XSP16, literal(-2)))
          CFI (cfiCond228) DPH0 load(1, XDATA, add(CFA_XSP16, literal(-1)))
          CFI (cfiCond228) CFA_SP SP+-2
          CFI (cfiCond228) CFA_XSP16 add(XSP16, 42)
          CFI Block cfiCond229 Using cfiCommon0
          CFI (cfiCond229) Function zclGp_ProcessInProxyBasic
          CFI (cfiCond229) Conditional ??CrossCallReturnLabel_115
          CFI (cfiCond229) R6 load(1, XDATA, add(CFA_XSP16, literal(-20)))
          CFI (cfiCond229) VB load(1, XDATA, add(CFA_XSP16, literal(-19)))
          CFI (cfiCond229) V0 load(1, XDATA, add(CFA_XSP16, literal(-18)))
          CFI (cfiCond229) V1 load(1, XDATA, add(CFA_XSP16, literal(-17)))
          CFI (cfiCond229) V2 load(1, XDATA, add(CFA_XSP16, literal(-16)))
          CFI (cfiCond229) V3 load(1, XDATA, add(CFA_XSP16, literal(-15)))
          CFI (cfiCond229) V4 load(1, XDATA, add(CFA_XSP16, literal(-14)))
          CFI (cfiCond229) V5 load(1, XDATA, add(CFA_XSP16, literal(-13)))
          CFI (cfiCond229) V6 load(1, XDATA, add(CFA_XSP16, literal(-12)))
          CFI (cfiCond229) V7 load(1, XDATA, add(CFA_XSP16, literal(-11)))
          CFI (cfiCond229) V8 load(1, XDATA, add(CFA_XSP16, literal(-10)))
          CFI (cfiCond229) V9 load(1, XDATA, add(CFA_XSP16, literal(-9)))
          CFI (cfiCond229) V10 load(1, XDATA, add(CFA_XSP16, literal(-8)))
          CFI (cfiCond229) V11 load(1, XDATA, add(CFA_XSP16, literal(-7)))
          CFI (cfiCond229) R7 load(1, XDATA, add(CFA_XSP16, literal(-6)))
          CFI (cfiCond229) ?RET_LOW load(1, XDATA, add(CFA_XSP16, literal(-5)))
          CFI (cfiCond229) ?RET_HIGH load(1, XDATA, add(CFA_XSP16, literal(-4)))
          CFI (cfiCond229) ?BRET_EXT load(1, XDATA, add(CFA_XSP16, literal(-3)))
          CFI (cfiCond229) DPL0 load(1, XDATA, add(CFA_XSP16, literal(-2)))
          CFI (cfiCond229) DPH0 load(1, XDATA, add(CFA_XSP16, literal(-1)))
          CFI (cfiCond229) CFA_SP SP+-2
          CFI (cfiCond229) CFA_XSP16 add(XSP16, 42)
          CFI Block cfiCond230 Using cfiCommon0
          CFI (cfiCond230) Function zclGp_SendGpProxyTableResponse
          CFI (cfiCond230) Conditional ??CrossCallReturnLabel_116
          CFI (cfiCond230) R6 load(1, XDATA, add(CFA_XSP16, literal(-22)))
          CFI (cfiCond230) VB load(1, XDATA, add(CFA_XSP16, literal(-21)))
          CFI (cfiCond230) V0 load(1, XDATA, add(CFA_XSP16, literal(-20)))
          CFI (cfiCond230) V1 load(1, XDATA, add(CFA_XSP16, literal(-19)))
          CFI (cfiCond230) V2 load(1, XDATA, add(CFA_XSP16, literal(-18)))
          CFI (cfiCond230) V3 load(1, XDATA, add(CFA_XSP16, literal(-17)))
          CFI (cfiCond230) V4 load(1, XDATA, add(CFA_XSP16, literal(-16)))
          CFI (cfiCond230) V5 load(1, XDATA, add(CFA_XSP16, literal(-15)))
          CFI (cfiCond230) V6 load(1, XDATA, add(CFA_XSP16, literal(-14)))
          CFI (cfiCond230) V7 load(1, XDATA, add(CFA_XSP16, literal(-13)))
          CFI (cfiCond230) V8 load(1, XDATA, add(CFA_XSP16, literal(-12)))
          CFI (cfiCond230) V9 load(1, XDATA, add(CFA_XSP16, literal(-11)))
          CFI (cfiCond230) V10 load(1, XDATA, add(CFA_XSP16, literal(-10)))
          CFI (cfiCond230) V11 load(1, XDATA, add(CFA_XSP16, literal(-9)))
          CFI (cfiCond230) V12 load(1, XDATA, add(CFA_XSP16, literal(-8)))
          CFI (cfiCond230) V13 load(1, XDATA, add(CFA_XSP16, literal(-7)))
          CFI (cfiCond230) R7 load(1, XDATA, add(CFA_XSP16, literal(-6)))
          CFI (cfiCond230) ?RET_LOW load(1, XDATA, add(CFA_XSP16, literal(-5)))
          CFI (cfiCond230) ?RET_HIGH load(1, XDATA, add(CFA_XSP16, literal(-4)))
          CFI (cfiCond230) ?BRET_EXT load(1, XDATA, add(CFA_XSP16, literal(-3)))
          CFI (cfiCond230) DPL0 load(1, XDATA, add(CFA_XSP16, literal(-2)))
          CFI (cfiCond230) DPH0 load(1, XDATA, add(CFA_XSP16, literal(-1)))
          CFI (cfiCond230) CFA_SP SP+-2
          CFI (cfiCond230) CFA_XSP16 add(XSP16, 24)
          CFI Block cfiCond231 Using cfiCommon0
          CFI (cfiCond231) Function gp_AddNotificationMsgNode
          CFI (cfiCond231) Conditional ??CrossCallReturnLabel_117
          CFI (cfiCond231) R6 load(1, XDATA, add(CFA_XSP16, literal(-12)))
          CFI (cfiCond231) VB load(1, XDATA, add(CFA_XSP16, literal(-11)))
          CFI (cfiCond231) V0 load(1, XDATA, add(CFA_XSP16, literal(-10)))
          CFI (cfiCond231) V1 load(1, XDATA, add(CFA_XSP16, literal(-9)))
          CFI (cfiCond231) V2 load(1, XDATA, add(CFA_XSP16, literal(-8)))
          CFI (cfiCond231) V3 load(1, XDATA, add(CFA_XSP16, literal(-7)))
          CFI (cfiCond231) R7 load(1, XDATA, add(CFA_XSP16, literal(-6)))
          CFI (cfiCond231) ?RET_LOW load(1, XDATA, add(CFA_XSP16, literal(-5)))
          CFI (cfiCond231) ?RET_HIGH load(1, XDATA, add(CFA_XSP16, literal(-4)))
          CFI (cfiCond231) ?BRET_EXT load(1, XDATA, add(CFA_XSP16, literal(-3)))
          CFI (cfiCond231) DPL0 load(1, XDATA, add(CFA_XSP16, literal(-2)))
          CFI (cfiCond231) DPH0 load(1, XDATA, add(CFA_XSP16, literal(-1)))
          CFI (cfiCond231) CFA_SP SP+-2
          CFI (cfiCond231) CFA_XSP16 add(XSP16, 12)
          CFI Block cfiCond232 Using cfiCommon0
          CFI (cfiCond232) Function gp_AddCmdPayloadMsgNode
          CFI (cfiCond232) Conditional ??CrossCallReturnLabel_118
          CFI (cfiCond232) R6 load(1, XDATA, add(CFA_XSP16, literal(-14)))
          CFI (cfiCond232) VB load(1, XDATA, add(CFA_XSP16, literal(-13)))
          CFI (cfiCond232) V0 load(1, XDATA, add(CFA_XSP16, literal(-12)))
          CFI (cfiCond232) V1 load(1, XDATA, add(CFA_XSP16, literal(-11)))
          CFI (cfiCond232) V2 load(1, XDATA, add(CFA_XSP16, literal(-10)))
          CFI (cfiCond232) V3 load(1, XDATA, add(CFA_XSP16, literal(-9)))
          CFI (cfiCond232) V4 load(1, XDATA, add(CFA_XSP16, literal(-8)))
          CFI (cfiCond232) V5 load(1, XDATA, add(CFA_XSP16, literal(-7)))
          CFI (cfiCond232) R7 load(1, XDATA, add(CFA_XSP16, literal(-6)))
          CFI (cfiCond232) ?RET_LOW load(1, XDATA, add(CFA_XSP16, literal(-5)))
          CFI (cfiCond232) ?RET_HIGH load(1, XDATA, add(CFA_XSP16, literal(-4)))
          CFI (cfiCond232) ?BRET_EXT load(1, XDATA, add(CFA_XSP16, literal(-3)))
          CFI (cfiCond232) DPL0 load(1, XDATA, add(CFA_XSP16, literal(-2)))
          CFI (cfiCond232) DPH0 load(1, XDATA, add(CFA_XSP16, literal(-1)))
          CFI (cfiCond232) CFA_SP SP+-2
          CFI (cfiCond232) CFA_XSP16 add(XSP16, 14)
          CFI Block cfiCond233 Using cfiCommon0
          CFI (cfiCond233) Function gp_NotificationMsgClean
          CFI (cfiCond233) Conditional ??CrossCallReturnLabel_119
          CFI (cfiCond233) R6 load(1, XDATA, add(CFA_XSP16, literal(-12)))
          CFI (cfiCond233) VB load(1, XDATA, add(CFA_XSP16, literal(-11)))
          CFI (cfiCond233) V0 load(1, XDATA, add(CFA_XSP16, literal(-10)))
          CFI (cfiCond233) V1 load(1, XDATA, add(CFA_XSP16, literal(-9)))
          CFI (cfiCond233) V2 load(1, XDATA, add(CFA_XSP16, literal(-8)))
          CFI (cfiCond233) V3 load(1, XDATA, add(CFA_XSP16, literal(-7)))
          CFI (cfiCond233) R7 load(1, XDATA, add(CFA_XSP16, literal(-6)))
          CFI (cfiCond233) ?RET_LOW load(1, XDATA, add(CFA_XSP16, literal(-5)))
          CFI (cfiCond233) ?RET_HIGH load(1, XDATA, add(CFA_XSP16, literal(-4)))
          CFI (cfiCond233) ?BRET_EXT load(1, XDATA, add(CFA_XSP16, literal(-3)))
          CFI (cfiCond233) DPL0 load(1, XDATA, add(CFA_XSP16, literal(-2)))
          CFI (cfiCond233) DPH0 load(1, XDATA, add(CFA_XSP16, literal(-1)))
          CFI (cfiCond233) CFA_SP SP+-2
          CFI (cfiCond233) CFA_XSP16 add(XSP16, 12)
          CFI Block cfiCond234 Using cfiCommon0
          CFI (cfiCond234) Function zclGp_SendGpProxyTableResponse
          CFI (cfiCond234) Conditional ??CrossCallReturnLabel_120
          CFI (cfiCond234) R6 load(1, XDATA, add(CFA_XSP16, literal(-22)))
          CFI (cfiCond234) VB load(1, XDATA, add(CFA_XSP16, literal(-21)))
          CFI (cfiCond234) V0 load(1, XDATA, add(CFA_XSP16, literal(-20)))
          CFI (cfiCond234) V1 load(1, XDATA, add(CFA_XSP16, literal(-19)))
          CFI (cfiCond234) V2 load(1, XDATA, add(CFA_XSP16, literal(-18)))
          CFI (cfiCond234) V3 load(1, XDATA, add(CFA_XSP16, literal(-17)))
          CFI (cfiCond234) V4 load(1, XDATA, add(CFA_XSP16, literal(-16)))
          CFI (cfiCond234) V5 load(1, XDATA, add(CFA_XSP16, literal(-15)))
          CFI (cfiCond234) V6 load(1, XDATA, add(CFA_XSP16, literal(-14)))
          CFI (cfiCond234) V7 load(1, XDATA, add(CFA_XSP16, literal(-13)))
          CFI (cfiCond234) V8 load(1, XDATA, add(CFA_XSP16, literal(-12)))
          CFI (cfiCond234) V9 load(1, XDATA, add(CFA_XSP16, literal(-11)))
          CFI (cfiCond234) V10 load(1, XDATA, add(CFA_XSP16, literal(-10)))
          CFI (cfiCond234) V11 load(1, XDATA, add(CFA_XSP16, literal(-9)))
          CFI (cfiCond234) V12 load(1, XDATA, add(CFA_XSP16, literal(-8)))
          CFI (cfiCond234) V13 load(1, XDATA, add(CFA_XSP16, literal(-7)))
          CFI (cfiCond234) R7 load(1, XDATA, add(CFA_XSP16, literal(-6)))
          CFI (cfiCond234) ?RET_LOW load(1, XDATA, add(CFA_XSP16, literal(-5)))
          CFI (cfiCond234) ?RET_HIGH load(1, XDATA, add(CFA_XSP16, literal(-4)))
          CFI (cfiCond234) ?BRET_EXT load(1, XDATA, add(CFA_XSP16, literal(-3)))
          CFI (cfiCond234) DPL0 load(1, XDATA, add(CFA_XSP16, literal(-2)))
          CFI (cfiCond234) DPH0 load(1, XDATA, add(CFA_XSP16, literal(-1)))
          CFI (cfiCond234) CFA_SP SP+-2
          CFI (cfiCond234) CFA_XSP16 add(XSP16, 24)
          CFI Block cfiCond235 Using cfiCommon0
          CFI (cfiCond235) Function gp_AddNotificationMsgNode
          CFI (cfiCond235) Conditional ??CrossCallReturnLabel_121
          CFI (cfiCond235) R6 load(1, XDATA, add(CFA_XSP16, literal(-12)))
          CFI (cfiCond235) VB load(1, XDATA, add(CFA_XSP16, literal(-11)))
          CFI (cfiCond235) V0 load(1, XDATA, add(CFA_XSP16, literal(-10)))
          CFI (cfiCond235) V1 load(1, XDATA, add(CFA_XSP16, literal(-9)))
          CFI (cfiCond235) V2 load(1, XDATA, add(CFA_XSP16, literal(-8)))
          CFI (cfiCond235) V3 load(1, XDATA, add(CFA_XSP16, literal(-7)))
          CFI (cfiCond235) R7 load(1, XDATA, add(CFA_XSP16, literal(-6)))
          CFI (cfiCond235) ?RET_LOW load(1, XDATA, add(CFA_XSP16, literal(-5)))
          CFI (cfiCond235) ?RET_HIGH load(1, XDATA, add(CFA_XSP16, literal(-4)))
          CFI (cfiCond235) ?BRET_EXT load(1, XDATA, add(CFA_XSP16, literal(-3)))
          CFI (cfiCond235) DPL0 load(1, XDATA, add(CFA_XSP16, literal(-2)))
          CFI (cfiCond235) DPH0 load(1, XDATA, add(CFA_XSP16, literal(-1)))
          CFI (cfiCond235) CFA_SP SP+-2
          CFI (cfiCond235) CFA_XSP16 add(XSP16, 12)
          CFI Block cfiCond236 Using cfiCommon0
          CFI (cfiCond236) Function gp_AddCmdPayloadMsgNode
          CFI (cfiCond236) Conditional ??CrossCallReturnLabel_122
          CFI (cfiCond236) R6 load(1, XDATA, add(CFA_XSP16, literal(-14)))
          CFI (cfiCond236) VB load(1, XDATA, add(CFA_XSP16, literal(-13)))
          CFI (cfiCond236) V0 load(1, XDATA, add(CFA_XSP16, literal(-12)))
          CFI (cfiCond236) V1 load(1, XDATA, add(CFA_XSP16, literal(-11)))
          CFI (cfiCond236) V2 load(1, XDATA, add(CFA_XSP16, literal(-10)))
          CFI (cfiCond236) V3 load(1, XDATA, add(CFA_XSP16, literal(-9)))
          CFI (cfiCond236) V4 load(1, XDATA, add(CFA_XSP16, literal(-8)))
          CFI (cfiCond236) V5 load(1, XDATA, add(CFA_XSP16, literal(-7)))
          CFI (cfiCond236) R7 load(1, XDATA, add(CFA_XSP16, literal(-6)))
          CFI (cfiCond236) ?RET_LOW load(1, XDATA, add(CFA_XSP16, literal(-5)))
          CFI (cfiCond236) ?RET_HIGH load(1, XDATA, add(CFA_XSP16, literal(-4)))
          CFI (cfiCond236) ?BRET_EXT load(1, XDATA, add(CFA_XSP16, literal(-3)))
          CFI (cfiCond236) DPL0 load(1, XDATA, add(CFA_XSP16, literal(-2)))
          CFI (cfiCond236) DPH0 load(1, XDATA, add(CFA_XSP16, literal(-1)))
          CFI (cfiCond236) CFA_SP SP+-2
          CFI (cfiCond236) CFA_XSP16 add(XSP16, 14)
          CFI Block cfiCond237 Using cfiCommon0
          CFI (cfiCond237) Function gp_CreateNotificationMsgList
          CFI (cfiCond237) Conditional ??CrossCallReturnLabel_108
          CFI (cfiCond237) R6 load(1, XDATA, add(CFA_XSP16, literal(-10)))
          CFI (cfiCond237) VB load(1, XDATA, add(CFA_XSP16, literal(-9)))
          CFI (cfiCond237) V0 load(1, XDATA, add(CFA_XSP16, literal(-8)))
          CFI (cfiCond237) V1 load(1, XDATA, add(CFA_XSP16, literal(-7)))
          CFI (cfiCond237) R7 load(1, XDATA, add(CFA_XSP16, literal(-6)))
          CFI (cfiCond237) ?RET_LOW load(1, XDATA, add(CFA_XSP16, literal(-5)))
          CFI (cfiCond237) ?RET_HIGH load(1, XDATA, add(CFA_XSP16, literal(-4)))
          CFI (cfiCond237) ?BRET_EXT load(1, XDATA, add(CFA_XSP16, literal(-3)))
          CFI (cfiCond237) DPL0 load(1, XDATA, add(CFA_XSP16, literal(-2)))
          CFI (cfiCond237) DPH0 load(1, XDATA, add(CFA_XSP16, literal(-1)))
          CFI (cfiCond237) CFA_SP SP+-2
          CFI (cfiCond237) CFA_XSP16 add(XSP16, 10)
          CFI Block cfiCond238 Using cfiCommon0
          CFI (cfiCond238) Function gp_CreateCmdPayloadMsgList
          CFI (cfiCond238) Conditional ??CrossCallReturnLabel_109
          CFI (cfiCond238) R6 load(1, XDATA, add(CFA_XSP16, literal(-10)))
          CFI (cfiCond238) VB load(1, XDATA, add(CFA_XSP16, literal(-9)))
          CFI (cfiCond238) V0 load(1, XDATA, add(CFA_XSP16, literal(-8)))
          CFI (cfiCond238) V1 load(1, XDATA, add(CFA_XSP16, literal(-7)))
          CFI (cfiCond238) R7 load(1, XDATA, add(CFA_XSP16, literal(-6)))
          CFI (cfiCond238) ?RET_LOW load(1, XDATA, add(CFA_XSP16, literal(-5)))
          CFI (cfiCond238) ?RET_HIGH load(1, XDATA, add(CFA_XSP16, literal(-4)))
          CFI (cfiCond238) ?BRET_EXT load(1, XDATA, add(CFA_XSP16, literal(-3)))
          CFI (cfiCond238) DPL0 load(1, XDATA, add(CFA_XSP16, literal(-2)))
          CFI (cfiCond238) DPH0 load(1, XDATA, add(CFA_XSP16, literal(-1)))
          CFI (cfiCond238) CFA_SP SP+-2
          CFI (cfiCond238) CFA_XSP16 add(XSP16, 10)
          CFI Block cfiCond239 Using cfiCommon0
          CFI (cfiCond239) Function gp_NotificationMsgClean
          CFI (cfiCond239) Conditional ??CrossCallReturnLabel_110
          CFI (cfiCond239) R6 load(1, XDATA, add(CFA_XSP16, literal(-12)))
          CFI (cfiCond239) VB load(1, XDATA, add(CFA_XSP16, literal(-11)))
          CFI (cfiCond239) V0 load(1, XDATA, add(CFA_XSP16, literal(-10)))
          CFI (cfiCond239) V1 load(1, XDATA, add(CFA_XSP16, literal(-9)))
          CFI (cfiCond239) V2 load(1, XDATA, add(CFA_XSP16, literal(-8)))
          CFI (cfiCond239) V3 load(1, XDATA, add(CFA_XSP16, literal(-7)))
          CFI (cfiCond239) R7 load(1, XDATA, add(CFA_XSP16, literal(-6)))
          CFI (cfiCond239) ?RET_LOW load(1, XDATA, add(CFA_XSP16, literal(-5)))
          CFI (cfiCond239) ?RET_HIGH load(1, XDATA, add(CFA_XSP16, literal(-4)))
          CFI (cfiCond239) ?BRET_EXT load(1, XDATA, add(CFA_XSP16, literal(-3)))
          CFI (cfiCond239) DPL0 load(1, XDATA, add(CFA_XSP16, literal(-2)))
          CFI (cfiCond239) DPH0 load(1, XDATA, add(CFA_XSP16, literal(-1)))
          CFI (cfiCond239) CFA_SP SP+-2
          CFI (cfiCond239) CFA_XSP16 add(XSP16, 12)
          CFI Block cfiPicker240 Using cfiCommon1
          CFI (cfiPicker240) NoFunction
          CFI (cfiPicker240) Picker
        MOVX      A,@DPTR
        MOV       R0,A
        INC       DPTR
        MOVX      A,@DPTR
        MOV       R1,A
        MOV       A,R0
        ORL       A,R1
        RET
          CFI EndBlock cfiCond225
          CFI EndBlock cfiCond226
          CFI EndBlock cfiCond227
          CFI EndBlock cfiCond228
          CFI EndBlock cfiCond229
          CFI EndBlock cfiCond230
          CFI EndBlock cfiCond231
          CFI EndBlock cfiCond232
          CFI EndBlock cfiCond233
          CFI EndBlock cfiCond234
          CFI EndBlock cfiCond235
          CFI EndBlock cfiCond236
          CFI EndBlock cfiCond237
          CFI EndBlock cfiCond238
          CFI EndBlock cfiCond239
          CFI EndBlock cfiPicker240
//  899 
//  900 /*********************************************************************
//  901  * @fn      gp_GetHeadNotificationMsg
//  902  *
//  903  * @brief   Returns head pointer for  finding and binding respondent list
//  904  *
//  905  * @param   none
//  906  *
//  907  * @return  pointer to head
//  908  */

        RSEG BANKED_CODE:HUGECODE:NOROOT(0)
//  909 gpNotificationMsg_t* gp_GetHeadNotificationMsg(void)
gp_GetHeadNotificationMsg:
          CFI Block cfiBlock241 Using cfiCommon0
          CFI Function gp_GetHeadNotificationMsg
        CODE
//  910 {
        PUSH      DPL
          CFI DPL0 Frame(CFA_SP, 4)
          CFI CFA_SP SP+-4
        PUSH      DPH
          CFI DPH0 Frame(CFA_SP, 5)
          CFI CFA_SP SP+-5
        ; Saved register size: 2
        ; Auto size: 0
//  911   return ( pNotificationMsgHead );
        MOV       DPTR,#pNotificationMsgHead
          CFI EndBlock cfiBlock241
        REQUIRE ?Subroutine4
        ; // Fall through to label ?Subroutine4
//  912 }

        RSEG BANKED_CODE:HUGECODE:NOROOT(0)
?Subroutine4:
          CFI Block cfiBlock242 Using cfiCommon0
          CFI NoFunction
          CFI CFA_SP SP+-5
          CFI DPL0 Frame(CFA_SP, 4)
          CFI DPH0 Frame(CFA_SP, 5)
        LCALL     ??Subroutine51_0 & 0xFFFF
??CrossCallReturnLabel_131:
        POP       DPH
          CFI CFA_SP SP+-4
          CFI DPH0 SameValue
        POP       DPL
          CFI CFA_SP SP+-3
          CFI DPL0 SameValue
        LJMP      ?BRET
          CFI EndBlock cfiBlock242
//  913 
//  914 /*********************************************************************
//  915  * @fn      gp_GetPHeadNotification
//  916  *
//  917  * @brief   Returns head pointer for  finding and binding respondent list
//  918  *
//  919  * @param   none
//  920  *
//  921  * @return  pointer to head
//  922  */

        RSEG BANKED_CODE:HUGECODE:NOROOT(0)
//  923 gpNotificationMsg_t** gp_GetPHeadNotification(void)
gp_GetPHeadNotification:
          CFI Block cfiBlock243 Using cfiCommon0
          CFI Function gp_GetPHeadNotification
        CODE
//  924 {
        ; Saved register size: 0
        ; Auto size: 0
//  925   return ( &pNotificationMsgHead );
        MOV       R2,#pNotificationMsgHead & 0xff
        MOV       R3,#(pNotificationMsgHead >> 8) & 0xff
        LJMP      ?BRET
//  926 }
          CFI EndBlock cfiBlock243
//  927 
//  928 /*********************************************************************
//  929  * @fn      gp_GetHeadCmdPayloadMsg
//  930  *
//  931  * @brief   Returns head pointer for  finding and binding respondent list
//  932  *
//  933  * @param   none
//  934  *
//  935  * @return  pointer to head
//  936  */

        RSEG BANKED_CODE:HUGECODE:NOROOT(0)
//  937 gpCmdPayloadMsg_t* gp_GetHeadCmdPayloadMsg(void)
gp_GetHeadCmdPayloadMsg:
          CFI Block cfiBlock244 Using cfiCommon0
          CFI Function gp_GetHeadCmdPayloadMsg
        CODE
//  938 {
        PUSH      DPL
          CFI DPL0 Frame(CFA_SP, 4)
          CFI CFA_SP SP+-4
        PUSH      DPH
          CFI DPH0 Frame(CFA_SP, 5)
          CFI CFA_SP SP+-5
        ; Saved register size: 2
        ; Auto size: 0
//  939   return ( pCmdPayloadMsgHead );
        MOV       DPTR,#pCmdPayloadMsgHead
        SJMP      ?Subroutine4
//  940 }
          CFI EndBlock cfiBlock244
//  941 
//  942 /*********************************************************************
//  943  * @fn      gp_GetHeadCmdPayloadMsg
//  944  *
//  945  * @brief   Returns head pointer for  finding and binding respondent list
//  946  *
//  947  * @param   none
//  948  *
//  949  * @return  pointer to head
//  950  */

        RSEG BANKED_CODE:HUGECODE:NOROOT(0)
//  951 gpCmdPayloadMsg_t** gp_GetPHeadCmdPayload(void)
gp_GetPHeadCmdPayload:
          CFI Block cfiBlock245 Using cfiCommon0
          CFI Function gp_GetPHeadCmdPayload
        CODE
//  952 {
        ; Saved register size: 0
        ; Auto size: 0
//  953   return ( &pCmdPayloadMsgHead );
        MOV       R2,#pCmdPayloadMsgHead & 0xff
        MOV       R3,#(pCmdPayloadMsgHead >> 8) & 0xff
        LJMP      ?BRET
//  954 }
          CFI EndBlock cfiBlock245
//  955 
//  956 /*********************************************************************
//  957  * @fn      gp_NotificationMsgClean
//  958  *
//  959  * @brief   This function free reserved memory for respondent list
//  960  *
//  961  * @param   pHead - begin of the Notification Msg list
//  962  *
//  963  * @return  status
//  964  */

        RSEG BANKED_CODE:HUGECODE:NOROOT(0)
//  965 void gp_NotificationMsgClean( gpNotificationMsg_t **pHead )
gp_NotificationMsgClean:
          CFI Block cfiBlock246 Using cfiCommon0
          CFI Function gp_NotificationMsgClean
        CODE
//  966 {
        FUNCALL gp_NotificationMsgClean, gp_CmdPayloadMsgClean
        LOCFRAME ISTACK, 0, STACK
        LOCFRAME PSTACK, 0, STACK
        LOCFRAME XSTACK, 12, STACK
        LOCFRAME IOVERLAY, 0, STATIC
        LOCFRAME DOVERLAY, 0, STATIC
        ARGFRAME ISTACK, 0, STACK
        ARGFRAME PSTACK, 0, STACK
        ARGFRAME XSTACK, 12, STACK
        ARGFRAME IOVERLAY, 0, STATIC
        ARGFRAME DOVERLAY, 0, STATIC
        FUNCALL gp_NotificationMsgClean, osal_mem_free
        LOCFRAME ISTACK, 0, STACK
        LOCFRAME PSTACK, 0, STACK
        LOCFRAME XSTACK, 12, STACK
        LOCFRAME IOVERLAY, 0, STATIC
        LOCFRAME DOVERLAY, 0, STATIC
        ARGFRAME ISTACK, 0, STACK
        ARGFRAME PSTACK, 0, STACK
        ARGFRAME XSTACK, 12, STACK
        ARGFRAME IOVERLAY, 0, STATIC
        ARGFRAME DOVERLAY, 0, STATIC
        REQUIRE ?V0
        REQUIRE ?V1
        REQUIRE ?V2
        REQUIRE ?V3
        MOV       A,#-0xc
        LCALL     ?BANKED_ENTER_XDATA
          CFI DPH0 load(1, XDATA, add(CFA_XSP16, literal(-1)))
          CFI DPL0 load(1, XDATA, add(CFA_XSP16, literal(-2)))
          CFI ?BRET_EXT load(1, XDATA, add(CFA_XSP16, literal(-3)))
          CFI ?RET_HIGH load(1, XDATA, add(CFA_XSP16, literal(-4)))
          CFI ?RET_LOW load(1, XDATA, add(CFA_XSP16, literal(-5)))
          CFI R7 load(1, XDATA, add(CFA_XSP16, literal(-6)))
          CFI V3 load(1, XDATA, add(CFA_XSP16, literal(-7)))
          CFI V2 load(1, XDATA, add(CFA_XSP16, literal(-8)))
          CFI V1 load(1, XDATA, add(CFA_XSP16, literal(-9)))
          CFI V0 load(1, XDATA, add(CFA_XSP16, literal(-10)))
          CFI VB load(1, XDATA, add(CFA_XSP16, literal(-11)))
          CFI R6 load(1, XDATA, add(CFA_XSP16, literal(-12)))
          CFI CFA_SP SP+0
          CFI CFA_XSP16 add(XSP16, 12)
        ; Saved register size: 12
        ; Auto size: 0
        LCALL     ?Subroutine5 & 0xFFFF
//  967   gpNotificationMsg_t **pCurr;
//  968   gpNotificationMsg_t **pNext;
//  969   
//  970   if ( *pHead == NULL )
??CrossCallReturnLabel_110:
        JZ        ??CrossCallReturnLabel_26
//  971   {
//  972     return;
//  973   }
//  974   
//  975   pCurr = pHead;
        MOV       ?V0,R2
        MOV       ?V1,R3
//  976   
//  977   if( *pCurr != NULL )
        MOV       DPL,R2
        MOV       DPH,R3
        LCALL     ??Subroutine51_0 & 0xFFFF
??CrossCallReturnLabel_129:
        MOV       A,R0
        ORL       A,R3
        JZ        ??gp_NotificationMsgClean_0
//  978   {
//  979     pNext = &((*pCurr)->pNext);
        MOV       A,R0
        ADD       A,#0xf
        MOV       ?V2,A
        CLR       A
        ADDC      A,R3
        SJMP      ??gp_NotificationMsgClean_1
//  980     while( *pNext != NULL )
//  981     {
//  982       if ( ( ( gpNotificationMsg_t* ) *pCurr )->pMsg == ( ( gpNotificationMsg_t* ) *pNext )->pMsg )
//  983       {
//  984         break;
//  985       }
//  986       pNext = &((*pNext)->pNext);
??gp_NotificationMsgClean_2:
        MOV       A,R0
        ADD       A,#0xf
        MOV       ?V2,A
        CLR       A
        ADDC      A,R1
??gp_NotificationMsgClean_1:
        MOV       ?V3,A
        MOV       DPL,?V2
        MOV       DPH,?V3
        LCALL     ??Subroutine49_0 & 0xFFFF
??CrossCallReturnLabel_119:
        JZ        ??gp_NotificationMsgClean_3
        LCALL     ?Subroutine31 & 0xFFFF
//  987     }
??CrossCallReturnLabel_43:
        LCALL     ??Subroutine37_0 & 0xFFFF
??CrossCallReturnLabel_56:
        MOV       A,R0
        ADD       A,#0xd
        MOV       DPL,A
        CLR       A
        ADDC      A,R1
        MOV       DPH,A
        MOVX      A,@DPTR
        XRL       A,R4
        JNZ       ??gp_NotificationMsgClean_4
        INC       DPTR
        MOVX      A,@DPTR
        XRL       A,R5
??gp_NotificationMsgClean_4:
        JNZ       ??gp_NotificationMsgClean_2
//  988 
//  989     if( *pNext == NULL )
??gp_NotificationMsgClean_3:
        MOV       A,R0
        ORL       A,R1
        JNZ       ??gp_NotificationMsgClean_5
//  990     {
//  991       gp_CmdPayloadMsgClean( gp_GetPHeadCmdPayload( ) );
        ; Setup parameters for call to function gp_CmdPayloadMsgClean
        MOV       R2,#pCmdPayloadMsgHead & 0xff
        MOV       R3,#(pCmdPayloadMsgHead >> 8) & 0xff
        LCALL     `??gp_CmdPayloadMsgClean::?relay`; Banked call to: gp_CmdPayloadMsgClean
//  992     }
//  993     osal_mem_free( *pCurr );
??gp_NotificationMsgClean_5:
        ; Setup parameters for call to function osal_mem_free
        MOV       DPL,R6
        MOV       DPH,R7
        LCALL     ?Subroutine14 & 0xFFFF
//  994     *pCurr = ( gpNotificationMsg_t* )NULL;
??CrossCallReturnLabel_10:
        CLR       A
        MOVX      @DPTR,A
        INC       DPTR
        MOVX      @DPTR,A
//  995     pCurr = pNext;
        MOV       ?V0,?V2
        MOV       ?V1,?V3
//  996   }
//  997   *pHead = *pCurr;
??gp_NotificationMsgClean_0:
        MOV       DPL,?V0
        MOV       DPH,?V1
        LCALL     ??Subroutine50_0 & 0xFFFF
??CrossCallReturnLabel_127:
        MOV       DPL,R6
        MOV       DPH,R7
        LCALL     ?Subroutine22 & 0xFFFF
//  998 }
??CrossCallReturnLabel_26:
        LJMP      ?Subroutine0 & 0xFFFF
          CFI EndBlock cfiBlock246

        RSEG BANKED_CODE:HUGECODE:NOROOT(0)
?Subroutine31:
          CFI Block cfiCond247 Using cfiCommon0
          CFI Function gp_AddNotificationMsgNode
          CFI Conditional ??CrossCallReturnLabel_42
          CFI R6 load(1, XDATA, add(CFA_XSP16, literal(-12)))
          CFI VB load(1, XDATA, add(CFA_XSP16, literal(-11)))
          CFI V0 load(1, XDATA, add(CFA_XSP16, literal(-10)))
          CFI V1 load(1, XDATA, add(CFA_XSP16, literal(-9)))
          CFI V2 load(1, XDATA, add(CFA_XSP16, literal(-8)))
          CFI V3 load(1, XDATA, add(CFA_XSP16, literal(-7)))
          CFI R7 load(1, XDATA, add(CFA_XSP16, literal(-6)))
          CFI ?RET_LOW load(1, XDATA, add(CFA_XSP16, literal(-5)))
          CFI ?RET_HIGH load(1, XDATA, add(CFA_XSP16, literal(-4)))
          CFI ?BRET_EXT load(1, XDATA, add(CFA_XSP16, literal(-3)))
          CFI DPL0 load(1, XDATA, add(CFA_XSP16, literal(-2)))
          CFI DPH0 load(1, XDATA, add(CFA_XSP16, literal(-1)))
          CFI CFA_SP SP+-2
          CFI CFA_XSP16 add(XSP16, 12)
          CFI Block cfiCond248 Using cfiCommon0
          CFI (cfiCond248) Function gp_NotificationMsgClean
          CFI (cfiCond248) Conditional ??CrossCallReturnLabel_43
          CFI (cfiCond248) R6 load(1, XDATA, add(CFA_XSP16, literal(-12)))
          CFI (cfiCond248) VB load(1, XDATA, add(CFA_XSP16, literal(-11)))
          CFI (cfiCond248) V0 load(1, XDATA, add(CFA_XSP16, literal(-10)))
          CFI (cfiCond248) V1 load(1, XDATA, add(CFA_XSP16, literal(-9)))
          CFI (cfiCond248) V2 load(1, XDATA, add(CFA_XSP16, literal(-8)))
          CFI (cfiCond248) V3 load(1, XDATA, add(CFA_XSP16, literal(-7)))
          CFI (cfiCond248) R7 load(1, XDATA, add(CFA_XSP16, literal(-6)))
          CFI (cfiCond248) ?RET_LOW load(1, XDATA, add(CFA_XSP16, literal(-5)))
          CFI (cfiCond248) ?RET_HIGH load(1, XDATA, add(CFA_XSP16, literal(-4)))
          CFI (cfiCond248) ?BRET_EXT load(1, XDATA, add(CFA_XSP16, literal(-3)))
          CFI (cfiCond248) DPL0 load(1, XDATA, add(CFA_XSP16, literal(-2)))
          CFI (cfiCond248) DPH0 load(1, XDATA, add(CFA_XSP16, literal(-1)))
          CFI (cfiCond248) CFA_SP SP+-2
          CFI (cfiCond248) CFA_XSP16 add(XSP16, 12)
          CFI Block cfiPicker249 Using cfiCommon1
          CFI (cfiPicker249) NoFunction
          CFI (cfiPicker249) Picker
        MOV       A,R2
        ADD       A,#0xd
        MOV       DPL,A
        CLR       A
        ADDC      A,R3
        MOV       DPH,A
        RET
          CFI EndBlock cfiCond247
          CFI EndBlock cfiCond248
          CFI EndBlock cfiPicker249

        RSEG BANKED_CODE:HUGECODE:NOROOT(0)
?Subroutine17:
          CFI Block cfiCond250 Using cfiCommon0
          CFI Function zclGp_SendGpCommissioningNotificationCommand
          CFI Conditional ??CrossCallReturnLabel_123
          CFI R6 load(1, XDATA, add(CFA_XSP16, literal(-20)))
          CFI VB load(1, XDATA, add(CFA_XSP16, literal(-19)))
          CFI V0 load(1, XDATA, add(CFA_XSP16, literal(-18)))
          CFI V1 load(1, XDATA, add(CFA_XSP16, literal(-17)))
          CFI V2 load(1, XDATA, add(CFA_XSP16, literal(-16)))
          CFI V3 load(1, XDATA, add(CFA_XSP16, literal(-15)))
          CFI V4 load(1, XDATA, add(CFA_XSP16, literal(-14)))
          CFI V5 load(1, XDATA, add(CFA_XSP16, literal(-13)))
          CFI V6 load(1, XDATA, add(CFA_XSP16, literal(-12)))
          CFI V7 load(1, XDATA, add(CFA_XSP16, literal(-11)))
          CFI V8 load(1, XDATA, add(CFA_XSP16, literal(-10)))
          CFI V9 load(1, XDATA, add(CFA_XSP16, literal(-9)))
          CFI V10 load(1, XDATA, add(CFA_XSP16, literal(-8)))
          CFI V11 load(1, XDATA, add(CFA_XSP16, literal(-7)))
          CFI R7 load(1, XDATA, add(CFA_XSP16, literal(-6)))
          CFI ?RET_LOW load(1, XDATA, add(CFA_XSP16, literal(-5)))
          CFI ?RET_HIGH load(1, XDATA, add(CFA_XSP16, literal(-4)))
          CFI ?BRET_EXT load(1, XDATA, add(CFA_XSP16, literal(-3)))
          CFI DPL0 load(1, XDATA, add(CFA_XSP16, literal(-2)))
          CFI DPH0 load(1, XDATA, add(CFA_XSP16, literal(-1)))
          CFI CFA_SP SP+-2
          CFI CFA_XSP16 add(XSP16, 32)
          CFI Block cfiCond251 Using cfiCommon0
          CFI (cfiCond251) Function gp_addPairedSinksToMsgQueue
          CFI (cfiCond251) Conditional ??CrossCallReturnLabel_124
          CFI (cfiCond251) R6 load(1, XDATA, add(CFA_XSP16, literal(-18)))
          CFI (cfiCond251) VB load(1, XDATA, add(CFA_XSP16, literal(-17)))
          CFI (cfiCond251) V0 load(1, XDATA, add(CFA_XSP16, literal(-16)))
          CFI (cfiCond251) V1 load(1, XDATA, add(CFA_XSP16, literal(-15)))
          CFI (cfiCond251) V2 load(1, XDATA, add(CFA_XSP16, literal(-14)))
          CFI (cfiCond251) V3 load(1, XDATA, add(CFA_XSP16, literal(-13)))
          CFI (cfiCond251) V4 load(1, XDATA, add(CFA_XSP16, literal(-12)))
          CFI (cfiCond251) V5 load(1, XDATA, add(CFA_XSP16, literal(-11)))
          CFI (cfiCond251) V6 load(1, XDATA, add(CFA_XSP16, literal(-10)))
          CFI (cfiCond251) V7 load(1, XDATA, add(CFA_XSP16, literal(-9)))
          CFI (cfiCond251) V8 load(1, XDATA, add(CFA_XSP16, literal(-8)))
          CFI (cfiCond251) V9 load(1, XDATA, add(CFA_XSP16, literal(-7)))
          CFI (cfiCond251) R7 load(1, XDATA, add(CFA_XSP16, literal(-6)))
          CFI (cfiCond251) ?RET_LOW load(1, XDATA, add(CFA_XSP16, literal(-5)))
          CFI (cfiCond251) ?RET_HIGH load(1, XDATA, add(CFA_XSP16, literal(-4)))
          CFI (cfiCond251) ?BRET_EXT load(1, XDATA, add(CFA_XSP16, literal(-3)))
          CFI (cfiCond251) DPL0 load(1, XDATA, add(CFA_XSP16, literal(-2)))
          CFI (cfiCond251) DPH0 load(1, XDATA, add(CFA_XSP16, literal(-1)))
          CFI (cfiCond251) CFA_SP SP+-2
          CFI (cfiCond251) CFA_XSP16 add(XSP16, 105)
          CFI Block cfiPicker252 Using cfiCommon1
          CFI (cfiPicker252) NoFunction
          CFI (cfiPicker252) Picker
        MOV       A,#-0xe
        MOVX      @DPTR,A
        MOV       DPTR,#_NIB + 33
          CFI EndBlock cfiCond250
          CFI EndBlock cfiCond251
          CFI EndBlock cfiPicker252
        REQUIRE ??Subroutine50_0
        ; // Fall through to label ??Subroutine50_0

        RSEG BANKED_CODE:HUGECODE:NOROOT(0)
??Subroutine50_0:
          CFI Block cfiCond253 Using cfiCommon0
          CFI Function zclGp_HdlIncoming
          CFI Conditional ??CrossCallReturnLabel_125
          CFI R6 load(1, XDATA, add(CFA_XSP16, literal(-9)))
          CFI VB load(1, XDATA, add(CFA_XSP16, literal(-8)))
          CFI V0 load(1, XDATA, add(CFA_XSP16, literal(-7)))
          CFI R7 load(1, XDATA, add(CFA_XSP16, literal(-6)))
          CFI ?RET_LOW load(1, XDATA, add(CFA_XSP16, literal(-5)))
          CFI ?RET_HIGH load(1, XDATA, add(CFA_XSP16, literal(-4)))
          CFI ?BRET_EXT load(1, XDATA, add(CFA_XSP16, literal(-3)))
          CFI DPL0 load(1, XDATA, add(CFA_XSP16, literal(-2)))
          CFI DPH0 load(1, XDATA, add(CFA_XSP16, literal(-1)))
          CFI CFA_SP SP+-2
          CFI CFA_XSP16 add(XSP16, 9)
          CFI Block cfiCond254 Using cfiCommon0
          CFI (cfiCond254) Function zclGp_ProcessInProxyBasic
          CFI (cfiCond254) Conditional ??CrossCallReturnLabel_126
          CFI (cfiCond254) R6 load(1, XDATA, add(CFA_XSP16, literal(-20)))
          CFI (cfiCond254) VB load(1, XDATA, add(CFA_XSP16, literal(-19)))
          CFI (cfiCond254) V0 load(1, XDATA, add(CFA_XSP16, literal(-18)))
          CFI (cfiCond254) V1 load(1, XDATA, add(CFA_XSP16, literal(-17)))
          CFI (cfiCond254) V2 load(1, XDATA, add(CFA_XSP16, literal(-16)))
          CFI (cfiCond254) V3 load(1, XDATA, add(CFA_XSP16, literal(-15)))
          CFI (cfiCond254) V4 load(1, XDATA, add(CFA_XSP16, literal(-14)))
          CFI (cfiCond254) V5 load(1, XDATA, add(CFA_XSP16, literal(-13)))
          CFI (cfiCond254) V6 load(1, XDATA, add(CFA_XSP16, literal(-12)))
          CFI (cfiCond254) V7 load(1, XDATA, add(CFA_XSP16, literal(-11)))
          CFI (cfiCond254) V8 load(1, XDATA, add(CFA_XSP16, literal(-10)))
          CFI (cfiCond254) V9 load(1, XDATA, add(CFA_XSP16, literal(-9)))
          CFI (cfiCond254) V10 load(1, XDATA, add(CFA_XSP16, literal(-8)))
          CFI (cfiCond254) V11 load(1, XDATA, add(CFA_XSP16, literal(-7)))
          CFI (cfiCond254) R7 load(1, XDATA, add(CFA_XSP16, literal(-6)))
          CFI (cfiCond254) ?RET_LOW load(1, XDATA, add(CFA_XSP16, literal(-5)))
          CFI (cfiCond254) ?RET_HIGH load(1, XDATA, add(CFA_XSP16, literal(-4)))
          CFI (cfiCond254) ?BRET_EXT load(1, XDATA, add(CFA_XSP16, literal(-3)))
          CFI (cfiCond254) DPL0 load(1, XDATA, add(CFA_XSP16, literal(-2)))
          CFI (cfiCond254) DPH0 load(1, XDATA, add(CFA_XSP16, literal(-1)))
          CFI (cfiCond254) CFA_SP SP+-2
          CFI (cfiCond254) CFA_XSP16 add(XSP16, 42)
          CFI Block cfiCond255 Using cfiCommon0
          CFI (cfiCond255) Function gp_NotificationMsgClean
          CFI (cfiCond255) Conditional ??CrossCallReturnLabel_127
          CFI (cfiCond255) R6 load(1, XDATA, add(CFA_XSP16, literal(-12)))
          CFI (cfiCond255) VB load(1, XDATA, add(CFA_XSP16, literal(-11)))
          CFI (cfiCond255) V0 load(1, XDATA, add(CFA_XSP16, literal(-10)))
          CFI (cfiCond255) V1 load(1, XDATA, add(CFA_XSP16, literal(-9)))
          CFI (cfiCond255) V2 load(1, XDATA, add(CFA_XSP16, literal(-8)))
          CFI (cfiCond255) V3 load(1, XDATA, add(CFA_XSP16, literal(-7)))
          CFI (cfiCond255) R7 load(1, XDATA, add(CFA_XSP16, literal(-6)))
          CFI (cfiCond255) ?RET_LOW load(1, XDATA, add(CFA_XSP16, literal(-5)))
          CFI (cfiCond255) ?RET_HIGH load(1, XDATA, add(CFA_XSP16, literal(-4)))
          CFI (cfiCond255) ?BRET_EXT load(1, XDATA, add(CFA_XSP16, literal(-3)))
          CFI (cfiCond255) DPL0 load(1, XDATA, add(CFA_XSP16, literal(-2)))
          CFI (cfiCond255) DPH0 load(1, XDATA, add(CFA_XSP16, literal(-1)))
          CFI (cfiCond255) CFA_SP SP+-2
          CFI (cfiCond255) CFA_XSP16 add(XSP16, 12)
          CFI Block cfiCond256 Using cfiCommon0
          CFI (cfiCond256) Function zclGp_SendGpCommissioningNotificationCommand
          CFI (cfiCond256) Conditional ??CrossCallReturnLabel_123
          CFI (cfiCond256) R6 load(1, XDATA, add(CFA_XSP16, literal(-20)))
          CFI (cfiCond256) VB load(1, XDATA, add(CFA_XSP16, literal(-19)))
          CFI (cfiCond256) V0 load(1, XDATA, add(CFA_XSP16, literal(-18)))
          CFI (cfiCond256) V1 load(1, XDATA, add(CFA_XSP16, literal(-17)))
          CFI (cfiCond256) V2 load(1, XDATA, add(CFA_XSP16, literal(-16)))
          CFI (cfiCond256) V3 load(1, XDATA, add(CFA_XSP16, literal(-15)))
          CFI (cfiCond256) V4 load(1, XDATA, add(CFA_XSP16, literal(-14)))
          CFI (cfiCond256) V5 load(1, XDATA, add(CFA_XSP16, literal(-13)))
          CFI (cfiCond256) V6 load(1, XDATA, add(CFA_XSP16, literal(-12)))
          CFI (cfiCond256) V7 load(1, XDATA, add(CFA_XSP16, literal(-11)))
          CFI (cfiCond256) V8 load(1, XDATA, add(CFA_XSP16, literal(-10)))
          CFI (cfiCond256) V9 load(1, XDATA, add(CFA_XSP16, literal(-9)))
          CFI (cfiCond256) V10 load(1, XDATA, add(CFA_XSP16, literal(-8)))
          CFI (cfiCond256) V11 load(1, XDATA, add(CFA_XSP16, literal(-7)))
          CFI (cfiCond256) R7 load(1, XDATA, add(CFA_XSP16, literal(-6)))
          CFI (cfiCond256) ?RET_LOW load(1, XDATA, add(CFA_XSP16, literal(-5)))
          CFI (cfiCond256) ?RET_HIGH load(1, XDATA, add(CFA_XSP16, literal(-4)))
          CFI (cfiCond256) ?BRET_EXT load(1, XDATA, add(CFA_XSP16, literal(-3)))
          CFI (cfiCond256) DPL0 load(1, XDATA, add(CFA_XSP16, literal(-2)))
          CFI (cfiCond256) DPH0 load(1, XDATA, add(CFA_XSP16, literal(-1)))
          CFI (cfiCond256) CFA_SP SP+-2
          CFI (cfiCond256) CFA_XSP16 add(XSP16, 32)
          CFI Block cfiCond257 Using cfiCommon0
          CFI (cfiCond257) Function gp_addPairedSinksToMsgQueue
          CFI (cfiCond257) Conditional ??CrossCallReturnLabel_124
          CFI (cfiCond257) R6 load(1, XDATA, add(CFA_XSP16, literal(-18)))
          CFI (cfiCond257) VB load(1, XDATA, add(CFA_XSP16, literal(-17)))
          CFI (cfiCond257) V0 load(1, XDATA, add(CFA_XSP16, literal(-16)))
          CFI (cfiCond257) V1 load(1, XDATA, add(CFA_XSP16, literal(-15)))
          CFI (cfiCond257) V2 load(1, XDATA, add(CFA_XSP16, literal(-14)))
          CFI (cfiCond257) V3 load(1, XDATA, add(CFA_XSP16, literal(-13)))
          CFI (cfiCond257) V4 load(1, XDATA, add(CFA_XSP16, literal(-12)))
          CFI (cfiCond257) V5 load(1, XDATA, add(CFA_XSP16, literal(-11)))
          CFI (cfiCond257) V6 load(1, XDATA, add(CFA_XSP16, literal(-10)))
          CFI (cfiCond257) V7 load(1, XDATA, add(CFA_XSP16, literal(-9)))
          CFI (cfiCond257) V8 load(1, XDATA, add(CFA_XSP16, literal(-8)))
          CFI (cfiCond257) V9 load(1, XDATA, add(CFA_XSP16, literal(-7)))
          CFI (cfiCond257) R7 load(1, XDATA, add(CFA_XSP16, literal(-6)))
          CFI (cfiCond257) ?RET_LOW load(1, XDATA, add(CFA_XSP16, literal(-5)))
          CFI (cfiCond257) ?RET_HIGH load(1, XDATA, add(CFA_XSP16, literal(-4)))
          CFI (cfiCond257) ?BRET_EXT load(1, XDATA, add(CFA_XSP16, literal(-3)))
          CFI (cfiCond257) DPL0 load(1, XDATA, add(CFA_XSP16, literal(-2)))
          CFI (cfiCond257) DPH0 load(1, XDATA, add(CFA_XSP16, literal(-1)))
          CFI (cfiCond257) CFA_SP SP+-2
          CFI (cfiCond257) CFA_XSP16 add(XSP16, 105)
          CFI Block cfiPicker258 Using cfiCommon1
          CFI (cfiPicker258) NoFunction
          CFI (cfiPicker258) Picker
        MOVX      A,@DPTR
        MOV       R0,A
        INC       DPTR
        MOVX      A,@DPTR
        MOV       R1,A
        RET
          CFI EndBlock cfiCond253
          CFI EndBlock cfiCond254
          CFI EndBlock cfiCond255
          CFI EndBlock cfiCond256
          CFI EndBlock cfiCond257
          CFI EndBlock cfiPicker258
//  999 
// 1000 /*********************************************************************
// 1001  * @fn      gp_NotificationMsgClean
// 1002  *
// 1003  * @brief   This function free reserved memory for respondent list
// 1004  *
// 1005  * @param   pHead - begin of the Notification Msg list
// 1006  *
// 1007  * @return
// 1008  */

        RSEG BANKED_CODE:HUGECODE:NOROOT(0)
// 1009 void gp_CmdPayloadMsgClean( gpCmdPayloadMsg_t **pHead )
gp_CmdPayloadMsgClean:
          CFI Block cfiBlock259 Using cfiCommon0
          CFI Function gp_CmdPayloadMsgClean
        CODE
// 1010 {
        FUNCALL gp_CmdPayloadMsgClean, osal_mem_free
        LOCFRAME ISTACK, 0, STACK
        LOCFRAME PSTACK, 0, STACK
        LOCFRAME XSTACK, 9, STACK
        LOCFRAME IOVERLAY, 0, STATIC
        LOCFRAME DOVERLAY, 0, STATIC
        ARGFRAME ISTACK, 0, STACK
        ARGFRAME PSTACK, 0, STACK
        ARGFRAME XSTACK, 9, STACK
        ARGFRAME IOVERLAY, 0, STATIC
        ARGFRAME DOVERLAY, 0, STATIC
        FUNCALL gp_CmdPayloadMsgClean, osal_mem_free
        LOCFRAME ISTACK, 0, STACK
        LOCFRAME PSTACK, 0, STACK
        LOCFRAME XSTACK, 9, STACK
        LOCFRAME IOVERLAY, 0, STATIC
        LOCFRAME DOVERLAY, 0, STATIC
        ARGFRAME ISTACK, 0, STACK
        ARGFRAME PSTACK, 0, STACK
        ARGFRAME XSTACK, 9, STACK
        ARGFRAME IOVERLAY, 0, STATIC
        ARGFRAME DOVERLAY, 0, STATIC
        MOV       A,#-0x9
        LCALL     ?BANKED_ENTER_XDATA
          CFI DPH0 load(1, XDATA, add(CFA_XSP16, literal(-1)))
          CFI DPL0 load(1, XDATA, add(CFA_XSP16, literal(-2)))
          CFI ?BRET_EXT load(1, XDATA, add(CFA_XSP16, literal(-3)))
          CFI ?RET_HIGH load(1, XDATA, add(CFA_XSP16, literal(-4)))
          CFI ?RET_LOW load(1, XDATA, add(CFA_XSP16, literal(-5)))
          CFI R7 load(1, XDATA, add(CFA_XSP16, literal(-6)))
          CFI V0 load(1, XDATA, add(CFA_XSP16, literal(-7)))
          CFI VB load(1, XDATA, add(CFA_XSP16, literal(-8)))
          CFI R6 load(1, XDATA, add(CFA_XSP16, literal(-9)))
          CFI CFA_SP SP+0
          CFI CFA_XSP16 add(XSP16, 9)
        ; Saved register size: 9
        ; Auto size: 0
        MOV       A,R2
        MOV       R6,A
        MOV       A,R3
        MOV       R7,A
// 1011   gpCmdPayloadMsg_t **pCurr;
// 1012   gpCmdPayloadMsg_t **pNext;
// 1013   
// 1014   if ( *pHead == NULL )
        MOV       DPL,R2
        MOV       DPH,A
        MOVX      A,@DPTR
        MOV       R0,A
        INC       DPTR
        MOVX      A,@DPTR
        MOV       DPL,R0
        MOV       DPH,A
        MOV       A,DPL
        ORL       A,DPH
        JZ        ??gp_CmdPayloadMsgClean_0
// 1015   {
// 1016     return;
// 1017   }
// 1018   
// 1019   pCurr = pHead;
// 1020   
// 1021   if( *pCurr != NULL )
// 1022   {
// 1023     pNext = &((*pCurr)->pNext);
// 1024     osal_mem_free ( ( ( gpCmdPayloadMsg_t* ) *pCurr )->pMsg );
        ; Setup parameters for call to function osal_mem_free
        INC       DPTR
        INC       DPTR
        LCALL     ?Subroutine14 & 0xFFFF
// 1025     ( ( gpCmdPayloadMsg_t* ) *pCurr )->pMsg = NULL;
??CrossCallReturnLabel_11:
        LCALL     ??Subroutine51_0 & 0xFFFF
??CrossCallReturnLabel_130:
        MOV       DPL,R2
        MOV       DPH,A
        INC       DPTR
        INC       DPTR
        CLR       A
        MOVX      @DPTR,A
        INC       DPTR
        MOVX      @DPTR,A
// 1026     osal_mem_free( *pCurr );
        ; Setup parameters for call to function osal_mem_free
        LCALL     `??osal_mem_free::?relay`; Banked call to: osal_mem_free
// 1027     *pCurr = ( gpCmdPayloadMsg_t* )NULL;
        MOV       DPL,R6
        MOV       DPH,R7
        CLR       A
        MOVX      @DPTR,A
        INC       DPTR
        MOVX      @DPTR,A
// 1028     pCurr = pNext;
// 1029   }
// 1030   pHead = pCurr;
// 1031 }
??gp_CmdPayloadMsgClean_0:
        LJMP      ?Subroutine1 & 0xFFFF
          CFI EndBlock cfiBlock259

        RSEG BANKED_CODE:HUGECODE:NOROOT(0)
?Subroutine15:
          CFI Block cfiCond260 Using cfiCommon0
          CFI Function gp_AddNotificationMsgNode
          CFI Conditional ??CrossCallReturnLabel_132
          CFI R6 load(1, XDATA, add(CFA_XSP16, literal(-12)))
          CFI VB load(1, XDATA, add(CFA_XSP16, literal(-11)))
          CFI V0 load(1, XDATA, add(CFA_XSP16, literal(-10)))
          CFI V1 load(1, XDATA, add(CFA_XSP16, literal(-9)))
          CFI V2 load(1, XDATA, add(CFA_XSP16, literal(-8)))
          CFI V3 load(1, XDATA, add(CFA_XSP16, literal(-7)))
          CFI R7 load(1, XDATA, add(CFA_XSP16, literal(-6)))
          CFI ?RET_LOW load(1, XDATA, add(CFA_XSP16, literal(-5)))
          CFI ?RET_HIGH load(1, XDATA, add(CFA_XSP16, literal(-4)))
          CFI ?BRET_EXT load(1, XDATA, add(CFA_XSP16, literal(-3)))
          CFI DPL0 load(1, XDATA, add(CFA_XSP16, literal(-2)))
          CFI DPH0 load(1, XDATA, add(CFA_XSP16, literal(-1)))
          CFI CFA_SP SP+-2
          CFI CFA_XSP16 add(XSP16, 12)
          CFI Block cfiCond261 Using cfiCommon0
          CFI (cfiCond261) Function gp_AddCmdPayloadMsgNode
          CFI (cfiCond261) Conditional ??CrossCallReturnLabel_133
          CFI (cfiCond261) R6 load(1, XDATA, add(CFA_XSP16, literal(-14)))
          CFI (cfiCond261) VB load(1, XDATA, add(CFA_XSP16, literal(-13)))
          CFI (cfiCond261) V0 load(1, XDATA, add(CFA_XSP16, literal(-12)))
          CFI (cfiCond261) V1 load(1, XDATA, add(CFA_XSP16, literal(-11)))
          CFI (cfiCond261) V2 load(1, XDATA, add(CFA_XSP16, literal(-10)))
          CFI (cfiCond261) V3 load(1, XDATA, add(CFA_XSP16, literal(-9)))
          CFI (cfiCond261) V4 load(1, XDATA, add(CFA_XSP16, literal(-8)))
          CFI (cfiCond261) V5 load(1, XDATA, add(CFA_XSP16, literal(-7)))
          CFI (cfiCond261) R7 load(1, XDATA, add(CFA_XSP16, literal(-6)))
          CFI (cfiCond261) ?RET_LOW load(1, XDATA, add(CFA_XSP16, literal(-5)))
          CFI (cfiCond261) ?RET_HIGH load(1, XDATA, add(CFA_XSP16, literal(-4)))
          CFI (cfiCond261) ?BRET_EXT load(1, XDATA, add(CFA_XSP16, literal(-3)))
          CFI (cfiCond261) DPL0 load(1, XDATA, add(CFA_XSP16, literal(-2)))
          CFI (cfiCond261) DPH0 load(1, XDATA, add(CFA_XSP16, literal(-1)))
          CFI (cfiCond261) CFA_SP SP+-2
          CFI (cfiCond261) CFA_XSP16 add(XSP16, 14)
          CFI Block cfiPicker262 Using cfiCommon1
          CFI (cfiPicker262) NoFunction
          CFI (cfiPicker262) Picker
        MOV       DPL,R6
        MOV       DPH,R7
          CFI EndBlock cfiCond260
          CFI EndBlock cfiCond261
          CFI EndBlock cfiPicker262
        REQUIRE ??Subroutine51_0
        ; // Fall through to label ??Subroutine51_0

        RSEG BANKED_CODE:HUGECODE:NOROOT(0)
??Subroutine51_0:
          CFI Block cfiCond263 Using cfiCommon0
          CFI Function zclGp_ProcessInProxyBasic
          CFI Conditional ??CrossCallReturnLabel_128
          CFI R6 load(1, XDATA, add(CFA_XSP16, literal(-20)))
          CFI VB load(1, XDATA, add(CFA_XSP16, literal(-19)))
          CFI V0 load(1, XDATA, add(CFA_XSP16, literal(-18)))
          CFI V1 load(1, XDATA, add(CFA_XSP16, literal(-17)))
          CFI V2 load(1, XDATA, add(CFA_XSP16, literal(-16)))
          CFI V3 load(1, XDATA, add(CFA_XSP16, literal(-15)))
          CFI V4 load(1, XDATA, add(CFA_XSP16, literal(-14)))
          CFI V5 load(1, XDATA, add(CFA_XSP16, literal(-13)))
          CFI V6 load(1, XDATA, add(CFA_XSP16, literal(-12)))
          CFI V7 load(1, XDATA, add(CFA_XSP16, literal(-11)))
          CFI V8 load(1, XDATA, add(CFA_XSP16, literal(-10)))
          CFI V9 load(1, XDATA, add(CFA_XSP16, literal(-9)))
          CFI V10 load(1, XDATA, add(CFA_XSP16, literal(-8)))
          CFI V11 load(1, XDATA, add(CFA_XSP16, literal(-7)))
          CFI R7 load(1, XDATA, add(CFA_XSP16, literal(-6)))
          CFI ?RET_LOW load(1, XDATA, add(CFA_XSP16, literal(-5)))
          CFI ?RET_HIGH load(1, XDATA, add(CFA_XSP16, literal(-4)))
          CFI ?BRET_EXT load(1, XDATA, add(CFA_XSP16, literal(-3)))
          CFI DPL0 load(1, XDATA, add(CFA_XSP16, literal(-2)))
          CFI DPH0 load(1, XDATA, add(CFA_XSP16, literal(-1)))
          CFI CFA_SP SP+-2
          CFI CFA_XSP16 add(XSP16, 42)
          CFI Block cfiCond264 Using cfiCommon0
          CFI (cfiCond264) Function gp_GetHeadNotificationMsg
          CFI (cfiCond264) Conditional ??CrossCallReturnLabel_131
          CFI (cfiCond264) DPL0 Frame(CFA_SP, 4)
          CFI (cfiCond264) DPH0 Frame(CFA_SP, 5)
          CFI (cfiCond264) CFA_SP SP+-7
          CFI Block cfiCond265 Using cfiCommon0
          CFI (cfiCond265) Function gp_GetHeadCmdPayloadMsg
          CFI (cfiCond265) Conditional ??CrossCallReturnLabel_131
          CFI (cfiCond265) DPL0 Frame(CFA_SP, 4)
          CFI (cfiCond265) DPH0 Frame(CFA_SP, 5)
          CFI (cfiCond265) CFA_SP SP+-7
          CFI Block cfiCond266 Using cfiCommon0
          CFI (cfiCond266) Function gp_NotificationMsgClean
          CFI (cfiCond266) Conditional ??CrossCallReturnLabel_129
          CFI (cfiCond266) R6 load(1, XDATA, add(CFA_XSP16, literal(-12)))
          CFI (cfiCond266) VB load(1, XDATA, add(CFA_XSP16, literal(-11)))
          CFI (cfiCond266) V0 load(1, XDATA, add(CFA_XSP16, literal(-10)))
          CFI (cfiCond266) V1 load(1, XDATA, add(CFA_XSP16, literal(-9)))
          CFI (cfiCond266) V2 load(1, XDATA, add(CFA_XSP16, literal(-8)))
          CFI (cfiCond266) V3 load(1, XDATA, add(CFA_XSP16, literal(-7)))
          CFI (cfiCond266) R7 load(1, XDATA, add(CFA_XSP16, literal(-6)))
          CFI (cfiCond266) ?RET_LOW load(1, XDATA, add(CFA_XSP16, literal(-5)))
          CFI (cfiCond266) ?RET_HIGH load(1, XDATA, add(CFA_XSP16, literal(-4)))
          CFI (cfiCond266) ?BRET_EXT load(1, XDATA, add(CFA_XSP16, literal(-3)))
          CFI (cfiCond266) DPL0 load(1, XDATA, add(CFA_XSP16, literal(-2)))
          CFI (cfiCond266) DPH0 load(1, XDATA, add(CFA_XSP16, literal(-1)))
          CFI (cfiCond266) CFA_SP SP+-2
          CFI (cfiCond266) CFA_XSP16 add(XSP16, 12)
          CFI Block cfiCond267 Using cfiCommon0
          CFI (cfiCond267) Function gp_CmdPayloadMsgClean
          CFI (cfiCond267) Conditional ??CrossCallReturnLabel_130
          CFI (cfiCond267) R6 load(1, XDATA, add(CFA_XSP16, literal(-9)))
          CFI (cfiCond267) VB load(1, XDATA, add(CFA_XSP16, literal(-8)))
          CFI (cfiCond267) V0 load(1, XDATA, add(CFA_XSP16, literal(-7)))
          CFI (cfiCond267) R7 load(1, XDATA, add(CFA_XSP16, literal(-6)))
          CFI (cfiCond267) ?RET_LOW load(1, XDATA, add(CFA_XSP16, literal(-5)))
          CFI (cfiCond267) ?RET_HIGH load(1, XDATA, add(CFA_XSP16, literal(-4)))
          CFI (cfiCond267) ?BRET_EXT load(1, XDATA, add(CFA_XSP16, literal(-3)))
          CFI (cfiCond267) DPL0 load(1, XDATA, add(CFA_XSP16, literal(-2)))
          CFI (cfiCond267) DPH0 load(1, XDATA, add(CFA_XSP16, literal(-1)))
          CFI (cfiCond267) CFA_SP SP+-2
          CFI (cfiCond267) CFA_XSP16 add(XSP16, 9)
          CFI Block cfiCond268 Using cfiCommon0
          CFI (cfiCond268) Function gp_AddNotificationMsgNode
          CFI (cfiCond268) Conditional ??CrossCallReturnLabel_132
          CFI (cfiCond268) R6 load(1, XDATA, add(CFA_XSP16, literal(-12)))
          CFI (cfiCond268) VB load(1, XDATA, add(CFA_XSP16, literal(-11)))
          CFI (cfiCond268) V0 load(1, XDATA, add(CFA_XSP16, literal(-10)))
          CFI (cfiCond268) V1 load(1, XDATA, add(CFA_XSP16, literal(-9)))
          CFI (cfiCond268) V2 load(1, XDATA, add(CFA_XSP16, literal(-8)))
          CFI (cfiCond268) V3 load(1, XDATA, add(CFA_XSP16, literal(-7)))
          CFI (cfiCond268) R7 load(1, XDATA, add(CFA_XSP16, literal(-6)))
          CFI (cfiCond268) ?RET_LOW load(1, XDATA, add(CFA_XSP16, literal(-5)))
          CFI (cfiCond268) ?RET_HIGH load(1, XDATA, add(CFA_XSP16, literal(-4)))
          CFI (cfiCond268) ?BRET_EXT load(1, XDATA, add(CFA_XSP16, literal(-3)))
          CFI (cfiCond268) DPL0 load(1, XDATA, add(CFA_XSP16, literal(-2)))
          CFI (cfiCond268) DPH0 load(1, XDATA, add(CFA_XSP16, literal(-1)))
          CFI (cfiCond268) CFA_SP SP+-2
          CFI (cfiCond268) CFA_XSP16 add(XSP16, 12)
          CFI Block cfiCond269 Using cfiCommon0
          CFI (cfiCond269) Function gp_AddCmdPayloadMsgNode
          CFI (cfiCond269) Conditional ??CrossCallReturnLabel_133
          CFI (cfiCond269) R6 load(1, XDATA, add(CFA_XSP16, literal(-14)))
          CFI (cfiCond269) VB load(1, XDATA, add(CFA_XSP16, literal(-13)))
          CFI (cfiCond269) V0 load(1, XDATA, add(CFA_XSP16, literal(-12)))
          CFI (cfiCond269) V1 load(1, XDATA, add(CFA_XSP16, literal(-11)))
          CFI (cfiCond269) V2 load(1, XDATA, add(CFA_XSP16, literal(-10)))
          CFI (cfiCond269) V3 load(1, XDATA, add(CFA_XSP16, literal(-9)))
          CFI (cfiCond269) V4 load(1, XDATA, add(CFA_XSP16, literal(-8)))
          CFI (cfiCond269) V5 load(1, XDATA, add(CFA_XSP16, literal(-7)))
          CFI (cfiCond269) R7 load(1, XDATA, add(CFA_XSP16, literal(-6)))
          CFI (cfiCond269) ?RET_LOW load(1, XDATA, add(CFA_XSP16, literal(-5)))
          CFI (cfiCond269) ?RET_HIGH load(1, XDATA, add(CFA_XSP16, literal(-4)))
          CFI (cfiCond269) ?BRET_EXT load(1, XDATA, add(CFA_XSP16, literal(-3)))
          CFI (cfiCond269) DPL0 load(1, XDATA, add(CFA_XSP16, literal(-2)))
          CFI (cfiCond269) DPH0 load(1, XDATA, add(CFA_XSP16, literal(-1)))
          CFI (cfiCond269) CFA_SP SP+-2
          CFI (cfiCond269) CFA_XSP16 add(XSP16, 14)
          CFI Block cfiPicker270 Using cfiCommon1
          CFI (cfiPicker270) NoFunction
          CFI (cfiPicker270) Picker
        MOVX      A,@DPTR
        MOV       R2,A
        INC       DPTR
        MOVX      A,@DPTR
        MOV       R3,A
        RET
          CFI EndBlock cfiCond263
          CFI EndBlock cfiCond264
          CFI EndBlock cfiCond265
          CFI EndBlock cfiCond266
          CFI EndBlock cfiCond267
          CFI EndBlock cfiCond268
          CFI EndBlock cfiCond269
          CFI EndBlock cfiPicker270

        RSEG BANKED_CODE:HUGECODE:NOROOT(0)
?Subroutine14:
          CFI Block cfiCond271 Using cfiCommon0
          CFI Function gp_NotificationMsgClean
          CFI Conditional ??CrossCallReturnLabel_10
          CFI R6 load(1, XDATA, add(CFA_XSP16, literal(-12)))
          CFI VB load(1, XDATA, add(CFA_XSP16, literal(-11)))
          CFI V0 load(1, XDATA, add(CFA_XSP16, literal(-10)))
          CFI V1 load(1, XDATA, add(CFA_XSP16, literal(-9)))
          CFI V2 load(1, XDATA, add(CFA_XSP16, literal(-8)))
          CFI V3 load(1, XDATA, add(CFA_XSP16, literal(-7)))
          CFI R7 load(1, XDATA, add(CFA_XSP16, literal(-6)))
          CFI ?RET_LOW load(1, XDATA, add(CFA_XSP16, literal(-5)))
          CFI ?RET_HIGH load(1, XDATA, add(CFA_XSP16, literal(-4)))
          CFI ?BRET_EXT load(1, XDATA, add(CFA_XSP16, literal(-3)))
          CFI DPL0 load(1, XDATA, add(CFA_XSP16, literal(-2)))
          CFI DPH0 load(1, XDATA, add(CFA_XSP16, literal(-1)))
          CFI CFA_SP SP+-2
          CFI CFA_XSP16 add(XSP16, 12)
          CFI Block cfiCond272 Using cfiCommon0
          CFI (cfiCond272) Function gp_CmdPayloadMsgClean
          CFI (cfiCond272) Conditional ??CrossCallReturnLabel_11
          CFI (cfiCond272) R6 load(1, XDATA, add(CFA_XSP16, literal(-9)))
          CFI (cfiCond272) VB load(1, XDATA, add(CFA_XSP16, literal(-8)))
          CFI (cfiCond272) V0 load(1, XDATA, add(CFA_XSP16, literal(-7)))
          CFI (cfiCond272) R7 load(1, XDATA, add(CFA_XSP16, literal(-6)))
          CFI (cfiCond272) ?RET_LOW load(1, XDATA, add(CFA_XSP16, literal(-5)))
          CFI (cfiCond272) ?RET_HIGH load(1, XDATA, add(CFA_XSP16, literal(-4)))
          CFI (cfiCond272) ?BRET_EXT load(1, XDATA, add(CFA_XSP16, literal(-3)))
          CFI (cfiCond272) DPL0 load(1, XDATA, add(CFA_XSP16, literal(-2)))
          CFI (cfiCond272) DPH0 load(1, XDATA, add(CFA_XSP16, literal(-1)))
          CFI (cfiCond272) CFA_SP SP+-2
          CFI (cfiCond272) CFA_XSP16 add(XSP16, 9)
          CFI Block cfiPicker273 Using cfiCommon1
          CFI (cfiPicker273) NoFunction
          CFI (cfiPicker273) Picker
        MOVX      A,@DPTR
        MOV       R2,A
        INC       DPTR
        MOVX      A,@DPTR
        MOV       R3,A
        LCALL     `??osal_mem_free::?relay`; Banked call to: osal_mem_free
        MOV       DPL,R6
        MOV       DPH,R7
        RET
          CFI EndBlock cfiCond271
          CFI EndBlock cfiCond272
          CFI EndBlock cfiPicker273
// 1032 
// 1033 /*********************************************************************
// 1034  * @fn      gp_ResetProxyBasicTblEntry
// 1035  *
// 1036  * @brief   This function removes data of the given entry
// 1037  *
// 1038  * @param   pHead - begin of the Notification Msg list
// 1039  *
// 1040  * @return
// 1041  */

        RSEG BANKED_CODE:HUGECODE:NOROOT(0)
// 1042 void gp_ResetProxyBasicTblEntry( uint8* entry )
gp_ResetProxyBasicTblEntry:
          CFI Block cfiBlock274 Using cfiCommon0
          CFI Function gp_ResetProxyBasicTblEntry
        CODE
// 1043 {
        FUNCALL gp_ResetProxyBasicTblEntry, osal_memset
        LOCFRAME ISTACK, 0, STACK
        LOCFRAME PSTACK, 0, STACK
        LOCFRAME XSTACK, 9, STACK
        LOCFRAME IOVERLAY, 0, STATIC
        LOCFRAME DOVERLAY, 0, STATIC
        ARGFRAME ISTACK, 0, STACK
        ARGFRAME PSTACK, 0, STACK
        ARGFRAME XSTACK, 9, STACK
        ARGFRAME IOVERLAY, 0, STATIC
        ARGFRAME DOVERLAY, 0, STATIC
        FUNCALL gp_ResetProxyBasicTblEntry, osal_memset
        LOCFRAME ISTACK, 0, STACK
        LOCFRAME PSTACK, 0, STACK
        LOCFRAME XSTACK, 9, STACK
        LOCFRAME IOVERLAY, 0, STATIC
        LOCFRAME DOVERLAY, 0, STATIC
        ARGFRAME ISTACK, 0, STACK
        ARGFRAME PSTACK, 0, STACK
        ARGFRAME XSTACK, 9, STACK
        ARGFRAME IOVERLAY, 0, STATIC
        ARGFRAME DOVERLAY, 0, STATIC
        MOV       A,#-0x9
        LCALL     ?BANKED_ENTER_XDATA
          CFI DPH0 load(1, XDATA, add(CFA_XSP16, literal(-1)))
          CFI DPL0 load(1, XDATA, add(CFA_XSP16, literal(-2)))
          CFI ?BRET_EXT load(1, XDATA, add(CFA_XSP16, literal(-3)))
          CFI ?RET_HIGH load(1, XDATA, add(CFA_XSP16, literal(-4)))
          CFI ?RET_LOW load(1, XDATA, add(CFA_XSP16, literal(-5)))
          CFI R7 load(1, XDATA, add(CFA_XSP16, literal(-6)))
          CFI V0 load(1, XDATA, add(CFA_XSP16, literal(-7)))
          CFI VB load(1, XDATA, add(CFA_XSP16, literal(-8)))
          CFI R6 load(1, XDATA, add(CFA_XSP16, literal(-9)))
          CFI CFA_SP SP+0
          CFI CFA_XSP16 add(XSP16, 9)
        ; Saved register size: 9
        ; Auto size: 0
        MOV       A,R2
        MOV       R6,A
        MOV       A,R3
        MOV       R7,A
// 1044   osal_memset(entry, 0xFF, PROXY_TBL_ENTRY_1ST_LSINK_ADDR);
        ; Setup parameters for call to function osal_memset
        MOV       R4,#0x22
        MOV       R5,#0x0
        MOV       R1,#-0x1
        LCALL     `??osal_memset::?relay`; Banked call to: osal_memset
// 1045   osal_memset(&entry[PROXY_TBL_ENTRY_1ST_LSINK_ADDR],0x00,PROXY_TBL_ENTRY_LEN - PROXY_TBL_ENTRY_1ST_LSINK_ADDR);
        ; Setup parameters for call to function osal_memset
        MOV       R4,#0x1f
        MOV       R5,#0x0
        MOV       R1,#0x0
        MOV       A,R6
        ADD       A,#0x22
        MOV       R2,A
        CLR       A
        ADDC      A,R7
        MOV       R3,A
        LCALL     `??osal_memset::?relay`; Banked call to: osal_memset
// 1046   entry[PROXY_TBL_ENTRY_GPD_EP] = 0;
        MOV       DPL,R6
        MOV       DPH,R7
        INC       DPTR
        INC       DPTR
        INC       DPTR
        INC       DPTR
        INC       DPTR
        INC       DPTR
        INC       DPTR
        INC       DPTR
        INC       DPTR
        INC       DPTR
        CLR       A
        MOVX      @DPTR,A
// 1047 }
        LJMP      ?Subroutine1 & 0xFFFF
          CFI EndBlock cfiBlock274

        RSEG BANK_RELAYS:CODE:REORDER:NOROOT(0)
`??zclGp_RegisterCmdCallbacks::?relay`:
        CODE
        LCALL   ?BDISPATCH
        DATA24
        DC24    zclGp_RegisterCmdCallbacks

        RSEG BANK_RELAYS:CODE:REORDER:NOROOT(0)
`??zclGp_HdlIncoming::?relay`:
        CODE
        LCALL   ?BDISPATCH
        DATA24
        DC24    zclGp_HdlIncoming

        RSEG BANK_RELAYS:CODE:REORDER:NOROOT(0)
`??zclGp_ProcessInProxyBasic::?relay`:
        CODE
        LCALL   ?BDISPATCH
        DATA24
        DC24    zclGp_ProcessInProxyBasic

        RSEG BANK_RELAYS:CODE:REORDER:NOROOT(0)
`??zclGp_SendGpNotificationCommand::?relay`:
        CODE
        LCALL   ?BDISPATCH
        DATA24
        DC24    zclGp_SendGpNotificationCommand

        RSEG BANK_RELAYS:CODE:REORDER:NOROOT(0)
`??zclGp_SendGpCommissioningNotificationCommand:`:
        CODE
        LCALL   ?BDISPATCH
        DATA24
        DC24    zclGp_SendGpCommissioningNotificationCommand

        RSEG BANK_RELAYS:CODE:REORDER:NOROOT(0)
`??zclGp_SendGpProxyTableResponse::?relay`:
        CODE
        LCALL   ?BDISPATCH
        DATA24
        DC24    zclGp_SendGpProxyTableResponse

        RSEG BANK_RELAYS:CODE:REORDER:NOROOT(0)
`??gp_addPairedSinksToMsgQueue::?relay`:
        CODE
        LCALL   ?BDISPATCH
        DATA24
        DC24    gp_addPairedSinksToMsgQueue

        RSEG BANK_RELAYS:CODE:REORDER:NOROOT(0)
`??gp_CreateNotificationMsgList::?relay`:
        CODE
        LCALL   ?BDISPATCH
        DATA24
        DC24    gp_CreateNotificationMsgList

        RSEG BANK_RELAYS:CODE:REORDER:NOROOT(0)
`??gp_CreateCmdPayloadMsgList::?relay`:
        CODE
        LCALL   ?BDISPATCH
        DATA24
        DC24    gp_CreateCmdPayloadMsgList

        RSEG BANK_RELAYS:CODE:REORDER:NOROOT(0)
`??gp_AddNotificationMsgNode::?relay`:
        CODE
        LCALL   ?BDISPATCH
        DATA24
        DC24    gp_AddNotificationMsgNode

        RSEG BANK_RELAYS:CODE:REORDER:NOROOT(0)
`??gp_AddCmdPayloadMsgNode::?relay`:
        CODE
        LCALL   ?BDISPATCH
        DATA24
        DC24    gp_AddCmdPayloadMsgNode

        RSEG BANK_RELAYS:CODE:REORDER:NOROOT(0)
`??gp_GetHeadNotificationMsg::?relay`:
        CODE
        LCALL   ?BDISPATCH
        DATA24
        DC24    gp_GetHeadNotificationMsg

        RSEG BANK_RELAYS:CODE:REORDER:NOROOT(0)
`??gp_GetPHeadNotification::?relay`:
        CODE
        LCALL   ?BDISPATCH
        DATA24
        DC24    gp_GetPHeadNotification

        RSEG BANK_RELAYS:CODE:REORDER:NOROOT(0)
`??gp_GetHeadCmdPayloadMsg::?relay`:
        CODE
        LCALL   ?BDISPATCH
        DATA24
        DC24    gp_GetHeadCmdPayloadMsg

        RSEG BANK_RELAYS:CODE:REORDER:NOROOT(0)
`??gp_GetPHeadCmdPayload::?relay`:
        CODE
        LCALL   ?BDISPATCH
        DATA24
        DC24    gp_GetPHeadCmdPayload

        RSEG BANK_RELAYS:CODE:REORDER:NOROOT(0)
`??gp_NotificationMsgClean::?relay`:
        CODE
        LCALL   ?BDISPATCH
        DATA24
        DC24    gp_NotificationMsgClean

        RSEG BANK_RELAYS:CODE:REORDER:NOROOT(0)
`??gp_CmdPayloadMsgClean::?relay`:
        CODE
        LCALL   ?BDISPATCH
        DATA24
        DC24    gp_CmdPayloadMsgClean

        RSEG BANK_RELAYS:CODE:REORDER:NOROOT(0)
`??gp_ResetProxyBasicTblEntry::?relay`:
        CODE
        LCALL   ?BDISPATCH
        DATA24
        DC24    gp_ResetProxyBasicTblEntry

        RSEG XDATA_ROM_C:CONST:REORDER:NOROOT(0)
        DATA8
`?<Constant {255, 255, 255, 255, 255, 255, 255,`:
        DB 255
        DB 255
        DB 255
        DB 255
        DB 255
        DB 255
        DB 255
        DB 255
        DB 255
        DB 255

        RSEG XDATA_ROM_C:CONST:REORDER:NOROOT(0)
        DATA32
__Constant_32:
        DD 50

        END
// 1048 
// 1049 #endif
// 1050 /***************************************************************************
// 1051 ****************************************************************************/
// 
// 3 633 bytes in segment BANKED_CODE
//   108 bytes in segment BANK_RELAYS
//    26 bytes in segment XDATA_ROM_C
//     7 bytes in segment XDATA_Z
// 
//   108 bytes of CODE     memory
//    22 bytes of CONST    memory (+ 4 bytes shared)
// 3 633 bytes of HUGECODE memory
//     7 bytes of XDATA    memory
//
//Errors: none
//Warnings: none
