###############################################################################
#
# IAR C/C++ Compiler V10.30.1.6000 for 8051               18/Apr/2021  01:42:08
# Copyright 2004-2018 IAR Systems AB.
# Evaluation license - IAR Embedded Workbench for 8051, Evaluation edition 10.30
#
#    Core               =  plain
#    Code model         =  banked
#    Data model         =  large
#    Calling convention =  xdata reentrant
#    Constant location  =  data_rom
#    Dptr setup         =  1,16
#                          
#    Source file        =  
#        C:\Texas Instruments\Z-Stack 3.0.2-20210417T211827Z-001\Z-Stack
#        3.0.2\Components\stack\zdo\ZDSecMgr.c
#    Command line       =  
#        -f C:\users\slavko\Temp\EW18bb.tmp ("C:\Texas Instruments\Z-Stack
#        3.0.2-20210417T211827Z-001\Z-Stack
#        3.0.2\Components\stack\zdo\ZDSecMgr.c" -D SECURE=1 -D TC_LINKKEY_JOIN
#        -D NV_INIT -D NV_RESTORE -D xZTOOL_P1 -D xMT_TASK -D xMT_APP_FUNC -D
#        xMT_SYS_FUNC -D xMT_ZDO_FUNC -D xMT_ZDO_MGMT -D xMT_APP_CNF_FUNC -D
#        LEGACY_LCD_DEBUG -D LCD_SUPPORTED=DEBUG -D MULTICAST_ENABLED=FALSE -D
#        ZCL_READ -D ZCL_WRITE -D ZCL_BASIC -D ZCL_IDENTIFY -D ZCL_SCENES -D
#        ZCL_GROUPS -lC "C:\Texas Instruments\Z-Stack
#        3.0.2-20210417T211827Z-001\Z-Stack
#        3.0.2\Projects\zstack\HomeAutomation\GenericApp\CC2530DB\CoordinatorEB\List"
#        -lA "C:\Texas Instruments\Z-Stack 3.0.2-20210417T211827Z-001\Z-Stack
#        3.0.2\Projects\zstack\HomeAutomation\GenericApp\CC2530DB\CoordinatorEB\List"
#        --diag_suppress Pe001,Pa010 -o "C:\Texas Instruments\Z-Stack
#        3.0.2-20210417T211827Z-001\Z-Stack
#        3.0.2\Projects\zstack\HomeAutomation\GenericApp\CC2530DB\CoordinatorEB\Obj"
#        -e --debug --core=plain --dptr=16,1 --data_model=large
#        --code_model=banked --calling_convention=xdata_reentrant
#        --place_constants=data_rom --nr_virtual_regs 16 -f "C:\Texas
#        Instruments\Z-Stack 3.0.2-20210417T211827Z-001\Z-Stack
#        3.0.2\Projects\zstack\HomeAutomation\GenericApp\CC2530DB\..\..\..\Tools\CC2530DB\f8wCoord.cfg"
#        (-DCPU32MHZ -DROOT=__near_func -DMAC_CFG_APP_PENDING_QUEUE=TRUE
#        -DMAC_CFG_TX_DATA_MAX=5 -DMAC_CFG_TX_MAX=8 -DMAC_CFG_RX_MAX=5
#        -DZDO_COORDINATOR -DRTR_NWK) -f "C:\Texas Instruments\Z-Stack
#        3.0.2-20210417T211827Z-001\Z-Stack
#        3.0.2\Projects\zstack\HomeAutomation\GenericApp\CC2530DB\..\..\..\Tools\CC2530DB\f8wConfig.cfg"
#        (-DZIGBEEPRO -DSECURE=1 -DZG_SECURE_DYNAMIC=0 -DREFLECTOR
#        -DDEFAULT_CHANLIST=0x00000800 -DZDAPP_CONFIG_PAN_ID=0xFFFF
#        -DNWK_START_DELAY=100 -DEXTENDED_JOINING_RANDOM_MASK=0x007F
#        -DBEACON_REQUEST_DELAY=100 -DBEACON_REQ_DELAY_MASK=0x00FF
#        -DLINK_STATUS_JITTER_MASK=0x007F -DROUTE_EXPIRY_TIME=30
#        -DAPSC_ACK_WAIT_DURATION_POLLED=3000 -DNWK_INDIRECT_MSG_TIMEOUT=7
#        -DMAX_RREQ_ENTRIES=8 -DAPSC_MAX_FRAME_RETRIES=3
#        -DNWK_MAX_DATA_RETRIES=2 -DMAX_POLL_FAILURE_RETRIES=2 -DMAX_BCAST=9
#        -DAPS_MAX_GROUPS=16 -DMAX_RTG_ENTRIES=40 -DNWK_MAX_BINDING_ENTRIES=4
#        -DMAX_BINDING_CLUSTER_IDS=4 -DDEFAULT_KEY={0} -DMAC_MAX_FRAME_SIZE=116
#        -DZDNWKMGR_MIN_TRANSMISSIONS=20 "-DCONST=const __code"
#        -DGENERIC=__generic -DRFD_RCVC_ALWAYS_ON=FALSE -DPOLL_RATE=1000
#        -DQUEUED_POLL_RATE=100 -DRESPONSE_POLL_RATE=100 -DREJOIN_POLL_RATE=440
#        -DREJOIN_BACKOFF=900000 -DREJOIN_SCAN=900000 -DENABLE_LED4_DISABLE_S1)
#        -f "C:\Texas Instruments\Z-Stack 3.0.2-20210417T211827Z-001\Z-Stack
#        3.0.2\Projects\zstack\HomeAutomation\GenericApp\CC2530DB\..\..\..\Tools\CC2530DB\f8wZCL.cfg"
#        -I "C:\Texas Instruments\Z-Stack 3.0.2-20210417T211827Z-001\Z-Stack
#        3.0.2\Projects\zstack\HomeAutomation\GenericApp\CC2530DB\" -I
#        "C:\Texas Instruments\Z-Stack 3.0.2-20210417T211827Z-001\Z-Stack
#        3.0.2\Projects\zstack\HomeAutomation\GenericApp\CC2530DB\..\Source\"
#        -I "C:\Texas Instruments\Z-Stack 3.0.2-20210417T211827Z-001\Z-Stack
#        3.0.2\Projects\zstack\HomeAutomation\GenericApp\CC2530DB\..\..\Source\"
#        -I "C:\Texas Instruments\Z-Stack 3.0.2-20210417T211827Z-001\Z-Stack
#        3.0.2\Projects\zstack\HomeAutomation\GenericApp\CC2530DB\..\..\..\ZMain\TI2530DB\"
#        -I "C:\Texas Instruments\Z-Stack 3.0.2-20210417T211827Z-001\Z-Stack
#        3.0.2\Projects\zstack\HomeAutomation\GenericApp\CC2530DB\..\..\..\..\..\Components\hal\include\"
#        -I "C:\Texas Instruments\Z-Stack 3.0.2-20210417T211827Z-001\Z-Stack
#        3.0.2\Projects\zstack\HomeAutomation\GenericApp\CC2530DB\..\..\..\..\..\Components\hal\target\CC2530EB\"
#        -I "C:\Texas Instruments\Z-Stack 3.0.2-20210417T211827Z-001\Z-Stack
#        3.0.2\Projects\zstack\HomeAutomation\GenericApp\CC2530DB\..\..\..\..\..\Components\mac\include\"
#        -I "C:\Texas Instruments\Z-Stack 3.0.2-20210417T211827Z-001\Z-Stack
#        3.0.2\Projects\zstack\HomeAutomation\GenericApp\CC2530DB\..\..\..\..\..\Components\mac\high_level\"
#        -I "C:\Texas Instruments\Z-Stack 3.0.2-20210417T211827Z-001\Z-Stack
#        3.0.2\Projects\zstack\HomeAutomation\GenericApp\CC2530DB\..\..\..\..\..\Components\mac\low_level\srf04\"
#        -I "C:\Texas Instruments\Z-Stack 3.0.2-20210417T211827Z-001\Z-Stack
#        3.0.2\Projects\zstack\HomeAutomation\GenericApp\CC2530DB\..\..\..\..\..\Components\mac\low_level\srf04\single_chip\"
#        -I "C:\Texas Instruments\Z-Stack 3.0.2-20210417T211827Z-001\Z-Stack
#        3.0.2\Projects\zstack\HomeAutomation\GenericApp\CC2530DB\..\..\..\..\..\Components\mt\"
#        -I "C:\Texas Instruments\Z-Stack 3.0.2-20210417T211827Z-001\Z-Stack
#        3.0.2\Projects\zstack\HomeAutomation\GenericApp\CC2530DB\..\..\..\..\..\Components\osal\include\"
#        -I "C:\Texas Instruments\Z-Stack 3.0.2-20210417T211827Z-001\Z-Stack
#        3.0.2\Projects\zstack\HomeAutomation\GenericApp\CC2530DB\..\..\..\..\..\Components\services\saddr\"
#        -I "C:\Texas Instruments\Z-Stack 3.0.2-20210417T211827Z-001\Z-Stack
#        3.0.2\Projects\zstack\HomeAutomation\GenericApp\CC2530DB\..\..\..\..\..\Components\services\sdata\"
#        -I "C:\Texas Instruments\Z-Stack 3.0.2-20210417T211827Z-001\Z-Stack
#        3.0.2\Projects\zstack\HomeAutomation\GenericApp\CC2530DB\..\..\..\..\..\Components\stack\af\"
#        -I "C:\Texas Instruments\Z-Stack 3.0.2-20210417T211827Z-001\Z-Stack
#        3.0.2\Projects\zstack\HomeAutomation\GenericApp\CC2530DB\..\..\..\..\..\Components\stack\bdb\"
#        -I "C:\Texas Instruments\Z-Stack 3.0.2-20210417T211827Z-001\Z-Stack
#        3.0.2\Projects\zstack\HomeAutomation\GenericApp\CC2530DB\..\..\..\..\..\Components\stack\gp\"
#        -I "C:\Texas Instruments\Z-Stack 3.0.2-20210417T211827Z-001\Z-Stack
#        3.0.2\Projects\zstack\HomeAutomation\GenericApp\CC2530DB\..\..\..\..\..\Components\stack\nwk\"
#        -I "C:\Texas Instruments\Z-Stack 3.0.2-20210417T211827Z-001\Z-Stack
#        3.0.2\Projects\zstack\HomeAutomation\GenericApp\CC2530DB\..\..\..\..\..\Components\stack\sapi\"
#        -I "C:\Texas Instruments\Z-Stack 3.0.2-20210417T211827Z-001\Z-Stack
#        3.0.2\Projects\zstack\HomeAutomation\GenericApp\CC2530DB\..\..\..\..\..\Components\stack\sec\"
#        -I "C:\Texas Instruments\Z-Stack 3.0.2-20210417T211827Z-001\Z-Stack
#        3.0.2\Projects\zstack\HomeAutomation\GenericApp\CC2530DB\..\..\..\..\..\Components\stack\sys\"
#        -I "C:\Texas Instruments\Z-Stack 3.0.2-20210417T211827Z-001\Z-Stack
#        3.0.2\Projects\zstack\HomeAutomation\GenericApp\CC2530DB\..\..\..\..\..\Components\stack\zcl\"
#        -I "C:\Texas Instruments\Z-Stack 3.0.2-20210417T211827Z-001\Z-Stack
#        3.0.2\Projects\zstack\HomeAutomation\GenericApp\CC2530DB\..\..\..\..\..\Components\stack\zdo\"
#        -I "C:\Texas Instruments\Z-Stack 3.0.2-20210417T211827Z-001\Z-Stack
#        3.0.2\Projects\zstack\HomeAutomation\GenericApp\CC2530DB\..\..\..\..\..\Components\zmac\"
#        -I "C:\Texas Instruments\Z-Stack 3.0.2-20210417T211827Z-001\Z-Stack
#        3.0.2\Projects\zstack\HomeAutomation\GenericApp\CC2530DB\..\..\..\..\..\Components\zmac\f8w\"
#        -Ohz --require_prototypes)
#    Locale             =  English_USA.1252
#    List file          =  
#        C:\Texas Instruments\Z-Stack 3.0.2-20210417T211827Z-001\Z-Stack
#        3.0.2\Projects\zstack\HomeAutomation\GenericApp\CC2530DB\CoordinatorEB\List\ZDSecMgr.lst
#    Object file        =  
#        C:\Texas Instruments\Z-Stack 3.0.2-20210417T211827Z-001\Z-Stack
#        3.0.2\Projects\zstack\HomeAutomation\GenericApp\CC2530DB\CoordinatorEB\Obj\ZDSecMgr.r51
#
###############################################################################

C:\Texas Instruments\Z-Stack 3.0.2-20210417T211827Z-001\Z-Stack 3.0.2\Components\stack\zdo\ZDSecMgr.c
      1          /******************************************************************************
      2            Filename:       ZDSecMgr.c
      3            Revised:        $Date: 2014-06-05 11:25:00 -0700 (Thu, 05 Jun 2014) $
      4            Revision:       $Revision: 38833 $
      5          
      6            Description:    The ZigBee Device Security Manager.
      7          
      8          
      9            Copyright 2005-2014 Texas Instruments Incorporated. All rights reserved.
     10          
     11            IMPORTANT: Your use of this Software is limited to those specific rights
     12            granted under the terms of a software license agreement between the user
     13            who downloaded the software, his/her employer (which must be your employer)
     14            and Texas Instruments Incorporated (the "License"). You may not use this
     15            Software unless you agree to abide by the terms of the License. The License
     16            limits your use, and you acknowledge, that the Software may not be modified,
     17            copied or distributed unless embedded on a Texas Instruments microcontroller
     18            or used solely and exclusively in conjunction with a Texas Instruments radio
     19            frequency transceiver, which is integrated into your product. Other than for
     20            the foregoing purpose, you may not use, reproduce, copy, prepare derivative
     21            works of, modify, distribute, perform, display or sell this Software and/or
     22            its documentation for any purpose.
     23          
     24            YOU FURTHER ACKNOWLEDGE AND AGREE THAT THE SOFTWARE AND DOCUMENTATION ARE
     25            PROVIDED "AS IS" WITHOUT WARRANTY OF ANY KIND, EITHER EXPRESS OR IMPLIED,
     26            INCLUDING WITHOUT LIMITATION, ANY WARRANTY OF MERCHANTABILITY, TITLE,
     27            NON-INFRINGEMENT AND FITNESS FOR A PARTICULAR PURPOSE. IN NO EVENT SHALL
     28            TEXAS INSTRUMENTS OR ITS LICENSORS BE LIABLE OR OBLIGATED UNDER CONTRACT,
     29            NEGLIGENCE, STRICT LIABILITY, CONTRIBUTION, BREACH OF WARRANTY, OR OTHER
     30            LEGAL EQUITABLE THEORY ANY DIRECT OR INDIRECT DAMAGES OR EXPENSES
     31            INCLUDING BUT NOT LIMITED TO ANY INCIDENTAL, SPECIAL, INDIRECT, PUNITIVE
     32            OR CONSEQUENTIAL DAMAGES, LOST PROFITS OR LOST DATA, COST OF PROCUREMENT
     33            OF SUBSTITUTE GOODS, TECHNOLOGY, SERVICES, OR ANY CLAIMS BY THIRD PARTIES
     34            (INCLUDING BUT NOT LIMITED TO ANY DEFENSE THEREOF), OR OTHER SIMILAR COSTS.
     35          
     36            Should you have any questions regarding your right to use this Software,
     37            contact Texas Instruments Incorporated at www.TI.com.
     38          ******************************************************************************/
     39          
     40          #ifdef __cplusplus
     41          extern "C"
     42          {
     43          #endif
     44          
     45          /******************************************************************************
     46           * INCLUDES
     47           */
     48          #include "ZComDef.h"
     49          #include "OSAL.h"
     50          #include "OSAL_Nv.h"
     51          #include "ZGlobals.h"
     52          #include "ssp.h"
     53          #include "nwk_globals.h"
     54          #include "nwk.h"
     55          #include "NLMEDE.h"
     56          #include "AddrMgr.h"
     57          #include "AssocList.h"
     58          #include "APSMEDE.h"
     59          #include "ZDConfig.h"
     60          #include "ZDSecMgr.h"
     61            
     62          #include "bdb.h"
     63          #include "bdb_interface.h"
     64          
     65          /******************************************************************************
     66           * CONSTANTS
     67           */
     68          // maximum number of devices managed by this Security Manager
     69          #if !defined ( ZDSECMGR_DEVICE_MAX )
     70            #define ZDSECMGR_DEVICE_MAX 3
     71          #endif
     72          
     73          // maximum number of LINK keys this device may store
     74          #define ZDSECMGR_ENTRY_MAX ZDSECMGR_DEVICE_MAX
     75          
     76          // total number of stored devices
     77          #if !defined ( ZDSECMGR_STORED_DEVICES )
     78            #define ZDSECMGR_STORED_DEVICES 3
     79          #endif
     80          
     81          // Joining Device Policies: r21 spec 4.9.1
     82          // This boolean indicates whether the device will request a new Trust Center Link key after joining.
     83          // TC link key cannot be requested if join is performed on distributed nwk

   \                                 In  segment XDATA_I, align 1, keep-with-next
     84          bool  requestNewTrustCenterLinkKey = TRUE;  
   \                     requestNewTrustCenterLinkKey:
   \   000000                DS 1
   \   000001                REQUIRE `?<Initializer for requestNewTrustCenterLinkKey`
   \   000001                REQUIRE __INIT_XDATA_I
     85          //This integer indicates the maximum time in seconds that a device will wait for a response to a 
     86          //request for a Trust Center link key.

   \                                 In  segment XDATA_I, align 1, keep-with-next
     87          uint32  requestLinkKeyTimeout = BDBC_TC_LINK_KEY_EXANGE_TIMEOUT;
   \                     requestLinkKeyTimeout:
   \   000000                DS 4
   \   000004                REQUIRE `?<Initializer for requestLinkKeyTimeout>`
   \   000004                REQUIRE __INIT_XDATA_I
     88           //bool acceptNewUnsolicitedApplicationLinkKey;   
     89          
     90          // APSME Stub Implementations
     91          #define ZDSecMgrLinkKeySet       APSME_LinkKeySet
     92          #define ZDSecMgrLinkKeyNVIdGet   APSME_LinkKeyNVIdGet
     93          #define ZDSecMgrKeyFwdToChild    APSME_KeyFwdToChild
     94          #define ZDSecMgrIsLinkKeyValid   APSME_IsLinkKeyValid
     95          
     96          
     97          
     98          /******************************************************************************
     99           * TYPEDEFS
    100           */
    101          typedef struct
    102          {
    103            uint16            ami;
    104            uint16            keyNvId;   // index to the Link Key table in NV
    105            ZDSecMgr_Authentication_Option authenticateOption;
    106          } ZDSecMgrEntry_t;
    107          
    108          typedef struct
    109          {
    110            uint16          nwkAddr;
    111            uint8*          extAddr;
    112            uint16          parentAddr;
    113            uint8           secure;
    114            uint8           devStatus;
    115          } ZDSecMgrDevice_t;
    116          
    117          /******************************************************************************
    118           * EXTERNAL VARIABLES
    119           */
    120          extern CONST uint8 gMAX_NWK_SEC_MATERIAL_TABLE_ENTRIES;
    121          extern pfnZdoCb zdoCBFunc[MAX_ZDO_CB_FUNC];
    122          
    123          
    124          /******************************************************************************
    125           * EXTERNAL FUNCTIONS
    126           */
    127          extern void   ZDApp_ResetTimerCancel( void );
    128          /******************************************************************************
    129           * LOCAL VARIABLES
    130           */
    131          #if 0 // Taken out because the following functionality is only used for test
    132                // purpose. A more efficient (above) way is used. It can be put
    133                // back in if customers request for a white/black list feature.
    134          uint8 ZDSecMgrStoredDeviceList[ZDSECMGR_STORED_DEVICES][Z_EXTADDR_LEN] =
    135          {
    136            { 0x01, 0x00, 0x00, 0x00, 0x00, 0x00, 0x00, 0x00 },
    137            { 0x00, 0x00, 0x00, 0x00, 0x00, 0x00, 0x00, 0x01 },
    138            { 0x00, 0x00, 0x00, 0x00, 0x00, 0x00, 0x00, 0x00 },
    139          };
    140          #endif
    141          

   \                                 In  segment XDATA_Z, align 1, keep-with-next
    142          uint8 ZDSecMgrTCExtAddr[Z_EXTADDR_LEN]=
   \                     ZDSecMgrTCExtAddr:
   \   000000                DS 8
   \   000008                REQUIRE __INIT_XDATA_Z
    143            { 0x00, 0x00, 0x00, 0x00, 0x00, 0x00, 0x00, 0x00 };
    144          

   \                                 In  segment XDATA_Z, align 1, keep-with-next
    145          uint8 ZDSecMgrTCAuthenticated = FALSE;
   \                     ZDSecMgrTCAuthenticated:
   \   000000                DS 1
   \   000001                REQUIRE __INIT_XDATA_Z
    146          

   \                                 In  segment XDATA_Z, align 1, keep-with-next
    147          ZDSecMgrEntry_t* ZDSecMgrEntries  = NULL;
   \                     ZDSecMgrEntries:
   \   000000                DS 2
   \   000002                REQUIRE __INIT_XDATA_Z
    148          
    149          void ZDSecMgrAddrMgrCB( uint8 update, AddrMgrEntry_t* newEntry, AddrMgrEntry_t* oldEntry );
    150          

   \                                 In  segment XDATA_Z, align 1, keep-with-next
    151          uint8 ZDSecMgrPermitJoiningEnabled;
   \                     ZDSecMgrPermitJoiningEnabled:
   \   000000                DS 1
   \   000001                REQUIRE __INIT_XDATA_Z

   \                                 In  segment XDATA_Z, align 1, keep-with-next
    152          uint8 ZDSecMgrPermitJoiningTimed;
   \                     ZDSecMgrPermitJoiningTimed:
   \   000000                DS 1
   \   000001                REQUIRE __INIT_XDATA_Z
    153          

   \                                 In  segment XDATA_Z, align 1, keep-with-next
    154          APSME_TCLKDevEntry_t TrustCenterLinkKey;
   \                     TrustCenterLinkKey:
   \   000000                DS 19
   \   000013                REQUIRE __INIT_XDATA_Z
    155          

   \                                 In  segment XDATA_Z, align 1, keep-with-next
    156          APSME_ApsLinkKeyFrmCntr_t ApsLinkKeyFrmCntr[ZDSECMGR_ENTRY_MAX];
   \                     ApsLinkKeyFrmCntr:
   \   000000                DS 27
   \   00001B                REQUIRE __INIT_XDATA_Z

   \                                 In  segment XDATA_Z, align 1, keep-with-next
    157          APSME_TCLinkKeyFrmCntr_t TCLinkKeyFrmCntr[ZDSECMGR_TC_DEVICE_MAX];
   \                     TCLinkKeyFrmCntr:
   \   000000                DS 360
   \   000168                REQUIRE __INIT_XDATA_Z
    158          

   \                                 In  segment CODE_C, align 1
    159           CONST uint16 gZDSECMGR_TC_DEVICE_MAX = ZDSECMGR_TC_DEVICE_MAX;
   \                     gZDSECMGR_TC_DEVICE_MAX:
   \   000000   2800         DW 40

   \                                 In  segment CODE_C, align 1
    160           CONST uint16 gZDSECMGR_TC_DEVICE_IC_MAX = ZDSECMGR_TC_DEVICE_IC_MAX;
   \                     gZDSECMGR_TC_DEVICE_IC_MAX:
   \   000000   0C00         DW 12

   \                                 In  segment XDATA_Z, align 1, keep-with-next
    161           uint8  gZDSECMGR_TC_ATTEMPT_DEFAULT_KEY = ZDSECMGR_TC_ATTEMPT_DEFAULT_KEY;
   \                     gZDSECMGR_TC_ATTEMPT_DEFAULT_KEY:
   \   000000                DS 1
   \   000001                REQUIRE __INIT_XDATA_Z
    162          /******************************************************************************
    163           * PRIVATE FUNCTIONS
    164           *
    165           *   ZDSecMgrAddrStore
    166           *   ZDSecMgrExtAddrStore
    167           *   ZDSecMgrExtAddrLookup
    168           *   ZDSecMgrEntryInit
    169           *   ZDSecMgrEntryLookup
    170           *   ZDSecMgrEntryLookupAMI
    171           *   ZDSecMgrEntryLookupExt
    172           *   ZDSecMgrEntryLookupExtGetIndex
    173           *   ZDSecMgrEntryFree
    174           *   ZDSecMgrEntryNew
    175           *   ZDSecMgrAppKeyGet
    176           *   ZDSecMgrAppKeyReq
    177           *   ZDSecMgrTclkReq
    178           *   ZDSecMgrAppConfKeyReq 
    179           *   ZDSecMgrSendNwkKey
    180           *   ZDSecMgrDeviceRemove
    181           *   ZDSecMgrDeviceValidateRM
    182           *   ZDSecMgrDeviceValidate
    183           *   ZDSecMgrDeviceJoin
    184           *   ZDSecMgrDeviceJoinDirect
    185           *   ZDSecMgrDeviceJoinFwd
    186           *   ZDSecMgrDeviceNew
    187           *   ZDSecMgrAssocDeviceAuth
    188           *   ZDSecMgrAuthNwkKey
    189           *   APSME_TCLinkKeyInit
    190           *   APSME_IsDefaultTCLK
    191           */
    192          
    193          //-----------------------------------------------------------------------------
    194          // address management
    195          //-----------------------------------------------------------------------------
    196          ZStatus_t ZDSecMgrAddrStore( uint16 nwkAddr, uint8* extAddr, uint16* ami );
    197          ZStatus_t ZDSecMgrExtAddrStore( uint16 nwkAddr, uint8* extAddr, uint16* ami );
    198          ZStatus_t ZDSecMgrExtAddrLookup( uint8* extAddr, uint16* ami );
    199          
    200          //-----------------------------------------------------------------------------
    201          // Trust Center management
    202          //-----------------------------------------------------------------------------
    203          uint8 ZDSecMgrTCExtAddrCheck( uint8* extAddr );
    204          void ZDSecMgrTCDataLoad( uint8* extAddr );
    205          
    206          //-----------------------------------------------------------------------------
    207          // entry data
    208          //-----------------------------------------------------------------------------
    209          void ZDSecMgrEntryInit(uint8 state);
    210          ZStatus_t ZDSecMgrEntryLookup( uint16 nwkAddr, ZDSecMgrEntry_t** entry );
    211          ZStatus_t ZDSecMgrEntryLookupAMI( uint16 ami, ZDSecMgrEntry_t** entry );
    212          ZStatus_t ZDSecMgrEntryLookupExt( uint8* extAddr, ZDSecMgrEntry_t** entry );
    213          ZStatus_t ZDSecMgrEntryLookupExtGetIndex( uint8* extAddr, ZDSecMgrEntry_t** entry, uint16* entryIndex );
    214          ZStatus_t ZDSecMgrEntryLookupAMIGetIndex( uint16 ami, uint16* entryIndex );
    215          void ZDSecMgrEntryFree( ZDSecMgrEntry_t* entry );
    216          ZStatus_t ZDSecMgrEntryNew( ZDSecMgrEntry_t** entry );
    217          ZStatus_t ZDSecMgrAuthenticationSet( uint8* extAddr, ZDSecMgr_Authentication_Option option );
    218          void ZDSecMgrApsLinkKeyInit(uint8 setDefault);
    219          #if defined ( NV_RESTORE )
    220          static void ZDSecMgrWriteNV(void);
    221          static void ZDSecMgrRestoreFromNV(void);
    222          static void ZDSecMgrUpdateNV( uint16 index );
    223          #endif
    224          
    225          //-----------------------------------------------------------------------------
    226          // key support
    227          //-----------------------------------------------------------------------------
    228          ZStatus_t ZDSecMgrAppKeyGet( uint16  initNwkAddr,
    229                                       uint8*  initExtAddr,
    230                                       uint16  partNwkAddr,
    231                                       uint8*  partExtAddr,
    232                                       uint8** key,
    233                                       uint8*  keyType );
    234          void ZDSecMgrAppKeyReq( ZDO_RequestKeyInd_t* ind );
    235          void ZDSecMgrTclkReq( ZDO_RequestKeyInd_t* ind );
    236          void ZDSecMgrAppConfKeyReq( ZDO_VerifyKeyInd_t* ind );
    237          ZStatus_t ZDSecMgrSendNwkKey( ZDSecMgrDevice_t* device );
    238          void ZDSecMgrNwkKeyInit(uint8 setDefault);
    239          
    240          //-----------------------------------------------------------------------------
    241          // device management
    242          //-----------------------------------------------------------------------------
    243          void ZDSecMgrDeviceRemove( ZDSecMgrDevice_t* device );
    244          ZStatus_t ZDSecMgrDeviceValidateRM( ZDSecMgrDevice_t* device );
    245          ZStatus_t ZDSecMgrDeviceValidate( ZDSecMgrDevice_t* device );
    246          ZStatus_t ZDSecMgrDeviceJoin( ZDSecMgrDevice_t* device );
    247          ZStatus_t ZDSecMgrDeviceJoinDirect( ZDSecMgrDevice_t* device );
    248          ZStatus_t ZDSecMgrDeviceJoinFwd( ZDSecMgrDevice_t* device );
    249          ZStatus_t ZDSecMgrDeviceNew( ZDSecMgrDevice_t* device );
    250          
    251          //-----------------------------------------------------------------------------
    252          // association management
    253          //-----------------------------------------------------------------------------
    254          void ZDSecMgrAssocDeviceAuth( associated_devices_t* assoc );
    255          
    256          //-----------------------------------------------------------------------------
    257          // authentication management
    258          //-----------------------------------------------------------------------------
    259          void ZDSecMgrAuthNwkKey( void );
    260          
    261          //-----------------------------------------------------------------------------
    262          // APSME function
    263          //-----------------------------------------------------------------------------
    264          void APSME_TCLinkKeyInit( uint8 setDefault );
    265          uint8 APSME_IsDefaultTCLK( uint8 *extAddr );
    266          void ZDSecMgrGenerateSeed(uint8 setDefault );
    267          void ZDSecMgrGenerateKeyFromSeed(uint8 *extAddr, uint8 shift, uint8 *key);
    268          /******************************************************************************
    269           * @fn          ZDSecMgrAddrStore
    270           *
    271           * @brief       Store device addresses.
    272           *
    273           * @param       nwkAddr - [in] NWK address
    274           * @param       extAddr - [in] EXT address
    275           * @param       ami     - [out] Address Manager index
    276           *
    277           * @return      ZStatus_t
    278           */

   \                                 In  segment BANKED_CODE, align 1, keep-with-next
    279          ZStatus_t ZDSecMgrAddrStore( uint16 nwkAddr, uint8* extAddr, uint16* ami )
   \                     ZDSecMgrAddrStore:
    280          {
   \   000000   74F7         MOV       A,#-0x9
   \   000002   12....       LCALL     ?BANKED_ENTER_XDATA
   \   000005                ; Saved register size: 9
   \   000005                ; Auto size: 13
   \   000005   74F3         MOV       A,#-0xd
   \   000007   12....       LCALL     ?ALLOC_XSTACK8
    281            ZStatus_t      status;
    282            AddrMgrEntry_t entry;
    283          
    284          
    285            // add entry
    286            entry.user    = ADDRMGR_USER_SECURITY;
   \   00000A   85..82       MOV       DPL,?XSP + 0
   \   00000D   85..83       MOV       DPH,?XSP + 1
   \   000010   7402         MOV       A,#0x2
   \   000012   F0           MOVX      @DPTR,A
    287            entry.nwkAddr = nwkAddr;
   \   000013   14           DEC       A
   \   000014   12....       LCALL     ?XSTACK_DISP0_8
   \   000017   12....       LCALL     ?Subroutine17 & 0xFFFF
    288            AddrMgrExtAddrSet( entry.extAddr, extAddr );
   \                     ??CrossCallReturnLabel_12:
   \   00001A   12....       LCALL     ?XSTACK_DISP0_8
   \   00001D   AA82         MOV       R2,DPL
   \   00001F   AB83         MOV       R3,DPH
   \   000021   12....       LCALL     `??AddrMgrExtAddrSet::?relay`; Banked call to: AddrMgrExtAddrSet
   \   000024   7416         MOV       A,#0x16
   \   000026   12....       LCALL     ?XSTACK_DISP0_8
   \   000029   12....       LCALL     ?Subroutine30 & 0xFFFF
    289          
    290            if ( AddrMgrEntryUpdate( &entry ) == TRUE )
   \                     ??CrossCallReturnLabel_31:
   \   00002C   700A         JNZ       ??ZDSecMgrAddrStore_0
    291            {
    292              // return successful results
    293              *ami   = entry.index;
   \   00002E   740B         MOV       A,#0xb
   \   000030   12....       LCALL     ?XSTACK_DISP0_8
   \   000033   12....       LCALL     ?Subroutine11 & 0xFFFF
    294              status = ZSuccess;
    295            }
   \                     ??CrossCallReturnLabel_121:
   \   000036   8008         SJMP      ??CrossCallReturnLabel_15
    296            else
    297            {
    298              // return failed results
    299              *ami   = entry.index;
   \                     ??ZDSecMgrAddrStore_0:
   \   000038   740B         MOV       A,#0xb
   \   00003A   12....       LCALL     ?XSTACK_DISP0_8
   \   00003D   12....       LCALL     ?Subroutine18 & 0xFFFF
    300              status = ZNwkUnknownDevice;
    301            }
    302          
    303            return status;
   \                     ??CrossCallReturnLabel_15:
   \   000040   02....       LJMP      ?Subroutine0 & 0xFFFF
    304          }

   \                                 In  segment BANKED_CODE, align 1, keep-with-next
   \                     ?Subroutine11:
   \   000000   12....       LCALL     ?Subroutine72 & 0xFFFF
   \                     ??CrossCallReturnLabel_115:
   \   000003                REQUIRE ??Subroutine77_0
   \   000003                ; // Fall through to label ??Subroutine77_0

   \                                 In  segment BANKED_CODE, align 1, keep-with-next
   \                     ??Subroutine77_0:
   \   000000   E8           MOV       A,R0
   \   000001   F0           MOVX      @DPTR,A
   \   000002   A3           INC       DPTR
   \   000003   E9           MOV       A,R1
   \   000004   F0           MOVX      @DPTR,A
   \   000005   7900         MOV       R1,#0x0
   \   000007   22           RET

   \                                 In  segment BANKED_CODE, align 1, keep-with-next
   \                     ?Subroutine30:
   \   000000   12....       LCALL     ?Subroutine73 & 0xFFFF
   \                     ??CrossCallReturnLabel_185:
   \   000003   FE           MOV       R6,A
   \   000004   E9           MOV       A,R1
   \   000005   FF           MOV       R7,A
   \   000006                ; Setup parameters for call to function AddrMgrEntryUpdate
   \   000006                ; Setup parameters for call to function AddrMgrEntryUpdate
   \   000006   AA..         MOV       R2,?XSP + 0
   \   000008   AB..         MOV       R3,?XSP + 1
   \   00000A   12....       LCALL     `??AddrMgrEntryUpdate::?relay`; Banked call to: AddrMgrEntryUpdate
   \   00000D   E9           MOV       A,R1
   \   00000E   6401         XRL       A,#0x1
   \   000010   22           RET

   \                                 In  segment BANKED_CODE, align 1, keep-with-next
   \                     ?Subroutine18:
   \   000000   12....       LCALL     ?Subroutine72 & 0xFFFF
   \                     ??CrossCallReturnLabel_116:
   \   000003   E8           MOV       A,R0
   \   000004   F0           MOVX      @DPTR,A
   \   000005   A3           INC       DPTR
   \   000006   E9           MOV       A,R1
   \   000007   F0           MOVX      @DPTR,A
   \   000008   79C8         MOV       R1,#-0x38
   \   00000A   22           RET

   \                                 In  segment BANKED_CODE, align 1, keep-with-next
   \                     ?Subroutine72:
   \   000000   E0           MOVX      A,@DPTR
   \   000001   F8           MOV       R0,A
   \   000002   A3           INC       DPTR
   \   000003   E0           MOVX      A,@DPTR
   \   000004   F9           MOV       R1,A
   \   000005   8E82         MOV       DPL,R6
   \   000007   8F83         MOV       DPH,R7
   \   000009   22           RET

   \                                 In  segment BANKED_CODE, align 1, keep-with-next
   \                     ?Subroutine17:
   \   000000   EA           MOV       A,R2
   \   000001   F0           MOVX      @DPTR,A
   \   000002   A3           INC       DPTR
   \   000003   EB           MOV       A,R3
   \   000004   F0           MOVX      @DPTR,A
   \   000005                ; Setup parameters for call to function AddrMgrExtAddrSet
   \   000005                ; Setup parameters for call to function AddrMgrExtAddrSet
   \   000005   7403         MOV       A,#0x3
   \   000007   22           RET

   \                                 In  segment BANKED_CODE, align 1, keep-with-next
   \                     ?Subroutine73:
   \   000000   E0           MOVX      A,@DPTR
   \   000001   F8           MOV       R0,A
   \   000002   A3           INC       DPTR
   \   000003   E0           MOVX      A,@DPTR
   \   000004   F9           MOV       R1,A
   \   000005   E8           MOV       A,R0
   \   000006   22           RET

   \                                 In  segment BANKED_CODE, align 1, keep-with-next
   \                     ?Subroutine0:
   \   000000   740D         MOV       A,#0xd
   \   000002                REQUIRE ??Subroutine82_0
   \   000002                ; // Fall through to label ??Subroutine82_0

   \                                 In  segment BANKED_CODE, align 1, keep-with-next
   \                     ??Subroutine82_0:
   \   000000   12....       LCALL     ?DEALLOC_XSTACK8
   \   000003                REQUIRE ??Subroutine83_0
   \   000003                ; // Fall through to label ??Subroutine83_0

   \                                 In  segment BANKED_CODE, align 1, keep-with-next
   \                     ??Subroutine83_0:
   \   000000   7F01         MOV       R7,#0x1
   \   000002   02....       LJMP      ?BANKED_LEAVE_XDATA
    305          
    306          /******************************************************************************
    307           * @fn          ZDSecMgrExtAddrStore
    308           *
    309           * @brief       Store EXT address.
    310           *
    311           * @param       extAddr - [in] EXT address
    312           * @param       ami     - [out] Address Manager index
    313           *
    314           * @return      ZStatus_t
    315           */

   \                                 In  segment BANKED_CODE, align 1, keep-with-next
    316          ZStatus_t ZDSecMgrExtAddrStore( uint16 nwkAddr, uint8* extAddr, uint16* ami )
   \                     ZDSecMgrExtAddrStore:
    317          {
   \   000000   74F7         MOV       A,#-0x9
   \   000002   12....       LCALL     ?BANKED_ENTER_XDATA
   \   000005                ; Saved register size: 9
   \   000005                ; Auto size: 13
   \   000005   74F3         MOV       A,#-0xd
   \   000007   12....       LCALL     ?ALLOC_XSTACK8
    318            ZStatus_t      status;
    319            AddrMgrEntry_t entry;
    320          
    321          
    322            // add entry
    323            entry.user    = ADDRMGR_USER_SECURITY;
   \   00000A   85..82       MOV       DPL,?XSP + 0
   \   00000D   85..83       MOV       DPH,?XSP + 1
   \   000010   7402         MOV       A,#0x2
   \   000012   F0           MOVX      @DPTR,A
    324            entry.nwkAddr = nwkAddr;
   \   000013   14           DEC       A
   \   000014   12....       LCALL     ?XSTACK_DISP0_8
   \   000017   12....       LCALL     ?Subroutine17 & 0xFFFF
    325            AddrMgrExtAddrSet( entry.extAddr, extAddr );
   \                     ??CrossCallReturnLabel_13:
   \   00001A   12....       LCALL     ?XSTACK_DISP0_8
   \   00001D   AA82         MOV       R2,DPL
   \   00001F   AB83         MOV       R3,DPH
   \   000021   12....       LCALL     `??AddrMgrExtAddrSet::?relay`; Banked call to: AddrMgrExtAddrSet
   \   000024   7416         MOV       A,#0x16
   \   000026   12....       LCALL     ?XSTACK_DISP0_8
   \   000029   12....       LCALL     ?Subroutine30 & 0xFFFF
    326          
    327            if ( AddrMgrEntryUpdate( &entry ) == TRUE )
   \                     ??CrossCallReturnLabel_32:
   \   00002C   700A         JNZ       ??ZDSecMgrExtAddrStore_0
    328            {
    329              // return successful results
    330              *ami   = entry.index;
   \   00002E   740B         MOV       A,#0xb
   \   000030   12....       LCALL     ?XSTACK_DISP0_8
   \   000033   12....       LCALL     ?Subroutine11 & 0xFFFF
    331              status = ZSuccess;
    332            }
   \                     ??CrossCallReturnLabel_122:
   \   000036   8008         SJMP      ??CrossCallReturnLabel_16
    333            else
    334            {
    335              // return failed results
    336              *ami   = entry.index;
   \                     ??ZDSecMgrExtAddrStore_0:
   \   000038   740B         MOV       A,#0xb
   \   00003A   12....       LCALL     ?XSTACK_DISP0_8
   \   00003D   12....       LCALL     ?Subroutine18 & 0xFFFF
    337              status = ZNwkUnknownDevice;
    338            }
    339          
    340            return status;
   \                     ??CrossCallReturnLabel_16:
   \   000040   02....       LJMP      ?Subroutine0 & 0xFFFF
    341          }
    342          
    343          /******************************************************************************
    344           * @fn          ZDSecMgrExtAddrLookup
    345           *
    346           * @brief       Lookup index for specified EXT address.
    347           *
    348           * @param       extAddr - [in] EXT address
    349           * @param       ami     - [out] Address Manager index
    350           *
    351           * @return      ZStatus_t
    352           */

   \                                 In  segment BANKED_CODE, align 1, keep-with-next
    353          ZStatus_t ZDSecMgrExtAddrLookup( uint8* extAddr, uint16* ami )
   \                     ZDSecMgrExtAddrLookup:
    354          {
   \   000000   74F7         MOV       A,#-0x9
   \   000002   12....       LCALL     ?BANKED_ENTER_XDATA
   \   000005                ; Saved register size: 9
   \   000005                ; Auto size: 13
   \   000005   74F3         MOV       A,#-0xd
   \   000007   12....       LCALL     ?ALLOC_XSTACK8
   \   00000A   EC           MOV       A,R4
   \   00000B   FE           MOV       R6,A
   \   00000C   ED           MOV       A,R5
   \   00000D   FF           MOV       R7,A
    355            ZStatus_t      status;
    356            AddrMgrEntry_t entry;
    357          
    358          
    359            // lookup entry
    360            entry.user = ADDRMGR_USER_SECURITY;
   \   00000E   85..82       MOV       DPL,?XSP + 0
   \   000011   85..83       MOV       DPH,?XSP + 1
   \   000014   7402         MOV       A,#0x2
   \   000016   F0           MOVX      @DPTR,A
    361            AddrMgrExtAddrSet( entry.extAddr, extAddr );
   \   000017                ; Setup parameters for call to function AddrMgrExtAddrSet
   \   000017   EA           MOV       A,R2
   \   000018   FC           MOV       R4,A
   \   000019   EB           MOV       A,R3
   \   00001A   FD           MOV       R5,A
   \   00001B   7403         MOV       A,#0x3
   \   00001D   12....       LCALL     ?XSTACK_DISP0_8
   \   000020   AA82         MOV       R2,DPL
   \   000022   AB83         MOV       R3,DPH
   \   000024   12....       LCALL     `??AddrMgrExtAddrSet::?relay`; Banked call to: AddrMgrExtAddrSet
    362          
    363            if ( AddrMgrEntryLookupExt( &entry ) == TRUE )
   \   000027                ; Setup parameters for call to function AddrMgrEntryLookupExt
   \   000027   AA..         MOV       R2,?XSP + 0
   \   000029   AB..         MOV       R3,?XSP + 1
   \   00002B   12....       LCALL     `??AddrMgrEntryLookupExt::?relay`; Banked call to: AddrMgrEntryLookupExt
   \   00002E   E9           MOV       A,R1
   \   00002F   6401         XRL       A,#0x1
   \   000031   700A         JNZ       ??ZDSecMgrExtAddrLookup_0
    364            {
    365              // return successful results
    366              *ami   = entry.index;
   \   000033   740B         MOV       A,#0xb
   \   000035   12....       LCALL     ?XSTACK_DISP0_8
   \   000038   12....       LCALL     ?Subroutine11 & 0xFFFF
    367              status = ZSuccess;
    368            }
   \                     ??CrossCallReturnLabel_123:
   \   00003B   8008         SJMP      ??CrossCallReturnLabel_17
    369            else
    370            {
    371              // return failed results
    372              *ami   = entry.index;
   \                     ??ZDSecMgrExtAddrLookup_0:
   \   00003D   740B         MOV       A,#0xb
   \   00003F   12....       LCALL     ?XSTACK_DISP0_8
   \   000042   12....       LCALL     ?Subroutine18 & 0xFFFF
    373              status = ZNwkUnknownDevice;
    374            }
    375          
    376            return status;
   \                     ??CrossCallReturnLabel_17:
   \   000045   02....       LJMP      ?Subroutine0 & 0xFFFF
    377          }
    378          
    379          /******************************************************************************
    380           * @fn          ZDSecMgrAddrClear
    381           *
    382           * @brief       Clear security bit from Address Manager for specific device.
    383           *
    384           * @param       extAddr - [in] EXT address
    385           *
    386           * @return      ZStatus_t
    387           */

   \                                 In  segment BANKED_CODE, align 1, keep-with-next
    388          ZStatus_t ZDSecMgrAddrClear( uint8* extAddr )
   \                     ZDSecMgrAddrClear:
    389          {
   \   000000   74F7         MOV       A,#-0x9
   \   000002   12....       LCALL     ?BANKED_ENTER_XDATA
   \   000005                ; Saved register size: 9
   \   000005                ; Auto size: 15
   \   000005   74F1         MOV       A,#-0xf
   \   000007   12....       LCALL     ?ALLOC_XSTACK8
    390            ZStatus_t status;
    391            uint16 entryAmi;
    392          
    393            // get Address Manager Index
    394            status = ZDSecMgrExtAddrLookup( extAddr, &entryAmi );
   \   00000A                ; Setup parameters for call to function ZDSecMgrExtAddrLookup
   \   00000A   AC..         MOV       R4,?XSP + 0
   \   00000C   AD..         MOV       R5,?XSP + 1
   \   00000E   12....       LCALL     `??ZDSecMgrExtAddrLookup::?relay`; Banked call to: ZDSecMgrExtAddrLookup
   \   000011   E9           MOV       A,R1
   \   000012   FE           MOV       R6,A
    395          
    396            if ( status == ZSuccess )
   \   000013   7022         JNZ       ??ZDSecMgrAddrClear_0
    397            {
    398              AddrMgrEntry_t addrEntry;
    399          
    400              // Clear SECURITY User bit from the address manager
    401              addrEntry.user = ADDRMGR_USER_SECURITY;
   \   000015   7402         MOV       A,#0x2
   \   000017   12....       LCALL     ?XSTACK_DISP0_8
   \   00001A   7402         MOV       A,#0x2
   \   00001C   F0           MOVX      @DPTR,A
    402              addrEntry.index = entryAmi;
   \   00001D   12....       LCALL     ?Subroutine32 & 0xFFFF
   \                     ??CrossCallReturnLabel_166:
   \   000020   740D         MOV       A,#0xd
   \   000022   12....       LCALL     ?XSTACK_DISP0_8
   \   000025   12....       LCALL     ??Subroutine86_0 & 0xFFFF
    403          
    404              if ( AddrMgrEntryRelease( &addrEntry ) != TRUE )
   \                     ??CrossCallReturnLabel_187:
   \   000028                ; Setup parameters for call to function AddrMgrEntryRelease
   \   000028   7402         MOV       A,#0x2
   \   00002A   12....       LCALL     ?XSTACK_DISP101_8
   \   00002D   12....       LCALL     `??AddrMgrEntryRelease::?relay`; Banked call to: AddrMgrEntryRelease
   \   000030   E9           MOV       A,R1
   \   000031   6401         XRL       A,#0x1
   \   000033   6002         JZ        ??ZDSecMgrAddrClear_0
    405              {
    406                // return failure results
    407                status = ZFailure;
   \   000035   7E01         MOV       R6,#0x1
    408              }
    409            }
    410          
    411            return status;
   \                     ??ZDSecMgrAddrClear_0:
   \   000037   EE           MOV       A,R6
   \   000038   F9           MOV       R1,A
   \   000039   740F         MOV       A,#0xf
   \   00003B   02....       LJMP      ??Subroutine82_0 & 0xFFFF
    412          }

   \                                 In  segment BANKED_CODE, align 1, keep-with-next
   \                     ?Subroutine74:
   \   000000   E0           MOVX      A,@DPTR
   \   000001   F8           MOV       R0,A
   \   000002   A3           INC       DPTR
   \   000003   E0           MOVX      A,@DPTR
   \   000004   F9           MOV       R1,A
   \   000005   22           RET

   \                                 In  segment BANKED_CODE, align 1, keep-with-next
   \                     ?Subroutine32:
   \   000000   85..82       MOV       DPL,?XSP + 0
   \   000003   85..83       MOV       DPH,?XSP + 1
   \   000006                REQUIRE ??Subroutine84_0
   \   000006                ; // Fall through to label ??Subroutine84_0

   \                                 In  segment BANKED_CODE, align 1, keep-with-next
   \                     ??Subroutine84_0:
   \   000000   12....       LCALL     ?Subroutine74 & 0xFFFF
   \                     ??CrossCallReturnLabel_171:
   \   000003   22           RET

   \                                 In  segment BANKED_CODE, align 1, keep-with-next
   \                     ??Subroutine86_0:
   \   000000   E8           MOV       A,R0
   \   000001   F0           MOVX      @DPTR,A
   \   000002   A3           INC       DPTR
   \   000003   E9           MOV       A,R1
   \   000004   F0           MOVX      @DPTR,A
   \   000005   22           RET
    413          
    414          /******************************************************************************
    415           * @fn          ZDSecMgrEntryInit
    416           *
    417           * @brief       Initialize entry sub module
    418           *
    419           * @param       state - device initialization state
    420           *
    421           * @return      none
    422           */

   \                                 In  segment BANKED_CODE, align 1, keep-with-next
    423          void ZDSecMgrEntryInit(uint8 state)
   \                     ZDSecMgrEntryInit:
    424          {
   \   000000   74F7         MOV       A,#-0x9
   \   000002   12....       LCALL     ?BANKED_ENTER_XDATA
   \   000005                ; Saved register size: 9
   \   000005                ; Auto size: 0
   \   000005   E9           MOV       A,R1
   \   000006   FE           MOV       R6,A
    425            if (ZDSecMgrEntries == NULL)
   \   000007   90....       MOV       DPTR,#ZDSecMgrEntries
   \   00000A   12....       LCALL     ??Subroutine85_0 & 0xFFFF
   \                     ??CrossCallReturnLabel_172:
   \   00000D   702F         JNZ       ??ZDSecMgrEntryInit_0
    426            {
    427              uint16 index;
    428          
    429              if ((ZDSecMgrEntries = osal_mem_alloc(sizeof(ZDSecMgrEntry_t) * ZDSECMGR_ENTRY_MAX)) == NULL)
   \   00000F                ; Setup parameters for call to function osal_mem_alloc
   \   00000F   7A0F         MOV       R2,#0xf
   \   000011   7B00         MOV       R3,#0x0
   \   000013   12....       LCALL     `??osal_mem_alloc::?relay`; Banked call to: osal_mem_alloc
   \   000016   90....       MOV       DPTR,#ZDSecMgrEntries
   \   000019   12....       LCALL     ??Subroutine93_0 & 0xFFFF
   \                     ??CrossCallReturnLabel_227:
   \   00001C   F9           MOV       R1,A
   \   00001D   EA           MOV       A,R2
   \   00001E   49           ORL       A,R1
   \   00001F   6023         JZ        ??ZDSecMgrEntryInit_1
    430              {
    431                return;
    432              }
    433          
    434              for (index = 0; index < ZDSECMGR_ENTRY_MAX; index++)
   \   000021   7800         MOV       R0,#0x0
   \   000023   7900         MOV       R1,#0x0
    435              {
    436                ZDSecMgrEntries[index].ami = INVALID_NODE_ADDR;
   \                     ??ZDSecMgrEntryInit_2:
   \   000025   12....       LCALL     ?Subroutine38 & 0xFFFF
    437          
    438                ZDSecMgrEntries[index].keyNvId = SEC_NO_KEY_NV_ID;
    439              }
   \                     ??CrossCallReturnLabel_52:
   \   000028   74FE         MOV       A,#-0x2
   \   00002A   F0           MOVX      @DPTR,A
   \   00002B   A3           INC       DPTR
   \   00002C   04           INC       A
   \   00002D   12....       LCALL     ??Subroutine79_0 & 0xFFFF
   \                     ??CrossCallReturnLabel_134:
   \   000030   E4           CLR       A
   \   000031   F0           MOVX      @DPTR,A
   \   000032   A3           INC       DPTR
   \   000033   F0           MOVX      @DPTR,A
   \   000034   08           INC       R0
   \   000035   E8           MOV       A,R0
   \   000036   7001         JNZ       ??ZDSecMgrEntryInit_3
   \   000038   09           INC       R1
   \                     ??ZDSecMgrEntryInit_3:
   \   000039   12....       LCALL     ?Subroutine49 & 0xFFFF
    440            }
   \                     ??CrossCallReturnLabel_127:
   \   00003C   40E7         JC        ??ZDSecMgrEntryInit_2
    441          
    442          #if defined NV_RESTORE
    443            if (state == ZDO_INITDEV_RESTORED_NETWORK_STATE)
   \                     ??ZDSecMgrEntryInit_0:
   \   00003E   EE           MOV       A,R6
   \   00003F   7003         JNZ       ??ZDSecMgrEntryInit_1
    444            {
    445              ZDSecMgrRestoreFromNV();
   \   000041                ; Setup parameters for call to function ZDSecMgrRestoreFromNV
   \   000041   12....       LCALL     `??ZDSecMgrRestoreFromNV::?relay`; Banked call to: ZDSecMgrRestoreFromNV
    446            }
    447          #else
    448            (void)state;
    449          #endif
    450          }
   \                     ??ZDSecMgrEntryInit_1:
   \   000044   02....       LJMP      ??Subroutine83_0 & 0xFFFF

   \                                 In  segment BANKED_CODE, align 1, keep-with-next
   \                     ?Subroutine49:
   \   000000   C3           CLR       C
   \   000001                REQUIRE ??Subroutine78_0
   \   000001                ; // Fall through to label ??Subroutine78_0

   \                                 In  segment BANKED_CODE, align 1, keep-with-next
   \                     ??Subroutine78_0:
   \   000000   9403         SUBB      A,#0x3
   \   000002   E9           MOV       A,R1
   \   000003   9400         SUBB      A,#0x0
   \   000005   22           RET

   \                                 In  segment BANKED_CODE, align 1, keep-with-next
   \                     ?Subroutine38:
   \   000000   12....       LCALL     ?Subroutine75 & 0xFFFF
   \                     ??CrossCallReturnLabel_118:
   \   000003   8A82         MOV       DPL,R2
   \   000005   F583         MOV       DPH,A
   \   000007   22           RET

   \                                 In  segment BANKED_CODE, align 1, keep-with-next
   \                     ?Subroutine75:
   \   000000   E8           MOV       A,R0
   \   000001   FA           MOV       R2,A
   \   000002   E9           MOV       A,R1
   \   000003   FB           MOV       R3,A
   \   000004   EA           MOV       A,R2
   \   000005   75F005       MOV       B,#0x5
   \   000008   A4           MUL       AB
   \   000009   FA           MOV       R2,A
   \   00000A   ACF0         MOV       R4,B
   \   00000C   75F005       MOV       B,#0x5
   \   00000F   EB           MOV       A,R3
   \   000010   A4           MUL       AB
   \   000011   2C           ADD       A,R4
   \   000012   FB           MOV       R3,A
   \   000013   90....       MOV       DPTR,#ZDSecMgrEntries
   \   000016   E0           MOVX      A,@DPTR
   \   000017   2A           ADD       A,R2
   \   000018   FA           MOV       R2,A
   \   000019   A3           INC       DPTR
   \   00001A   E0           MOVX      A,@DPTR
   \   00001B   3B           ADDC      A,R3
   \   00001C   FB           MOV       R3,A
   \   00001D   22           RET

   \                                 In  segment BANKED_CODE, align 1, keep-with-next
   \                     ??Subroutine79_0:
   \   000000   F0           MOVX      @DPTR,A
   \   000001   8A82         MOV       DPL,R2
   \   000003   8B83         MOV       DPH,R3
   \   000005   A3           INC       DPTR
   \   000006   A3           INC       DPTR
   \   000007   22           RET

   \                                 In  segment BANKED_CODE, align 1, keep-with-next
   \                     ??Subroutine85_0:
   \   000000   12....       LCALL     ?Subroutine73 & 0xFFFF
   \                     ??CrossCallReturnLabel_186:
   \   000003   49           ORL       A,R1
   \   000004   22           RET

   \                                 In  segment BANKED_CODE, align 1, keep-with-next
   \                     ??Subroutine93_0:
   \   000000   EA           MOV       A,R2
   \   000001   F0           MOVX      @DPTR,A
   \   000002   A3           INC       DPTR
   \   000003   EB           MOV       A,R3
   \   000004   F0           MOVX      @DPTR,A
   \   000005   22           RET
    451          
    452          /******************************************************************************
    453           * @fn          ZDSecMgrEntryLookup
    454           *
    455           * @brief       Lookup entry index using specified NWK address.
    456           *
    457           * @param       nwkAddr - [in] NWK address
    458           * @param       entry   - [out] valid entry
    459           *
    460           * @return      ZStatus_t
    461           */

   \                                 In  segment BANKED_CODE, align 1, keep-with-next
    462          ZStatus_t ZDSecMgrEntryLookup( uint16 nwkAddr, ZDSecMgrEntry_t** entry )
   \                     ZDSecMgrEntryLookup:
    463          {
   \   000000                REQUIRE ?V0
   \   000000   74F7         MOV       A,#-0x9
   \   000002   12....       LCALL     ?BANKED_ENTER_XDATA
   \   000005                ; Saved register size: 9
   \   000005                ; Auto size: 13
   \   000005   74F3         MOV       A,#-0xd
   \   000007   12....       LCALL     ?ALLOC_XSTACK8
   \   00000A   EC           MOV       A,R4
   \   00000B   FE           MOV       R6,A
   \   00000C   ED           MOV       A,R5
   \   00000D   FF           MOV       R7,A
    464            uint16         index;
    465            AddrMgrEntry_t addrMgrEntry;
    466          
    467            // initialize results
    468            *entry = NULL;
   \   00000E   8C82         MOV       DPL,R4
   \   000010   F583         MOV       DPH,A
   \   000012   12....       LCALL     ?Subroutine10 & 0xFFFF
    469          
    470            // verify data is available
    471            if ( ZDSecMgrEntries != NULL )
   \                     ??CrossCallReturnLabel_0:
   \   000015   6042         JZ        ??ZDSecMgrEntryLookup_0
    472            {
    473              addrMgrEntry.user    = ADDRMGR_USER_SECURITY;
   \   000017   85..82       MOV       DPL,?XSP + 0
   \   00001A   85..83       MOV       DPH,?XSP + 1
   \   00001D   7402         MOV       A,#0x2
   \   00001F   F0           MOVX      @DPTR,A
    474              addrMgrEntry.nwkAddr = nwkAddr;
   \   000020   14           DEC       A
   \   000021   12....       LCALL     ?XSTACK_DISP0_8
   \   000024   12....       LCALL     ?Subroutine21 & 0xFFFF
    475          
    476              if ( AddrMgrEntryLookupNwk( &addrMgrEntry ) == TRUE )
   \                     ??CrossCallReturnLabel_220:
   \   000027   12....       LCALL     ?Subroutine50 & 0xFFFF
   \                     ??CrossCallReturnLabel_72:
   \   00002A   702D         JNZ       ??ZDSecMgrEntryLookup_0
    477              {
    478                for ( index = 0; index < ZDSECMGR_ENTRY_MAX ; index++ )
   \   00002C   7800         MOV       R0,#0x0
   \   00002E   7900         MOV       R1,#0x0
    479                {
    480                  if ( addrMgrEntry.index == ZDSecMgrEntries[index].ami )
   \                     ??ZDSecMgrEntryLookup_1:
   \   000030   12....       LCALL     ?Subroutine75 & 0xFFFF
   \                     ??CrossCallReturnLabel_117:
   \   000033   740B         MOV       A,#0xb
   \   000035   12....       LCALL     ?XSTACK_DISP0_8
   \   000038   12....       LCALL     ?Subroutine33 & 0xFFFF
   \                     ??CrossCallReturnLabel_33:
   \   00003B   8A82         MOV       DPL,R2
   \   00003D   8B83         MOV       DPH,R3
   \   00003F   E0           MOVX      A,@DPTR
   \   000040   6C           XRL       A,R4
   \   000041   7003         JNZ       ??ZDSecMgrEntryLookup_2
   \   000043   A3           INC       DPTR
   \   000044   E0           MOVX      A,@DPTR
   \   000045   6D           XRL       A,R5
   \                     ??ZDSecMgrEntryLookup_2:
   \   000046   7007         JNZ       ??ZDSecMgrEntryLookup_3
    481                  {
    482                    // return successful results
    483                    *entry = &ZDSecMgrEntries[index];
   \   000048   12....       LCALL     ?Subroutine23 & 0xFFFF
    484          
    485                    // break from loop
    486                    return ZSuccess;
   \                     ??CrossCallReturnLabel_234:
   \   00004B   7900         MOV       R1,#0x0
   \   00004D   800C         SJMP      ??ZDSecMgrEntryLookup_4
    487                  }
    488                }
   \                     ??ZDSecMgrEntryLookup_3:
   \   00004F   08           INC       R0
   \   000050   E8           MOV       A,R0
   \   000051   7001         JNZ       ??ZDSecMgrEntryLookup_5
   \   000053   09           INC       R1
   \                     ??ZDSecMgrEntryLookup_5:
   \   000054   12....       LCALL     ?Subroutine49 & 0xFFFF
    489              }
    490            }
   \                     ??CrossCallReturnLabel_128:
   \   000057   40D7         JC        ??ZDSecMgrEntryLookup_1
    491          
    492            return ZNwkUnknownDevice;
   \                     ??ZDSecMgrEntryLookup_0:
   \   000059   79C8         MOV       R1,#-0x38
   \                     ??ZDSecMgrEntryLookup_4:
   \   00005B   02....       LJMP      ?Subroutine0 & 0xFFFF
    493          }

   \                                 In  segment BANKED_CODE, align 1, keep-with-next
   \                     ?Subroutine10:
   \   000000   E4           CLR       A
   \   000001   F0           MOVX      @DPTR,A
   \   000002   A3           INC       DPTR
   \   000003   F0           MOVX      @DPTR,A
   \   000004   90....       MOV       DPTR,#ZDSecMgrEntries
   \   000007   12....       LCALL     ?Subroutine73 & 0xFFFF
   \                     ??CrossCallReturnLabel_184:
   \   00000A   49           ORL       A,R1
   \   00000B   22           RET

   \                                 In  segment BANKED_CODE, align 1, keep-with-next
   \                     ?Subroutine33:
   \   000000   E0           MOVX      A,@DPTR
   \   000001   FC           MOV       R4,A
   \   000002   A3           INC       DPTR
   \   000003   E0           MOVX      A,@DPTR
   \   000004   FD           MOV       R5,A
   \   000005   22           RET

   \                                 In  segment BANKED_CODE, align 1, keep-with-next
   \                     ?Subroutine21:
   \   000000   EA           MOV       A,R2
   \   000001   F0           MOVX      @DPTR,A
   \   000002   A3           INC       DPTR
   \   000003   EB           MOV       A,R3
   \   000004                REQUIRE ??Subroutine92_0
   \   000004                ; // Fall through to label ??Subroutine92_0

   \                                 In  segment BANKED_CODE, align 1, keep-with-next
   \                     ??Subroutine92_0:
   \   000000   F0           MOVX      @DPTR,A
   \   000001                ; Setup parameters for call to function AddrMgrEntryLookupNwk
   \   000001                ; Setup parameters for call to function APSME_RequestKeyReq
   \   000001                ; Setup parameters for call to function APSME_ConfirmKeyReq
   \   000001                ; Setup parameters for call to function ZDSecMgrDeviceNew
   \   000001                ; Setup parameters for call to function ZDSecMgrDeviceRemove
   \   000001                ; Setup parameters for call to function APSME_TransportKeyReq
   \   000001                ; Setup parameters for call to function APSME_SwitchKeyReq
   \   000001   AA..         MOV       R2,?XSP + 0
   \   000003   AB..         MOV       R3,?XSP + 1
   \   000005   22           RET

   \                                 In  segment BANKED_CODE, align 1, keep-with-next
   \                     ?Subroutine50:
   \   000000   12....       LCALL     `??AddrMgrEntryLookupNwk::?relay`; Banked call to: AddrMgrEntryLookupNwk
   \   000003   E9           MOV       A,R1
   \   000004   6401         XRL       A,#0x1
   \   000006   22           RET

   \                                 In  segment BANKED_CODE, align 1, keep-with-next
   \                     ?Subroutine23:
   \   000000   8E82         MOV       DPL,R6
   \   000002   8F83         MOV       DPH,R7
   \   000004                REQUIRE ??Subroutine93_0
   \   000004                ; // Fall through to label ??Subroutine93_0
    494          
    495          /******************************************************************************
    496           * @fn          ZDSecMgrEntryLookupAMI
    497           *
    498           * @brief       Lookup entry using specified address index
    499           *
    500           * @param       ami   - [in] Address Manager index
    501           * @param       entry - [out] valid entry
    502           *
    503           * @return      ZStatus_t
    504           */

   \                                 In  segment BANKED_CODE, align 1, keep-with-next
    505          ZStatus_t ZDSecMgrEntryLookupAMI( uint16 ami, ZDSecMgrEntry_t** entry )
   \                     ZDSecMgrEntryLookupAMI:
    506          {
   \   000000                REQUIRE ?V0
   \   000000   74F7         MOV       A,#-0x9
   \   000002   12....       LCALL     ?BANKED_ENTER_XDATA
   \   000005                ; Saved register size: 9
   \   000005                ; Auto size: 0
    507            uint16 index;
    508          
    509            // initialize results
    510            *entry = NULL;
   \   000005   8C82         MOV       DPL,R4
   \   000007   8D83         MOV       DPH,R5
   \   000009   12....       LCALL     ?Subroutine10 & 0xFFFF
    511          
    512            // verify data is available
    513            if ( ZDSecMgrEntries != NULL )
   \                     ??CrossCallReturnLabel_1:
   \   00000C   6030         JZ        ??ZDSecMgrEntryLookupAMI_0
    514            {
    515              for ( index = 0; index < ZDSECMGR_ENTRY_MAX ; index++ )
   \   00000E   7800         MOV       R0,#0x0
   \   000010   7900         MOV       R1,#0x0
    516              {
    517                if ( ZDSecMgrEntries[index].ami == ami )
   \                     ??ZDSecMgrEntryLookupAMI_1:
   \   000012   12....       LCALL     ?Subroutine51 & 0xFFFF
   \                     ??CrossCallReturnLabel_76:
   \   000015   FE           MOV       R6,A
   \   000016   A3           INC       DPTR
   \   000017   E0           MOVX      A,@DPTR
   \   000018   3F           ADDC      A,R7
   \   000019   FF           MOV       R7,A
   \   00001A   8E82         MOV       DPL,R6
   \   00001C   F583         MOV       DPH,A
   \   00001E   E0           MOVX      A,@DPTR
   \   00001F   6A           XRL       A,R2
   \   000020   7003         JNZ       ??ZDSecMgrEntryLookupAMI_2
   \   000022   A3           INC       DPTR
   \   000023   E0           MOVX      A,@DPTR
   \   000024   6B           XRL       A,R3
   \                     ??ZDSecMgrEntryLookupAMI_2:
   \   000025   700D         JNZ       ??ZDSecMgrEntryLookupAMI_3
    518                {
    519                  // return successful results
    520                  *entry = &ZDSecMgrEntries[index];
   \   000027   8C82         MOV       DPL,R4
   \   000029   8D83         MOV       DPH,R5
   \   00002B   EE           MOV       A,R6
   \   00002C   F0           MOVX      @DPTR,A
   \   00002D   A3           INC       DPTR
   \   00002E   EF           MOV       A,R7
   \   00002F   F0           MOVX      @DPTR,A
    521          
    522                  // break from loop
    523                  return ZSuccess;
   \   000030   7900         MOV       R1,#0x0
   \   000032   800C         SJMP      ??ZDSecMgrEntryLookupAMI_4
    524                }
    525              }
   \                     ??ZDSecMgrEntryLookupAMI_3:
   \   000034   08           INC       R0
   \   000035   E8           MOV       A,R0
   \   000036   7001         JNZ       ??ZDSecMgrEntryLookupAMI_5
   \   000038   09           INC       R1
   \                     ??ZDSecMgrEntryLookupAMI_5:
   \   000039   12....       LCALL     ?Subroutine49 & 0xFFFF
    526            }
   \                     ??CrossCallReturnLabel_129:
   \   00003C   40D4         JC        ??ZDSecMgrEntryLookupAMI_1
    527          
    528            return ZNwkUnknownDevice;
   \                     ??ZDSecMgrEntryLookupAMI_0:
   \   00003E   79C8         MOV       R1,#-0x38
   \                     ??ZDSecMgrEntryLookupAMI_4:
   \   000040   02....       LJMP      ??Subroutine83_0 & 0xFFFF
    529          }

   \                                 In  segment BANKED_CODE, align 1, keep-with-next
   \                     ?Subroutine51:
   \   000000   E8           MOV       A,R0
   \   000001   FE           MOV       R6,A
   \   000002   E9           MOV       A,R1
   \   000003   FF           MOV       R7,A
   \   000004   EE           MOV       A,R6
   \   000005   75F005       MOV       B,#0x5
   \   000008   A4           MUL       AB
   \   000009   FE           MOV       R6,A
   \   00000A   85F0..       MOV       ?V0,B
   \   00000D   75F005       MOV       B,#0x5
   \   000010   EF           MOV       A,R7
   \   000011   A4           MUL       AB
   \   000012   25..         ADD       A,?V0
   \   000014   FF           MOV       R7,A
   \   000015   90....       MOV       DPTR,#ZDSecMgrEntries
   \   000018   E0           MOVX      A,@DPTR
   \   000019   2E           ADD       A,R6
   \   00001A   22           RET
    530          
    531          /******************************************************************************
    532           * @fn          ZDSecMgrEntryLookupExt
    533           *
    534           * @brief       Lookup entry index using specified EXT address.
    535           *
    536           * @param       extAddr - [in] EXT address
    537           * @param       entry   - [out] valid entry
    538           *
    539           * @return      ZStatus_t
    540           */

   \                                 In  segment BANKED_CODE, align 1, keep-with-next
    541          ZStatus_t ZDSecMgrEntryLookupExt( uint8* extAddr, ZDSecMgrEntry_t** entry )
   \                     ZDSecMgrEntryLookupExt:
    542          {
   \   000000                REQUIRE ?V0
   \   000000   74F7         MOV       A,#-0x9
   \   000002   12....       LCALL     ?BANKED_ENTER_XDATA
   \   000005                ; Saved register size: 9
   \   000005                ; Auto size: 2
   \   000005   74FE         MOV       A,#-0x2
   \   000007   12....       LCALL     ?ALLOC_XSTACK8
   \   00000A   EC           MOV       A,R4
   \   00000B   FE           MOV       R6,A
   \   00000C   ED           MOV       A,R5
   \   00000D   FF           MOV       R7,A
    543            ZStatus_t status;
    544            uint16    ami;
    545          
    546            // initialize results
    547            *entry = NULL;
   \   00000E   8C82         MOV       DPL,R4
   \   000010   F583         MOV       DPH,A
   \   000012   E4           CLR       A
   \   000013   F0           MOVX      @DPTR,A
   \   000014   A3           INC       DPTR
   \   000015   F0           MOVX      @DPTR,A
    548            status = ZNwkUnknownDevice;
   \   000016   75..C8       MOV       ?V0,#-0x38
    549          
    550            // lookup address index
    551            if ( ZDSecMgrExtAddrLookup( extAddr, &ami ) == ZSuccess )
   \   000019                ; Setup parameters for call to function ZDSecMgrExtAddrLookup
   \   000019   AC..         MOV       R4,?XSP + 0
   \   00001B   AD..         MOV       R5,?XSP + 1
   \   00001D   12....       LCALL     `??ZDSecMgrExtAddrLookup::?relay`; Banked call to: ZDSecMgrExtAddrLookup
   \   000020   E9           MOV       A,R1
   \   000021   7010         JNZ       ??ZDSecMgrEntryLookupExt_0
    552            {
    553              status = ZDSecMgrEntryLookupAMI( ami, entry );
   \   000023                ; Setup parameters for call to function ZDSecMgrEntryLookupAMI
   \   000023   EE           MOV       A,R6
   \   000024   FC           MOV       R4,A
   \   000025   EF           MOV       A,R7
   \   000026   FD           MOV       R5,A
   \   000027   85..82       MOV       DPL,?XSP + 0
   \   00002A   85..83       MOV       DPH,?XSP + 1
   \   00002D   12....       LCALL     ?Subroutine34 & 0xFFFF
    554            }
   \                     ??CrossCallReturnLabel_41:
   \   000030   E9           MOV       A,R1
   \   000031   F5..         MOV       ?V0,A
    555          
    556            return status;
   \                     ??ZDSecMgrEntryLookupExt_0:
   \   000033   A9..         MOV       R1,?V0
   \   000035   02....       LJMP      ?Subroutine7 & 0xFFFF
    557          }

   \                                 In  segment BANKED_CODE, align 1, keep-with-next
   \                     ?Subroutine7:
   \   000000   7402         MOV       A,#0x2
   \   000002   02....       LJMP      ??Subroutine82_0 & 0xFFFF

   \                                 In  segment BANKED_CODE, align 1, keep-with-next
   \                     ?Subroutine34:
   \   000000   12....       LCALL     ?Subroutine70 & 0xFFFF
   \                     ??CrossCallReturnLabel_150:
   \   000003   12....       LCALL     `??ZDSecMgrEntryLookupAMI::?relay`; Banked call to: ZDSecMgrEntryLookupAMI
   \   000006   22           RET

   \                                 In  segment BANKED_CODE, align 1, keep-with-next
   \                     ?Subroutine70:
   \   000000   E0           MOVX      A,@DPTR
   \   000001   FA           MOV       R2,A
   \   000002   A3           INC       DPTR
   \   000003   E0           MOVX      A,@DPTR
   \   000004   FB           MOV       R3,A
   \   000005   22           RET
    558          
    559          /******************************************************************************
    560           * @fn          ZDSecMgrEntryLookupExtGetIndex
    561           *
    562           * @brief       Lookup entry index using specified EXT address.
    563           *
    564           * @param       extAddr - [in] EXT address
    565           * @param       entryIndex - [out] valid index to the entry table
    566           *
    567           * @return      ZStatus_t
    568           */

   \                                 In  segment BANKED_CODE, align 1, keep-with-next
    569          ZStatus_t ZDSecMgrEntryLookupExtGetIndex( uint8* extAddr, ZDSecMgrEntry_t** entry, uint16* entryIndex )
   \                     ZDSecMgrEntryLookupExtGetIndex:
    570          {
   \   000000   74F7         MOV       A,#-0x9
   \   000002   12....       LCALL     ?BANKED_ENTER_XDATA
   \   000005                ; Saved register size: 9
   \   000005                ; Auto size: 2
   \   000005   74FE         MOV       A,#-0x2
   \   000007   12....       LCALL     ?ALLOC_XSTACK8
   \   00000A   EC           MOV       A,R4
   \   00000B   FE           MOV       R6,A
   \   00000C   ED           MOV       A,R5
   \   00000D   FF           MOV       R7,A
    571            uint16 ami;
    572            uint16 index;
    573          
    574            // lookup address index
    575            if ( ZDSecMgrExtAddrLookup( extAddr, &ami ) == ZSuccess )
   \   00000E                ; Setup parameters for call to function ZDSecMgrExtAddrLookup
   \   00000E   AC..         MOV       R4,?XSP + 0
   \   000010   AD..         MOV       R5,?XSP + 1
   \   000012   12....       LCALL     `??ZDSecMgrExtAddrLookup::?relay`; Banked call to: ZDSecMgrExtAddrLookup
   \   000015   E9           MOV       A,R1
   \   000016   703B         JNZ       ??ZDSecMgrEntryLookupExtGetIndex_0
    576            {
    577              // verify data is available
    578              if ( ZDSecMgrEntries != NULL )
   \   000018   90....       MOV       DPTR,#ZDSecMgrEntries
   \   00001B   12....       LCALL     ??Subroutine85_0 & 0xFFFF
   \                     ??CrossCallReturnLabel_173:
   \   00001E   6033         JZ        ??ZDSecMgrEntryLookupExtGetIndex_0
    579              {
    580                for ( index = 0; index < ZDSECMGR_ENTRY_MAX ; index++ )
   \   000020   7800         MOV       R0,#0x0
   \   000022   7900         MOV       R1,#0x0
    581                {
    582                  if ( ZDSecMgrEntries[index].ami == ami )
   \                     ??ZDSecMgrEntryLookupExtGetIndex_1:
   \   000024   12....       LCALL     ?Subroutine38 & 0xFFFF
   \                     ??CrossCallReturnLabel_53:
   \   000027   12....       LCALL     ?Subroutine33 & 0xFFFF
   \                     ??CrossCallReturnLabel_34:
   \   00002A   85..82       MOV       DPL,?XSP + 0
   \   00002D   85..83       MOV       DPH,?XSP + 1
   \   000030   E0           MOVX      A,@DPTR
   \   000031   6C           XRL       A,R4
   \   000032   7003         JNZ       ??ZDSecMgrEntryLookupExtGetIndex_2
   \   000034   A3           INC       DPTR
   \   000035   E0           MOVX      A,@DPTR
   \   000036   6D           XRL       A,R5
   \                     ??ZDSecMgrEntryLookupExtGetIndex_2:
   \   000037   7010         JNZ       ??ZDSecMgrEntryLookupExtGetIndex_3
    583                  {
    584                    // return successful results
    585                    *entry = &ZDSecMgrEntries[index];
   \   000039   12....       LCALL     ?Subroutine23 & 0xFFFF
    586                    *entryIndex = index;
   \                     ??CrossCallReturnLabel_235:
   \   00003C   740B         MOV       A,#0xb
   \   00003E   12....       LCALL     ?XSTACK_DISP0_8
   \   000041   12....       LCALL     ??Subroutine96_0 & 0xFFFF
    587          
    588                    // break from loop
    589                    return ZSuccess;
    590                  }
    591                }
   \                     ??CrossCallReturnLabel_239:
   \   000044   12....       LCALL     ??Subroutine77_0 & 0xFFFF
   \                     ??CrossCallReturnLabel_124:
   \   000047   800C         SJMP      ??ZDSecMgrEntryLookupExtGetIndex_4
   \                     ??ZDSecMgrEntryLookupExtGetIndex_3:
   \   000049   08           INC       R0
   \   00004A   E8           MOV       A,R0
   \   00004B   7001         JNZ       ??ZDSecMgrEntryLookupExtGetIndex_5
   \   00004D   09           INC       R1
   \                     ??ZDSecMgrEntryLookupExtGetIndex_5:
   \   00004E   12....       LCALL     ?Subroutine49 & 0xFFFF
    592              }
    593            }
   \                     ??CrossCallReturnLabel_130:
   \   000051   40D1         JC        ??ZDSecMgrEntryLookupExtGetIndex_1
    594          
    595            return ZNwkUnknownDevice;
   \                     ??ZDSecMgrEntryLookupExtGetIndex_0:
   \   000053   79C8         MOV       R1,#-0x38
   \                     ??ZDSecMgrEntryLookupExtGetIndex_4:
   \   000055   02....       LJMP      ?Subroutine7 & 0xFFFF
    596          }

   \                                 In  segment BANKED_CODE, align 1, keep-with-next
   \                     ??Subroutine96_0:
   \   000000   E0           MOVX      A,@DPTR
   \   000001   FA           MOV       R2,A
   \   000002   A3           INC       DPTR
   \   000003   E0           MOVX      A,@DPTR
   \   000004   F583         MOV       DPH,A
   \   000006   8A82         MOV       DPL,R2
   \   000008   22           RET
    597          
    598          /******************************************************************************
    599           * @fn          ZDSecMgrEntryLookupAMIGetIndex
    600           *
    601           * @brief       Lookup entry using specified address index
    602           *
    603           * @param       ami   - [in] Address Manager index
    604           * @param       entryIndex - [out] valid index to the entry table
    605           *
    606           * @return      ZStatus_t
    607           */

   \                                 In  segment BANKED_CODE, align 1, keep-with-next
    608          ZStatus_t ZDSecMgrEntryLookupAMIGetIndex( uint16 ami, uint16* entryIndex )
   \                     ZDSecMgrEntryLookupAMIGetIndex:
    609          {
   \   000000                REQUIRE ?V0
   \   000000   74F7         MOV       A,#-0x9
   \   000002   12....       LCALL     ?BANKED_ENTER_XDATA
   \   000005                ; Saved register size: 9
   \   000005                ; Auto size: 0
    610            uint16 index;
    611          
    612            // verify data is available
    613            if ( ZDSecMgrEntries != NULL )
   \   000005   90....       MOV       DPTR,#ZDSecMgrEntries
   \   000008   12....       LCALL     ??Subroutine85_0 & 0xFFFF
   \                     ??CrossCallReturnLabel_174:
   \   00000B   602D         JZ        ??ZDSecMgrEntryLookupAMIGetIndex_0
    614            {
    615              for ( index = 0; index < ZDSECMGR_ENTRY_MAX ; index++ )
   \   00000D   7800         MOV       R0,#0x0
   \   00000F   7900         MOV       R1,#0x0
    616              {
    617                if ( ZDSecMgrEntries[index].ami == ami )
   \                     ??ZDSecMgrEntryLookupAMIGetIndex_1:
   \   000011   12....       LCALL     ?Subroutine51 & 0xFFFF
   \                     ??CrossCallReturnLabel_77:
   \   000014   F5..         MOV       ?V0,A
   \   000016   A3           INC       DPTR
   \   000017   E0           MOVX      A,@DPTR
   \   000018   3F           ADDC      A,R7
   \   000019   85..82       MOV       DPL,?V0
   \   00001C   F583         MOV       DPH,A
   \   00001E   E0           MOVX      A,@DPTR
   \   00001F   6A           XRL       A,R2
   \   000020   7003         JNZ       ??ZDSecMgrEntryLookupAMIGetIndex_2
   \   000022   A3           INC       DPTR
   \   000023   E0           MOVX      A,@DPTR
   \   000024   6B           XRL       A,R3
   \                     ??ZDSecMgrEntryLookupAMIGetIndex_2:
   \   000025   7009         JNZ       ??ZDSecMgrEntryLookupAMIGetIndex_3
    618                {
    619                  // return successful results
    620                  *entryIndex = index;
   \   000027   8C82         MOV       DPL,R4
   \   000029   8D83         MOV       DPH,R5
   \   00002B   12....       LCALL     ??Subroutine77_0 & 0xFFFF
    621          
    622                  // break from loop
    623                  return ZSuccess;
    624                }
    625              }
   \                     ??CrossCallReturnLabel_125:
   \   00002E   800C         SJMP      ??ZDSecMgrEntryLookupAMIGetIndex_4
   \                     ??ZDSecMgrEntryLookupAMIGetIndex_3:
   \   000030   08           INC       R0
   \   000031   E8           MOV       A,R0
   \   000032   7001         JNZ       ??ZDSecMgrEntryLookupAMIGetIndex_5
   \   000034   09           INC       R1
   \                     ??ZDSecMgrEntryLookupAMIGetIndex_5:
   \   000035   12....       LCALL     ?Subroutine49 & 0xFFFF
    626            }
   \                     ??CrossCallReturnLabel_131:
   \   000038   40D7         JC        ??ZDSecMgrEntryLookupAMIGetIndex_1
    627          
    628            return ZNwkUnknownDevice;
   \                     ??ZDSecMgrEntryLookupAMIGetIndex_0:
   \   00003A   79C8         MOV       R1,#-0x38
   \                     ??ZDSecMgrEntryLookupAMIGetIndex_4:
   \   00003C   02....       LJMP      ??Subroutine83_0 & 0xFFFF
    629          }
    630          
    631          /******************************************************************************
    632           * @fn          ZDSecMgrEntryFree
    633           *
    634           * @brief       Free entry.
    635           *
    636           * @param       entry - [in] valid entry
    637           *
    638           * @return      ZStatus_t
    639           */

   \                                 In  segment BANKED_CODE, align 1, keep-with-next
    640          void ZDSecMgrEntryFree( ZDSecMgrEntry_t* entry )
   \                     ZDSecMgrEntryFree:
    641          {
   \   000000                REQUIRE ?V0
   \   000000                REQUIRE ?V1
   \   000000                REQUIRE ?V2
   \   000000                REQUIRE ?V4
   \   000000                REQUIRE ?V5
   \   000000                REQUIRE ?V6
   \   000000                REQUIRE ?V7
   \   000000   74F0         MOV       A,#-0x10
   \   000002   12....       LCALL     ?BANKED_ENTER_XDATA
   \   000005                ; Saved register size: 16
   \   000005                ; Auto size: 4
   \   000005   74FC         MOV       A,#-0x4
   \   000007   12....       LCALL     ?ALLOC_XSTACK8
   \   00000A   EA           MOV       A,R2
   \   00000B   FE           MOV       R6,A
   \   00000C   EB           MOV       A,R3
   \   00000D   FF           MOV       R7,A
    642            APSME_LinkKeyData_t   *pApsLinkKey = NULL;
    643          
    644          #if defined ( NV_RESTORE )
    645            ZStatus_t status;
    646            uint16 entryIndex;
    647          
    648            status = ZDSecMgrEntryLookupAMIGetIndex( entry->ami, &entryIndex );
   \   00000E                ; Setup parameters for call to function ZDSecMgrEntryLookupAMIGetIndex
   \   00000E   7402         MOV       A,#0x2
   \   000010   12....       LCALL     ?XSTACK_DISP102_8
   \   000013   8A82         MOV       DPL,R2
   \   000015   8B83         MOV       DPH,R3
   \   000017   12....       LCALL     ??Subroutine80_0 & 0xFFFF
   \                     ??CrossCallReturnLabel_135:
   \   00001A   12....       LCALL     `??ZDSecMgrEntryLookupAMIGetIndex::?relay`; Banked call to: ZDSecMgrEntryLookupAMIGetIndex
   \   00001D   E9           MOV       A,R1
   \   00001E   F5..         MOV       ?V2,A
    649          #endif
    650          
    651            pApsLinkKey = (APSME_LinkKeyData_t *)osal_mem_alloc(sizeof(APSME_LinkKeyData_t));
   \   000020                ; Setup parameters for call to function osal_mem_alloc
   \   000020   7A18         MOV       R2,#0x18
   \   000022   7B00         MOV       R3,#0x0
   \   000024   12....       LCALL     `??osal_mem_alloc::?relay`; Banked call to: osal_mem_alloc
   \   000027   8A..         MOV       ?V4,R2
   \   000029   8B..         MOV       ?V5,R3
    652          
    653            if (pApsLinkKey != NULL)
   \   00002B   EA           MOV       A,R2
   \   00002C   4B           ORL       A,R3
   \   00002D   603B         JZ        ??ZDSecMgrEntryFree_0
    654            {
    655              osal_memset( pApsLinkKey, 0x00, sizeof(APSME_LinkKeyData_t) );
   \   00002F                ; Setup parameters for call to function osal_memset
   \   00002F   7C18         MOV       R4,#0x18
   \   000031   7D00         MOV       R5,#0x0
   \   000033   7900         MOV       R1,#0x0
   \   000035   12....       LCALL     `??osal_memset::?relay`; Banked call to: osal_memset
    656          
    657              // Clear the APS Link key in NV
    658              osal_nv_write( entry->keyNvId, 0,
    659                                  sizeof(APSME_LinkKeyData_t), pApsLinkKey);
   \   000038   EE           MOV       A,R6
   \   000039   12....       LCALL     ?Subroutine53 & 0xFFFF
   \                     ??CrossCallReturnLabel_80:
   \   00003C                ; Setup parameters for call to function osal_nv_write
   \   00003C   78..         MOV       R0,#?V4
   \   00003E   12....       LCALL     ?PUSH_XSTACK_I_TWO
   \   000041   75..18       MOV       ?V6,#0x18
   \   000044   75..00       MOV       ?V7,#0x0
   \   000047   78..         MOV       R0,#?V6
   \   000049   12....       LCALL     ?PUSH_XSTACK_I_TWO
   \   00004C   7C00         MOV       R4,#0x0
   \   00004E   7D00         MOV       R5,#0x0
   \   000050   12....       LCALL     ?Subroutine42 & 0xFFFF
   \                     ??CrossCallReturnLabel_147:
   \   000053   12....       LCALL     ??Subroutine101_0 & 0xFFFF
   \                     ??CrossCallReturnLabel_262:
   \   000056   12....       LCALL     ?DEALLOC_XSTACK8
    660          
    661              // set entry to invalid Key
    662              entry->keyNvId = SEC_NO_KEY_NV_ID;
   \   000059   85..82       MOV       DPL,?V0
   \   00005C   85..83       MOV       DPH,?V1
   \   00005F   E4           CLR       A
   \   000060   F0           MOVX      @DPTR,A
   \   000061   A3           INC       DPTR
   \   000062   F0           MOVX      @DPTR,A
    663          
    664              osal_mem_free(pApsLinkKey);
   \   000063                ; Setup parameters for call to function osal_mem_free
   \   000063   AA..         MOV       R2,?V4
   \   000065   AB..         MOV       R3,?V5
   \   000067   12....       LCALL     `??osal_mem_free::?relay`; Banked call to: osal_mem_free
    665            }
    666          
    667            // marking the entry as INVALID_NODE_ADDR
    668            entry->ami = INVALID_NODE_ADDR;
   \                     ??ZDSecMgrEntryFree_0:
   \   00006A   8E82         MOV       DPL,R6
   \   00006C   8F83         MOV       DPH,R7
   \   00006E   74FE         MOV       A,#-0x2
   \   000070   F0           MOVX      @DPTR,A
   \   000071   A3           INC       DPTR
   \   000072   04           INC       A
   \   000073   F0           MOVX      @DPTR,A
    669          
    670            // set to default value
    671            entry->authenticateOption = ZDSecMgr_Not_Authenticated;
   \   000074   8E82         MOV       DPL,R6
   \   000076   8F83         MOV       DPH,R7
   \   000078   A3           INC       DPTR
   \   000079   A3           INC       DPTR
   \   00007A   A3           INC       DPTR
   \   00007B   A3           INC       DPTR
   \   00007C   E4           CLR       A
   \   00007D   F0           MOVX      @DPTR,A
    672          
    673          #if defined ( NV_RESTORE )
    674            if ( status == ZSuccess )
   \   00007E   E5..         MOV       A,?V2
   \   000080   6003         JZ        $+5
   \   000082   02....       LJMP      ??ZDSecMgrEntryFree_1 & 0xFFFF
    675            {
    676              ZDSecMgrUpdateNV(entryIndex);
   \   000085   7402         MOV       A,#0x2
   \   000087   12....       LCALL     ?XSTACK_DISP0_8
   \   00008A   12....       LCALL     ??Subroutine80_0 & 0xFFFF
    677            }
   \                     ??CrossCallReturnLabel_136:
   \   00008D   EA           MOV       A,R2
   \   00008E   75F005       MOV       B,#0x5
   \   000091   A4           MUL       AB
   \   000092   FE           MOV       R6,A
   \   000093   A8F0         MOV       R0,B
   \   000095   75F005       MOV       B,#0x5
   \   000098   EB           MOV       A,R3
   \   000099   A4           MUL       AB
   \   00009A   28           ADD       A,R0
   \   00009B   FF           MOV       R7,A
   \   00009C   90....       MOV       DPTR,#ZDSecMgrEntries
   \   00009F   12....       LCALL     ??Subroutine85_0 & 0xFFFF
   \                     ??CrossCallReturnLabel_175:
   \   0000A2   603B         JZ        ??ZDSecMgrEntryFree_2
   \   0000A4                ; Setup parameters for call to function osal_nv_write
   \   0000A4   90....       MOV       DPTR,#ZDSecMgrEntries
   \   0000A7   E0           MOVX      A,@DPTR
   \   0000A8   2E           ADD       A,R6
   \   0000A9   F5..         MOV       ?V0,A
   \   0000AB   A3           INC       DPTR
   \   0000AC   E0           MOVX      A,@DPTR
   \   0000AD   3F           ADDC      A,R7
   \   0000AE   F5..         MOV       ?V1,A
   \   0000B0   78..         MOV       R0,#?V0
   \   0000B2   12....       LCALL     ?PUSH_XSTACK_I_TWO
   \   0000B5   75..05       MOV       ?V0,#0x5
   \   0000B8   75..00       MOV       ?V1,#0x0
   \   0000BB   78..         MOV       R0,#?V0
   \   0000BD   12....       LCALL     ?PUSH_XSTACK_I_TWO
   \   0000C0   EA           MOV       A,R2
   \   0000C1   75F005       MOV       B,#0x5
   \   0000C4   A4           MUL       AB
   \   0000C5   A8F0         MOV       R0,B
   \   0000C7   75F005       MOV       B,#0x5
   \   0000CA   EB           MOV       A,R3
   \   0000CB   A4           MUL       AB
   \   0000CC   28           ADD       A,R0
   \   0000CD   FB           MOV       R3,A
   \   0000CE   EE           MOV       A,R6
   \   0000CF   2402         ADD       A,#0x2
   \   0000D1   FC           MOV       R4,A
   \   0000D2   E4           CLR       A
   \   0000D3   3B           ADDC      A,R3
   \   0000D4   FD           MOV       R5,A
   \   0000D5   7A4C         MOV       R2,#0x4c
   \   0000D7   7B00         MOV       R3,#0x0
   \   0000D9   12....       LCALL     ??Subroutine101_0 & 0xFFFF
   \                     ??CrossCallReturnLabel_281:
   \   0000DC   12....       LCALL     ?DEALLOC_XSTACK8
   \                     ??ZDSecMgrEntryFree_2:
   \   0000DF                ; Setup parameters for call to function osal_nv_read
   \   0000DF   A8..         MOV       R0,?XSP + 0
   \   0000E1   A9..         MOV       R1,?XSP + 1
   \   0000E3   88..         MOV       ?V0,R0
   \   0000E5   89..         MOV       ?V1,R1
   \   0000E7   78..         MOV       R0,#?V0
   \   0000E9   12....       LCALL     ?PUSH_XSTACK_I_TWO
   \   0000EC   75..02       MOV       ?V0,#0x2
   \   0000EF   75..00       MOV       ?V1,#0x0
   \   0000F2   78..         MOV       R0,#?V0
   \   0000F4   12....       LCALL     ?PUSH_XSTACK_I_TWO
   \   0000F7   12....       LCALL     ?Subroutine56 & 0xFFFF
   \                     ??CrossCallReturnLabel_303:
   \   0000FA   12....       LCALL     ?DEALLOC_XSTACK8
   \   0000FD   E9           MOV       A,R1
   \   0000FE   7052         JNZ       ??ZDSecMgrEntryFree_1
   \   000100   12....       LCALL     ?Subroutine40 & 0xFFFF
   \                     ??CrossCallReturnLabel_56:
   \   000103   E0           MOVX      A,@DPTR
   \   000104   64FE         XRL       A,#0xfe
   \   000106   7003         JNZ       ??ZDSecMgrEntryFree_3
   \   000108   A3           INC       DPTR
   \   000109   E0           MOVX      A,@DPTR
   \   00010A   F4           CPL       A
   \                     ??ZDSecMgrEntryFree_3:
   \   00010B   85..82       MOV       DPL,?XSP + 0
   \   00010E   85..83       MOV       DPH,?XSP + 1
   \   000111   7015         JNZ       ??ZDSecMgrEntryFree_4
   \   000113   12....       LCALL     ??Subroutine85_0 & 0xFFFF
   \                     ??CrossCallReturnLabel_176:
   \   000116   6014         JZ        ??ZDSecMgrEntryFree_5
   \   000118   85..82       MOV       DPL,?XSP + 0
   \   00011B   85..83       MOV       DPH,?XSP + 1
   \   00011E   E0           MOVX      A,@DPTR
   \   00011F   24FF         ADD       A,#-0x1
   \   000121   F0           MOVX      @DPTR,A
   \   000122   A3           INC       DPTR
   \   000123   E0           MOVX      A,@DPTR
   \   000124   34FF         ADDC      A,#-0x1
   \   000126   8003         SJMP      ??CrossCallReturnLabel_60
   \                     ??ZDSecMgrEntryFree_4:
   \   000128   12....       LCALL     ?Subroutine43 & 0xFFFF
   \                     ??CrossCallReturnLabel_60:
   \   00012B   F0           MOVX      @DPTR,A
   \                     ??ZDSecMgrEntryFree_5:
   \   00012C                ; Setup parameters for call to function osal_nv_write
   \   00012C   A8..         MOV       R0,?XSP + 0
   \   00012E   A9..         MOV       R1,?XSP + 1
   \   000130   88..         MOV       ?V0,R0
   \   000132   89..         MOV       ?V1,R1
   \   000134   78..         MOV       R0,#?V0
   \   000136   12....       LCALL     ?PUSH_XSTACK_I_TWO
   \   000139   75..02       MOV       ?V0,#0x2
   \   00013C   75..00       MOV       ?V1,#0x0
   \   00013F   78..         MOV       R0,#?V0
   \   000141   12....       LCALL     ?PUSH_XSTACK_I_TWO
   \   000144   7C00         MOV       R4,#0x0
   \   000146   7D00         MOV       R5,#0x0
   \   000148   7A4C         MOV       R2,#0x4c
   \   00014A   7B00         MOV       R3,#0x0
   \   00014C   12....       LCALL     ??Subroutine101_0 & 0xFFFF
   \                     ??CrossCallReturnLabel_282:
   \   00014F   12....       LCALL     ?DEALLOC_XSTACK8
    678          #endif
    679          }
   \                     ??ZDSecMgrEntryFree_1:
   \   000152   7404         MOV       A,#0x4
   \   000154                REQUIRE ?Subroutine1
   \   000154                ; // Fall through to label ?Subroutine1

   \                                 In  segment BANKED_CODE, align 1, keep-with-next
   \                     ?Subroutine1:
   \   000000   12....       LCALL     ?DEALLOC_XSTACK8
   \   000003   7F08         MOV       R7,#0x8
   \   000005   02....       LJMP      ?BANKED_LEAVE_XDATA

   \                                 In  segment BANKED_CODE, align 1, keep-with-next
   \                     ?Subroutine53:
   \   000000   2402         ADD       A,#0x2
   \   000002   F8           MOV       R0,A
   \   000003   E4           CLR       A
   \   000004   3F           ADDC      A,R7
   \   000005   88..         MOV       ?V0,R0
   \   000007   F5..         MOV       ?V1,A
   \   000009   22           RET

   \                                 In  segment BANKED_CODE, align 1, keep-with-next
   \                     ?Subroutine42:
   \   000000   85..82       MOV       DPL,?V0
   \   000003   85..83       MOV       DPH,?V1
   \   000006                REQUIRE ??Subroutine80_0
   \   000006                ; // Fall through to label ??Subroutine80_0

   \                                 In  segment BANKED_CODE, align 1, keep-with-next
   \                     ??Subroutine80_0:
   \   000000   12....       LCALL     ?Subroutine70 & 0xFFFF
   \                     ??CrossCallReturnLabel_154:
   \   000003   22           RET

   \                                 In  segment BANKED_CODE, align 1, keep-with-next
   \                     ?Subroutine43:
   \   000000   E0           MOVX      A,@DPTR
   \   000001   2401         ADD       A,#0x1
   \   000003   F0           MOVX      @DPTR,A
   \   000004   A3           INC       DPTR
   \   000005   E0           MOVX      A,@DPTR
   \   000006   3400         ADDC      A,#0x0
   \   000008   22           RET

   \                                 In  segment BANKED_CODE, align 1, keep-with-next
   \                     ?Subroutine40:
   \   000000   90....       MOV       DPTR,#ZDSecMgrEntries
   \   000003   E0           MOVX      A,@DPTR
   \   000004   2E           ADD       A,R6
   \   000005   F8           MOV       R0,A
   \   000006   A3           INC       DPTR
   \   000007   E0           MOVX      A,@DPTR
   \   000008   3F           ADDC      A,R7
   \   000009   8882         MOV       DPL,R0
   \   00000B   F583         MOV       DPH,A
   \   00000D   22           RET

   \                                 In  segment BANKED_CODE, align 1, keep-with-next
   \                     ??Subroutine101_0:
   \   000000   12....       LCALL     `??osal_nv_write::?relay`; Banked call to: osal_nv_write
   \   000003   7404         MOV       A,#0x4
   \   000005   22           RET

   \                                 In  segment BANKED_CODE, align 1, keep-with-next
   \                     ?Subroutine56:
   \   000000   7C00         MOV       R4,#0x0
   \   000002   7D00         MOV       R5,#0x0
   \   000004                REQUIRE ??Subroutine106_0
   \   000004                ; // Fall through to label ??Subroutine106_0

   \                                 In  segment BANKED_CODE, align 1, keep-with-next
   \                     ??Subroutine106_0:
   \   000000   7A4C         MOV       R2,#0x4c
   \   000002                REQUIRE ??Subroutine107_0
   \   000002                ; // Fall through to label ??Subroutine107_0

   \                                 In  segment BANKED_CODE, align 1, keep-with-next
   \                     ??Subroutine107_0:
   \   000000   7B00         MOV       R3,#0x0
   \   000002                REQUIRE ??Subroutine108_0
   \   000002                ; // Fall through to label ??Subroutine108_0

   \                                 In  segment BANKED_CODE, align 1, keep-with-next
   \                     ??Subroutine108_0:
   \   000000   12....       LCALL     `??osal_nv_read::?relay`; Banked call to: osal_nv_read
   \   000003   7404         MOV       A,#0x4
   \   000005   22           RET
    680          
    681          /******************************************************************************
    682           * @fn          ZDSecMgrEntryNew
    683           *
    684           * @brief       Get a new entry.
    685           *
    686           * @param       entry - [out] valid entry
    687           *
    688           * @return      ZStatus_t
    689           */

   \                                 In  segment BANKED_CODE, align 1, keep-with-next
    690          ZStatus_t ZDSecMgrEntryNew( ZDSecMgrEntry_t** entry )
   \                     ZDSecMgrEntryNew:
    691          {
   \   000000                REQUIRE ?V0
   \   000000   74F7         MOV       A,#-0x9
   \   000002   12....       LCALL     ?BANKED_ENTER_XDATA
   \   000005                ; Saved register size: 9
   \   000005                ; Auto size: 0
    692            uint16 index;
    693          
    694            // initialize results
    695            *entry = NULL;
   \   000005   8A82         MOV       DPL,R2
   \   000007   8B83         MOV       DPH,R3
   \   000009   12....       LCALL     ?Subroutine10 & 0xFFFF
    696          
    697            // verify data is available
    698            if ( ZDSecMgrEntries != NULL )
   \                     ??CrossCallReturnLabel_2:
   \   00000C   605B         JZ        ??ZDSecMgrEntryNew_0
    699            {
    700              // find available entry
    701              for ( index = 0; index < ZDSECMGR_ENTRY_MAX ; index++ )
   \   00000E   7C00         MOV       R4,#0x0
   \   000010   7D00         MOV       R5,#0x0
    702              {
    703                if ( ZDSecMgrEntries[index].ami == INVALID_NODE_ADDR )
   \                     ??ZDSecMgrEntryNew_1:
   \   000012   EC           MOV       A,R4
   \   000013   F8           MOV       R0,A
   \   000014   ED           MOV       A,R5
   \   000015   F9           MOV       R1,A
   \   000016   E8           MOV       A,R0
   \   000017   75F005       MOV       B,#0x5
   \   00001A   A4           MUL       AB
   \   00001B   F8           MOV       R0,A
   \   00001C   AEF0         MOV       R6,B
   \   00001E   75F005       MOV       B,#0x5
   \   000021   E9           MOV       A,R1
   \   000022   A4           MUL       AB
   \   000023   2E           ADD       A,R6
   \   000024   F9           MOV       R1,A
   \   000025   90....       MOV       DPTR,#ZDSecMgrEntries
   \   000028   E0           MOVX      A,@DPTR
   \   000029   28           ADD       A,R0
   \   00002A   FE           MOV       R6,A
   \   00002B   A3           INC       DPTR
   \   00002C   E0           MOVX      A,@DPTR
   \   00002D   39           ADDC      A,R1
   \   00002E   FF           MOV       R7,A
   \   00002F   8E82         MOV       DPL,R6
   \   000031   F583         MOV       DPH,A
   \   000033   E0           MOVX      A,@DPTR
   \   000034   64FE         XRL       A,#0xfe
   \   000036   7003         JNZ       ??ZDSecMgrEntryNew_2
   \   000038   A3           INC       DPTR
   \   000039   E0           MOVX      A,@DPTR
   \   00003A   F4           CPL       A
   \                     ??ZDSecMgrEntryNew_2:
   \   00003B   701F         JNZ       ??ZDSecMgrEntryNew_3
    704                {
    705                  // return successful result
    706                  *entry = &ZDSecMgrEntries[index];
   \   00003D   8A82         MOV       DPL,R2
   \   00003F   8B83         MOV       DPH,R3
   \   000041   EE           MOV       A,R6
   \   000042   F0           MOVX      @DPTR,A
   \   000043   A3           INC       DPTR
   \   000044   EF           MOV       A,R7
   \   000045   F0           MOVX      @DPTR,A
    707          
    708                  // Set the authentication option to default
    709                  ZDSecMgrEntries[index].authenticateOption = ZDSecMgr_Not_Authenticated;
   \   000046   90....       MOV       DPTR,#ZDSecMgrEntries
   \   000049   E0           MOVX      A,@DPTR
   \   00004A   28           ADD       A,R0
   \   00004B   FA           MOV       R2,A
   \   00004C   A3           INC       DPTR
   \   00004D   E0           MOVX      A,@DPTR
   \   00004E   39           ADDC      A,R1
   \   00004F   8A82         MOV       DPL,R2
   \   000051   F583         MOV       DPH,A
   \   000053   A3           INC       DPTR
   \   000054   A3           INC       DPTR
   \   000055   A3           INC       DPTR
   \   000056   A3           INC       DPTR
   \   000057   E4           CLR       A
   \   000058   F0           MOVX      @DPTR,A
    710          
    711                  // break from loop
    712                  return ZSuccess;
   \   000059   F9           MOV       R1,A
   \   00005A   800F         SJMP      ??ZDSecMgrEntryNew_4
    713                }
    714              }
   \                     ??ZDSecMgrEntryNew_3:
   \   00005C   0C           INC       R4
   \   00005D   EC           MOV       A,R4
   \   00005E   7001         JNZ       ??ZDSecMgrEntryNew_5
   \   000060   0D           INC       R5
   \                     ??ZDSecMgrEntryNew_5:
   \   000061   C3           CLR       C
   \   000062   9403         SUBB      A,#0x3
   \   000064   ED           MOV       A,R5
   \   000065   9400         SUBB      A,#0x0
   \   000067   40A9         JC        ??ZDSecMgrEntryNew_1
    715            }
    716          
    717            return ZNwkUnknownDevice;
   \                     ??ZDSecMgrEntryNew_0:
   \   000069   79C8         MOV       R1,#-0x38
   \                     ??ZDSecMgrEntryNew_4:
   \   00006B   02....       LJMP      ??Subroutine83_0 & 0xFFFF
    718          }
    719          
    720          /******************************************************************************
    721           * @fn          ZDSecMgrAppKeyGet
    722           *
    723           * @brief       get an APP key - option APP(MASTER or LINK) key
    724           *
    725           * @param       initNwkAddr - [in] NWK address of initiator device
    726           * @param       initExtAddr - [in] EXT address of initiator device
    727           * @param       partNwkAddr - [in] NWK address of partner device
    728           * @param       partExtAddr - [in] EXT address of partner device
    729           * @param       key         - [out] APP(MASTER or LINK) key
    730           * @param       keyType     - [out] APP(MASTER or LINK) key type
    731           *
    732           * @return      ZStatus_t
    733           */

   \                                 In  segment XDATA_I, align 1, keep-with-next
    734          uint8 ZDSecMgrAppKeyType = KEY_TYPE_APP_LINK;    // Set the default key type
   \                     ZDSecMgrAppKeyType:
   \   000000                DS 1
   \   000001                REQUIRE `?<Initializer for ZDSecMgrAppKeyType>`
   \   000001                REQUIRE __INIT_XDATA_I
    735                                                           // to KEY_TYPE_APP_LINK since
    736                                                           // only specific requirement
    737                                                           // right now comes from SE profile

   \                                 In  segment BANKED_CODE, align 1, keep-with-next
    738          ZStatus_t ZDSecMgrAppKeyGet( uint16  initNwkAddr,
   \                     ZDSecMgrAppKeyGet:
    739                                       uint8*  initExtAddr,
    740                                       uint16  partNwkAddr,
    741                                       uint8*  partExtAddr,
    742                                       uint8** key,
    743                                       uint8*  keyType )
    744          {
   \   000000   C082         PUSH      DPL
   \   000002   C083         PUSH      DPH
   \   000004                ; Saved register size: 2
   \   000004                ; Auto size: 0
    745            // Intentionally unreferenced parameters
    746            (void)initNwkAddr;
    747            (void)initExtAddr;
    748            (void)partNwkAddr;
    749            (void)partExtAddr;
    750          
    751            //---------------------------------------------------------------------------
    752            // note:
    753            // should use a robust mechanism to generate keys, for example
    754            // combine EXT addresses and call a hash function
    755            //---------------------------------------------------------------------------
    756            SSP_GetTrueRand( SEC_KEY_LEN, *key );
   \   000004                ; Setup parameters for call to function SSP_GetTrueRand
   \   000004   7404         MOV       A,#0x4
   \   000006   12....       LCALL     ?XSTACK_DISP0_8
   \   000009   12....       LCALL     ?Subroutine37 & 0xFFFF
   \                     ??CrossCallReturnLabel_48:
   \   00000C   12....       LCALL     ??Subroutine80_0 & 0xFFFF
   \                     ??CrossCallReturnLabel_137:
   \   00000F   7910         MOV       R1,#0x10
   \   000011   12....       LCALL     `??SSP_GetTrueRand::?relay`; Banked call to: SSP_GetTrueRand
    757          
    758            *keyType = ZDSecMgrAppKeyType;
   \   000014   90....       MOV       DPTR,#ZDSecMgrAppKeyType
   \   000017   E0           MOVX      A,@DPTR
   \   000018   C0E0         PUSH      A
   \   00001A   7406         MOV       A,#0x6
   \   00001C   12....       LCALL     ?XSTACK_DISP0_8
   \   00001F   12....       LCALL     ?Subroutine37 & 0xFFFF
   \                     ??CrossCallReturnLabel_49:
   \   000022   D0E0         POP       A
   \   000024   02....       LJMP      ?Subroutine2 & 0xFFFF
    759          
    760            return ZSuccess;
    761          }

   \                                 In  segment BANKED_CODE, align 1, keep-with-next
   \                     ?Subroutine37:
   \   000000   12....       LCALL     ?Subroutine76 & 0xFFFF
   \                     ??CrossCallReturnLabel_119:
   \   000003   22           RET

   \                                 In  segment BANKED_CODE, align 1, keep-with-next
   \                     ?Subroutine76:
   \   000000   E0           MOVX      A,@DPTR
   \   000001   F8           MOV       R0,A
   \   000002   A3           INC       DPTR
   \   000003   E0           MOVX      A,@DPTR
   \   000004   F583         MOV       DPH,A
   \   000006   8882         MOV       DPL,R0
   \   000008   22           RET

   \                                 In  segment BANKED_CODE, align 1, keep-with-next
   \                     ?Subroutine2:
   \   000000   F0           MOVX      @DPTR,A
   \   000001   7900         MOV       R1,#0x0
   \   000003                REQUIRE ??Subroutine81_0
   \   000003                ; // Fall through to label ??Subroutine81_0

   \                                 In  segment BANKED_CODE, align 1, keep-with-next
   \                     ??Subroutine81_0:
   \   000000   D083         POP       DPH
   \   000002   D082         POP       DPL
   \   000004   02....       LJMP      ?BRET
    762          
    763          
    764          
    765          
    766          /******************************************************************************
    767           * @fn          ZDSecMgrAppKeyReq
    768           *
    769           * @brief       Process request for APP key between two devices.
    770           *
    771           * @param       device - [in] ZDO_RequestKeyInd_t, request info
    772           *
    773           * @return      none
    774           */

   \                                 In  segment BANKED_CODE, align 1, keep-with-next
    775          void ZDSecMgrAppKeyReq( ZDO_RequestKeyInd_t* ind )
   \                     ZDSecMgrAppKeyReq:
    776          {
   \   000000                REQUIRE ?V0
   \   000000                REQUIRE ?V1
   \   000000                REQUIRE ?V2
   \   000000                REQUIRE ?V3
   \   000000   74F4         MOV       A,#-0xc
   \   000002   12....       LCALL     ?BANKED_ENTER_XDATA
   \   000005                ; Saved register size: 12
   \   000005                ; Auto size: 39
   \   000005   74D9         MOV       A,#-0x27
   \   000007   12....       LCALL     ?ALLOC_XSTACK8
   \   00000A   EA           MOV       A,R2
   \   00000B   FE           MOV       R6,A
   \   00000C   EB           MOV       A,R3
   \   00000D   FF           MOV       R7,A
    777            APSME_TransportKeyReq_t req;
    778            uint8                   initExtAddr[Z_EXTADDR_LEN];
    779            uint16                  partNwkAddr;
    780            uint8                   key[SEC_KEY_LEN];
    781          
    782          
    783            // validate initiator and partner
    784            if ( ( APSME_LookupNwkAddr( ind->partExtAddr, &partNwkAddr ) == TRUE ) &&
    785                 ( APSME_LookupExtAddr( ind->srcAddr, initExtAddr ) == TRUE      )   )
   \   00000E   EA           MOV       A,R2
   \   00000F   2405         ADD       A,#0x5
   \   000011   F5..         MOV       ?V0,A
   \   000013   E4           CLR       A
   \   000014   3F           ADDC      A,R7
   \   000015   F5..         MOV       ?V1,A
   \   000017                ; Setup parameters for call to function APSME_LookupNwkAddr
   \   000017   AC..         MOV       R4,?XSP + 0
   \   000019   AD..         MOV       R5,?XSP + 1
   \   00001B   AA..         MOV       R2,?V0
   \   00001D   12....       LCALL     ?Subroutine61 & 0xFFFF
   \                     ??CrossCallReturnLabel_96:
   \   000020   6003         JZ        $+5
   \   000022   02....       LJMP      ??ZDSecMgrAppKeyReq_0 & 0xFFFF
   \   000025   12....       LCALL     ?Subroutine54 & 0xFFFF
   \                     ??CrossCallReturnLabel_82:
   \   000028                ; Setup parameters for call to function APSME_LookupExtAddr
   \   000028   740F         MOV       A,#0xf
   \   00002A   12....       LCALL     ?XSTACK_DISP102_8
   \   00002D   12....       LCALL     ?Subroutine39 & 0xFFFF
   \                     ??CrossCallReturnLabel_54:
   \   000030   6003         JZ        $+5
   \   000032   02....       LJMP      ??ZDSecMgrAppKeyReq_0 & 0xFFFF
    786            {
    787              // point the key to some memory
    788              req.key = key;
   \   000035   7417         MOV       A,#0x17
   \   000037   12....       LCALL     ?XSTACK_DISP100_8
   \   00003A   7406         MOV       A,#0x6
   \   00003C   12....       LCALL     ?XSTACK_DISP0_8
   \   00003F   12....       LCALL     ??Subroutine86_0 & 0xFFFF
    789          
    790              // get an APP key - option APP (MASTER or LINK) key
    791              if ( ZDSecMgrAppKeyGet( ind->srcAddr,
    792                                      initExtAddr,
    793                                      partNwkAddr,
    794                                      ind->partExtAddr,
    795                                      &req.key,
    796                                      &req.keyType ) == ZSuccess )
   \                     ??CrossCallReturnLabel_188:
   \   000042                ; Setup parameters for call to function ZDSecMgrAppKeyGet
   \   000042   7404         MOV       A,#0x4
   \   000044   12....       LCALL     ?XSTACK_DISP0_8
   \   000047   8582..       MOV       ?V2,DPL
   \   00004A   8583..       MOV       ?V3,DPH
   \   00004D   78..         MOV       R0,#?V2
   \   00004F   12....       LCALL     ?PUSH_XSTACK_I_TWO
   \   000052   7408         MOV       A,#0x8
   \   000054   12....       LCALL     ?XSTACK_DISP0_8
   \   000057   8582..       MOV       ?V2,DPL
   \   00005A   8583..       MOV       ?V3,DPH
   \   00005D   78..         MOV       R0,#?V2
   \   00005F   12....       LCALL     ?PUSH_XSTACK_I_TWO
   \   000062   78..         MOV       R0,#?V0
   \   000064   12....       LCALL     ?PUSH_XSTACK_I_TWO
   \   000067   7406         MOV       A,#0x6
   \   000069   12....       LCALL     ?XSTACK_DISP0_8
   \   00006C   12....       LCALL     ?PUSH_XSTACK8_X_TWO
   \   00006F   7417         MOV       A,#0x17
   \   000071   12....       LCALL     ?XSTACK_DISP102_8
   \   000074   8E82         MOV       DPL,R6
   \   000076   8F83         MOV       DPH,R7
   \   000078   12....       LCALL     ??Subroutine80_0 & 0xFFFF
   \                     ??CrossCallReturnLabel_138:
   \   00007B   12....       LCALL     `??ZDSecMgrAppKeyGet::?relay`; Banked call to: ZDSecMgrAppKeyGet
   \   00007E   7408         MOV       A,#0x8
   \   000080   12....       LCALL     ?DEALLOC_XSTACK8
   \   000083   E9           MOV       A,R1
   \   000084   706A         JNZ       ??ZDSecMgrAppKeyReq_0
    797              {
    798                // always secure
    799                req.nwkSecure = TRUE;
   \   000086   740C         MOV       A,#0xc
   \   000088   12....       LCALL     ?XSTACK_DISP0_8
   \   00008B   7401         MOV       A,#0x1
   \   00008D   F0           MOVX      @DPTR,A
    800                req.apsSecure = TRUE;
   \   00008E   740B         MOV       A,#0xb
   \   000090   12....       LCALL     ?XSTACK_DISP0_8
   \   000093   7401         MOV       A,#0x1
   \   000095   F0           MOVX      @DPTR,A
    801                req.tunnel    = NULL;
   \   000096   740D         MOV       A,#0xd
   \   000098   12....       LCALL     ?XSTACK_DISP0_8
   \   00009B   12....       LCALL     ?Subroutine13 & 0xFFFF
    802          
    803                // send key to initiator device
    804                req.dstAddr   = ind->srcAddr;
   \                     ??CrossCallReturnLabel_6:
   \   00009E   7402         MOV       A,#0x2
   \   0000A0   12....       LCALL     ?XSTACK_DISP0_8
   \   0000A3   12....       LCALL     ??Subroutine86_0 & 0xFFFF
    805                req.extAddr   = ind->partExtAddr;
   \                     ??CrossCallReturnLabel_189:
   \   0000A6   7408         MOV       A,#0x8
   \   0000A8   12....       LCALL     ?XSTACK_DISP0_8
   \   0000AB   E5..         MOV       A,?V0
   \   0000AD   F0           MOVX      @DPTR,A
   \   0000AE   A3           INC       DPTR
   \   0000AF   E5..         MOV       A,?V1
   \   0000B1   F0           MOVX      @DPTR,A
    806                req.initiator = TRUE;
   \   0000B2   740A         MOV       A,#0xa
   \   0000B4   12....       LCALL     ?XSTACK_DISP0_8
   \   0000B7   7401         MOV       A,#0x1
   \   0000B9   F0           MOVX      @DPTR,A
    807                APSME_TransportKeyReq( &req );
   \   0000BA                ; Setup parameters for call to function APSME_TransportKeyReq
   \   0000BA   04           INC       A
   \   0000BB   12....       LCALL     ?XSTACK_DISP101_8
   \   0000BE   12....       LCALL     `??APSME_TransportKeyReq::?relay`; Banked call to: APSME_TransportKeyReq
    808          
    809                // send key to partner device
    810                req.dstAddr   = partNwkAddr;
   \   0000C1   12....       LCALL     ?Subroutine32 & 0xFFFF
   \                     ??CrossCallReturnLabel_167:
   \   0000C4   7402         MOV       A,#0x2
   \   0000C6   12....       LCALL     ?XSTACK_DISP0_8
   \   0000C9   12....       LCALL     ??Subroutine86_0 & 0xFFFF
    811                req.extAddr   = initExtAddr;
   \                     ??CrossCallReturnLabel_190:
   \   0000CC   740F         MOV       A,#0xf
   \   0000CE   12....       LCALL     ?XSTACK_DISP100_8
   \   0000D1   7408         MOV       A,#0x8
   \   0000D3   12....       LCALL     ?XSTACK_DISP0_8
   \   0000D6   12....       LCALL     ??Subroutine86_0 & 0xFFFF
    812                req.initiator = FALSE;
   \                     ??CrossCallReturnLabel_191:
   \   0000D9   740A         MOV       A,#0xa
   \   0000DB   12....       LCALL     ?XSTACK_DISP0_8
   \   0000DE   E4           CLR       A
   \   0000DF   F0           MOVX      @DPTR,A
    813          
    814                APSME_TransportKeyReq( &req );
   \   0000E0                ; Setup parameters for call to function APSME_TransportKeyReq
   \   0000E0   7402         MOV       A,#0x2
   \   0000E2   12....       LCALL     ?XSTACK_DISP101_8
   \   0000E5   12....       LCALL     ?Subroutine62 & 0xFFFF
    815          
    816                // clear copy of key in RAM
    817                osal_memset( key, 0x00, SEC_KEY_LEN);
    818          
    819              }
    820            }
   \                     ??CrossCallReturnLabel_99:
   \   0000E8   7417         MOV       A,#0x17
   \   0000EA   12....       LCALL     ?XSTACK_DISP101_8
   \   0000ED   12....       LCALL     `??osal_memset::?relay`; Banked call to: osal_memset
    821          }
   \                     ??ZDSecMgrAppKeyReq_0:
   \   0000F0   7427         MOV       A,#0x27
   \   0000F2   02....       LJMP      ?Subroutine3 & 0xFFFF

   \                                 In  segment BANKED_CODE, align 1, keep-with-next
   \                     ?Subroutine62:
   \   000000   12....       LCALL     `??APSME_TransportKeyReq::?relay`; Banked call to: APSME_TransportKeyReq
   \   000003                ; Setup parameters for call to function osal_memset
   \   000003                ; Setup parameters for call to function osal_memset
   \   000003   7C10         MOV       R4,#0x10
   \   000005   7D00         MOV       R5,#0x0
   \   000007   7900         MOV       R1,#0x0
   \   000009   22           RET

   \                                 In  segment BANKED_CODE, align 1, keep-with-next
   \                     ?Subroutine61:
   \   000000   FB           MOV       R3,A
   \   000001   12....       LCALL     `??APSME_LookupNwkAddr::?relay`; Banked call to: APSME_LookupNwkAddr
   \   000004   E9           MOV       A,R1
   \   000005   6401         XRL       A,#0x1
   \   000007   22           RET

   \                                 In  segment BANKED_CODE, align 1, keep-with-next
   \                     ?Subroutine54:
   \   000000   EE           MOV       A,R6
   \   000001   2402         ADD       A,#0x2
   \   000003   E4           CLR       A
   \   000004   3F           ADDC      A,R7
   \   000005   F9           MOV       R1,A
   \   000006   0E           INC       R6
   \   000007   0E           INC       R6
   \   000008   FF           MOV       R7,A
   \   000009   22           RET

   \                                 In  segment BANKED_CODE, align 1, keep-with-next
   \                     ?Subroutine39:
   \   000000   8E82         MOV       DPL,R6
   \   000002   8983         MOV       DPH,R1
   \   000004   12....       LCALL     ?Subroutine70 & 0xFFFF
   \                     ??CrossCallReturnLabel_152:
   \   000007   12....       LCALL     `??APSME_LookupExtAddr::?relay`; Banked call to: APSME_LookupExtAddr
   \   00000A   E9           MOV       A,R1
   \   00000B   6401         XRL       A,#0x1
   \   00000D   22           RET

   \                                 In  segment BANKED_CODE, align 1, keep-with-next
   \                     ?Subroutine13:
   \   000000   E4           CLR       A
   \   000001   F0           MOVX      @DPTR,A
   \   000002   A3           INC       DPTR
   \   000003   F0           MOVX      @DPTR,A
   \   000004   8E82         MOV       DPL,R6
   \   000006   8F83         MOV       DPH,R7
   \   000008   12....       LCALL     ?Subroutine74 & 0xFFFF
   \                     ??CrossCallReturnLabel_168:
   \   00000B   22           RET

   \                                 In  segment BANKED_CODE, align 1, keep-with-next
   \                     ?Subroutine3:
   \   000000   12....       LCALL     ?DEALLOC_XSTACK8
   \   000003                REQUIRE ??Subroutine97_0
   \   000003                ; // Fall through to label ??Subroutine97_0

   \                                 In  segment BANKED_CODE, align 1, keep-with-next
   \                     ??Subroutine97_0:
   \   000000   7F04         MOV       R7,#0x4
   \   000002   02....       LJMP      ?BANKED_LEAVE_XDATA
    822          
    823          /******************************************************************************
    824           * @fn          ZDSecMgrTclkReq
    825           *
    826           * @brief       Process request for TCLK.
    827           *
    828           * @param       device - [in] ZDO_RequestKeyInd_t, request info
    829           *
    830           * @return      none
    831           */

   \                                 In  segment BANKED_CODE, align 1, keep-with-next
    832          void ZDSecMgrTclkReq( ZDO_RequestKeyInd_t* ind )
   \                     ZDSecMgrTclkReq:
    833          {
   \   000000                REQUIRE ?V0
   \   000000                REQUIRE ?V1
   \   000000   74F6         MOV       A,#-0xa
   \   000002   12....       LCALL     ?BANKED_ENTER_XDATA
   \   000005                ; Saved register size: 10
   \   000005                ; Auto size: 59
   \   000005   74C5         MOV       A,#-0x3b
   \   000007   12....       LCALL     ?ALLOC_XSTACK8
   \   00000A   EA           MOV       A,R2
   \   00000B   FE           MOV       R6,A
   \   00000C   EB           MOV       A,R3
   \   00000D   FF           MOV       R7,A
    834            APSME_TransportKeyReq_t req;
    835            uint8                   initExtAddr[Z_EXTADDR_LEN];
    836            uint16                  partNwkAddr;
    837            uint8                   key[SEC_KEY_LEN];
    838            APSME_TCLKDevEntry_t    TCLKDevEntry;
    839            uint8                   found;
    840              
    841            // validate initiator and partner
    842            if ( ( ( APSME_LookupNwkAddr( ind->partExtAddr, &partNwkAddr ) == TRUE ) || ( ind->keyType != KEY_TYPE_APP_MASTER ) ) &&
    843                 (   APSME_LookupExtAddr( ind->srcAddr, initExtAddr )      == TRUE ) )
   \   00000E                ; Setup parameters for call to function APSME_LookupNwkAddr
   \   00000E   7401         MOV       A,#0x1
   \   000010   12....       LCALL     ?XSTACK_DISP102_8
   \   000013   EA           MOV       A,R2
   \   000014   2405         ADD       A,#0x5
   \   000016   FA           MOV       R2,A
   \   000017   E4           CLR       A
   \   000018   3F           ADDC      A,R7
   \   000019   12....       LCALL     ?Subroutine61 & 0xFFFF
   \                     ??CrossCallReturnLabel_97:
   \   00001C   6010         JZ        ??ZDSecMgrTclkReq_0
   \   00001E   8E82         MOV       DPL,R6
   \   000020   8F83         MOV       DPH,R7
   \   000022   A3           INC       DPTR
   \   000023   A3           INC       DPTR
   \   000024   A3           INC       DPTR
   \   000025   A3           INC       DPTR
   \   000026   E0           MOVX      A,@DPTR
   \   000027   6402         XRL       A,#0x2
   \   000029   7003         JNZ       $+5
   \   00002B   02....       LJMP      ??ZDSecMgrTclkReq_1 & 0xFFFF
   \                     ??ZDSecMgrTclkReq_0:
   \   00002E   12....       LCALL     ?Subroutine54 & 0xFFFF
   \                     ??CrossCallReturnLabel_83:
   \   000031                ; Setup parameters for call to function APSME_LookupExtAddr
   \   000031   7410         MOV       A,#0x10
   \   000033   12....       LCALL     ?XSTACK_DISP102_8
   \   000036   12....       LCALL     ?Subroutine39 & 0xFFFF
   \                     ??CrossCallReturnLabel_55:
   \   000039   6003         JZ        $+5
   \   00003B   02....       LJMP      ??ZDSecMgrTclkReq_1 & 0xFFFF
    844            {
    845              // point the key to some memory
    846              req.key = key;
   \   00003E   742B         MOV       A,#0x2b
   \   000040   12....       LCALL     ?XSTACK_DISP100_8
   \   000043   7407         MOV       A,#0x7
   \   000045   12....       LCALL     ?XSTACK_DISP0_8
   \   000048   12....       LCALL     ??Subroutine86_0 & 0xFFFF
    847          
    848              //Search for the entry
    849              APSME_SearchTCLinkKeyEntry(initExtAddr,&found, &TCLKDevEntry);
   \                     ??CrossCallReturnLabel_192:
   \   00004B                ; Setup parameters for call to function APSME_SearchTCLinkKeyEntry
   \   00004B   7418         MOV       A,#0x18
   \   00004D   12....       LCALL     ?XSTACK_DISP100_8
   \   000050   88..         MOV       ?V0,R0
   \   000052   89..         MOV       ?V1,R1
   \   000054   78..         MOV       R0,#?V0
   \   000056   12....       LCALL     ?PUSH_XSTACK_I_TWO
   \   000059   7402         MOV       A,#0x2
   \   00005B   12....       LCALL     ?XSTACK_DISP102_8
   \   00005E   7412         MOV       A,#0x12
   \   000060   12....       LCALL     ?XSTACK_DISP101_8
   \   000063   12....       LCALL     ?Subroutine57 & 0xFFFF
   \                     ??CrossCallReturnLabel_84:
   \   000066   12....       LCALL     ?DEALLOC_XSTACK8
    850          
    851              //If found, generate the key accordingly to the key attribute
    852              if(found)
   \   000069   85..82       MOV       DPL,?XSP + 0
   \   00006C   85..83       MOV       DPH,?XSP + 1
   \   00006F   E0           MOVX      A,@DPTR
   \   000070   6065         JZ        ??ZDSecMgrTclkReq_1
    853              {
    854                //Generate key from the seed, which would be the unique key
    855                ZDSecMgrGenerateKeyFromSeed(TCLKDevEntry.extAddr,TCLKDevEntry.SeedShift_IcIndex,req.key);
   \   000072                ; Setup parameters for call to function ZDSecMgrGenerateKeyFromSeed
   \   000072   7407         MOV       A,#0x7
   \   000074   12....       LCALL     ?XSTACK_DISP0_8
   \   000077   12....       LCALL     ?Subroutine33 & 0xFFFF
   \                     ??CrossCallReturnLabel_35:
   \   00007A   742A         MOV       A,#0x2a
   \   00007C   12....       LCALL     ?XSTACK_DISP0_8
   \   00007F   E0           MOVX      A,@DPTR
   \   000080   F9           MOV       R1,A
   \   000081   7420         MOV       A,#0x20
   \   000083   12....       LCALL     ?XSTACK_DISP0_8
   \   000086   AA82         MOV       R2,DPL
   \   000088   AB83         MOV       R3,DPH
   \   00008A   12....       LCALL     `??ZDSecMgrGenerateKeyFromSeed::?relay`; Banked call to: ZDSecMgrGenerateKeyFromSeed
    856              
    857                // always secure
    858                req.nwkSecure = TRUE;
   \   00008D   740D         MOV       A,#0xd
   \   00008F   12....       LCALL     ?XSTACK_DISP0_8
   \   000092   7401         MOV       A,#0x1
   \   000094   F0           MOVX      @DPTR,A
    859                req.apsSecure = TRUE;
   \   000095   740C         MOV       A,#0xc
   \   000097   12....       LCALL     ?XSTACK_DISP0_8
   \   00009A   7401         MOV       A,#0x1
   \   00009C   F0           MOVX      @DPTR,A
    860                req.tunnel    = NULL;
   \   00009D   740E         MOV       A,#0xe
   \   00009F   12....       LCALL     ?XSTACK_DISP0_8
   \   0000A2   12....       LCALL     ?Subroutine13 & 0xFFFF
    861          
    862                // send key to initiator device
    863                req.dstAddr   = ind->srcAddr;
   \                     ??CrossCallReturnLabel_7:
   \   0000A5   7403         MOV       A,#0x3
   \   0000A7   12....       LCALL     ?XSTACK_DISP0_8
   \   0000AA   12....       LCALL     ??Subroutine86_0 & 0xFFFF
    864                req.extAddr   = initExtAddr;
   \                     ??CrossCallReturnLabel_193:
   \   0000AD   7410         MOV       A,#0x10
   \   0000AF   12....       LCALL     ?XSTACK_DISP100_8
   \   0000B2   7409         MOV       A,#0x9
   \   0000B4   12....       LCALL     ?XSTACK_DISP0_8
   \   0000B7   12....       LCALL     ?Subroutine19 & 0xFFFF
    865                req.initiator = TRUE;
   \                     ??CrossCallReturnLabel_18:
   \   0000BA   12....       LCALL     ?XSTACK_DISP0_8
   \   0000BD   7401         MOV       A,#0x1
   \   0000BF   F0           MOVX      @DPTR,A
    866                req.keyType   = KEY_TYPE_TC_LINK;
   \   0000C0   7405         MOV       A,#0x5
   \   0000C2   12....       LCALL     ?XSTACK_DISP0_8
   \   0000C5   7404         MOV       A,#0x4
   \   0000C7   F0           MOVX      @DPTR,A
    867                  
    868                APSME_TransportKeyReq( &req );
   \   0000C8                ; Setup parameters for call to function APSME_TransportKeyReq
   \   0000C8   14           DEC       A
   \   0000C9   12....       LCALL     ?XSTACK_DISP101_8
   \   0000CC   12....       LCALL     ?Subroutine62 & 0xFFFF
    869                  
    870                // clear copy of key in RAM
    871                osal_memset( key, 0x00, SEC_KEY_LEN);
    872              
    873              }
    874            }
   \                     ??CrossCallReturnLabel_100:
   \   0000CF   742B         MOV       A,#0x2b
   \   0000D1   12....       LCALL     ?XSTACK_DISP101_8
   \   0000D4   12....       LCALL     `??osal_memset::?relay`; Banked call to: osal_memset
    875          }
   \                     ??ZDSecMgrTclkReq_1:
   \   0000D7   743B         MOV       A,#0x3b
   \   0000D9   02....       LJMP      ??Subroutine90_0 & 0xFFFF

   \                                 In  segment BANKED_CODE, align 1, keep-with-next
   \                     ?Subroutine19:
   \   000000   E8           MOV       A,R0
   \   000001   F0           MOVX      @DPTR,A
   \   000002   A3           INC       DPTR
   \   000003   E9           MOV       A,R1
   \   000004   F0           MOVX      @DPTR,A
   \   000005                ; Setup parameters for call to function APSME_GetRequest
   \   000005   740B         MOV       A,#0xb
   \   000007   22           RET

   \                                 In  segment BANKED_CODE, align 1, keep-with-next
   \                     ?Subroutine57:
   \   000000   12....       LCALL     `??APSME_SearchTCLinkKeyEntry::?relay`; Banked call to: APSME_SearchTCLinkKeyEntry
   \   000003   7402         MOV       A,#0x2
   \   000005   22           RET

   \                                 In  segment BANKED_CODE, align 1, keep-with-next
   \                     ??Subroutine90_0:
   \   000000   12....       LCALL     ?DEALLOC_XSTACK8
   \   000003                REQUIRE ??Subroutine91_0
   \   000003                ; // Fall through to label ??Subroutine91_0

   \                                 In  segment BANKED_CODE, align 1, keep-with-next
   \                     ??Subroutine91_0:
   \   000000   7F02         MOV       R7,#0x2
   \   000002   02....       LJMP      ?BANKED_LEAVE_XDATA
    876          
    877          /******************************************************************************
    878           * @fn          ZDSecMgrAppConfKeyReq
    879           *
    880           * @brief       Process request for APP key between two devices.
    881           *
    882           * @param       device - [in] ZDO_VerifyKeyInd_t, request info
    883           *
    884           * @return      none
    885           */

   \                                 In  segment BANKED_CODE, align 1, keep-with-next
    886          void ZDSecMgrAppConfKeyReq( ZDO_VerifyKeyInd_t* ind )
   \                     ZDSecMgrAppConfKeyReq:
    887          {
   \   000000   C082         PUSH      DPL
   \   000002   C083         PUSH      DPH
   \   000004                ; Saved register size: 2
   \   000004                ; Auto size: 6
   \   000004   74FA         MOV       A,#-0x6
   \   000006   12....       LCALL     ?ALLOC_XSTACK8
    888            APSME_ConfirmKeyReq_t   req;
    889          
    890            // send key to initiator device
    891            req.dstAddr      = ind->srcAddr;
   \   000009   8A82         MOV       DPL,R2
   \   00000B   8B83         MOV       DPH,R3
   \   00000D   A3           INC       DPTR
   \   00000E   A3           INC       DPTR
   \   00000F   12....       LCALL     ?Subroutine20 & 0xFFFF
    892            req.status       = ind->verifyKeyStatus;
   \                     ??CrossCallReturnLabel_207:
   \   000012   EA           MOV       A,R2
   \   000013   241D         ADD       A,#0x1d
   \   000015   F582         MOV       DPL,A
   \   000017   E4           CLR       A
   \   000018   3B           ADDC      A,R3
   \   000019   F583         MOV       DPH,A
   \   00001B   E0           MOVX      A,@DPTR
   \   00001C   C0E0         PUSH      A
   \   00001E   7402         MOV       A,#0x2
   \   000020   12....       LCALL     ?XSTACK_DISP0_8
   \   000023   D0E0         POP       A
   \   000025   F0           MOVX      @DPTR,A
    893            req.dstExtAddr   = ind->extAddr;
   \   000026   EA           MOV       A,R2
   \   000027   2405         ADD       A,#0x5
   \   000029   F8           MOV       R0,A
   \   00002A   E4           CLR       A
   \   00002B   3B           ADDC      A,R3
   \   00002C   F9           MOV       R1,A
   \   00002D   7403         MOV       A,#0x3
   \   00002F   12....       LCALL     ?XSTACK_DISP0_8
   \   000032   12....       LCALL     ?Subroutine15 & 0xFFFF
    894            req.keyType      = ind->keyType;
   \                     ??CrossCallReturnLabel_132:
   \   000035   A3           INC       DPTR
   \   000036   A3           INC       DPTR
   \   000037   E0           MOVX      A,@DPTR
   \   000038   C0E0         PUSH      A
   \   00003A   7405         MOV       A,#0x5
   \   00003C   12....       LCALL     ?XSTACK_DISP0_8
   \   00003F   D0E0         POP       A
   \   000041   12....       LCALL     ??Subroutine92_0 & 0xFFFF
    895          
    896            if ( ( ZSTACK_DEVICE_BUILD & DEVICE_BUILD_COORDINATOR ) != 0 )
    897            {
    898              APSME_ConfirmKeyReq( &req );
   \                     ??CrossCallReturnLabel_222:
   \   000044   12....       LCALL     `??APSME_ConfirmKeyReq::?relay`; Banked call to: APSME_ConfirmKeyReq
    899            }
    900            
    901          }
   \   000047   7406         MOV       A,#0x6
   \   000049                REQUIRE ?Subroutine9
   \   000049                ; // Fall through to label ?Subroutine9

   \                                 In  segment BANKED_CODE, align 1, keep-with-next
   \                     ?Subroutine9:
   \   000000   12....       LCALL     ?DEALLOC_XSTACK8
   \   000003   02....       LJMP      ??Subroutine81_0 & 0xFFFF

   \                                 In  segment BANKED_CODE, align 1, keep-with-next
   \                     ?Subroutine15:
   \   000000   E8           MOV       A,R0
   \   000001   F0           MOVX      @DPTR,A
   \   000002   A3           INC       DPTR
   \   000003   E9           MOV       A,R1
   \   000004                REQUIRE ??Subroutine79_0
   \   000004                ; // Fall through to label ??Subroutine79_0

   \                                 In  segment BANKED_CODE, align 1, keep-with-next
   \                     ?Subroutine20:
   \   000000   12....       LCALL     ?Subroutine74 & 0xFFFF
   \                     ??CrossCallReturnLabel_170:
   \   000003   85..82       MOV       DPL,?XSP + 0
   \   000006   85..83       MOV       DPH,?XSP + 1
   \   000009                REQUIRE ??Subroutine86_0
   \   000009                ; // Fall through to label ??Subroutine86_0
    902          
    903          
    904          /******************************************************************************
    905           * @fn          ZDSecMgrSendNwkKey
    906           *
    907           * @brief       Send NWK key to device joining network.
    908           *
    909           * @param       device - [in] ZDSecMgrDevice_t, device info
    910           *
    911           * @return      ZStatus_t
    912           */

   \                                 In  segment BANKED_CODE, align 1, keep-with-next
    913          ZStatus_t ZDSecMgrSendNwkKey( ZDSecMgrDevice_t* device )
   \                     ZDSecMgrSendNwkKey:
    914          {
   \   000000                REQUIRE ?V0
   \   000000                REQUIRE ?V1
   \   000000                REQUIRE ?V2
   \   000000                REQUIRE ?V3
   \   000000   74F4         MOV       A,#-0xc
   \   000002   12....       LCALL     ?BANKED_ENTER_XDATA
   \   000005                ; Saved register size: 12
   \   000005                ; Auto size: 34
   \   000005   74DE         MOV       A,#-0x22
   \   000007   12....       LCALL     ?ALLOC_XSTACK8
   \   00000A   EA           MOV       A,R2
   \   00000B   FE           MOV       R6,A
   \   00000C   EB           MOV       A,R3
   \   00000D   FF           MOV       R7,A
    915            ZStatus_t status;
    916            APSME_TransportKeyReq_t req;
    917            APSDE_FrameTunnel_t tunnel;
    918            nwkKeyDesc tmpKey;
    919          
    920            req.dstAddr   = device->nwkAddr;
   \   00000E   8A82         MOV       DPL,R2
   \   000010   F583         MOV       DPH,A
   \   000012   12....       LCALL     ??Subroutine84_0 & 0xFFFF
   \                     ??CrossCallReturnLabel_155:
   \   000015   7404         MOV       A,#0x4
   \   000017   12....       LCALL     ?XSTACK_DISP0_8
   \   00001A   12....       LCALL     ??Subroutine86_0 & 0xFFFF
    921            req.extAddr   = device->extAddr;
   \                     ??CrossCallReturnLabel_194:
   \   00001D   EA           MOV       A,R2
   \   00001E   12....       LCALL     ?Subroutine53 & 0xFFFF
   \                     ??CrossCallReturnLabel_81:
   \   000021   8882         MOV       DPL,R0
   \   000023   F583         MOV       DPH,A
   \   000025   12....       LCALL     ??Subroutine84_0 & 0xFFFF
   \                     ??CrossCallReturnLabel_156:
   \   000028   740A         MOV       A,#0xa
   \   00002A   12....       LCALL     ?XSTACK_DISP0_8
   \   00002D   12....       LCALL     ??Subroutine86_0 & 0xFFFF
    922          
    923            req.keyType   = KEY_TYPE_NWK;
   \                     ??CrossCallReturnLabel_195:
   \   000030   7406         MOV       A,#0x6
   \   000032   12....       LCALL     ?XSTACK_DISP0_8
   \   000035   7401         MOV       A,#0x1
   \   000037   F0           MOVX      @DPTR,A
    924          
    925            // get the Active Key into a local variable
    926            if ( NLME_ReadNwkKeyInfo( 0, sizeof(tmpKey), &tmpKey,
    927                                     ZCD_NV_NWK_ACTIVE_KEY_INFO ) != SUCCESS )
   \   000038                ; Setup parameters for call to function NLME_ReadNwkKeyInfo
   \   000038   75..3A       MOV       ?V2,#0x3a
   \   00003B   75..00       MOV       ?V3,#0x0
   \   00003E   78..         MOV       R0,#?V2
   \   000040   12....       LCALL     ?PUSH_XSTACK_I_TWO
   \   000043   7413         MOV       A,#0x13
   \   000045   12....       LCALL     ?XSTACK_DISP100_8
   \   000048   88..         MOV       ?V2,R0
   \   00004A   89..         MOV       ?V3,R1
   \   00004C   78..         MOV       R0,#?V2
   \   00004E   12....       LCALL     ?PUSH_XSTACK_I_TWO
   \   000051   7C11         MOV       R4,#0x11
   \   000053   7D00         MOV       R5,#0x0
   \   000055   7A00         MOV       R2,#0x0
   \   000057   7B00         MOV       R3,#0x0
   \   000059   12....       LCALL     `??NLME_ReadNwkKeyInfo::?relay`; Banked call to: NLME_ReadNwkKeyInfo
   \   00005C   7404         MOV       A,#0x4
   \   00005E   12....       LCALL     ?DEALLOC_XSTACK8
   \   000061   E9           MOV       A,R1
   \   000062   600D         JZ        ??ZDSecMgrSendNwkKey_0
    928            {
    929              // set key data to all 0s if NV read fails
    930              osal_memset(&tmpKey, 0x00, sizeof(tmpKey));
   \   000064                ; Setup parameters for call to function osal_memset
   \   000064   7C11         MOV       R4,#0x11
   \   000066   7D00         MOV       R5,#0x0
   \   000068   7900         MOV       R1,#0x0
   \   00006A   EC           MOV       A,R4
   \   00006B   12....       LCALL     ?XSTACK_DISP101_8
   \   00006E   12....       LCALL     `??osal_memset::?relay`; Banked call to: osal_memset
    931            }
    932          
    933            if ( ZG_CHECK_SECURITY_MODE == ZG_SECURITY_SE_STANDARD )
    934            {
    935              // set values
    936              req.keySeqNum = tmpKey.keySeqNum;
   \                     ??ZDSecMgrSendNwkKey_0:
   \   000071   7411         MOV       A,#0x11
   \   000073   12....       LCALL     ?XSTACK_DISP0_8
   \   000076   E0           MOVX      A,@DPTR
   \   000077   C0E0         PUSH      A
   \   000079   7407         MOV       A,#0x7
   \   00007B   12....       LCALL     ?XSTACK_DISP0_8
   \   00007E   D0E0         POP       A
   \   000080   F0           MOVX      @DPTR,A
    937              req.key       = tmpKey.key;
   \   000081   7412         MOV       A,#0x12
   \   000083   12....       LCALL     ?XSTACK_DISP0_8
   \   000086   A882         MOV       R0,DPL
   \   000088   A983         MOV       R1,DPH
   \   00008A   7408         MOV       A,#0x8
   \   00008C   12....       LCALL     ?XSTACK_DISP0_8
   \   00008F   12....       LCALL     ??Subroutine86_0 & 0xFFFF
    938          
    939              //devtag.pro.security.todo - make sure that if there is no link key the NWK
    940              //key isn't used to secure the frame at the APS layer -- since the receiving
    941              //device may not have a NWK key yet
    942              req.apsSecure = TRUE;
   \                     ??CrossCallReturnLabel_196:
   \   000092   740D         MOV       A,#0xd
   \   000094   12....       LCALL     ?XSTACK_DISP0_8
   \   000097   7401         MOV       A,#0x1
   \   000099   F0           MOVX      @DPTR,A
    943          
    944              // check if using secure hop to parent
    945              if ( device->parentAddr == NLME_GetShortAddr() )
   \   00009A                ; Setup parameters for call to function NLME_GetShortAddr
   \   00009A   12....       LCALL     `??NLME_GetShortAddr::?relay`; Banked call to: NLME_GetShortAddr
   \   00009D   EE           MOV       A,R6
   \   00009E   2404         ADD       A,#0x4
   \   0000A0   F8           MOV       R0,A
   \   0000A1   E4           CLR       A
   \   0000A2   3F           ADDC      A,R7
   \   0000A3   F9           MOV       R1,A
   \   0000A4   8882         MOV       DPL,R0
   \   0000A6   F583         MOV       DPH,A
   \   0000A8   E0           MOVX      A,@DPTR
   \   0000A9   6A           XRL       A,R2
   \   0000AA   7003         JNZ       ??ZDSecMgrSendNwkKey_1
   \   0000AC   A3           INC       DPTR
   \   0000AD   E0           MOVX      A,@DPTR
   \   0000AE   6B           XRL       A,R3
   \                     ??ZDSecMgrSendNwkKey_1:
   \   0000AF   7011         JNZ       ??ZDSecMgrSendNwkKey_2
    946              {
    947                req.nwkSecure = FALSE;
   \   0000B1   740E         MOV       A,#0xe
   \   0000B3   12....       LCALL     ?XSTACK_DISP0_8
   \   0000B6   E4           CLR       A
   \   0000B7   F0           MOVX      @DPTR,A
    948                req.tunnel    = NULL;
   \   0000B8   740F         MOV       A,#0xf
   \   0000BA   12....       LCALL     ?XSTACK_DISP0_8
   \   0000BD   E4           CLR       A
   \   0000BE   F0           MOVX      @DPTR,A
   \   0000BF   A3           INC       DPTR
   \   0000C0   802C         SJMP      ??ZDSecMgrSendNwkKey_3
    949              }
    950              else
    951              {
    952                req.nwkSecure   = TRUE;
   \                     ??ZDSecMgrSendNwkKey_2:
   \   0000C2   740E         MOV       A,#0xe
   \   0000C4   12....       LCALL     ?XSTACK_DISP0_8
   \   0000C7   7401         MOV       A,#0x1
   \   0000C9   F0           MOVX      @DPTR,A
    953                req.tunnel      = &tunnel;
   \   0000CA   740F         MOV       A,#0xf
   \   0000CC   12....       LCALL     ?XSTACK_DISP0_8
   \   0000CF   E5..         MOV       A,?XSP + 0
   \   0000D1   F0           MOVX      @DPTR,A
   \   0000D2   A3           INC       DPTR
   \   0000D3   E5..         MOV       A,?XSP + 1
   \   0000D5   12....       LCALL     ?Subroutine16 & 0xFFFF
    954                req.tunnel->tna = device->parentAddr;
    955                req.tunnel->dea = device->extAddr;
    956              }
    957            }
   \                     ??CrossCallReturnLabel_10:
   \   0000D8   85..82       MOV       DPL,?XSP + 0
   \   0000DB   85..83       MOV       DPH,?XSP + 1
   \   0000DE   12....       LCALL     ?Subroutine14 & 0xFFFF
   \                     ??CrossCallReturnLabel_8:
   \   0000E1   F8           MOV       R0,A
   \   0000E2   A3           INC       DPTR
   \   0000E3   E0           MOVX      A,@DPTR
   \   0000E4   F9           MOV       R1,A
   \   0000E5   7402         MOV       A,#0x2
   \   0000E7   12....       LCALL     ?XSTACK_DISP0_8
   \   0000EA   E8           MOV       A,R0
   \   0000EB   F0           MOVX      @DPTR,A
   \   0000EC   A3           INC       DPTR
   \   0000ED   E9           MOV       A,R1
   \                     ??ZDSecMgrSendNwkKey_3:
   \   0000EE   F0           MOVX      @DPTR,A
    958            else
    959            {
    960              // default values
    961              //devtag.0604.verify
    962              req.nwkSecure = TRUE;
    963              req.apsSecure = FALSE;
    964              req.tunnel    = NULL;
    965          
    966              if ( device->parentAddr != NLME_GetShortAddr() )
    967              {
    968                req.dstAddr = device->parentAddr;
    969              }
    970          
    971              // send the real key
    972              if ( zgPreConfigKeys == FALSE )
    973              {
    974                req.keySeqNum = tmpKey.keySeqNum;
    975                req.key       = tmpKey.key;
    976          
    977                // check if using secure hop to to parent
    978                if ( device->parentAddr == NLME_GetShortAddr() )
    979                {
    980                  req.nwkSecure = FALSE;
    981                }
    982              }
    983              else
    984              {
    985                // this is to send the all zero key when the NWK key has been preconfigured
    986                req.key       = NULL;
    987                req.keySeqNum = 0;
    988              }
    989            }
    990          
    991            status = APSME_TransportKeyReq( &req );
   \   0000EF                ; Setup parameters for call to function APSME_TransportKeyReq
   \   0000EF   7404         MOV       A,#0x4
   \   0000F1   12....       LCALL     ?XSTACK_DISP101_8
   \   0000F4   12....       LCALL     `??APSME_TransportKeyReq::?relay`; Banked call to: APSME_TransportKeyReq
   \   0000F7   E9           MOV       A,R1
   \   0000F8   FE           MOV       R6,A
    992          
    993            // clear copy of key in RAM before return
    994            osal_memset( &tmpKey, 0x00, sizeof(nwkKeyDesc) );
   \   0000F9                ; Setup parameters for call to function osal_memset
   \   0000F9   7C11         MOV       R4,#0x11
   \   0000FB   7D00         MOV       R5,#0x0
   \   0000FD   7900         MOV       R1,#0x0
   \   0000FF   EC           MOV       A,R4
   \   000100   12....       LCALL     ?XSTACK_DISP101_8
   \   000103   12....       LCALL     `??osal_memset::?relay`; Banked call to: osal_memset
    995          
    996            return status;
   \   000106   EE           MOV       A,R6
   \   000107   F9           MOV       R1,A
   \   000108   7422         MOV       A,#0x22
   \   00010A   02....       LJMP      ?Subroutine3 & 0xFFFF
    997          }

   \                                 In  segment BANKED_CODE, align 1, keep-with-next
   \                     ?Subroutine16:
   \   000000   F0           MOVX      @DPTR,A
   \   000001   8882         MOV       DPL,R0
   \   000003   8983         MOV       DPH,R1
   \   000005   12....       LCALL     ?Subroutine74 & 0xFFFF
   \                     ??CrossCallReturnLabel_169:
   \   000008   22           RET

   \                                 In  segment BANKED_CODE, align 1, keep-with-next
   \                     ?Subroutine14:
   \   000000   E8           MOV       A,R0
   \   000001   F0           MOVX      @DPTR,A
   \   000002   A3           INC       DPTR
   \   000003   E9           MOV       A,R1
   \   000004   F0           MOVX      @DPTR,A
   \   000005                ; Setup parameters for call to function osal_memcpy
   \   000005   85..82       MOV       DPL,?V0
   \   000008   85..83       MOV       DPH,?V1
   \   00000B   E0           MOVX      A,@DPTR
   \   00000C   22           RET
    998          
    999          /******************************************************************************
   1000           * @fn          ZDSecMgrDeviceRemoveByExtAddr
   1001           *
   1002           * @brief       Remove device entry by its ext address.
   1003           *
   1004           * @param       pAddr - pointer to the extended address
   1005           *
   1006           * @return      ZStatus_t
   1007           */

   \                                 In  segment BANKED_CODE, align 1, keep-with-next
   1008          ZStatus_t ZDSecMgrDeviceRemoveByExtAddr( uint8 *pAddr )
   \                     ZDSecMgrDeviceRemoveByExtAddr:
   1009          {
   \   000000   74F7         MOV       A,#-0x9
   \   000002   12....       LCALL     ?BANKED_ENTER_XDATA
   \   000005                ; Saved register size: 9
   \   000005                ; Auto size: 2
   \   000005   74FE         MOV       A,#-0x2
   \   000007   12....       LCALL     ?ALLOC_XSTACK8
   1010            ZDSecMgrEntry_t *pEntry;
   1011            uint8           retValue;
   1012          
   1013            retValue = (uint8)ZDSecMgrEntryLookupExt( pAddr, &pEntry );
   \   00000A                ; Setup parameters for call to function ZDSecMgrEntryLookupExt
   \   00000A   AC..         MOV       R4,?XSP + 0
   \   00000C   AD..         MOV       R5,?XSP + 1
   \   00000E   12....       LCALL     `??ZDSecMgrEntryLookupExt::?relay`; Banked call to: ZDSecMgrEntryLookupExt
   \   000011   E9           MOV       A,R1
   \   000012   FE           MOV       R6,A
   1014          
   1015            if( retValue == ZSuccess )
   \   000013   700C         JNZ       ??ZDSecMgrDeviceRemoveByExtAddr_0
   1016            {
   1017              // remove device from entry data
   1018              ZDSecMgrEntryFree( pEntry );
   \   000015                ; Setup parameters for call to function ZDSecMgrEntryFree
   \   000015   85..82       MOV       DPL,?XSP + 0
   \   000018   85..83       MOV       DPH,?XSP + 1
   \   00001B   12....       LCALL     ??Subroutine80_0 & 0xFFFF
   1019            }
   \                     ??CrossCallReturnLabel_139:
   \   00001E   12....       LCALL     `??ZDSecMgrEntryFree::?relay`; Banked call to: ZDSecMgrEntryFree
   1020          
   1021            return retValue;
   \                     ??ZDSecMgrDeviceRemoveByExtAddr_0:
   \   000021   EE           MOV       A,R6
   \   000022   F9           MOV       R1,A
   \   000023                REQUIRE ?Subroutine7
   \   000023                ; // Fall through to label ?Subroutine7
   1022          }
   1023          
   1024          /******************************************************************************
   1025           * @fn          ZDSecMgrDeviceRemove
   1026           *
   1027           * @brief       Remove device from network.
   1028           *
   1029           * @param       device - [in] ZDSecMgrDevice_t, device info
   1030           *
   1031           * @return      none
   1032           */

   \                                 In  segment BANKED_CODE, align 1, keep-with-next
   1033          void ZDSecMgrDeviceRemove( ZDSecMgrDevice_t* device )
   \                     ZDSecMgrDeviceRemove:
   1034          {
   \   000000                REQUIRE ?V0
   \   000000                REQUIRE ?V1
   \   000000   74F6         MOV       A,#-0xa
   \   000002   12....       LCALL     ?BANKED_ENTER_XDATA
   \   000005                ; Saved register size: 10
   \   000005                ; Auto size: 19
   \   000005   74ED         MOV       A,#-0x13
   \   000007   12....       LCALL     ?ALLOC_XSTACK8
   \   00000A   EA           MOV       A,R2
   \   00000B   FE           MOV       R6,A
   \   00000C   EB           MOV       A,R3
   \   00000D   FF           MOV       R7,A
   1035            APSME_RemoveDeviceReq_t remDevReq;
   1036            NLME_LeaveReq_t         leaveReq;
   1037            associated_devices_t*   assoc;
   1038            uint8 TC_ExtAddr[Z_EXTADDR_LEN];
   1039          
   1040            // check if parent, remove the device
   1041            if ( device->parentAddr == NLME_GetShortAddr() )
   \   00000E                ; Setup parameters for call to function NLME_GetShortAddr
   \   00000E   12....       LCALL     `??NLME_GetShortAddr::?relay`; Banked call to: NLME_GetShortAddr
   \   000011   8A..         MOV       ?V0,R2
   \   000013   8B..         MOV       ?V1,R3
   \   000015   8E82         MOV       DPL,R6
   \   000017   8F83         MOV       DPH,R7
   \   000019   A3           INC       DPTR
   \   00001A   A3           INC       DPTR
   \   00001B   A3           INC       DPTR
   \   00001C   A3           INC       DPTR
   \   00001D   12....       LCALL     ??Subroutine80_0 & 0xFFFF
   \                     ??CrossCallReturnLabel_140:
   \   000020   EE           MOV       A,R6
   \   000021   2402         ADD       A,#0x2
   \   000023   F8           MOV       R0,A
   \   000024   E4           CLR       A
   \   000025   3F           ADDC      A,R7
   \   000026   F9           MOV       R1,A
   \   000027   E5..         MOV       A,?V0
   \   000029   6A           XRL       A,R2
   \   00002A   7003         JNZ       ??ZDSecMgrDeviceRemove_0
   \   00002C   E5..         MOV       A,?V1
   \   00002E   6B           XRL       A,R3
   \                     ??ZDSecMgrDeviceRemove_0:
   \   00002F   6003         JZ        $+5
   \   000031   02....       LJMP      ??ZDSecMgrDeviceRemove_1 & 0xFFFF
   1042            {
   1043              // this is the parent of the device
   1044              leaveReq.extAddr        = device->extAddr;
   \   000034   8882         MOV       DPL,R0
   \   000036   8983         MOV       DPH,R1
   \   000038   12....       LCALL     ??Subroutine80_0 & 0xFFFF
   \                     ??CrossCallReturnLabel_141:
   \   00003B   7401         MOV       A,#0x1
   \   00003D   12....       LCALL     ?XSTACK_DISP0_8
   \   000040   12....       LCALL     ?Subroutine17 & 0xFFFF
   1045              leaveReq.removeChildren = FALSE;
   \                     ??CrossCallReturnLabel_14:
   \   000043   12....       LCALL     ?XSTACK_DISP0_8
   \   000046   E4           CLR       A
   \   000047   F0           MOVX      @DPTR,A
   1046              leaveReq.rejoin         = FALSE;
   \   000048   7404         MOV       A,#0x4
   \   00004A   12....       LCALL     ?XSTACK_DISP0_8
   \   00004D   E4           CLR       A
   \   00004E   12....       LCALL     ?Subroutine25 & 0xFFFF
   1047          
   1048              // find child association
   1049              assoc = AssocGetWithExt( device->extAddr );
   \                     ??CrossCallReturnLabel_23:
   \   000051   FA           MOV       R2,A
   \   000052   A3           INC       DPTR
   \   000053   E0           MOVX      A,@DPTR
   \   000054   FB           MOV       R3,A
   \   000055   12....       LCALL     `??AssocGetWithExt::?relay`; Banked call to: AssocGetWithExt
   \   000058   8B..         MOV       ?V1,R3
   \   00005A   A9..         MOV       R1,?V1
   1050          
   1051              if ( ( assoc != NULL                            ) &&
   1052                   ( assoc->nodeRelation >= CHILD_RFD         ) &&
   1053                   ( assoc->nodeRelation <= CHILD_FFD_RX_IDLE )    )
   \   00005C   EA           MOV       A,R2
   \   00005D   49           ORL       A,R1
   \   00005E   6030         JZ        ??ZDSecMgrDeviceRemove_2
   \   000060   8A82         MOV       DPL,R2
   \   000062   8B83         MOV       DPH,R3
   \   000064   A3           INC       DPTR
   \   000065   A3           INC       DPTR
   \   000066   A3           INC       DPTR
   \   000067   A3           INC       DPTR
   \   000068   E0           MOVX      A,@DPTR
   \   000069   6025         JZ        ??ZDSecMgrDeviceRemove_2
   \   00006B   C3           CLR       C
   \   00006C   9405         SUBB      A,#0x5
   \   00006E   5020         JNC       ??ZDSecMgrDeviceRemove_2
   1054              {
   1055                // check if associated device is authenticated
   1056                if ( assoc->devStatus & DEV_SEC_AUTH_STATUS )
   \   000070   8A82         MOV       DPL,R2
   \   000072   8B83         MOV       DPH,R3
   \   000074   A3           INC       DPTR
   \   000075   A3           INC       DPTR
   \   000076   A3           INC       DPTR
   \   000077   A3           INC       DPTR
   \   000078   A3           INC       DPTR
   \   000079   E0           MOVX      A,@DPTR
   \   00007A   A2E3         MOV       C,0xE0 /* A   */.3
   \   00007C   7405         MOV       A,#0x5
   \   00007E   5006         JNC       ??ZDSecMgrDeviceRemove_3
   1057                {
   1058                  leaveReq.silent = FALSE;
   \   000080   12....       LCALL     ?XSTACK_DISP0_8
   \   000083   E4           CLR       A
   \   000084   8005         SJMP      ??ZDSecMgrDeviceRemove_4
   1059                }
   1060                else
   1061                {
   1062                  leaveReq.silent = TRUE;
   \                     ??ZDSecMgrDeviceRemove_3:
   \   000086   12....       LCALL     ?XSTACK_DISP0_8
   \   000089   7401         MOV       A,#0x1
   \                     ??ZDSecMgrDeviceRemove_4:
   \   00008B   F0           MOVX      @DPTR,A
   1063                }
   1064          
   1065                NLME_LeaveReq( &leaveReq );
   \   00008C                ; Setup parameters for call to function NLME_LeaveReq
   \   00008C   7401         MOV       A,#0x1
   \   00008E   8029         SJMP      ??ZDSecMgrDeviceRemove_5
   1066              }
   1067              else if ( device->nwkAddr == NLME_GetShortAddr() )
   \                     ??ZDSecMgrDeviceRemove_2:
   \   000090                ; Setup parameters for call to function NLME_GetShortAddr
   \   000090   12....       LCALL     `??NLME_GetShortAddr::?relay`; Banked call to: NLME_GetShortAddr
   \   000093   8A..         MOV       ?V0,R2
   \   000095   8B..         MOV       ?V1,R3
   \   000097   A8..         MOV       R0,?V0
   \   000099   A9..         MOV       R1,?V1
   \   00009B   8E82         MOV       DPL,R6
   \   00009D   8F83         MOV       DPH,R7
   \   00009F   E0           MOVX      A,@DPTR
   \   0000A0   68           XRL       A,R0
   \   0000A1   7003         JNZ       ??ZDSecMgrDeviceRemove_6
   \   0000A3   A3           INC       DPTR
   \   0000A4   E0           MOVX      A,@DPTR
   \   0000A5   69           XRL       A,R1
   \                     ??ZDSecMgrDeviceRemove_6:
   \   0000A6   7076         JNZ       ??ZDSecMgrDeviceRemove_7
   1068              {
   1069                // this is when ZC wants that ZR removes itself from the network
   1070                leaveReq.extAddr = NULL;
   \   0000A8   7401         MOV       A,#0x1
   \   0000AA   12....       LCALL     ?XSTACK_DISP0_8
   \   0000AD   E4           CLR       A
   \   0000AE   F0           MOVX      @DPTR,A
   \   0000AF   A3           INC       DPTR
   \   0000B0   F0           MOVX      @DPTR,A
   1071                leaveReq.silent = FALSE;
   \   0000B1   7405         MOV       A,#0x5
   \   0000B3   12....       LCALL     ?XSTACK_DISP0_8
   \   0000B6   E4           CLR       A
   \   0000B7   F0           MOVX      @DPTR,A
   1072          
   1073                NLME_LeaveReq( &leaveReq );
   \   0000B8                ; Setup parameters for call to function NLME_LeaveReq
   \   0000B8   04           INC       A
   \                     ??ZDSecMgrDeviceRemove_5:
   \   0000B9   12....       LCALL     ?XSTACK_DISP101_8
   \   0000BC   12....       LCALL     `??NLME_LeaveReq::?relay`; Banked call to: NLME_LeaveReq
   \   0000BF   805D         SJMP      ??ZDSecMgrDeviceRemove_7
   1074              }
   1075            }
   1076            else
   1077            {
   1078              // this is not the parent of the device
   1079              remDevReq.parentAddr   = device->parentAddr;
   \                     ??ZDSecMgrDeviceRemove_1:
   \   0000C1   7406         MOV       A,#0x6
   \   0000C3   12....       LCALL     ?XSTACK_DISP0_8
   \   0000C6   EA           MOV       A,R2
   \   0000C7   F0           MOVX      @DPTR,A
   \   0000C8   A3           INC       DPTR
   \   0000C9   EB           MOV       A,R3
   \   0000CA   12....       LCALL     ?Subroutine16 & 0xFFFF
   1080              remDevReq.childExtAddr = device->extAddr;
   \                     ??CrossCallReturnLabel_11:
   \   0000CD   7408         MOV       A,#0x8
   \   0000CF   12....       LCALL     ?XSTACK_DISP0_8
   \   0000D2   12....       LCALL     ?Subroutine19 & 0xFFFF
   1081          
   1082              if ( ZG_CHECK_SECURITY_MODE == ZG_SECURITY_SE_STANDARD )
   1083              {
   1084                uint8 found;
   1085                APSME_GetRequest( apsTrustCenterAddress,0, TC_ExtAddr );
   \                     ??CrossCallReturnLabel_19:
   \   0000D5   12....       LCALL     ?XSTACK_DISP102_8
   \   0000D8   12....       LCALL     ?Subroutine60 & 0xFFFF
   1086                
   1087                APSME_SearchTCLinkKeyEntry(TC_ExtAddr,&found,NULL);
   \                     ??CrossCallReturnLabel_94:
   \   0000DB   12....       LCALL     ?PUSH_XSTACK_I_TWO
   \   0000DE   7402         MOV       A,#0x2
   \   0000E0   12....       LCALL     ?XSTACK_DISP102_8
   \   0000E3   740D         MOV       A,#0xd
   \   0000E5   12....       LCALL     ?XSTACK_DISP101_8
   \   0000E8   12....       LCALL     ?Subroutine57 & 0xFFFF
   \                     ??CrossCallReturnLabel_85:
   \   0000EB   12....       LCALL     ?DEALLOC_XSTACK8
   1088                
   1089                // For ZG_GLOBAL_LINK_KEY the message has to be sent twice, one
   1090                // APS un-encrypted and one APS encrypted, to make sure that it can interoperate
   1091                // with legacy Coordinator devices which can only handle one or the other.
   1092          #if defined ( APP_TP2_TEST_MODE )
   1093                if ( ( zgApsLinkKeyType == ZG_GLOBAL_LINK_KEY ) && ( guTxApsSecON != TRUE ) )
   1094          #else
   1095                if ( ( zgApsLinkKeyType == ZG_GLOBAL_LINK_KEY ) && ( found == FALSE ) )
   \   0000EE   90....       MOV       DPTR,#zgApsLinkKeyType
   \   0000F1   E0           MOVX      A,@DPTR
   \   0000F2   6401         XRL       A,#0x1
   \   0000F4   7018         JNZ       ??ZDSecMgrDeviceRemove_8
   \   0000F6   85..82       MOV       DPL,?XSP + 0
   \   0000F9   85..83       MOV       DPH,?XSP + 1
   \   0000FC   E0           MOVX      A,@DPTR
   \   0000FD   700F         JNZ       ??ZDSecMgrDeviceRemove_8
   1096          #endif
   1097                {
   1098                  remDevReq.apsSecure = FALSE;
   \   0000FF   740A         MOV       A,#0xa
   \   000101   12....       LCALL     ?XSTACK_DISP0_8
   \   000104   E4           CLR       A
   \   000105   F0           MOVX      @DPTR,A
   1099          
   1100                  APSME_RemoveDeviceReq( &remDevReq );
   \   000106                ; Setup parameters for call to function APSME_RemoveDeviceReq
   \   000106   7406         MOV       A,#0x6
   \   000108   12....       LCALL     ?XSTACK_DISP101_8
   \   00010B   12....       LCALL     `??APSME_RemoveDeviceReq::?relay`; Banked call to: APSME_RemoveDeviceReq
   1101                }
   1102          
   1103          #if defined ( APP_TP2_TEST_MODE )
   1104                if ( guTxApsSecON != FALSE )
   1105                {
   1106                  remDevReq.apsSecure = TRUE;
   1107          
   1108                  APSME_RemoveDeviceReq( &remDevReq );
   1109                }
   1110          #else
   1111                remDevReq.apsSecure = TRUE;
   \                     ??ZDSecMgrDeviceRemove_8:
   \   00010E   740A         MOV       A,#0xa
   \   000110   12....       LCALL     ?XSTACK_DISP0_8
   \   000113   7401         MOV       A,#0x1
   \   000115   F0           MOVX      @DPTR,A
   1112          
   1113                APSME_RemoveDeviceReq( &remDevReq );
   \   000116                ; Setup parameters for call to function APSME_RemoveDeviceReq
   \   000116   7406         MOV       A,#0x6
   \   000118   12....       LCALL     ?XSTACK_DISP101_8
   \   00011B   12....       LCALL     `??APSME_RemoveDeviceReq::?relay`; Banked call to: APSME_RemoveDeviceReq
   1114          #endif
   1115              }
   1116              else
   1117              {
   1118                remDevReq.apsSecure = FALSE;
   1119          
   1120                APSME_RemoveDeviceReq( &remDevReq );
   1121              }
   1122            }
   1123          }
   \                     ??ZDSecMgrDeviceRemove_7:
   \   00011E   7413         MOV       A,#0x13
   \   000120   02....       LJMP      ??Subroutine90_0 & 0xFFFF

   \                                 In  segment BANKED_CODE, align 1, keep-with-next
   \                     ?Subroutine60:
   \   000000   7A00         MOV       R2,#0x0
   \   000002   7B00         MOV       R3,#0x0
   \   000004   79AB         MOV       R1,#-0x55
   \   000006   12....       LCALL     `??APSME_GetRequest::?relay`; Banked call to: APSME_GetRequest
   \   000009                ; Setup parameters for call to function APSME_SearchTCLinkKeyEntry
   \   000009                ; Setup parameters for call to function APSME_SearchTCLinkKeyEntry
   \   000009   E4           CLR       A
   \   00000A   F5..         MOV       ?V0,A
   \   00000C   F5..         MOV       ?V1,A
   \   00000E   78..         MOV       R0,#?V0
   \   000010   22           RET

   \                                 In  segment BANKED_CODE, align 1, keep-with-next
   \                     ?Subroutine25:
   \   000000   F0           MOVX      @DPTR,A
   \   000001                ; Setup parameters for call to function AssocGetWithExt
   \   000001   8882         MOV       DPL,R0
   \   000003   8983         MOV       DPH,R1
   \   000005   E0           MOVX      A,@DPTR
   \   000006   22           RET
   1124          
   1125          /******************************************************************************
   1126           * @fn          ZDSecMgrDeviceValidateRM (RESIDENTIAL MODE)
   1127           *
   1128           * @brief       Decide whether device is allowed.
   1129           *
   1130           * @param       device - [in] ZDSecMgrDevice_t, device info
   1131           *
   1132           * @return      ZStatus_t
   1133           */

   \                                 In  segment BANKED_CODE, align 1, keep-with-next
   1134          ZStatus_t ZDSecMgrDeviceValidateRM( ZDSecMgrDevice_t* device )
   \                     ZDSecMgrDeviceValidateRM:
   1135          {
   \   000000   C082         PUSH      DPL
   \   000002   C083         PUSH      DPH
   \   000004                ; Saved register size: 2
   \   000004                ; Auto size: 0
   1136            ZStatus_t status;
   1137          
   1138            status = ZSuccess;
   \   000004   7900         MOV       R1,#0x0
   1139          
   1140            (void)device;  // Intentionally unreferenced parameter
   1141          
   1142            // For test purpose, turning off the zgSecurePermitJoin flag will force
   1143            // the trust center to reject any newly joining devices by sending
   1144            // Remove-device to the parents.
   1145            if ( zgSecurePermitJoin == FALSE )
   \   000006   90....       MOV       DPTR,#zgSecurePermitJoin
   \   000009   E0           MOVX      A,@DPTR
   \   00000A   7002         JNZ       ??ZDSecMgrDeviceValidateRM_0
   1146            {
   1147              status = ZNwkUnknownDevice;
   \   00000C   79C8         MOV       R1,#-0x38
   1148            }
   1149          
   1150          
   1151          
   1152          #if 0  // Taken out because the following functionality is only used for test
   1153                 // purpose. A more efficient (above) way is used. It can be put
   1154                 // back in if customers request for a white/black list feature.
   1155                 // ZDSecMgrStoredDeviceList[] is defined in ZDSecMgr.c
   1156          
   1157            // The following code processes the device black list (stored device list)
   1158            // If the joining device is not part of the forbidden device list
   1159            // Return ZSuccess. Otherwise, return ZNwkUnknownDevice. The trust center
   1160            // will send Remove-device and ban the device from joining.
   1161          
   1162            uint8     index;
   1163            uint8*    restricted;
   1164          
   1165            // Look through the stored device list - used for restricted devices
   1166            for ( index = 0; index < ZDSECMGR_STORED_DEVICES; index++ )
   1167            {
   1168              restricted = ZDSecMgrStoredDeviceList[index];
   1169          
   1170              if ( AddrMgrExtAddrEqual( restricted, device->extAddr )  == TRUE )
   1171              {
   1172                // return as unknown device in regards to validation
   1173                status = ZNwkUnknownDevice;
   1174          
   1175                // break from loop
   1176                index = ZDSECMGR_STORED_DEVICES;
   1177              }
   1178            }
   1179          
   1180          #endif
   1181          
   1182            return status;
   \                     ??ZDSecMgrDeviceValidateRM_0:
   \   00000E   02....       LJMP      ??Subroutine81_0 & 0xFFFF
   1183          }
   1184          
   1185          /******************************************************************************
   1186           * @fn          ZDSecMgrDeviceValidate
   1187           *
   1188           * @brief       Decide whether device is allowed.
   1189           *
   1190           * @param       device - [in] ZDSecMgrDevice_t, device info
   1191           *
   1192           * @return      ZStatus_t
   1193           */

   \                                 In  segment BANKED_CODE, align 1, keep-with-next
   1194          ZStatus_t ZDSecMgrDeviceValidate( ZDSecMgrDevice_t* device )
   \                     ZDSecMgrDeviceValidate:
   1195          {
   \   000000   C082         PUSH      DPL
   \   000002   C083         PUSH      DPH
   \   000004                ; Saved register size: 2
   \   000004                ; Auto size: 0
   1196            ZStatus_t status;
   1197          
   1198            if ( ZDSecMgrPermitJoiningEnabled == TRUE )
   \   000004   90....       MOV       DPTR,#ZDSecMgrPermitJoiningEnabled
   \   000007   E0           MOVX      A,@DPTR
   \   000008   6401         XRL       A,#0x1
   \   00000A   7007         JNZ       ??ZDSecMgrDeviceValidate_0
   1199            {
   1200              status = ZDSecMgrDeviceValidateRM( device );
   \   00000C                ; Setup parameters for call to function ZDSecMgrDeviceValidateRM
   \   00000C   12....       LCALL     `??ZDSecMgrDeviceValidateRM::?relay`; Banked call to: ZDSecMgrDeviceValidateRM
   \   00000F   E9           MOV       A,R1
   \   000010   F9           MOV       R1,A
   \   000011   8002         SJMP      ??ZDSecMgrDeviceValidate_1
   1201            }
   1202            else
   1203            {
   1204              status = ZNwkUnknownDevice;
   \                     ??ZDSecMgrDeviceValidate_0:
   \   000013   79C8         MOV       R1,#-0x38
   1205            }
   1206          
   1207            return status;
   \                     ??ZDSecMgrDeviceValidate_1:
   \   000015   02....       LJMP      ??Subroutine81_0 & 0xFFFF
   1208          }
   1209          
   1210          /******************************************************************************
   1211           * @fn          ZDSecMgrDeviceJoin
   1212           *
   1213           * @brief       Try to join this device.
   1214           *
   1215           * @param       device - [in] ZDSecMgrDevice_t, device info
   1216           *
   1217           * @return      ZStatus_t
   1218           */

   \                                 In  segment BANKED_CODE, align 1, keep-with-next
   1219          ZStatus_t ZDSecMgrDeviceJoin( ZDSecMgrDevice_t* device )
   \                     ZDSecMgrDeviceJoin:
   1220          {
   \   000000                REQUIRE ?V0
   \   000000                REQUIRE ?V1
   \   000000                REQUIRE ?V2
   \   000000                REQUIRE ?V3
   \   000000                REQUIRE ?V4
   \   000000                REQUIRE ?V6
   \   000000                REQUIRE ?V7
   \   000000   74F0         MOV       A,#-0x10
   \   000002   12....       LCALL     ?BANKED_ENTER_XDATA
   \   000005                ; Saved register size: 16
   \   000005                ; Auto size: 14
   \   000005   74F2         MOV       A,#-0xe
   \   000007   12....       LCALL     ?ALLOC_XSTACK8
   \   00000A   EA           MOV       A,R2
   \   00000B   FE           MOV       R6,A
   \   00000C   EB           MOV       A,R3
   \   00000D   FF           MOV       R7,A
   1221            ZStatus_t status = ZSuccess;
   \   00000E   75..00       MOV       ?V4,#0x0
   1222            uint16    ami;
   1223          
   1224            // attempt to validate device that joined/rejoined without security
   1225            if ( device->secure == FALSE )
   \   000011   EA           MOV       A,R2
   \   000012   2402         ADD       A,#0x2
   \   000014   F5..         MOV       ?V0,A
   \   000016   E4           CLR       A
   \   000017   3F           ADDC      A,R7
   \   000018   F5..         MOV       ?V1,A
   \   00001A   EA           MOV       A,R2
   \   00001B   2406         ADD       A,#0x6
   \   00001D   F8           MOV       R0,A
   \   00001E   E4           CLR       A
   \   00001F   3F           ADDC      A,R7
   \   000020   88..         MOV       ?V2,R0
   \   000022   F5..         MOV       ?V3,A
   \   000024   8882         MOV       DPL,R0
   \   000026   F583         MOV       DPH,A
   \   000028   E0           MOVX      A,@DPTR
   \   000029   7008         JNZ       ??ZDSecMgrDeviceJoin_0
   1226            {
   1227              status = ZDSecMgrDeviceValidate( device );
   \   00002B                ; Setup parameters for call to function ZDSecMgrDeviceValidate
   \   00002B   12....       LCALL     `??ZDSecMgrDeviceValidate::?relay`; Banked call to: ZDSecMgrDeviceValidate
   \   00002E   E9           MOV       A,R1
   \   00002F   F5..         MOV       ?V4,A
   1228            }
   1229          
   1230            if ( status == ZSuccess )
   \   000031   7050         JNZ       ??ZDSecMgrDeviceJoin_1
   1231            {
   1232              // Add the device to the address manager
   1233              ZDSecMgrAddrStore( device->nwkAddr, device->extAddr, &ami );
   \                     ??ZDSecMgrDeviceJoin_0:
   \   000033                ; Setup parameters for call to function ZDSecMgrAddrStore
   \   000033   A8..         MOV       R0,?XSP + 0
   \   000035   A9..         MOV       R1,?XSP + 1
   \   000037   88..         MOV       ?V6,R0
   \   000039   89..         MOV       ?V7,R1
   \   00003B   78..         MOV       R0,#?V6
   \   00003D   12....       LCALL     ?PUSH_XSTACK_I_TWO
   \   000040   85..82       MOV       DPL,?V0
   \   000043   85..83       MOV       DPH,?V1
   \   000046   12....       LCALL     ?Subroutine33 & 0xFFFF
   \                     ??CrossCallReturnLabel_36:
   \   000049   8E82         MOV       DPL,R6
   \   00004B   8F83         MOV       DPH,R7
   \   00004D   12....       LCALL     ??Subroutine80_0 & 0xFFFF
   \                     ??CrossCallReturnLabel_142:
   \   000050   12....       LCALL     ?Subroutine63 & 0xFFFF
   \                     ??CrossCallReturnLabel_101:
   \   000053   12....       LCALL     ?DEALLOC_XSTACK8
   1234          
   1235              // Only send the key to devices that have not been authenticated
   1236              if ( ( device->devStatus & DEV_SEC_INIT_STATUS ) &&
   1237                   ( device->secure == FALSE ) )
   \   000056   8E82         MOV       DPL,R6
   \   000058   8F83         MOV       DPH,R7
   \   00005A   A3           INC       DPTR
   \   00005B   A3           INC       DPTR
   \   00005C   A3           INC       DPTR
   \   00005D   A3           INC       DPTR
   \   00005E   A3           INC       DPTR
   \   00005F   A3           INC       DPTR
   \   000060   A3           INC       DPTR
   \   000061   E0           MOVX      A,@DPTR
   \   000062   A2E2         MOV       C,0xE0 /* A   */.2
   \   000064   501D         JNC       ??ZDSecMgrDeviceJoin_1
   \   000066   85..82       MOV       DPL,?V2
   \   000069   85..83       MOV       DPH,?V3
   \   00006C   E0           MOVX      A,@DPTR
   \   00006D   7014         JNZ       ??ZDSecMgrDeviceJoin_1
   1238              {
   1239                //send the nwk key data to the joining device
   1240                status = ZDSecMgrSendNwkKey( device );
   \   00006F                ; Setup parameters for call to function ZDSecMgrSendNwkKey
   \   00006F   EE           MOV       A,R6
   \   000070   FA           MOV       R2,A
   \   000071   EF           MOV       A,R7
   \   000072   FB           MOV       R3,A
   \   000073   12....       LCALL     `??ZDSecMgrSendNwkKey::?relay`; Banked call to: ZDSecMgrSendNwkKey
   \   000076   E9           MOV       A,R1
   \   000077   F5..         MOV       ?V4,A
   1241              }
   1242          
   1243              if ( status != ZSuccess )
   \   000079   6015         JZ        ??ZDSecMgrDeviceJoin_2
   1244              {
   1245                ZDSecMgrAddrClear( device->extAddr );
   \   00007B                ; Setup parameters for call to function ZDSecMgrAddrClear
   \   00007B   12....       LCALL     ?Subroutine42 & 0xFFFF
   1246              }
   1247            }
   \                     ??CrossCallReturnLabel_148:
   \   00007E   12....       LCALL     `??ZDSecMgrAddrClear::?relay`; Banked call to: ZDSecMgrAddrClear
   \   000081   8004         SJMP      ??ZDSecMgrDeviceJoin_3
   1248          
   1249            if ( status != ZSuccess )
   \                     ??ZDSecMgrDeviceJoin_1:
   \   000083   E5..         MOV       A,?V4
   \   000085   6009         JZ        ??ZDSecMgrDeviceJoin_2
   1250            {
   1251              // not allowed or transport key failed, remove the device
   1252              ZDSecMgrDeviceRemove( device );
   \                     ??ZDSecMgrDeviceJoin_3:
   \   000087                ; Setup parameters for call to function ZDSecMgrDeviceRemove
   \   000087   EE           MOV       A,R6
   \   000088   FA           MOV       R2,A
   \   000089   EF           MOV       A,R7
   \   00008A   FB           MOV       R3,A
   \   00008B   12....       LCALL     `??ZDSecMgrDeviceRemove::?relay`; Banked call to: ZDSecMgrDeviceRemove
   \   00008E   8059         SJMP      ??ZDSecMgrDeviceJoin_4
   1253            }
   1254            else
   1255            {
   1256              // Pass the Trust Center Device Indication to higher layer if callback registered
   1257              if (zdoCBFunc[ZDO_TC_DEVICE_CBID] != NULL )
   \                     ??ZDSecMgrDeviceJoin_2:
   \   000090   90....       MOV       DPTR,#zdoCBFunc + 16
   \   000093   12....       LCALL     ??Subroutine85_0 & 0xFFFF
   \                     ??CrossCallReturnLabel_177:
   \   000096   6051         JZ        ??ZDSecMgrDeviceJoin_4
   1258              {
   1259                ZDO_TC_Device_t dev;
   1260          
   1261                dev.nwkAddr = device->nwkAddr;
   \   000098   8E82         MOV       DPL,R6
   \   00009A   8F83         MOV       DPH,R7
   \   00009C   12....       LCALL     ??Subroutine84_0 & 0xFFFF
   \                     ??CrossCallReturnLabel_157:
   \   00009F   7402         MOV       A,#0x2
   \   0000A1   12....       LCALL     ?XSTACK_DISP0_8
   \   0000A4   12....       LCALL     ?Subroutine14 & 0xFFFF
   1262                osal_memcpy( dev.extAddr, device->extAddr, Z_EXTADDR_LEN );
   \                     ??CrossCallReturnLabel_9:
   \   0000A7   F5..         MOV       ?V0,A
   \   0000A9   A3           INC       DPTR
   \   0000AA   E0           MOVX      A,@DPTR
   \   0000AB   F5..         MOV       ?V1,A
   \   0000AD   75..00       MOV       ?V2,#0x0
   \   0000B0   78..         MOV       R0,#?V0
   \   0000B2   12....       LCALL     ?PUSH_XSTACK_I_THREE
   \   0000B5   7C08         MOV       R4,#0x8
   \   0000B7   7D00         MOV       R5,#0x0
   \   0000B9   7407         MOV       A,#0x7
   \   0000BB   12....       LCALL     ?XSTACK_DISP0_8
   \   0000BE   AA82         MOV       R2,DPL
   \   0000C0   AB83         MOV       R3,DPH
   \   0000C2   12....       LCALL     ??Subroutine105_0 & 0xFFFF
   \                     ??CrossCallReturnLabel_290:
   \   0000C5   12....       LCALL     ?DEALLOC_XSTACK8
   1263                dev.parentAddr = device->parentAddr;
   \   0000C8   8E82         MOV       DPL,R6
   \   0000CA   8F83         MOV       DPH,R7
   \   0000CC   A3           INC       DPTR
   \   0000CD   A3           INC       DPTR
   \   0000CE   A3           INC       DPTR
   \   0000CF   A3           INC       DPTR
   \   0000D0   12....       LCALL     ??Subroutine84_0 & 0xFFFF
   \                     ??CrossCallReturnLabel_158:
   \   0000D3   740C         MOV       A,#0xc
   \   0000D5   12....       LCALL     ?XSTACK_DISP0_8
   \   0000D8   12....       LCALL     ??Subroutine86_0 & 0xFFFF
   1264          
   1265                zdoCBFunc[ZDO_TC_DEVICE_CBID]( (void*)&dev );
   \                     ??CrossCallReturnLabel_197:
   \   0000DB                ; Setup parameters for indirect call
   \   0000DB   7402         MOV       A,#0x2
   \   0000DD   12....       LCALL     ?XSTACK_DISP101_8
   \   0000E0   90....       MOV       DPTR,#zdoCBFunc + 16
   \   0000E3   12....       LCALL     ?Subroutine37 & 0xFFFF
   1266              }
   1267            }
   \                     ??CrossCallReturnLabel_50:
   \   0000E6   12....       LCALL     ?CALL_IND
   1268                
   1269                
   1270          
   1271            return status;
   \                     ??ZDSecMgrDeviceJoin_4:
   \   0000E9   A9..         MOV       R1,?V4
   \   0000EB   740E         MOV       A,#0xe
   \   0000ED   02....       LJMP      ?Subroutine1 & 0xFFFF
   1272          }

   \                                 In  segment BANKED_CODE, align 1, keep-with-next
   \                     ?Subroutine63:
   \   000000   12....       LCALL     `??ZDSecMgrAddrStore::?relay`; Banked call to: ZDSecMgrAddrStore
   \   000003   7402         MOV       A,#0x2
   \   000005   22           RET

   \                                 In  segment BANKED_CODE, align 1, keep-with-next
   \                     ??Subroutine105_0:
   \   000000   12....       LCALL     `??osal_memcpy::?relay`; Banked call to: osal_memcpy
   \   000003   7403         MOV       A,#0x3
   \   000005   22           RET
   1273          
   1274          /******************************************************************************
   1275           * @fn          ZDSecMgrDeviceJoinDirect
   1276           *
   1277           * @brief       Try to join this device as a direct child.
   1278           *
   1279           * @param       device - [in] ZDSecMgrDevice_t, device info
   1280           *
   1281           * @return      ZStatus_t
   1282           */

   \                                 In  segment BANKED_CODE, align 1, keep-with-next
   1283          ZStatus_t ZDSecMgrDeviceJoinDirect( ZDSecMgrDevice_t* device )
   \                     ZDSecMgrDeviceJoinDirect:
   1284          {
   \   000000                REQUIRE ?V0
   \   000000                REQUIRE ?V1
   \   000000                REQUIRE ?V2
   \   000000                REQUIRE ?V3
   \   000000                REQUIRE ?V4
   \   000000                REQUIRE ?V5
   \   000000                REQUIRE ?V6
   \   000000                REQUIRE ?V7
   \   000000   74F0         MOV       A,#-0x10
   \   000002   12....       LCALL     ?BANKED_ENTER_XDATA
   \   000005                ; Saved register size: 16
   \   000005                ; Auto size: 20
   \   000005   74EC         MOV       A,#-0x14
   \   000007   12....       LCALL     ?ALLOC_XSTACK8
   \   00000A   EA           MOV       A,R2
   \   00000B   FE           MOV       R6,A
   \   00000C   EB           MOV       A,R3
   \   00000D   FF           MOV       R7,A
   1285            ZStatus_t status;
   1286            
   1287            if(device->secure == FALSE)
   \   00000E   EA           MOV       A,R2
   \   00000F   2402         ADD       A,#0x2
   \   000011   F5..         MOV       ?V2,A
   \   000013   E4           CLR       A
   \   000014   3F           ADDC      A,R7
   \   000015   F5..         MOV       ?V3,A
   \   000017   EA           MOV       A,R2
   \   000018   2406         ADD       A,#0x6
   \   00001A   F5..         MOV       ?V0,A
   \   00001C   E4           CLR       A
   \   00001D   3F           ADDC      A,R7
   \   00001E   F5..         MOV       ?V1,A
   \   000020   85..82       MOV       DPL,?V0
   \   000023   F583         MOV       DPH,A
   \   000025   E0           MOVX      A,@DPTR
   \   000026   6003         JZ        $+5
   \   000028   02....       LJMP      ??ZDSecMgrDeviceJoinDirect_0 & 0xFFFF
   1288            {  
   1289              uint8  found;
   1290              uint16 keyNvIndex;
   1291              APSME_TCLKDevEntry_t TCLKDevEntry;
   1292              
   1293              keyNvIndex = APSME_SearchTCLinkKeyEntry(device->extAddr,&found, &TCLKDevEntry);
   \   00002B                ; Setup parameters for call to function APSME_SearchTCLinkKeyEntry
   \   00002B   7401         MOV       A,#0x1
   \   00002D   12....       LCALL     ?XSTACK_DISP100_8
   \   000030   88..         MOV       ?V4,R0
   \   000032   89..         MOV       ?V5,R1
   \   000034   78..         MOV       R0,#?V4
   \   000036   12....       LCALL     ?PUSH_XSTACK_I_TWO
   \   000039   7402         MOV       A,#0x2
   \   00003B   12....       LCALL     ?XSTACK_DISP102_8
   \   00003E   85..82       MOV       DPL,?V2
   \   000041   85..83       MOV       DPH,?V3
   \   000044   12....       LCALL     ??Subroutine80_0 & 0xFFFF
   \                     ??CrossCallReturnLabel_143:
   \   000047   12....       LCALL     ?Subroutine57 & 0xFFFF
   \                     ??CrossCallReturnLabel_86:
   \   00004A   12....       LCALL     ?DEALLOC_XSTACK8
   1294              
   1295              //If found and it was verified, then allow it to join in a fresh state by erasing the key entry
   1296              if((found == TRUE) && (TCLKDevEntry.keyAttributes == ZG_VERIFIED_KEY))
   \   00004D   85..82       MOV       DPL,?XSP + 0
   \   000050   85..83       MOV       DPH,?XSP + 1
   \   000053   E0           MOVX      A,@DPTR
   \   000054   6401         XRL       A,#0x1
   \   000056   7065         JNZ       ??ZDSecMgrDeviceJoinDirect_0
   \   000058   7411         MOV       A,#0x11
   \   00005A   12....       LCALL     ?XSTACK_DISP0_8
   \   00005D   E0           MOVX      A,@DPTR
   \   00005E   6402         XRL       A,#0x2
   \   000060   705B         JNZ       ??ZDSecMgrDeviceJoinDirect_0
   1297              {
   1298                uint16 index;
   1299                TCLKDevEntry.keyAttributes = ZG_DEFAULT_KEY;
   \   000062   74FF         MOV       A,#-0x1
   \   000064   F0           MOVX      @DPTR,A
   1300                //Increase the shift by one. Validate the maximum shift of the seed which is 15
   1301                TCLKDevEntry.SeedShift_IcIndex++;
   1302                TCLKDevEntry.SeedShift_IcIndex &= 0x0F;
   \   000065   7413         MOV       A,#0x13
   \   000067   12....       LCALL     ?XSTACK_DISP0_8
   \   00006A   E0           MOVX      A,@DPTR
   \   00006B   04           INC       A
   \   00006C   540F         ANL       A,#0xf
   \   00006E   F0           MOVX      @DPTR,A
   1303                
   1304                TCLKDevEntry.rxFrmCntr = 0;
   \   00006F   7405         MOV       A,#0x5
   \   000071   12....       LCALL     ?XSTACK_DISP0_8
   \   000074   12....       LCALL     ?Subroutine26 & 0xFFFF
   1305                TCLKDevEntry.txFrmCntr = 0;
   \                     ??CrossCallReturnLabel_26:
   \   000077   12....       LCALL     ?XSTACK_DISP0_8
   \   00007A   12....       LCALL     ??Subroutine88_0 & 0xFFFF
   1306                
   1307                index = keyNvIndex - ZCD_NV_TCLK_TABLE_START;
   \                     ??CrossCallReturnLabel_210:
   \   00007D   12....       LCALL     ?Subroutine59 & 0xFFFF
   1308                
   1309                TCLinkKeyFrmCntr[index].rxFrmCntr = 0;
   \                     ??CrossCallReturnLabel_92:
   \   000080   ACF0         MOV       R4,B
   \   000082   75F009       MOV       B,#0x9
   \   000085   E9           MOV       A,R1
   \   000086   A4           MUL       AB
   \   000087   2C           ADD       A,R4
   \   000088   F9           MOV       R1,A
   \   000089   74..         MOV       A,#TCLinkKeyFrmCntr & 0xff
   \   00008B   28           ADD       A,R0
   \   00008C   F8           MOV       R0,A
   \   00008D   74..         MOV       A,#(TCLinkKeyFrmCntr >> 8) & 0xff
   \   00008F   39           ADDC      A,R1
   \   000090   F9           MOV       R1,A
   \   000091   8882         MOV       DPL,R0
   \   000093   F583         MOV       DPH,A
   \   000095   A3           INC       DPTR
   \   000096   A3           INC       DPTR
   \   000097   A3           INC       DPTR
   \   000098   A3           INC       DPTR
   \   000099   12....       LCALL     ??Subroutine88_0 & 0xFFFF
   1310                TCLinkKeyFrmCntr[index].txFrmCntr = 0;
   \                     ??CrossCallReturnLabel_211:
   \   00009C   8882         MOV       DPL,R0
   \   00009E   8983         MOV       DPH,R1
   \   0000A0   12....       LCALL     ??Subroutine89_0 & 0xFFFF
   1311                
   1312                //Update the entry
   1313                osal_nv_write(keyNvIndex,0,sizeof(APSME_TCLKDevEntry_t), &TCLKDevEntry );
   \                     ??CrossCallReturnLabel_209:
   \   0000A3                ; Setup parameters for call to function osal_nv_write
   \   0000A3   78..         MOV       R0,#?V4
   \   0000A5   12....       LCALL     ?PUSH_XSTACK_I_TWO
   \   0000A8   75..13       MOV       ?V4,#0x13
   \   0000AB   75..00       MOV       ?V5,#0x0
   \   0000AE   78..         MOV       R0,#?V4
   \   0000B0   12....       LCALL     ?PUSH_XSTACK_I_TWO
   \   0000B3   7C00         MOV       R4,#0x0
   \   0000B5   7D00         MOV       R5,#0x0
   \   0000B7   12....       LCALL     ??Subroutine101_0 & 0xFFFF
   1314              }
   1315              
   1316            }
   \                     ??CrossCallReturnLabel_263:
   \   0000BA   12....       LCALL     ?DEALLOC_XSTACK8
   1317          
   1318            status = ZDSecMgrDeviceJoin( device );
   \                     ??ZDSecMgrDeviceJoinDirect_0:
   \   0000BD                ; Setup parameters for call to function ZDSecMgrDeviceJoin
   \   0000BD   EE           MOV       A,R6
   \   0000BE   FA           MOV       R2,A
   \   0000BF   EF           MOV       A,R7
   \   0000C0   FB           MOV       R3,A
   \   0000C1   12....       LCALL     `??ZDSecMgrDeviceJoin::?relay`; Banked call to: ZDSecMgrDeviceJoin
   \   0000C4   E9           MOV       A,R1
   \   0000C5   F5..         MOV       ?V4,A
   1319          
   1320            if ( status == ZSuccess )
   \   0000C7   701F         JNZ       ??ZDSecMgrDeviceJoinDirect_1
   1321            {
   1322              // set association status to authenticated
   1323              ZDSecMgrAssocDeviceAuth( AssocGetWithShort( device->nwkAddr ) );
   \   0000C9                ; Setup parameters for call to function AssocGetWithShort
   \   0000C9   8E82         MOV       DPL,R6
   \   0000CB   8F83         MOV       DPH,R7
   \   0000CD   12....       LCALL     ?Subroutine35 & 0xFFFF
   1324              
   1325            #if (ZG_BUILD_COORDINATOR_TYPE)    
   1326              //Add the device as joining device, if it did join unsecured
   1327              if(device->secure == FALSE)
   \                     ??CrossCallReturnLabel_44:
   \   0000D0   85..82       MOV       DPL,?V0
   \   0000D3   85..83       MOV       DPH,?V1
   \   0000D6   E0           MOVX      A,@DPTR
   \   0000D7   700F         JNZ       ??ZDSecMgrDeviceJoinDirect_1
   1328              {
   1329                bdb_TCAddJoiningDevice(NLME_GetShortAddr(),device->extAddr);
   \   0000D9                ; Setup parameters for call to function NLME_GetShortAddr
   \   0000D9   12....       LCALL     `??NLME_GetShortAddr::?relay`; Banked call to: NLME_GetShortAddr
   \   0000DC                ; Setup parameters for call to function bdb_TCAddJoiningDevice
   \   0000DC   85..82       MOV       DPL,?V2
   \   0000DF   85..83       MOV       DPH,?V3
   \   0000E2   12....       LCALL     ?Subroutine33 & 0xFFFF
   1330              }
   1331            #endif
   1332            }
   \                     ??CrossCallReturnLabel_37:
   \   0000E5   12....       LCALL     `??bdb_TCAddJoiningDevice::?relay`; Banked call to: bdb_TCAddJoiningDevice
   1333          
   1334            return status;
   \                     ??ZDSecMgrDeviceJoinDirect_1:
   \   0000E8   A9..         MOV       R1,?V4
   \   0000EA   7414         MOV       A,#0x14
   \   0000EC   02....       LJMP      ?Subroutine1 & 0xFFFF
   1335          }

   \                                 In  segment BANKED_CODE, align 1, keep-with-next
   \                     ?Subroutine35:
   \   000000   12....       LCALL     ?Subroutine70 & 0xFFFF
   \                     ??CrossCallReturnLabel_151:
   \   000003   12....       LCALL     `??AssocGetWithShort::?relay`; Banked call to: AssocGetWithShort
   \   000006                ; Setup parameters for call to function ZDSecMgrAssocDeviceAuth
   \   000006                ; Setup parameters for call to function ZDSecMgrAssocDeviceAuth
   \   000006   12....       LCALL     `??ZDSecMgrAssocDeviceAuth::?relay`; Banked call to: ZDSecMgrAssocDeviceAuth
   \   000009   22           RET

   \                                 In  segment BANKED_CODE, align 1, keep-with-next
   \                     ??Subroutine88_0:
   \   000000   E4           CLR       A
   \   000001                REQUIRE ??Subroutine89_0
   \   000001                ; // Fall through to label ??Subroutine89_0

   \                                 In  segment BANKED_CODE, align 1, keep-with-next
   \                     ??Subroutine89_0:
   \   000000   12....       LCALL     ??Subroutine103_0 & 0xFFFF
   \                     ??CrossCallReturnLabel_285:
   \   000003   22           RET

   \                                 In  segment BANKED_CODE, align 1, keep-with-next
   \                     ?Subroutine59:
   \   000000   EA           MOV       A,R2
   \   000001   24EF         ADD       A,#-0x11
   \   000003   F8           MOV       R0,A
   \   000004   EB           MOV       A,R3
   \   000005   34FE         ADDC      A,#-0x2
   \   000007   F9           MOV       R1,A
   \   000008   E8           MOV       A,R0
   \   000009   75F009       MOV       B,#0x9
   \   00000C   A4           MUL       AB
   \   00000D   F8           MOV       R0,A
   \   00000E   22           RET

   \                                 In  segment BANKED_CODE, align 1, keep-with-next
   \                     ?Subroutine26:
   \   000000   12....       LCALL     ?Subroutine69 & 0xFFFF
   \                     ??CrossCallReturnLabel_284:
   \   000003                ; Setup parameters for call to function osal_nv_write
   \   000003   04           INC       A
   \   000004   22           RET

   \                                 In  segment BANKED_CODE, align 1, keep-with-next
   \                     ?Subroutine69:
   \   000000   E4           CLR       A
   \   000001                REQUIRE ??Subroutine103_0
   \   000001                ; // Fall through to label ??Subroutine103_0

   \                                 In  segment BANKED_CODE, align 1, keep-with-next
   \                     ??Subroutine103_0:
   \   000000   F0           MOVX      @DPTR,A
   \   000001   A3           INC       DPTR
   \   000002   F0           MOVX      @DPTR,A
   \   000003   A3           INC       DPTR
   \   000004   F0           MOVX      @DPTR,A
   \   000005   A3           INC       DPTR
   \   000006   F0           MOVX      @DPTR,A
   \   000007   22           RET
   1336          
   1337          /******************************************************************************
   1338           * @fn          ZDSecMgrDeviceJoinFwd
   1339           *
   1340           * @brief       Forward join to Trust Center.
   1341           *
   1342           * @param       device - [in] ZDSecMgrDevice_t, device info
   1343           *
   1344           * @return      ZStatus_t
   1345           */

   \                                 In  segment BANKED_CODE, align 1, keep-with-next
   1346          ZStatus_t ZDSecMgrDeviceJoinFwd( ZDSecMgrDevice_t* device )
   \                     ZDSecMgrDeviceJoinFwd:
   1347          {
   \   000000                REQUIRE ?V0
   \   000000                REQUIRE ?V1
   \   000000   74F6         MOV       A,#-0xa
   \   000002   12....       LCALL     ?BANKED_ENTER_XDATA
   \   000005                ; Saved register size: 10
   \   000005                ; Auto size: 17
   \   000005   74EF         MOV       A,#-0x11
   \   000007   12....       LCALL     ?ALLOC_XSTACK8
   1348            ZStatus_t               status;
   1349            APSME_UpdateDeviceReq_t req;
   1350            uint8 TC_ExtAddr[Z_EXTADDR_LEN];
   1351          
   1352            // forward any joining device to the Trust Center -- the Trust Center will
   1353            // decide if the device is allowed to join
   1354            status = ZSuccess;
   1355          
   1356            // forward authorization to the Trust Center
   1357            req.dstAddr    = APSME_TRUSTCENTER_NWKADDR;
   \   00000A   7401         MOV       A,#0x1
   \   00000C   12....       LCALL     ?XSTACK_DISP0_8
   \   00000F   E4           CLR       A
   \   000010   F0           MOVX      @DPTR,A
   \   000011   A3           INC       DPTR
   \   000012   F0           MOVX      @DPTR,A
   1358            req.devAddr    = device->nwkAddr;
   \   000013   8A82         MOV       DPL,R2
   \   000015   8B83         MOV       DPH,R3
   \   000017   12....       LCALL     ??Subroutine84_0 & 0xFFFF
   \                     ??CrossCallReturnLabel_159:
   \   00001A   7403         MOV       A,#0x3
   \   00001C   12....       LCALL     ?XSTACK_DISP0_8
   \   00001F   12....       LCALL     ?Subroutine15 & 0xFFFF
   1359            req.devExtAddr = device->extAddr;
   \                     ??CrossCallReturnLabel_133:
   \   000022   12....       LCALL     ??Subroutine84_0 & 0xFFFF
   \                     ??CrossCallReturnLabel_160:
   \   000025   7405         MOV       A,#0x5
   \   000027   12....       LCALL     ?XSTACK_DISP0_8
   \   00002A   12....       LCALL     ??Subroutine86_0 & 0xFFFF
   1360          
   1361            // set security status, option for router to reject if policy set
   1362            if ( (device->devStatus & DEV_HIGH_SEC_STATUS) )
   \                     ??CrossCallReturnLabel_198:
   \   00002D   EA           MOV       A,R2
   \   00002E   2407         ADD       A,#0x7
   \   000030   F582         MOV       DPL,A
   \   000032   E4           CLR       A
   \   000033   3B           ADDC      A,R3
   \   000034   F583         MOV       DPH,A
   \   000036   E0           MOVX      A,@DPTR
   \   000037   A2E7         MOV       C,0xE0 /* A   */.7
   \   000039   502E         JNC       ??ZDSecMgrDeviceJoinFwd_0
   1363            {
   1364              if ( device->devStatus & DEV_REJOIN_STATUS )
   \   00003B   A2E6         MOV       C,0xE0 /* A   */.6
   \   00003D   5021         JNC       ??ZDSecMgrDeviceJoinFwd_1
   1365              {
   1366                if ( device->secure == TRUE )
   \   00003F   8A82         MOV       DPL,R2
   \   000041   8B83         MOV       DPH,R3
   \   000043   A3           INC       DPTR
   \   000044   A3           INC       DPTR
   \   000045   A3           INC       DPTR
   \   000046   A3           INC       DPTR
   \   000047   A3           INC       DPTR
   \   000048   A3           INC       DPTR
   \   000049   E0           MOVX      A,@DPTR
   \   00004A   6401         XRL       A,#0x1
   \   00004C   7009         JNZ       ??ZDSecMgrDeviceJoinFwd_2
   1367                {
   1368                  req.status = APSME_UD_HIGH_SECURED_REJOIN;
   \   00004E   7407         MOV       A,#0x7
   \   000050   12....       LCALL     ?XSTACK_DISP0_8
   \   000053   7404         MOV       A,#0x4
   \   000055   803D         SJMP      ??ZDSecMgrDeviceJoinFwd_3
   1369                }
   1370                else
   1371                {
   1372                  req.status = APSME_UD_HIGH_UNSECURED_REJOIN;
   \                     ??ZDSecMgrDeviceJoinFwd_2:
   \   000057   7407         MOV       A,#0x7
   \   000059   12....       LCALL     ?XSTACK_DISP0_8
   \   00005C   7407         MOV       A,#0x7
   \   00005E   8034         SJMP      ??ZDSecMgrDeviceJoinFwd_3
   1373                }
   1374              }
   1375              else
   1376              {
   1377                req.status = APSME_UD_HIGH_UNSECURED_JOIN;
   \                     ??ZDSecMgrDeviceJoinFwd_1:
   \   000060   7407         MOV       A,#0x7
   \   000062   12....       LCALL     ?XSTACK_DISP0_8
   \   000065   7405         MOV       A,#0x5
   \   000067   802B         SJMP      ??ZDSecMgrDeviceJoinFwd_3
   1378              }
   1379            }
   1380            else
   1381            {
   1382              if ( device->devStatus & DEV_REJOIN_STATUS )
   \                     ??ZDSecMgrDeviceJoinFwd_0:
   \   000069   A2E6         MOV       C,0xE0 /* A   */.6
   \   00006B   5020         JNC       ??ZDSecMgrDeviceJoinFwd_4
   1383              {
   1384                if ( device->secure == TRUE )
   \   00006D   8A82         MOV       DPL,R2
   \   00006F   8B83         MOV       DPH,R3
   \   000071   A3           INC       DPTR
   \   000072   A3           INC       DPTR
   \   000073   A3           INC       DPTR
   \   000074   A3           INC       DPTR
   \   000075   A3           INC       DPTR
   \   000076   A3           INC       DPTR
   \   000077   E0           MOVX      A,@DPTR
   \   000078   6401         XRL       A,#0x1
   \   00007A   7008         JNZ       ??ZDSecMgrDeviceJoinFwd_5
   1385                {
   1386                  req.status = APSME_UD_STANDARD_SECURED_REJOIN;
   \   00007C   7407         MOV       A,#0x7
   \   00007E   12....       LCALL     ?XSTACK_DISP0_8
   \   000081   E4           CLR       A
   \   000082   8010         SJMP      ??ZDSecMgrDeviceJoinFwd_3
   1387                }
   1388                else
   1389                {
   1390                  req.status = APSME_UD_STANDARD_TRUST_CENTER_REJOIN;
   \                     ??ZDSecMgrDeviceJoinFwd_5:
   \   000084   7407         MOV       A,#0x7
   \   000086   12....       LCALL     ?XSTACK_DISP0_8
   \   000089   7403         MOV       A,#0x3
   \   00008B   8007         SJMP      ??ZDSecMgrDeviceJoinFwd_3
   1391                }
   1392              }
   1393              else
   1394              {
   1395                req.status = APSME_UD_STANDARD_UNSECURED_JOIN;
   \                     ??ZDSecMgrDeviceJoinFwd_4:
   \   00008D   7407         MOV       A,#0x7
   \   00008F   12....       LCALL     ?XSTACK_DISP0_8
   \   000092   7401         MOV       A,#0x1
   \                     ??ZDSecMgrDeviceJoinFwd_3:
   \   000094   F0           MOVX      @DPTR,A
   1396              }
   1397            }
   1398          
   1399            // set association status to authenticated
   1400            ZDSecMgrAssocDeviceAuth( AssocGetWithShort( device->nwkAddr ) );
   \   000095                ; Setup parameters for call to function AssocGetWithShort
   \   000095   8A82         MOV       DPL,R2
   \   000097   8B83         MOV       DPH,R3
   \   000099   12....       LCALL     ?Subroutine35 & 0xFFFF
   1401          
   1402            if ( ZG_CHECK_SECURITY_MODE == ZG_SECURITY_SE_STANDARD )
   1403            {
   1404              uint8 found;
   1405              APSME_GetRequest( apsTrustCenterAddress,0, TC_ExtAddr );
   \                     ??CrossCallReturnLabel_45:
   \   00009C                ; Setup parameters for call to function APSME_GetRequest
   \   00009C   7409         MOV       A,#0x9
   \   00009E   12....       LCALL     ?XSTACK_DISP102_8
   \   0000A1   12....       LCALL     ?Subroutine60 & 0xFFFF
   1406              
   1407              APSME_SearchTCLinkKeyEntry(TC_ExtAddr,&found,NULL);
   \                     ??CrossCallReturnLabel_95:
   \   0000A4   12....       LCALL     ?PUSH_XSTACK_I_TWO
   \   0000A7   7402         MOV       A,#0x2
   \   0000A9   12....       LCALL     ?XSTACK_DISP102_8
   \   0000AC   740B         MOV       A,#0xb
   \   0000AE   12....       LCALL     ?XSTACK_DISP101_8
   \   0000B1   12....       LCALL     ?Subroutine57 & 0xFFFF
   \                     ??CrossCallReturnLabel_87:
   \   0000B4   12....       LCALL     ?DEALLOC_XSTACK8
   1408              
   1409              // For ZG_GLOBAL_LINK_KEY the message has to be sent twice one
   1410              // un-encrypted and one APS encrypted, to make sure that it can interoperate
   1411              // with legacy Coordinator devices which can only handle one or the other.
   1412          #if defined ( APP_TP2_TEST_MODE )
   1413              if ( ( zgApsLinkKeyType == ZG_GLOBAL_LINK_KEY ) && ( guTxApsSecON != TRUE ) )
   1414          #else
   1415              if ( ( zgApsLinkKeyType == ZG_GLOBAL_LINK_KEY ) && ( found == FALSE ) )
   \   0000B7   90....       MOV       DPTR,#zgApsLinkKeyType
   \   0000BA   E0           MOVX      A,@DPTR
   \   0000BB   6401         XRL       A,#0x1
   \   0000BD   7017         JNZ       ??ZDSecMgrDeviceJoinFwd_6
   \   0000BF   85..82       MOV       DPL,?XSP + 0
   \   0000C2   85..83       MOV       DPH,?XSP + 1
   \   0000C5   E0           MOVX      A,@DPTR
   \   0000C6   700E         JNZ       ??ZDSecMgrDeviceJoinFwd_6
   1416          #endif
   1417              {
   1418                req.apsSecure = FALSE;
   \   0000C8   7408         MOV       A,#0x8
   \   0000CA   12....       LCALL     ?XSTACK_DISP0_8
   \   0000CD   E4           CLR       A
   \   0000CE   F0           MOVX      @DPTR,A
   1419          
   1420                // send and APSME_UPDATE_DEVICE request to the trust center
   1421                status = APSME_UpdateDeviceReq( &req );
   \   0000CF                ; Setup parameters for call to function APSME_UpdateDeviceReq
   \   0000CF   04           INC       A
   \   0000D0   12....       LCALL     ?XSTACK_DISP101_8
   \   0000D3   12....       LCALL     `??APSME_UpdateDeviceReq::?relay`; Banked call to: APSME_UpdateDeviceReq
   1422              }
   1423          
   1424          #if defined ( APP_TP2_TEST_MODE )
   1425              if ( guTxApsSecON != FALSE )
   1426              {
   1427                // send the message APS encrypted
   1428                req.apsSecure = TRUE;
   1429          
   1430                // send and APSME_UPDATE_DEVICE request to the trust center
   1431                status = APSME_UpdateDeviceReq( &req );
   1432              }
   1433          #else
   1434              // send the message APS encrypted
   1435              req.apsSecure = TRUE;
   \                     ??ZDSecMgrDeviceJoinFwd_6:
   \   0000D6   7408         MOV       A,#0x8
   \   0000D8   12....       LCALL     ?XSTACK_DISP0_8
   \   0000DB   7401         MOV       A,#0x1
   \   0000DD   F0           MOVX      @DPTR,A
   1436          
   1437              // send and APSME_UPDATE_DEVICE request to the trust center
   1438              status = APSME_UpdateDeviceReq( &req );
   1439          #endif
   1440            }
   1441            else
   1442            {
   1443              req.apsSecure = FALSE;
   1444          
   1445              // send and APSME_UPDATE_DEVICE request to the trust center
   1446              status = APSME_UpdateDeviceReq( &req );
   1447            }
   1448          
   1449            return status;
   \   0000DE                ; Setup parameters for call to function APSME_UpdateDeviceReq
   \   0000DE   12....       LCALL     ?XSTACK_DISP101_8
   \   0000E1   12....       LCALL     `??APSME_UpdateDeviceReq::?relay`; Banked call to: APSME_UpdateDeviceReq
   \   0000E4   02....       LJMP      ?Subroutine4 & 0xFFFF
   1450          }

   \                                 In  segment BANKED_CODE, align 1, keep-with-next
   \                     ?Subroutine4:
   \   000000   7411         MOV       A,#0x11
   \   000002                REQUIRE ??Subroutine90_0
   \   000002                ; // Fall through to label ??Subroutine90_0
   1451          
   1452          /******************************************************************************
   1453           * @fn          ZDSecMgrDeviceNew
   1454           *
   1455           * @brief       Process a new device.
   1456           *
   1457           * @param       device - [in] ZDSecMgrDevice_t, device info
   1458           *
   1459           * @return      ZStatus_t
   1460           */

   \                                 In  segment BANKED_CODE, align 1, keep-with-next
   1461          ZStatus_t ZDSecMgrDeviceNew( ZDSecMgrDevice_t* joiner )
   \                     ZDSecMgrDeviceNew:
   1462          {
   \   000000   C082         PUSH      DPL
   \   000002   C083         PUSH      DPH
   \   000004                ; Saved register size: 2
   \   000004                ; Auto size: 0
   1463            ZStatus_t status;
   1464          
   1465            if ( ( ( ZG_BUILD_COORDINATOR_TYPE ) && ( ZG_DEVICE_COORDINATOR_TYPE ) )
   1466                || ( ( ZG_BUILD_RTR_TYPE ) && APSME_IsDistributedSecurity() ) )
   1467            {
   1468              // try to join this device
   1469              status = ZDSecMgrDeviceJoinDirect( joiner );
   1470            }
   1471            else
   1472            {
   1473              status = ZDSecMgrDeviceJoinFwd( joiner );
   1474            }
   1475          
   1476            return status;
   \   000004                ; Setup parameters for call to function ZDSecMgrDeviceJoinDirect
   \   000004   12....       LCALL     `??ZDSecMgrDeviceJoinDirect::?relay`; Banked call to: ZDSecMgrDeviceJoinDirect
   \   000007   80..         SJMP      ??Subroutine81_0
   1477          }
   1478          
   1479          /******************************************************************************
   1480           * @fn          ZDSecMgrAssocDeviceAuth
   1481           *
   1482           * @brief       Set associated device status to authenticated
   1483           *
   1484           * @param       assoc - [in, out] associated_devices_t
   1485           *
   1486           * @return      none
   1487           */

   \                                 In  segment BANKED_CODE, align 1, keep-with-next
   1488          void ZDSecMgrAssocDeviceAuth( associated_devices_t* assoc )
   \                     ZDSecMgrAssocDeviceAuth:
   1489          {
   \   000000   C082         PUSH      DPL
   \   000002   C083         PUSH      DPH
   \   000004                ; Saved register size: 2
   \   000004                ; Auto size: 0
   1490            if ( assoc != NULL )
   \   000004   EA           MOV       A,R2
   \   000005   4B           ORL       A,R3
   \   000006   600D         JZ        ??ZDSecMgrAssocDeviceAuth_0
   1491            {
   1492              assoc->devStatus |= DEV_SEC_AUTH_STATUS;
   \   000008   8A82         MOV       DPL,R2
   \   00000A   8B83         MOV       DPH,R3
   \   00000C   A3           INC       DPTR
   \   00000D   A3           INC       DPTR
   \   00000E   A3           INC       DPTR
   \   00000F   A3           INC       DPTR
   \   000010   A3           INC       DPTR
   \   000011   E0           MOVX      A,@DPTR
   \   000012   D2E3         SETB      0xE0 /* A   */.3
   \   000014   F0           MOVX      @DPTR,A
   1493            }
   1494          }
   \                     ??ZDSecMgrAssocDeviceAuth_0:
   \   000015   80..         SJMP      ??Subroutine81_0
   1495          
   1496          /******************************************************************************
   1497           * @fn          ZDSecMgrAuthNwkKey
   1498           *
   1499           * @brief       Handle next step in authentication process
   1500           *
   1501           * @param       none
   1502           *
   1503           * @return      none
   1504           */

   \                                 In  segment BANKED_CODE, align 1, keep-with-next
   1505          void ZDSecMgrAuthNwkKey()
   \                     ZDSecMgrAuthNwkKey:
   1506          {
   \   000000   C082         PUSH      DPL
   \   000002   C083         PUSH      DPH
   \   000004                ; Saved register size: 2
   \   000004                ; Auto size: 0
   1507            if ( devState == DEV_END_DEVICE_UNAUTH )
   \   000004   90....       MOV       DPTR,#devState
   \   000007   E0           MOVX      A,@DPTR
   \   000008   6405         XRL       A,#0x5
   \   00000A   700C         JNZ       ??ZDSecMgrAuthNwkKey_0
   1508            {
   1509              // inform ZDO that device has been authenticated
   1510              osal_set_event ( ZDAppTaskID, ZDO_DEVICE_AUTH );
   \   00000C                ; Setup parameters for call to function osal_set_event
   \   00000C   7A80         MOV       R2,#-0x80
   \   00000E   7B00         MOV       R3,#0x0
   \   000010   90....       MOV       DPTR,#ZDAppTaskID
   \   000013   E0           MOVX      A,@DPTR
   \   000014   F9           MOV       R1,A
   \   000015   12....       LCALL     `??osal_set_event::?relay`; Banked call to: osal_set_event
   1511            }
   1512          }
   \                     ??ZDSecMgrAuthNwkKey_0:
   \   000018   80..         SJMP      ??Subroutine81_0
   1513          
   1514          /******************************************************************************
   1515           * PUBLIC FUNCTIONS
   1516           */
   1517          /******************************************************************************
   1518           * @fn          ZDSecMgrInit
   1519           *
   1520           * @brief       Initialize ZigBee Device Security Manager.
   1521           *
   1522           * @param       state - device initialization state
   1523           *
   1524           * @return      none
   1525           */
   1526          #if ( ADDRMGR_CALLBACK_ENABLED == 1 )
   1527          void ZDSecMgrAddrMgrCB( uint8 update, AddrMgrEntry_t* newEntry, AddrMgrEntry_t* oldEntry );
   1528          void ZDSecMgrAddrMgrCB( uint8           update,
   1529                                  AddrMgrEntry_t* newEntry,
   1530                                  AddrMgrEntry_t* oldEntry )
   1531          {
   1532            (void)update;
   1533            (void)newEntry;
   1534            (void)oldEntry;
   1535          }
   1536          #endif // ( ADDRMGR_CALLBACK_ENABLED == 1 )
   1537          

   \                                 In  segment BANKED_CODE, align 1, keep-with-next
   1538          void ZDSecMgrInit(uint8 state)
   \                     ZDSecMgrInit:
   1539          {
   \   000000                REQUIRE ?V0
   \   000000                REQUIRE ?V1
   \   000000   74F6         MOV       A,#-0xa
   \   000002   12....       LCALL     ?BANKED_ENTER_XDATA
   \   000005                ; Saved register size: 10
   \   000005                ; Auto size: 0
   1540            if ( ZG_CHECK_SECURITY_MODE == ZG_SECURITY_SE_STANDARD )
   1541            {
   1542              // initialize sub modules
   1543              ZDSecMgrEntryInit(state);
   \   000005                ; Setup parameters for call to function ZDSecMgrEntryInit
   \   000005   12....       LCALL     `??ZDSecMgrEntryInit::?relay`; Banked call to: ZDSecMgrEntryInit
   1544          
   1545              if ( ( ZG_BUILD_COORDINATOR_TYPE ) && ( ZG_DEVICE_COORDINATOR_TYPE ) )
   1546              {
   1547                APSME_SetRequest( apsTrustCenterAddress, 0, NLME_GetExtAddr() );
   \   000008                ; Setup parameters for call to function NLME_GetExtAddr
   \   000008   12....       LCALL     ?Subroutine66 & 0xFFFF
   1548              }
   1549          
   1550              // register with Address Manager
   1551          #if ( ADDRMGR_CALLBACK_ENABLED == 1 )
   1552              AddrMgrRegister( ADDRMGR_REG_SECURITY, ZDSecMgrAddrMgrCB );
   1553          #endif
   1554            }
   \                     ??CrossCallReturnLabel_107:
   \   00000B                ; Setup parameters for call to function APSME_SetRequest
   \   00000B   7A00         MOV       R2,#0x0
   \   00000D   7B00         MOV       R3,#0x0
   \   00000F   79AB         MOV       R1,#-0x55
   \   000011   12....       LCALL     `??APSME_SetRequest::?relay`; Banked call to: APSME_SetRequest
   1555          
   1556            if ( ZG_SECURE_ENABLED )
   1557            {
   1558              if ( ( ( ZG_BUILD_COORDINATOR_TYPE ) && ( ZG_DEVICE_COORDINATOR_TYPE ) )
   1559                   || ( ( ZG_BUILD_RTR_TYPE ) && APSME_IsDistributedSecurity() ) )
   1560              {
   1561                // setup joining permissions
   1562                ZDSecMgrPermitJoiningEnabled = TRUE;  
   \   000014   90....       MOV       DPTR,#ZDSecMgrPermitJoiningEnabled
   \   000017   7401         MOV       A,#0x1
   \   000019   F0           MOVX      @DPTR,A
   1563                ZDSecMgrPermitJoiningTimed   = FALSE;
   \   00001A   90....       MOV       DPTR,#ZDSecMgrPermitJoiningTimed
   \   00001D   E4           CLR       A
   \   00001E   F0           MOVX      @DPTR,A
   1564              }
   1565            }
   1566          
   1567            // configure security based on security mode and type of device
   1568            ZDSecMgrConfig();
   \   00001F                ; Setup parameters for call to function SSP_Init
   \   00001F   12....       LCALL     `??SSP_Init::?relay`; Banked call to: SSP_Init
   \   000022                ; Setup parameters for call to function APSME_SecurityCM_CD
   \   000022   12....       LCALL     `??APSME_SecurityCM_CD::?relay`; Banked call to: APSME_SecurityCM_CD
   1569          }
   \   000025   02....       LJMP      ??Subroutine91_0 & 0xFFFF

   \                                 In  segment BANKED_CODE, align 1, keep-with-next
   \                     ?Subroutine66:
   \   000000   12....       LCALL     `??NLME_GetExtAddr::?relay`; Banked call to: NLME_GetExtAddr
   \   000003   8A..         MOV       ?V0,R2
   \   000005   8B..         MOV       ?V1,R3
   \   000007   AC..         MOV       R4,?V0
   \   000009   AD..         MOV       R5,?V1
   \   00000B   22           RET
   1570          
   1571          /******************************************************************************
   1572           * @fn          ZDSecMgrConfig
   1573           *
   1574           * @brief       Configure ZigBee Device Security Manager.
   1575           *
   1576           * @param       none
   1577           *
   1578           * @return      none
   1579           */

   \                                 In  segment BANKED_CODE, align 1, keep-with-next
   1580          void ZDSecMgrConfig( void )
   \                     ZDSecMgrConfig:
   1581          {
   \   000000   C082         PUSH      DPL
   \   000002   C083         PUSH      DPH
   \   000004                ; Saved register size: 2
   \   000004                ; Auto size: 0
   1582            if ( ZG_SECURE_ENABLED )
   1583            {
   1584              SSP_Init();
   \   000004                ; Setup parameters for call to function SSP_Init
   \   000004   12....       LCALL     `??SSP_Init::?relay`; Banked call to: SSP_Init
   1585          
   1586              if ( ZG_CHECK_SECURITY_MODE == ZG_SECURITY_SE_STANDARD )
   1587              {
   1588                if ( ( ZG_BUILD_COORDINATOR_TYPE ) && ( ZG_DEVICE_COORDINATOR_TYPE ) )
   1589                {
   1590                  // COMMERCIAL MODE - COORDINATOR DEVICE
   1591                  APSME_SecurityCM_CD();
   \   000007                ; Setup parameters for call to function APSME_SecurityCM_CD
   \   000007   12....       LCALL     `??APSME_SecurityCM_CD::?relay`; Banked call to: APSME_SecurityCM_CD
   1592                }
   1593                else if ( ZSTACK_ROUTER_BUILD )
   1594                {
   1595                  // COMMERCIAL MODE - ROUTER DEVICE
   1596                  APSME_SecurityCM_RD();
   1597                }
   1598                else
   1599                {
   1600                  // COMMERCIAL MODE - END DEVICE
   1601                  APSME_SecurityCM_ED();
   1602                }
   1603              }
   1604              else // ( ZG_CHECK_SECURITY_MODE == ZG_SECURITY_RESIDENTIAL )
   1605              {
   1606                if ( ( ZG_BUILD_COORDINATOR_TYPE ) && ( ZG_DEVICE_COORDINATOR_TYPE ) )
   1607                {
   1608                  // RESIDENTIAL MODE - COORDINATOR DEVICE
   1609                  APSME_SecurityRM_CD();
   1610                }
   1611                else if ( ZSTACK_ROUTER_BUILD )
   1612                {
   1613                  // RESIDENTIAL MODE - ROUTER DEVICE
   1614                  APSME_SecurityRM_RD();
   1615                }
   1616                else
   1617                {
   1618                  // RESIDENTIAL MODE - END DEVICE
   1619                  APSME_SecurityRM_ED();
   1620                }
   1621              }
   1622            }
   1623            else
   1624            {
   1625              // NO SECURITY
   1626              APSME_SecurityNM();
   1627            }
   1628          }
   \   00000A   80..         SJMP      ??Subroutine81_0
   1629          
   1630          /******************************************************************************
   1631           * @fn          ZDSecMgrPermitJoining
   1632           *
   1633           * @brief       Process request to change joining permissions.
   1634           *
   1635           * @param       duration - [in] timed duration for join in seconds
   1636           *                         - 0x00 not allowed
   1637           *                         - 0xFF allowed without timeout
   1638           *
   1639           * @return      uint8 - success(TRUE:FALSE)
   1640           */

   \                                 In  segment BANKED_CODE, align 1, keep-with-next
   1641          uint8 ZDSecMgrPermitJoining( uint8 duration )
   \                     ZDSecMgrPermitJoining:
   1642          {
   \   000000   C082         PUSH      DPL
   \   000002   C083         PUSH      DPH
   \   000004                ; Saved register size: 2
   \   000004                ; Auto size: 0
   1643            uint8 accept;
   1644          
   1645            ZDSecMgrPermitJoiningTimed = FALSE;
   \   000004   90....       MOV       DPTR,#ZDSecMgrPermitJoiningTimed
   \   000007   E4           CLR       A
   \   000008   F0           MOVX      @DPTR,A
   1646          
   1647            if ( duration > 0 )
   \   000009   E9           MOV       A,R1
   \   00000A   90....       MOV       DPTR,#ZDSecMgrPermitJoiningEnabled
   \   00000D   6008         JZ        ??ZDSecMgrPermitJoining_0
   1648            {
   1649              ZDSecMgrPermitJoiningEnabled = TRUE;
   \   00000F   7401         MOV       A,#0x1
   \   000011   F0           MOVX      @DPTR,A
   1650          
   1651              ZDSecMgrPermitJoiningTimed = TRUE;
   \   000012   90....       MOV       DPTR,#ZDSecMgrPermitJoiningTimed
   \   000015   8001         SJMP      ??ZDSecMgrPermitJoining_1
   1652            }
   1653            else
   1654            {
   1655              ZDSecMgrPermitJoiningEnabled = FALSE;
   \                     ??ZDSecMgrPermitJoining_0:
   \   000017   E4           CLR       A
   \                     ??ZDSecMgrPermitJoining_1:
   \   000018   F0           MOVX      @DPTR,A
   1656            }
   1657          
   1658            accept = TRUE;
   1659          
   1660            return accept;
   \   000019   7901         MOV       R1,#0x1
   \   00001B   80..         SJMP      ??Subroutine81_0
   1661          }
   1662          
   1663          /******************************************************************************
   1664           * @fn          ZDSecMgrPermitJoiningTimeout
   1665           *
   1666           * @brief       Process permit joining timeout
   1667           *
   1668           * @param       none
   1669           *
   1670           * @return      none
   1671           */

   \                                 In  segment BANKED_CODE, align 1, keep-with-next
   1672          void ZDSecMgrPermitJoiningTimeout( void )
   \                     ZDSecMgrPermitJoiningTimeout:
   1673          {
   \   000000   C082         PUSH      DPL
   \   000002   C083         PUSH      DPH
   \   000004                ; Saved register size: 2
   \   000004                ; Auto size: 0
   1674            if ( ZDSecMgrPermitJoiningTimed == TRUE )
   \   000004   90....       MOV       DPTR,#ZDSecMgrPermitJoiningTimed
   \   000007   E0           MOVX      A,@DPTR
   \   000008   6401         XRL       A,#0x1
   \   00000A   7009         JNZ       ??ZDSecMgrPermitJoiningTimeout_0
   1675            {
   1676              ZDSecMgrPermitJoiningEnabled = FALSE;
   \   00000C   90....       MOV       DPTR,#ZDSecMgrPermitJoiningEnabled
   \   00000F   E4           CLR       A
   \   000010   F0           MOVX      @DPTR,A
   1677              ZDSecMgrPermitJoiningTimed   = FALSE;
   \   000011   90....       MOV       DPTR,#ZDSecMgrPermitJoiningTimed
   \   000014   F0           MOVX      @DPTR,A
   1678            }
   1679          }
   \                     ??ZDSecMgrPermitJoiningTimeout_0:
   \   000015   80..         SJMP      ??Subroutine81_0
   1680          
   1681          /******************************************************************************
   1682           * @fn          ZDSecMgrNewDeviceEvent
   1683           *
   1684           * @brief       Process a the new device event, if found reset new device
   1685           *              event/timer.
   1686           *
   1687           * @param       ShortAddr - of New Device to process
   1688           *
   1689           * @return      uint8 - found(TRUE:FALSE)
   1690           */

   \                                 In  segment BANKED_CODE, align 1, keep-with-next
   1691          uint8 ZDSecMgrNewDeviceEvent( uint16 ShortAddr )
   \                     ZDSecMgrNewDeviceEvent:
   1692          {
   \   000000                REQUIRE ?V0
   \   000000                REQUIRE ?V2
   \   000000                REQUIRE ?V3
   \   000000   74F4         MOV       A,#-0xc
   \   000002   12....       LCALL     ?BANKED_ENTER_XDATA
   \   000005                ; Saved register size: 12
   \   000005                ; Auto size: 21
   \   000005   74EB         MOV       A,#-0x15
   \   000007   12....       LCALL     ?ALLOC_XSTACK8
   1693            uint8                 found;
   1694            ZDSecMgrDevice_t      device;
   1695            AddrMgrEntry_t        addrEntry;
   1696            associated_devices_t* assoc;
   1697            ZStatus_t             status;
   1698          
   1699            // initialize return results
   1700            found = FALSE;
   \   00000A   75..00       MOV       ?V0,#0x0
   1701          
   1702            assoc = AssocGetWithShort( ShortAddr );
   \   00000D                ; Setup parameters for call to function AssocGetWithShort
   \   00000D   12....       LCALL     `??AssocGetWithShort::?relay`; Banked call to: AssocGetWithShort
   \   000010   8A..         MOV       ?V2,R2
   \   000012   8B..         MOV       ?V3,R3
   \   000014   AE..         MOV       R6,?V2
   \   000016   AF..         MOV       R7,?V3
   1703          
   1704            if ( assoc != NULL )
   \   000018   EA           MOV       A,R2
   \   000019   4F           ORL       A,R7
   \   00001A   7003         JNZ       $+5
   \   00001C   02....       LJMP      ??ZDSecMgrNewDeviceEvent_0 & 0xFFFF
   1705            {
   1706              // device found
   1707              found = TRUE;
   \   00001F   75..01       MOV       ?V0,#0x1
   1708          
   1709              // check for preconfigured security
   1710              if ( zgPreConfigKeys == TRUE )
   \   000022   90....       MOV       DPTR,#zgPreConfigKeys
   \   000025   E0           MOVX      A,@DPTR
   \   000026   6401         XRL       A,#0x1
   \   000028   7003         JNZ       ??ZDSecMgrNewDeviceEvent_1
   1711              {
   1712                // set association status to authenticated
   1713                ZDSecMgrAssocDeviceAuth( assoc );
   \   00002A                ; Setup parameters for call to function ZDSecMgrAssocDeviceAuth
   \   00002A   12....       LCALL     `??ZDSecMgrAssocDeviceAuth::?relay`; Banked call to: ZDSecMgrAssocDeviceAuth
   1714              }
   1715          
   1716              // set up device info
   1717              addrEntry.user  = ADDRMGR_USER_DEFAULT;
   \                     ??ZDSecMgrNewDeviceEvent_1:
   \   00002D   7408         MOV       A,#0x8
   \   00002F   12....       LCALL     ?XSTACK_DISP0_8
   \   000032   E4           CLR       A
   \   000033   F0           MOVX      @DPTR,A
   1718              addrEntry.index = assoc->addrIdx;
   \   000034   8E82         MOV       DPL,R6
   \   000036   8F83         MOV       DPH,R7
   \   000038   A3           INC       DPTR
   \   000039   A3           INC       DPTR
   \   00003A   12....       LCALL     ??Subroutine84_0 & 0xFFFF
   \                     ??CrossCallReturnLabel_161:
   \   00003D   7413         MOV       A,#0x13
   \   00003F   12....       LCALL     ?XSTACK_DISP0_8
   \   000042   12....       LCALL     ??Subroutine86_0 & 0xFFFF
   1719              AddrMgrEntryGet( &addrEntry );
   \                     ??CrossCallReturnLabel_199:
   \   000045                ; Setup parameters for call to function AddrMgrEntryGet
   \   000045   7408         MOV       A,#0x8
   \   000047   12....       LCALL     ?XSTACK_DISP101_8
   \   00004A   12....       LCALL     `??AddrMgrEntryGet::?relay`; Banked call to: AddrMgrEntryGet
   1720          
   1721              device.nwkAddr    = assoc->shortAddr;
   \   00004D   8E82         MOV       DPL,R6
   \   00004F   8F83         MOV       DPH,R7
   \   000051   12....       LCALL     ??Subroutine84_0 & 0xFFFF
   \                     ??CrossCallReturnLabel_162:
   \   000054   85..82       MOV       DPL,?XSP + 0
   \   000057   85..83       MOV       DPH,?XSP + 1
   \   00005A   12....       LCALL     ?Subroutine19 & 0xFFFF
   1722              device.extAddr    = addrEntry.extAddr;
   \                     ??CrossCallReturnLabel_20:
   \   00005D   12....       LCALL     ?XSTACK_DISP0_8
   \   000060   A882         MOV       R0,DPL
   \   000062   A983         MOV       R1,DPH
   \   000064   7402         MOV       A,#0x2
   \   000066   12....       LCALL     ?XSTACK_DISP0_8
   \   000069   12....       LCALL     ??Subroutine86_0 & 0xFFFF
   1723              device.parentAddr = NLME_GetShortAddr();
   \                     ??CrossCallReturnLabel_200:
   \   00006C                ; Setup parameters for call to function NLME_GetShortAddr
   \   00006C   12....       LCALL     `??NLME_GetShortAddr::?relay`; Banked call to: NLME_GetShortAddr
   \   00006F   7404         MOV       A,#0x4
   \   000071   12....       LCALL     ?XSTACK_DISP0_8
   \   000074   12....       LCALL     ??Subroutine93_0 & 0xFFFF
   1724          
   1725              // the new device performed Secured Rejoin
   1726              if ( ( assoc->devStatus & DEV_SECURED_JOIN ) &&
   1727                   ( assoc->devStatus & DEV_REJOIN_STATUS ) )
   \                     ??CrossCallReturnLabel_228:
   \   000077   EE           MOV       A,R6
   \   000078   2405         ADD       A,#0x5
   \   00007A   F8           MOV       R0,A
   \   00007B   E4           CLR       A
   \   00007C   3F           ADDC      A,R7
   \   00007D   F9           MOV       R1,A
   \   00007E   E8           MOV       A,R0
   \   00007F   FE           MOV       R6,A
   \   000080   E9           MOV       A,R1
   \   000081   FF           MOV       R7,A
   \   000082   8882         MOV       DPL,R0
   \   000084   F583         MOV       DPH,A
   \   000086   E0           MOVX      A,@DPTR
   \   000087   5460         ANL       A,#0x60
   \   000089   6460         XRL       A,#0x60
   \   00008B   7009         JNZ       ??ZDSecMgrNewDeviceEvent_2
   1728              {
   1729                device.secure     = TRUE;
   \   00008D   7406         MOV       A,#0x6
   \   00008F   12....       LCALL     ?XSTACK_DISP0_8
   \   000092   7401         MOV       A,#0x1
   \   000094   8006         SJMP      ??ZDSecMgrNewDeviceEvent_3
   1730              }
   1731              else
   1732              {
   1733                device.secure     = FALSE;
   \                     ??ZDSecMgrNewDeviceEvent_2:
   \   000096   7406         MOV       A,#0x6
   \   000098   12....       LCALL     ?XSTACK_DISP0_8
   \   00009B   E4           CLR       A
   1734              }
   \                     ??ZDSecMgrNewDeviceEvent_3:
   \   00009C   12....       LCALL     ?Subroutine25 & 0xFFFF
   1735              device.devStatus  = assoc->devStatus;
   \                     ??CrossCallReturnLabel_24:
   \   00009F   C0E0         PUSH      A
   \   0000A1   7407         MOV       A,#0x7
   \   0000A3   12....       LCALL     ?XSTACK_DISP0_8
   \   0000A6   D0E0         POP       A
   \   0000A8   12....       LCALL     ??Subroutine92_0 & 0xFFFF
   1736          
   1737              // process new device
   1738              status = ZDSecMgrDeviceNew( &device );
   1739          
   1740              if ( status == ZSuccess )
   \                     ??CrossCallReturnLabel_223:
   \   0000AB   12....       LCALL     `??ZDSecMgrDeviceNew::?relay`; Banked call to: ZDSecMgrDeviceNew
   \   0000AE   E9           MOV       A,R1
   \   0000AF   700A         JNZ       ??ZDSecMgrNewDeviceEvent_4
   1741              {
   1742                assoc->devStatus &= ~DEV_SEC_INIT_STATUS;
   \   0000B1   8E82         MOV       DPL,R6
   \   0000B3   8F83         MOV       DPH,R7
   \   0000B5   E0           MOVX      A,@DPTR
   \   0000B6   C2E2         CLR       0xE0 /* A   */.2
   \   0000B8   F0           MOVX      @DPTR,A
   \   0000B9   8018         SJMP      ??ZDSecMgrNewDeviceEvent_0
   1743              }
   1744              else
   1745              {
   1746                // Clear SECURITY bit from Address Manager
   1747                ZDSecMgrAddrClear( addrEntry.extAddr );
   \                     ??ZDSecMgrNewDeviceEvent_4:
   \   0000BB                ; Setup parameters for call to function ZDSecMgrAddrClear
   \   0000BB   740B         MOV       A,#0xb
   \   0000BD   12....       LCALL     ?XSTACK_DISP0_8
   \   0000C0   AA82         MOV       R2,DPL
   \   0000C2   AB83         MOV       R3,DPH
   \   0000C4   12....       LCALL     `??ZDSecMgrAddrClear::?relay`; Banked call to: ZDSecMgrAddrClear
   1748          
   1749                // Remove the Association completely
   1750                AssocRemove( addrEntry.extAddr );
   \   0000C7                ; Setup parameters for call to function AssocRemove
   \   0000C7   740B         MOV       A,#0xb
   \   0000C9   12....       LCALL     ?XSTACK_DISP0_8
   \   0000CC   AA82         MOV       R2,DPL
   \   0000CE   AB83         MOV       R3,DPH
   \   0000D0   12....       LCALL     `??AssocRemove::?relay`; Banked call to: AssocRemove
   1751              }
   1752            }
   1753          
   1754            return found;
   \                     ??ZDSecMgrNewDeviceEvent_0:
   \   0000D3   A9..         MOV       R1,?V0
   \   0000D5   7415         MOV       A,#0x15
   \   0000D7   02....       LJMP      ?Subroutine3 & 0xFFFF
   1755          }
   1756          
   1757          /******************************************************************************
   1758           * @fn          ZDSecMgrTCExtAddrCheck
   1759           *
   1760           * @brief       Verifies if received ext. address matches TC ext. address.
   1761           *
   1762           * @param       extAddr - Extended address to be verified.
   1763           *
   1764           * @return      TRUE - extended address matches
   1765           *              FALSE - otherwise
   1766           */

   \                                 In  segment BANKED_CODE, align 1, keep-with-next
   1767          uint8 ZDSecMgrTCExtAddrCheck( uint8* extAddr )
   \                     ZDSecMgrTCExtAddrCheck:
   1768          {
   \   000000   74F7         MOV       A,#-0x9
   \   000002   12....       LCALL     ?BANKED_ENTER_XDATA
   \   000005                ; Saved register size: 9
   \   000005                ; Auto size: 8
   \   000005   74F8         MOV       A,#-0x8
   \   000007   12....       LCALL     ?ALLOC_XSTACK8
   \   00000A   EA           MOV       A,R2
   \   00000B   FE           MOV       R6,A
   \   00000C   EB           MOV       A,R3
   \   00000D   FF           MOV       R7,A
   1769            uint8  lookup[Z_EXTADDR_LEN];
   1770            APSME_GetRequest( apsTrustCenterAddress, 0, lookup );
   \   00000E                ; Setup parameters for call to function APSME_GetRequest
   \   00000E   AC..         MOV       R4,?XSP + 0
   \   000010   AD..         MOV       R5,?XSP + 1
   \   000012   7A00         MOV       R2,#0x0
   \   000014   7B00         MOV       R3,#0x0
   \   000016   79AB         MOV       R1,#-0x55
   \   000018   12....       LCALL     `??APSME_GetRequest::?relay`; Banked call to: APSME_GetRequest
   1771            return osal_ExtAddrEqual( extAddr, lookup );
   \   00001B                ; Setup parameters for call to function sAddrExtCmp
   \   00001B   AC..         MOV       R4,?XSP + 0
   \   00001D   AD..         MOV       R5,?XSP + 1
   \   00001F   EE           MOV       A,R6
   \   000020   FA           MOV       R2,A
   \   000021   EF           MOV       A,R7
   \   000022   FB           MOV       R3,A
   \   000023   12....       LCALL     `??sAddrExtCmp::?relay`; Banked call to: sAddrExtCmp
   \   000026                REQUIRE ?Subroutine8
   \   000026                ; // Fall through to label ?Subroutine8
   1772          }

   \                                 In  segment BANKED_CODE, align 1, keep-with-next
   \                     ?Subroutine8:
   \   000000   7408         MOV       A,#0x8
   \   000002   80..         SJMP      ??Subroutine82_0
   1773          
   1774          /******************************************************************************
   1775           * @fn          ZDSecMgrTCDataLoad
   1776           *
   1777           * @brief       Stores the address of TC into address manager.
   1778           *
   1779           * @param       extAddr - Extended address to be verified.
   1780           *
   1781           * @return      none
   1782           */

   \                                 In  segment BANKED_CODE, align 1, keep-with-next
   1783          void ZDSecMgrTCDataLoad( uint8* extAddr )
   \                     ZDSecMgrTCDataLoad:
   1784          {
   \   000000                REQUIRE ?V0
   \   000000                REQUIRE ?V1
   \   000000   74F6         MOV       A,#-0xa
   \   000002   12....       LCALL     ?BANKED_ENTER_XDATA
   \   000005                ; Saved register size: 10
   \   000005                ; Auto size: 15
   \   000005   74F1         MOV       A,#-0xf
   \   000007   12....       LCALL     ?ALLOC_XSTACK8
   \   00000A   EA           MOV       A,R2
   \   00000B   FE           MOV       R6,A
   \   00000C   EB           MOV       A,R3
   \   00000D   FF           MOV       R7,A
   1785            uint16 ami;
   1786            AddrMgrEntry_t entry;
   1787          
   1788            // lookup using TC short address
   1789            entry.user    = ADDRMGR_USER_DEFAULT;
   \   00000E   7402         MOV       A,#0x2
   \   000010   12....       LCALL     ?XSTACK_DISP0_8
   \   000013   E4           CLR       A
   \   000014   F0           MOVX      @DPTR,A
   1790            osal_cpyExtAddr( entry.extAddr, extAddr );
   \   000015                ; Setup parameters for call to function sAddrExtCpy
   \   000015   EA           MOV       A,R2
   \   000016   FC           MOV       R4,A
   \   000017   EB           MOV       A,R3
   \   000018   FD           MOV       R5,A
   \   000019   7405         MOV       A,#0x5
   \   00001B   12....       LCALL     ?XSTACK_DISP0_8
   \   00001E   AA82         MOV       R2,DPL
   \   000020   AB83         MOV       R3,DPH
   \   000022   12....       LCALL     `??sAddrExtCpy::?relay`; Banked call to: sAddrExtCpy
   1791          
   1792            // Verify if TC address has been added to Address Manager
   1793            if ( !APSME_IsDistributedSecurity() && ( AddrMgrEntryLookupExt( &entry ) != TRUE ) )
   \   000025                ; Setup parameters for call to function APSME_IsDistributedSecurity
   \   000025   12....       LCALL     `??APSME_IsDistributedSecurity::?relay`; Banked call to: APSME_IsDistributedSecurity
   \   000028   E9           MOV       A,R1
   \   000029   7028         JNZ       ??ZDSecMgrTCDataLoad_0
   \   00002B                ; Setup parameters for call to function AddrMgrEntryLookupExt
   \   00002B   7402         MOV       A,#0x2
   \   00002D   12....       LCALL     ?XSTACK_DISP101_8
   \   000030   12....       LCALL     `??AddrMgrEntryLookupExt::?relay`; Banked call to: AddrMgrEntryLookupExt
   \   000033   E9           MOV       A,R1
   \   000034   6401         XRL       A,#0x1
   \   000036   601B         JZ        ??ZDSecMgrTCDataLoad_0
   1794            {
   1795              ZDSecMgrAddrStore( APSME_TRUSTCENTER_NWKADDR, extAddr, &ami );
   \   000038                ; Setup parameters for call to function ZDSecMgrAddrStore
   \   000038   A8..         MOV       R0,?XSP + 0
   \   00003A   A9..         MOV       R1,?XSP + 1
   \   00003C   88..         MOV       ?V0,R0
   \   00003E   89..         MOV       ?V1,R1
   \   000040   78..         MOV       R0,#?V0
   \   000042   12....       LCALL     ?PUSH_XSTACK_I_TWO
   \   000045   EE           MOV       A,R6
   \   000046   FC           MOV       R4,A
   \   000047   EF           MOV       A,R7
   \   000048   FD           MOV       R5,A
   \   000049   7A00         MOV       R2,#0x0
   \   00004B   7B00         MOV       R3,#0x0
   \   00004D   12....       LCALL     ?Subroutine63 & 0xFFFF
   1796            }
   \                     ??CrossCallReturnLabel_102:
   \   000050   12....       LCALL     ?DEALLOC_XSTACK8
   1797          }
   \                     ??ZDSecMgrTCDataLoad_0:
   \   000053   740F         MOV       A,#0xf
   \   000055   02....       LJMP      ??Subroutine90_0 & 0xFFFF
   1798          
   1799          /******************************************************************************
   1800           * @fn          ZDSecMgrTransportKeyInd
   1801           *
   1802           * @brief       Process the ZDO_TransportKeyInd_t message.
   1803           *
   1804           * @param       ind - [in] ZDO_TransportKeyInd_t indication
   1805           *
   1806           * @return      none
   1807           */

   \                                 In  segment BANKED_CODE, align 1, keep-with-next
   1808          void ZDSecMgrTransportKeyInd( ZDO_TransportKeyInd_t* ind )
   \                     ZDSecMgrTransportKeyInd:
   1809          {
   \   000000                REQUIRE ?V0
   \   000000                REQUIRE ?V1
   \   000000                REQUIRE ?V2
   \   000000                REQUIRE ?V3
   \   000000   74F4         MOV       A,#-0xc
   \   000002   12....       LCALL     ?BANKED_ENTER_XDATA
   \   000005                ; Saved register size: 12
   \   000005                ; Auto size: 40
   \   000005   74D8         MOV       A,#-0x28
   \   000007   12....       LCALL     ?ALLOC_XSTACK8
   \   00000A   8A..         MOV       ?V0,R2
   \   00000C   8B..         MOV       ?V1,R3
   1810            uint8 index;
   1811            uint8 zgPreConfigKey[SEC_KEY_LEN];
   1812          
   1813            ZDSecMgrUpdateTCAddress( ind->srcExtAddr );
   \   00000E   EA           MOV       A,R2
   \   00000F   2416         ADD       A,#0x16
   \   000011   FE           MOV       R6,A
   \   000012   E4           CLR       A
   \   000013   35..         ADDC      A,?V1
   \   000015   FF           MOV       R7,A
   \   000016                ; Setup parameters for call to function ZDSecMgrUpdateTCAddress
   \   000016   EE           MOV       A,R6
   \   000017   FA           MOV       R2,A
   \   000018   EF           MOV       A,R7
   \   000019   FB           MOV       R3,A
   \   00001A   12....       LCALL     `??ZDSecMgrUpdateTCAddress::?relay`; Banked call to: ZDSecMgrUpdateTCAddress
   1814            
   1815          #if ZG_BUILD_JOINING_TYPE
   1816            if(ZG_DEVICE_JOINING_TYPE)
   1817            {
   1818              //Update the TC address in the entry
   1819              osal_nv_write(ZCD_NV_TCLK_TABLE_START, osal_offsetof(APSME_TCLKDevEntry_t,extAddr), Z_EXTADDR_LEN, ind->srcExtAddr);
   1820            }
   1821          #endif
   1822            
   1823            // check for distributed security
   1824            if ( ( ZG_BUILD_RTR_TYPE ) && osal_isbufset( ind->srcExtAddr, 0xFF, Z_EXTADDR_LEN ) )
   \   00001D                ; Setup parameters for call to function osal_isbufset
   \   00001D   7C08         MOV       R4,#0x8
   \   00001F   79FF         MOV       R1,#-0x1
   \   000021   EE           MOV       A,R6
   \   000022   FA           MOV       R2,A
   \   000023   EF           MOV       A,R7
   \   000024   FB           MOV       R3,A
   \   000025   12....       LCALL     `??osal_isbufset::?relay`; Banked call to: osal_isbufset
   \   000028   E9           MOV       A,R1
   \   000029   6006         JZ        ??ZDSecMgrTransportKeyInd_0
   1825            {
   1826              ZDSecMgrPermitJoiningEnabled = TRUE;  
   \   00002B   90....       MOV       DPTR,#ZDSecMgrPermitJoiningEnabled
   \   00002E   7401         MOV       A,#0x1
   \   000030   F0           MOVX      @DPTR,A
   1827            }
   1828            
   1829            // load Trust Center data if needed
   1830            ZDSecMgrTCDataLoad( ind->srcExtAddr );
   \                     ??ZDSecMgrTransportKeyInd_0:
   \   000031                ; Setup parameters for call to function ZDSecMgrTCDataLoad
   \   000031   EE           MOV       A,R6
   \   000032   FA           MOV       R2,A
   \   000033   EF           MOV       A,R7
   \   000034   FB           MOV       R3,A
   \   000035   12....       LCALL     `??ZDSecMgrTCDataLoad::?relay`; Banked call to: ZDSecMgrTCDataLoad
   1831            
   1832            if ( ( ind->keyType == KEY_TYPE_NWK ) ||
   1833                 ( ind->keyType == 6            ) )
   \   000038   85..82       MOV       DPL,?V0
   \   00003B   85..83       MOV       DPH,?V1
   \   00003E   A3           INC       DPTR
   \   00003F   A3           INC       DPTR
   \   000040   A3           INC       DPTR
   \   000041   A3           INC       DPTR
   \   000042   E0           MOVX      A,@DPTR
   \   000043   F8           MOV       R0,A
   \   000044   E5..         MOV       A,?V0
   \   000046   2406         ADD       A,#0x6
   \   000048   F5..         MOV       ?V2,A
   \   00004A   E4           CLR       A
   \   00004B   35..         ADDC      A,?V1
   \   00004D   F5..         MOV       ?V3,A
   \   00004F   7401         MOV       A,#0x1
   \   000051   68           XRL       A,R0
   \   000052   6008         JZ        ??ZDSecMgrTransportKeyInd_1
   \   000054   7406         MOV       A,#0x6
   \   000056   68           XRL       A,R0
   \   000057   6003         JZ        $+5
   \   000059   02....       LJMP      ??ZDSecMgrTransportKeyInd_2 & 0xFFFF
   1834            {
   1835              // check for dummy NWK key (all zeros)
   1836              for ( index = 0;
   \                     ??ZDSecMgrTransportKeyInd_1:
   \   00005C   7800         MOV       R0,#0x0
   \                     ??ZDSecMgrTransportKeyInd_3:
   \   00005E   E8           MOV       A,R0
   \   00005F   FA           MOV       R2,A
   \   000060   E5..         MOV       A,?V0
   \   000062   2A           ADD       A,R2
   \   000063   F582         MOV       DPL,A
   \   000065   E4           CLR       A
   \   000066   35..         ADDC      A,?V1
   \   000068   F583         MOV       DPH,A
   \   00006A   A3           INC       DPTR
   \   00006B   A3           INC       DPTR
   \   00006C   A3           INC       DPTR
   \   00006D   A3           INC       DPTR
   \   00006E   A3           INC       DPTR
   \   00006F   A3           INC       DPTR
   \   000070   E0           MOVX      A,@DPTR
   \   000071   7007         JNZ       ??ZDSecMgrTransportKeyInd_4
   1837                    ( (index < SEC_KEY_LEN) && (ind->key[index] == 0) );
   1838                    index++ );
   \   000073   08           INC       R0
   \   000074   E8           MOV       A,R0
   \   000075   C3           CLR       C
   \   000076   9410         SUBB      A,#0x10
   \   000078   40E4         JC        ??ZDSecMgrTransportKeyInd_3
   1839          
   1840              if ( index == SEC_KEY_LEN )
   \                     ??ZDSecMgrTransportKeyInd_4:
   \   00007A   7410         MOV       A,#0x10
   \   00007C   68           XRL       A,R0
   \   00007D   7031         JNZ       ??ZDSecMgrTransportKeyInd_5
   1841              {
   1842                // load preconfigured key - once!!
   1843                if ( !_NIB.nwkKeyLoaded )
   \   00007F   90....       MOV       DPTR,#_NIB + 61
   \   000082   E0           MOVX      A,@DPTR
   \   000083   7054         JNZ       ??ZDSecMgrTransportKeyInd_6
   1844                {
   1845                  ZDSecMgrReadKeyFromNv(ZCD_NV_PRECFGKEY, zgPreConfigKey);
   \   000085                ; Setup parameters for call to function ZDSecMgrReadKeyFromNv
   \   000085   7418         MOV       A,#0x18
   \   000087   12....       LCALL     ?XSTACK_DISP102_8
   \   00008A   7A62         MOV       R2,#0x62
   \   00008C   7B00         MOV       R3,#0x0
   \   00008E   12....       LCALL     `??ZDSecMgrReadKeyFromNv::?relay`; Banked call to: ZDSecMgrReadKeyFromNv
   1846                  SSP_UpdateNwkKey( zgPreConfigKey, 0 );
   \   000091                ; Setup parameters for call to function SSP_UpdateNwkKey
   \   000091   7900         MOV       R1,#0x0
   \   000093   7418         MOV       A,#0x18
   \   000095   12....       LCALL     ?XSTACK_DISP101_8
   \   000098   12....       LCALL     `??SSP_UpdateNwkKey::?relay`; Banked call to: SSP_UpdateNwkKey
   1847                  SSP_SwitchNwkKey( 0 );
   \   00009B                ; Setup parameters for call to function SSP_SwitchNwkKey
   \   00009B   7900         MOV       R1,#0x0
   \   00009D   12....       LCALL     `??SSP_SwitchNwkKey::?relay`; Banked call to: SSP_SwitchNwkKey
   1848          
   1849                  // clear local copy of key
   1850                  osal_memset(zgPreConfigKey, 0x00, SEC_KEY_LEN);
   \   0000A0                ; Setup parameters for call to function osal_memset
   \   0000A0   7C10         MOV       R4,#0x10
   \   0000A2   7D00         MOV       R5,#0x0
   \   0000A4   7900         MOV       R1,#0x0
   \   0000A6   7418         MOV       A,#0x18
   \   0000A8   12....       LCALL     ?XSTACK_DISP101_8
   \   0000AB   12....       LCALL     `??osal_memset::?relay`; Banked call to: osal_memset
   \   0000AE   8029         SJMP      ??ZDSecMgrTransportKeyInd_6
   1851                }
   1852              }
   1853              else
   1854              {
   1855                SSP_UpdateNwkKey( ind->key, ind->keySeqNum );
   \                     ??ZDSecMgrTransportKeyInd_5:
   \   0000B0   E5..         MOV       A,?V0
   \   0000B2   2405         ADD       A,#0x5
   \   0000B4   F8           MOV       R0,A
   \   0000B5   E4           CLR       A
   \   0000B6   35..         ADDC      A,?V1
   \   0000B8   F9           MOV       R1,A
   \   0000B9   E8           MOV       A,R0
   \   0000BA   FE           MOV       R6,A
   \   0000BB   E9           MOV       A,R1
   \   0000BC   FF           MOV       R7,A
   \   0000BD                ; Setup parameters for call to function SSP_UpdateNwkKey
   \   0000BD   8882         MOV       DPL,R0
   \   0000BF   F583         MOV       DPH,A
   \   0000C1   E0           MOVX      A,@DPTR
   \   0000C2   F9           MOV       R1,A
   \   0000C3   AA..         MOV       R2,?V2
   \   0000C5   AB..         MOV       R3,?V3
   \   0000C7   12....       LCALL     `??SSP_UpdateNwkKey::?relay`; Banked call to: SSP_UpdateNwkKey
   1856                if ( !_NIB.nwkKeyLoaded )
   \   0000CA   90....       MOV       DPTR,#_NIB + 61
   \   0000CD   E0           MOVX      A,@DPTR
   \   0000CE   7009         JNZ       ??ZDSecMgrTransportKeyInd_6
   1857                {
   1858                  SSP_SwitchNwkKey( ind->keySeqNum );
   \   0000D0                ; Setup parameters for call to function SSP_SwitchNwkKey
   \   0000D0   8E82         MOV       DPL,R6
   \   0000D2   8F83         MOV       DPH,R7
   \   0000D4   E0           MOVX      A,@DPTR
   \   0000D5   F9           MOV       R1,A
   \   0000D6   12....       LCALL     `??SSP_SwitchNwkKey::?relay`; Banked call to: SSP_SwitchNwkKey
   1859                }
   1860              }
   1861          
   1862              // handle next step in authentication process
   1863              ZDSecMgrAuthNwkKey();
   \                     ??ZDSecMgrTransportKeyInd_6:
   \   0000D9                ; Setup parameters for call to function ZDSecMgrAuthNwkKey
   \   0000D9   12....       LCALL     `??ZDSecMgrAuthNwkKey::?relay`; Banked call to: ZDSecMgrAuthNwkKey
   \   0000DC   02....       LJMP      ??ZDSecMgrTransportKeyInd_7 & 0xFFFF
   1864            }
   1865            else if ( ind->keyType == KEY_TYPE_TC_LINK )
   \                     ??ZDSecMgrTransportKeyInd_2:
   \   0000DF   7404         MOV       A,#0x4
   \   0000E1   68           XRL       A,R0
   \   0000E2   6003         JZ        $+5
   \   0000E4   02....       LJMP      ??ZDSecMgrTransportKeyInd_8 & 0xFFFF
   1866            {
   1867              uint16 entryIndex;
   1868              uint8 found;
   1869              APSME_TCLKDevEntry_t TCLKDevEntry;
   1870              
   1871              //Search the entry, which should exist at this point
   1872              entryIndex = APSME_SearchTCLinkKeyEntry(ind->srcExtAddr, &found, &TCLKDevEntry);
   \   0000E7                ; Setup parameters for call to function APSME_SearchTCLinkKeyEntry
   \   0000E7   7405         MOV       A,#0x5
   \   0000E9   12....       LCALL     ?XSTACK_DISP100_8
   \   0000EC   88..         MOV       ?V0,R0
   \   0000EE   89..         MOV       ?V1,R1
   \   0000F0   78..         MOV       R0,#?V0
   \   0000F2   12....       LCALL     ?PUSH_XSTACK_I_TWO
   \   0000F5   7402         MOV       A,#0x2
   \   0000F7   12....       LCALL     ?XSTACK_DISP102_8
   \   0000FA   EE           MOV       A,R6
   \   0000FB   FA           MOV       R2,A
   \   0000FC   EF           MOV       A,R7
   \   0000FD   FB           MOV       R3,A
   \   0000FE   12....       LCALL     ?Subroutine57 & 0xFFFF
   \                     ??CrossCallReturnLabel_88:
   \   000101   12....       LCALL     ?DEALLOC_XSTACK8
   \   000104   8A..         MOV       ?V0,R2
   \   000106   8B..         MOV       ?V1,R3
   \   000108   AE..         MOV       R6,?V0
   \   00010A   AF..         MOV       R7,?V1
   1873              
   1874              if(found)
   \   00010C   85..82       MOV       DPL,?XSP + 0
   \   00010F   85..83       MOV       DPH,?XSP + 1
   \   000112   E0           MOVX      A,@DPTR
   \   000113   7003         JNZ       $+5
   \   000115   02....       LJMP      ??ZDSecMgrTransportKeyInd_7 & 0xFFFF
   1875              {
   1876                //If the key was an IC, then erase the entry since that will not longer be used.
   1877                if(TCLKDevEntry.keyAttributes == ZG_PROVISIONAL_KEY)
   \   000118   7415         MOV       A,#0x15
   \   00011A   12....       LCALL     ?XSTACK_DISP0_8
   \   00011D   E0           MOVX      A,@DPTR
   \   00011E   700C         JNZ       ??ZDSecMgrTransportKeyInd_9
   1878                {
   1879                  APSME_EraseICEntry(&TCLKDevEntry.SeedShift_IcIndex);
   \   000120                ; Setup parameters for call to function APSME_EraseICEntry
   \   000120   7417         MOV       A,#0x17
   \   000122   12....       LCALL     ?XSTACK_DISP0_8
   \   000125   AA82         MOV       R2,DPL
   \   000127   AB83         MOV       R3,DPH
   \   000129   12....       LCALL     `??APSME_EraseICEntry::?relay`; Banked call to: APSME_EraseICEntry
   1880                }
   1881                
   1882                TCLKDevEntry.keyAttributes = ZG_UNVERIFIED_KEY;
   \                     ??ZDSecMgrTransportKeyInd_9:
   \   00012C   7415         MOV       A,#0x15
   \   00012E   12....       LCALL     ?XSTACK_DISP0_8
   \   000131   7401         MOV       A,#0x1
   \   000133   F0           MOVX      @DPTR,A
   1883                TCLKDevEntry.keyType = ZG_UNIQUE_LINK_KEY;
   \   000134   7416         MOV       A,#0x16
   \   000136   12....       LCALL     ?XSTACK_DISP0_8
   \   000139   E4           CLR       A
   \   00013A   F0           MOVX      @DPTR,A
   1884                TCLKDevEntry.rxFrmCntr = 0;
   \   00013B   7409         MOV       A,#0x9
   \   00013D   12....       LCALL     ?XSTACK_DISP0_8
   \   000140   12....       LCALL     ?Subroutine24 & 0xFFFF
   1885                TCLKDevEntry.txFrmCntr = 0;
   \                     ??CrossCallReturnLabel_21:
   \   000143   12....       LCALL     ?XSTACK_DISP0_8
   \   000146   12....       LCALL     ??Subroutine88_0 & 0xFFFF
   1886                TCLKDevEntry.SeedShift_IcIndex = 0;
   \                     ??CrossCallReturnLabel_212:
   \   000149   7417         MOV       A,#0x17
   \   00014B   12....       LCALL     ?XSTACK_DISP0_8
   \   00014E   E4           CLR       A
   \   00014F   F0           MOVX      @DPTR,A
   1887                
   1888                //Update the entry
   1889                osal_nv_write(entryIndex,0,sizeof(APSME_TCLKDevEntry_t),&TCLKDevEntry);
   \   000150                ; Setup parameters for call to function osal_nv_write
   \   000150   7405         MOV       A,#0x5
   \   000152   12....       LCALL     ?XSTACK_DISP100_8
   \   000155   88..         MOV       ?V0,R0
   \   000157   89..         MOV       ?V1,R1
   \   000159   78..         MOV       R0,#?V0
   \   00015B   12....       LCALL     ?PUSH_XSTACK_I_TWO
   \   00015E   75..13       MOV       ?V0,#0x13
   \   000161   75..00       MOV       ?V1,#0x0
   \   000164   78..         MOV       R0,#?V0
   \   000166   12....       LCALL     ?PUSH_XSTACK_I_TWO
   \   000169   12....       LCALL     ?Subroutine55 & 0xFFFF
   \                     ??CrossCallReturnLabel_254:
   \   00016C   12....       LCALL     ?DEALLOC_XSTACK8
   1890          
   1891                //Create the entry for the key
   1892                if(ZSUCCESS == osal_nv_item_init(ZCD_NV_TCLK_JOIN_DEV,SEC_KEY_LEN,ind->key) )
   \   00016F                ; Setup parameters for call to function osal_nv_item_init
   \   00016F   78..         MOV       R0,#?V2
   \   000171   12....       LCALL     ?PUSH_XSTACK_I_TWO
   \   000174   7C10         MOV       R4,#0x10
   \   000176   7D00         MOV       R5,#0x0
   \   000178   7A02         MOV       R2,#0x2
   \   00017A   7B01         MOV       R3,#0x1
   \   00017C   12....       LCALL     ??Subroutine99_0 & 0xFFFF
   \                     ??CrossCallReturnLabel_246:
   \   00017F   12....       LCALL     ?DEALLOC_XSTACK8
   \   000182   E9           MOV       A,R1
   \   000183   701B         JNZ       ??ZDSecMgrTransportKeyInd_10
   1893                {
   1894                  //Or replace it if already existed
   1895                  osal_nv_write(ZCD_NV_TCLK_JOIN_DEV,0,SEC_KEY_LEN,ind->key);
   \   000185                ; Setup parameters for call to function osal_nv_write
   \   000185   78..         MOV       R0,#?V2
   \   000187   12....       LCALL     ?PUSH_XSTACK_I_TWO
   \   00018A   75..10       MOV       ?V0,#0x10
   \   00018D   78..         MOV       R0,#?V0
   \   00018F   12....       LCALL     ?PUSH_XSTACK_I_TWO
   \   000192   7C00         MOV       R4,#0x0
   \   000194   7D00         MOV       R5,#0x0
   \   000196   7A02         MOV       R2,#0x2
   \   000198   7B01         MOV       R3,#0x1
   \   00019A   12....       LCALL     ??Subroutine101_0 & 0xFFFF
   1896                }
   \                     ??CrossCallReturnLabel_264:
   \   00019D   12....       LCALL     ?DEALLOC_XSTACK8
   1897                
   1898                bdb_tcLinkKeyExchangeAttempt(TRUE,BDB_REQ_VERIFY_TC_LINK_KEY);
   \                     ??ZDSecMgrTransportKeyInd_10:
   \   0001A0                ; Setup parameters for call to function bdb_tcLinkKeyExchangeAttempt
   \   0001A0   7A03         MOV       R2,#0x3
   \   0001A2   7901         MOV       R1,#0x1
   \   0001A4   12....       LCALL     `??bdb_tcLinkKeyExchangeAttempt::?relay`; Banked call to: bdb_tcLinkKeyExchangeAttempt
   \   0001A7   02....       LJMP      ??ZDSecMgrTransportKeyInd_7 & 0xFFFF
   1899              }
   1900            }
   1901            else if ( ind->keyType == KEY_TYPE_APP_LINK )
   \                     ??ZDSecMgrTransportKeyInd_8:
   \   0001AA   7403         MOV       A,#0x3
   \   0001AC   68           XRL       A,R0
   \   0001AD   707B         JNZ       ??ZDSecMgrTransportKeyInd_7
   1902            {
   1903              if ( ZG_CHECK_SECURITY_MODE == ZG_SECURITY_SE_STANDARD )
   1904              {
   1905                uint16           ami;
   1906                ZDSecMgrEntry_t* entry;
   1907          
   1908                // get the address index
   1909                if ( ZDSecMgrExtAddrLookup( ind->srcExtAddr, &ami ) != ZSuccess )
   \   0001AF                ; Setup parameters for call to function ZDSecMgrExtAddrLookup
   \   0001AF   7403         MOV       A,#0x3
   \   0001B1   12....       LCALL     ?XSTACK_DISP102_8
   \   0001B4   EE           MOV       A,R6
   \   0001B5   FA           MOV       R2,A
   \   0001B6   EF           MOV       A,R7
   \   0001B7   FB           MOV       R3,A
   \   0001B8   12....       LCALL     `??ZDSecMgrExtAddrLookup::?relay`; Banked call to: ZDSecMgrExtAddrLookup
   \   0001BB   E9           MOV       A,R1
   \   0001BC   6029         JZ        ??ZDSecMgrTransportKeyInd_11
   1910                {
   1911                  // store new EXT address
   1912                  ZDSecMgrAddrStore( INVALID_NODE_ADDR, ind->srcExtAddr, &ami );
   \   0001BE                ; Setup parameters for call to function ZDSecMgrAddrStore
   \   0001BE   7403         MOV       A,#0x3
   \   0001C0   12....       LCALL     ?XSTACK_DISP100_8
   \   0001C3   88..         MOV       ?V0,R0
   \   0001C5   89..         MOV       ?V1,R1
   \   0001C7   78..         MOV       R0,#?V0
   \   0001C9   12....       LCALL     ?PUSH_XSTACK_I_TWO
   \   0001CC   EE           MOV       A,R6
   \   0001CD   FC           MOV       R4,A
   \   0001CE   EF           MOV       A,R7
   \   0001CF   FD           MOV       R5,A
   \   0001D0   7AFE         MOV       R2,#-0x2
   \   0001D2   7BFF         MOV       R3,#-0x1
   \   0001D4   12....       LCALL     ?Subroutine63 & 0xFFFF
   \                     ??CrossCallReturnLabel_103:
   \   0001D7   12....       LCALL     ?DEALLOC_XSTACK8
   1913                  ZDP_NwkAddrReq( ind->srcExtAddr, ZDP_ADDR_REQTYPE_SINGLE, 0, 0 );
   \   0001DA                ; Setup parameters for call to function ZDP_NwkAddrReq
   \   0001DA   7D00         MOV       R5,#0x0
   \   0001DC   7C00         MOV       R4,#0x0
   \   0001DE   7900         MOV       R1,#0x0
   \   0001E0   EE           MOV       A,R6
   \   0001E1   FA           MOV       R2,A
   \   0001E2   EF           MOV       A,R7
   \   0001E3   FB           MOV       R3,A
   \   0001E4   12....       LCALL     `??ZDP_NwkAddrReq::?relay`; Banked call to: ZDP_NwkAddrReq
   1914                }
   1915          
   1916                ZDSecMgrEntryLookupAMI( ami, &entry );
   \                     ??ZDSecMgrTransportKeyInd_11:
   \   0001E7                ; Setup parameters for call to function ZDSecMgrEntryLookupAMI
   \   0001E7   7401         MOV       A,#0x1
   \   0001E9   12....       LCALL     ?XSTACK_DISP102_8
   \   0001EC   7403         MOV       A,#0x3
   \   0001EE   12....       LCALL     ?XSTACK_DISP0_8
   \   0001F1   12....       LCALL     ?Subroutine34 & 0xFFFF
   1917          
   1918                if ( entry == NULL )
   \                     ??CrossCallReturnLabel_42:
   \   0001F4   7401         MOV       A,#0x1
   \   0001F6   12....       LCALL     ?XSTACK_DISP0_8
   \   0001F9   12....       LCALL     ??Subroutine85_0 & 0xFFFF
   \                     ??CrossCallReturnLabel_178:
   \   0001FC   701E         JNZ       ??CrossCallReturnLabel_201
   1919                {
   1920                  // get new entry
   1921                  if ( ZDSecMgrEntryNew( &entry ) == ZSuccess )
   \   0001FE                ; Setup parameters for call to function ZDSecMgrEntryNew
   \   0001FE   7401         MOV       A,#0x1
   \   000200   12....       LCALL     ?XSTACK_DISP101_8
   \   000203   12....       LCALL     `??ZDSecMgrEntryNew::?relay`; Banked call to: ZDSecMgrEntryNew
   \   000206   E9           MOV       A,R1
   \   000207   7013         JNZ       ??CrossCallReturnLabel_201
   1922                  {
   1923                    // finish setting up entry
   1924                    entry->ami = ami;
   \   000209   7403         MOV       A,#0x3
   \   00020B   12....       LCALL     ?XSTACK_DISP0_8
   \   00020E   12....       LCALL     ??Subroutine84_0 & 0xFFFF
   1925                  }
   1926                }
   \                     ??CrossCallReturnLabel_163:
   \   000211   7401         MOV       A,#0x1
   \   000213   12....       LCALL     ?XSTACK_DISP0_8
   \   000216   12....       LCALL     ??Subroutine96_0 & 0xFFFF
   \                     ??CrossCallReturnLabel_240:
   \   000219   12....       LCALL     ??Subroutine86_0 & 0xFFFF
   1927          
   1928                ZDSecMgrLinkKeySet( ind->srcExtAddr, ind->key );
   \                     ??CrossCallReturnLabel_201:
   \   00021C                ; Setup parameters for call to function APSME_LinkKeySet
   \   00021C   AC..         MOV       R4,?V2
   \   00021E   AD..         MOV       R5,?V3
   \   000220   EE           MOV       A,R6
   \   000221   FA           MOV       R2,A
   \   000222   EF           MOV       A,R7
   \   000223   FB           MOV       R3,A
   \   000224   12....       LCALL     `??APSME_LinkKeySet::?relay`; Banked call to: APSME_LinkKeySet
   1929          
   1930          #if defined NV_RESTORE
   1931                ZDSecMgrWriteNV();  // Write the control record for the new established link key to NV.
   \   000227                ; Setup parameters for call to function ZDSecMgrWriteNV
   \   000227   12....       LCALL     `??ZDSecMgrWriteNV::?relay`; Banked call to: ZDSecMgrWriteNV
   1932          #endif
   1933              }
   1934            }
   1935          }
   \                     ??ZDSecMgrTransportKeyInd_7:
   \   00022A   7428         MOV       A,#0x28
   \   00022C   02....       LJMP      ?Subroutine3 & 0xFFFF

   \                                 In  segment BANKED_CODE, align 1, keep-with-next
   \                     ??Subroutine99_0:
   \   000000   12....       LCALL     `??osal_nv_item_init::?relay`; Banked call to: osal_nv_item_init
   \   000003   7402         MOV       A,#0x2
   \   000005   22           RET

   \                                 In  segment BANKED_CODE, align 1, keep-with-next
   \                     ?Subroutine55:
   \   000000   7C00         MOV       R4,#0x0
   \   000002   7D00         MOV       R5,#0x0
   \   000004   EE           MOV       A,R6
   \   000005   FA           MOV       R2,A
   \   000006   EF           MOV       A,R7
   \   000007                REQUIRE ??Subroutine100_0
   \   000007                ; // Fall through to label ??Subroutine100_0

   \                                 In  segment BANKED_CODE, align 1, keep-with-next
   \                     ??Subroutine100_0:
   \   000000   FB           MOV       R3,A
   \   000001                REQUIRE ??Subroutine101_0
   \   000001                ; // Fall through to label ??Subroutine101_0

   \                                 In  segment BANKED_CODE, align 1, keep-with-next
   \                     ?Subroutine24:
   \   000000   12....       LCALL     ?Subroutine69 & 0xFFFF
   \                     ??CrossCallReturnLabel_283:
   \   000003   7405         MOV       A,#0x5
   \   000005   22           RET
   1936          
   1937          /******************************************************************************
   1938           * @fn          ZDSecMgrUpdateDeviceInd
   1939           *
   1940           * @brief       Process the ZDO_UpdateDeviceInd_t message.
   1941           *
   1942           * @param       ind - [in] ZDO_UpdateDeviceInd_t indication
   1943           *
   1944           * @return      none
   1945           */

   \                                 In  segment BANKED_CODE, align 1, keep-with-next
   1946          void ZDSecMgrUpdateDeviceInd( ZDO_UpdateDeviceInd_t* ind )
   \                     ZDSecMgrUpdateDeviceInd:
   1947          {
   \   000000                REQUIRE ?V0
   \   000000                REQUIRE ?V1
   \   000000   74F6         MOV       A,#-0xa
   \   000002   12....       LCALL     ?BANKED_ENTER_XDATA
   \   000005                ; Saved register size: 10
   \   000005                ; Auto size: 28
   \   000005   74E4         MOV       A,#-0x1c
   \   000007   12....       LCALL     ?ALLOC_XSTACK8
   \   00000A   EA           MOV       A,R2
   \   00000B   F8           MOV       R0,A
   \   00000C   EB           MOV       A,R3
   \   00000D   F9           MOV       R1,A
   1948            ZDSecMgrDevice_t device;
   1949          
   1950            device.nwkAddr    = ind->devAddr;
   \   00000E   EA           MOV       A,R2
   \   00000F   240C         ADD       A,#0xc
   \   000011   F582         MOV       DPL,A
   \   000013   E4           CLR       A
   \   000014   39           ADDC      A,R1
   \   000015   F583         MOV       DPH,A
   \   000017   12....       LCALL     ??Subroutine80_0 & 0xFFFF
   \                     ??CrossCallReturnLabel_144:
   \   00001A   7401         MOV       A,#0x1
   \   00001C   12....       LCALL     ?XSTACK_DISP0_8
   \   00001F   12....       LCALL     ??Subroutine93_0 & 0xFFFF
   1951            device.extAddr    = ind->devExtAddr;
   \                     ??CrossCallReturnLabel_229:
   \   000022   E8           MOV       A,R0
   \   000023   2404         ADD       A,#0x4
   \   000025   FA           MOV       R2,A
   \   000026   E4           CLR       A
   \   000027   39           ADDC      A,R1
   \   000028   FB           MOV       R3,A
   \   000029   7403         MOV       A,#0x3
   \   00002B   12....       LCALL     ?XSTACK_DISP0_8
   \   00002E   12....       LCALL     ??Subroutine93_0 & 0xFFFF
   1952            device.parentAddr = ind->srcAddr;
   \                     ??CrossCallReturnLabel_230:
   \   000031   8882         MOV       DPL,R0
   \   000033   8983         MOV       DPH,R1
   \   000035   A3           INC       DPTR
   \   000036   A3           INC       DPTR
   \   000037   12....       LCALL     ?Subroutine33 & 0xFFFF
   \                     ??CrossCallReturnLabel_38:
   \   00003A   7405         MOV       A,#0x5
   \   00003C   12....       LCALL     ?XSTACK_DISP0_8
   \   00003F   EC           MOV       A,R4
   \   000040   F0           MOVX      @DPTR,A
   \   000041   A3           INC       DPTR
   \   000042   ED           MOV       A,R5
   \   000043   F0           MOVX      @DPTR,A
   1953            device.devStatus  = DEV_SEC_INIT_STATUS;
   \   000044   7408         MOV       A,#0x8
   \   000046   12....       LCALL     ?XSTACK_DISP0_8
   \   000049   7404         MOV       A,#0x4
   \   00004B   F0           MOVX      @DPTR,A
   1954            device.secure     = FALSE;
   \   00004C   7407         MOV       A,#0x7
   \   00004E   12....       LCALL     ?XSTACK_DISP0_8
   \   000051   E4           CLR       A
   \   000052   F0           MOVX      @DPTR,A
   1955          
   1956            // Trust Center should identify the type of JOIN/REJOIN and
   1957            // Transport the NWK key accordingly, it will only be transported for:
   1958            //              APSME_UD_STANDARD_UNSECURED_JOIN
   1959            //   OR         APSME_UD_STANDARD_TRUST_CENTER_REJOIN
   1960            if ( ind->status != APSME_UD_DEVICE_LEFT )
   \   000053   E8           MOV       A,R0
   \   000054   240E         ADD       A,#0xe
   \   000056   F582         MOV       DPL,A
   \   000058   E4           CLR       A
   \   000059   39           ADDC      A,R1
   \   00005A   F583         MOV       DPH,A
   \   00005C   E0           MOVX      A,@DPTR
   \   00005D   F8           MOV       R0,A
   \   00005E   7402         MOV       A,#0x2
   \   000060   68           XRL       A,R0
   \   000061   7003         JNZ       $+5
   \   000063   02....       LJMP      ??ZDSecMgrUpdateDeviceInd_0 & 0xFFFF
   1961            {
   1962              if ( ind->status == APSME_UD_STANDARD_SECURED_REJOIN )
   \   000066   E8           MOV       A,R0
   \   000067   7011         JNZ       ??ZDSecMgrUpdateDeviceInd_1
   1963              {
   1964                device.devStatus &= ~DEV_SEC_INIT_STATUS;
   1965                device.devStatus |=  DEV_SEC_AUTH_STATUS;
   \   000069   7408         MOV       A,#0x8
   \   00006B   12....       LCALL     ?XSTACK_DISP0_8
   \   00006E   7408         MOV       A,#0x8
   \   000070   F0           MOVX      @DPTR,A
   1966                device.secure = TRUE;
   \   000071   14           DEC       A
   \   000072   12....       LCALL     ?XSTACK_DISP0_8
   \   000075   7401         MOV       A,#0x1
   \   000077   F0           MOVX      @DPTR,A
   \   000078   8078         SJMP      ??ZDSecMgrUpdateDeviceInd_2
   1967              }
   1968              else
   1969              {
   1970          #if (ZG_BUILD_COORDINATOR_TYPE)
   1971                uint8  found;
   1972                uint16 keyNvIndex;
   1973                APSME_TCLKDevEntry_t TCLKDevEntry;
   1974                
   1975                keyNvIndex = APSME_SearchTCLinkKeyEntry(device.extAddr,&found, &TCLKDevEntry);
   \                     ??ZDSecMgrUpdateDeviceInd_1:
   \   00007A                ; Setup parameters for call to function APSME_SearchTCLinkKeyEntry
   \   00007A   7409         MOV       A,#0x9
   \   00007C   12....       LCALL     ?XSTACK_DISP100_8
   \   00007F   88..         MOV       ?V0,R0
   \   000081   89..         MOV       ?V1,R1
   \   000083   78..         MOV       R0,#?V0
   \   000085   12....       LCALL     ?PUSH_XSTACK_I_TWO
   \   000088   7402         MOV       A,#0x2
   \   00008A   12....       LCALL     ?XSTACK_DISP102_8
   \   00008D   12....       LCALL     ?Subroutine57 & 0xFFFF
   \                     ??CrossCallReturnLabel_89:
   \   000090   12....       LCALL     ?DEALLOC_XSTACK8
   1976                
   1977                //If found and it was verified, then allow it to join in a fresh state by erasing the key entry
   1978                if((found == TRUE) && (TCLKDevEntry.keyAttributes == ZG_VERIFIED_KEY))
   \   000093   85..82       MOV       DPL,?XSP + 0
   \   000096   85..83       MOV       DPH,?XSP + 1
   \   000099   E0           MOVX      A,@DPTR
   \   00009A   6401         XRL       A,#0x1
   \   00009C   7041         JNZ       ??ZDSecMgrUpdateDeviceInd_3
   \   00009E   7419         MOV       A,#0x19
   \   0000A0   12....       LCALL     ?XSTACK_DISP0_8
   \   0000A3   E0           MOVX      A,@DPTR
   \   0000A4   6402         XRL       A,#0x2
   \   0000A6   7037         JNZ       ??ZDSecMgrUpdateDeviceInd_3
   1979                {
   1980                  TCLKDevEntry.keyAttributes = ZG_DEFAULT_KEY;
   \   0000A8   74FF         MOV       A,#-0x1
   \   0000AA   F0           MOVX      @DPTR,A
   1981                  //Increase the shift by one. Validate the maximum shift of the seed which is 15
   1982                  TCLKDevEntry.SeedShift_IcIndex++;
   1983                  TCLKDevEntry.SeedShift_IcIndex &= 0x0F;
   \   0000AB   741B         MOV       A,#0x1b
   \   0000AD   12....       LCALL     ?XSTACK_DISP0_8
   \   0000B0   E0           MOVX      A,@DPTR
   \   0000B1   04           INC       A
   \   0000B2   540F         ANL       A,#0xf
   \   0000B4   F0           MOVX      @DPTR,A
   1984                  
   1985                  TCLKDevEntry.rxFrmCntr = 0;
   \   0000B5   740D         MOV       A,#0xd
   \   0000B7   12....       LCALL     ?XSTACK_DISP0_8
   \   0000BA   12....       LCALL     ??Subroutine88_0 & 0xFFFF
   1986                  TCLKDevEntry.txFrmCntr = 0;  
   \                     ??CrossCallReturnLabel_213:
   \   0000BD   7409         MOV       A,#0x9
   \   0000BF   12....       LCALL     ?XSTACK_DISP0_8
   \   0000C2   12....       LCALL     ??Subroutine88_0 & 0xFFFF
   1987                  
   1988                  //Update the entry
   1989                  osal_nv_write(keyNvIndex,0,sizeof(APSME_TCLKDevEntry_t), &TCLKDevEntry );
   \                     ??CrossCallReturnLabel_214:
   \   0000C5                ; Setup parameters for call to function osal_nv_write
   \   0000C5   78..         MOV       R0,#?V0
   \   0000C7   12....       LCALL     ?PUSH_XSTACK_I_TWO
   \   0000CA   75..13       MOV       ?V0,#0x13
   \   0000CD   75..00       MOV       ?V1,#0x0
   \   0000D0   78..         MOV       R0,#?V0
   \   0000D2   12....       LCALL     ?PUSH_XSTACK_I_TWO
   \   0000D5   7C00         MOV       R4,#0x0
   \   0000D7   7D00         MOV       R5,#0x0
   \   0000D9   12....       LCALL     ??Subroutine101_0 & 0xFFFF
   1990                }
   \                     ??CrossCallReturnLabel_265:
   \   0000DC   12....       LCALL     ?DEALLOC_XSTACK8
   1991                
   1992                bdb_TCAddJoiningDevice(device.parentAddr,device.extAddr);
   \                     ??ZDSecMgrUpdateDeviceInd_3:
   \   0000DF                ; Setup parameters for call to function bdb_TCAddJoiningDevice
   \   0000DF   7403         MOV       A,#0x3
   \   0000E1   12....       LCALL     ?XSTACK_DISP0_8
   \   0000E4   12....       LCALL     ?Subroutine33 & 0xFFFF
   1993          #endif
   1994              
   1995              }
   \                     ??CrossCallReturnLabel_39:
   \   0000E7   7405         MOV       A,#0x5
   \   0000E9   12....       LCALL     ?XSTACK_DISP0_8
   \   0000EC   12....       LCALL     ??Subroutine80_0 & 0xFFFF
   \                     ??CrossCallReturnLabel_145:
   \   0000EF   12....       LCALL     `??bdb_TCAddJoiningDevice::?relay`; Banked call to: bdb_TCAddJoiningDevice
   1996          
   1997              ZDSecMgrDeviceJoin( &device );
   \                     ??ZDSecMgrUpdateDeviceInd_2:
   \   0000F2                ; Setup parameters for call to function ZDSecMgrDeviceJoin
   \   0000F2   7401         MOV       A,#0x1
   \   0000F4   12....       LCALL     ?XSTACK_DISP101_8
   \   0000F7   12....       LCALL     `??ZDSecMgrDeviceJoin::?relay`; Banked call to: ZDSecMgrDeviceJoin
   1998            }
   1999          }
   \                     ??ZDSecMgrUpdateDeviceInd_0:
   \   0000FA   741C         MOV       A,#0x1c
   \   0000FC   02....       LJMP      ??Subroutine90_0 & 0xFFFF
   2000          
   2001          /******************************************************************************
   2002           * @fn          ZDSecMgrRemoveDeviceInd
   2003           *
   2004           * @brief       Process the ZDO_RemoveDeviceInd_t message.
   2005           *
   2006           * @param       ind - [in] ZDO_RemoveDeviceInd_t indication
   2007           *
   2008           * @return      none
   2009           */

   \                                 In  segment BANKED_CODE, align 1, keep-with-next
   2010          void ZDSecMgrRemoveDeviceInd( ZDO_RemoveDeviceInd_t* ind )
   \                     ZDSecMgrRemoveDeviceInd:
   2011          {
   \   000000   74F7         MOV       A,#-0x9
   \   000002   12....       LCALL     ?BANKED_ENTER_XDATA
   \   000005                ; Saved register size: 9
   \   000005                ; Auto size: 8
   \   000005   74F8         MOV       A,#-0x8
   \   000007   12....       LCALL     ?ALLOC_XSTACK8
   2012            ZDSecMgrDevice_t device;
   2013          
   2014            // only accept from Trust Center
   2015            if ( ind->srcAddr == APSME_TRUSTCENTER_NWKADDR )
   \   00000A   8A82         MOV       DPL,R2
   \   00000C   8B83         MOV       DPH,R3
   \   00000E   A3           INC       DPTR
   \   00000F   A3           INC       DPTR
   \   000010   12....       LCALL     ??Subroutine85_0 & 0xFFFF
   \                     ??CrossCallReturnLabel_179:
   \   000013   702B         JNZ       ??ZDSecMgrRemoveDeviceInd_0
   2016            {
   2017              // look up NWK address
   2018              if ( APSME_LookupNwkAddr( ind->childExtAddr, &device.nwkAddr ) == TRUE )
   \   000015   EA           MOV       A,R2
   \   000016   2404         ADD       A,#0x4
   \   000018   FE           MOV       R6,A
   \   000019   E4           CLR       A
   \   00001A   3B           ADDC      A,R3
   \   00001B   FF           MOV       R7,A
   \   00001C                ; Setup parameters for call to function APSME_LookupNwkAddr
   \   00001C   AC..         MOV       R4,?XSP + 0
   \   00001E   AD..         MOV       R5,?XSP + 1
   \   000020   EE           MOV       A,R6
   \   000021   FA           MOV       R2,A
   \   000022   EF           MOV       A,R7
   \   000023   12....       LCALL     ?Subroutine61 & 0xFFFF
   \                     ??CrossCallReturnLabel_98:
   \   000026   7018         JNZ       ??ZDSecMgrRemoveDeviceInd_0
   2019              {
   2020                device.parentAddr = NLME_GetShortAddr();
   \   000028                ; Setup parameters for call to function NLME_GetShortAddr
   \   000028   12....       LCALL     `??NLME_GetShortAddr::?relay`; Banked call to: NLME_GetShortAddr
   \   00002B   7404         MOV       A,#0x4
   \   00002D   12....       LCALL     ?XSTACK_DISP0_8
   \   000030   12....       LCALL     ??Subroutine94_0 & 0xFFFF
   2021                device.extAddr    = ind->childExtAddr;
   2022          
   2023                // remove device
   2024                ZDSecMgrDeviceRemove( &device );
   2025              }
   2026            }
   \                     ??CrossCallReturnLabel_238:
   \   000033   12....       LCALL     ?XSTACK_DISP0_8
   \   000036   EE           MOV       A,R6
   \   000037   F0           MOVX      @DPTR,A
   \   000038   A3           INC       DPTR
   \   000039   EF           MOV       A,R7
   \   00003A   12....       LCALL     ??Subroutine92_0 & 0xFFFF
   \                     ??CrossCallReturnLabel_224:
   \   00003D   12....       LCALL     `??ZDSecMgrDeviceRemove::?relay`; Banked call to: ZDSecMgrDeviceRemove
   2027          }
   \                     ??ZDSecMgrRemoveDeviceInd_0:
   \   000040   02....       LJMP      ?Subroutine8 & 0xFFFF

   \                                 In  segment BANKED_CODE, align 1, keep-with-next
   \                     ??Subroutine94_0:
   \   000000   EA           MOV       A,R2
   \   000001   F0           MOVX      @DPTR,A
   \   000002   A3           INC       DPTR
   \   000003   EB           MOV       A,R3
   \   000004   F0           MOVX      @DPTR,A
   \   000005   7402         MOV       A,#0x2
   \   000007   22           RET
   2028          
   2029          /******************************************************************************
   2030           * @fn          ZDSecMgrRequestKeyInd
   2031           *
   2032           * @brief       Process the ZDO_RequestKeyInd_t message.
   2033           *
   2034           * @param       ind - [in] ZDO_RequestKeyInd_t indication
   2035           *
   2036           * @return      none
   2037           */

   \                                 In  segment BANKED_CODE, align 1, keep-with-next
   2038          void ZDSecMgrRequestKeyInd( ZDO_RequestKeyInd_t* ind )
   \                     ZDSecMgrRequestKeyInd:
   2039          {
   \   000000   C082         PUSH      DPL
   \   000002   C083         PUSH      DPH
   \   000004                ; Saved register size: 2
   \   000004                ; Auto size: 0
   2040            if ( ind->keyType == KEY_TYPE_NWK )
   \   000004   8A82         MOV       DPL,R2
   \   000006   8B83         MOV       DPH,R3
   \   000008   A3           INC       DPTR
   \   000009   A3           INC       DPTR
   \   00000A   A3           INC       DPTR
   \   00000B   A3           INC       DPTR
   \   00000C   E0           MOVX      A,@DPTR
   \   00000D   F8           MOV       R0,A
   \   00000E   7401         MOV       A,#0x1
   \   000010   68           XRL       A,R0
   \   000011   6012         JZ        ??ZDSecMgrRequestKeyInd_0
   2041            {
   2042            }
   2043            else if ( ind->keyType == KEY_TYPE_APP_MASTER )
   \   000013   7402         MOV       A,#0x2
   \   000015   68           XRL       A,R0
   \   000016   7005         JNZ       ??ZDSecMgrRequestKeyInd_1
   2044            {
   2045              ZDSecMgrAppKeyReq( ind );
   \   000018                ; Setup parameters for call to function ZDSecMgrAppKeyReq
   \   000018   12....       LCALL     `??ZDSecMgrAppKeyReq::?relay`; Banked call to: ZDSecMgrAppKeyReq
   \   00001B   8008         SJMP      ??ZDSecMgrRequestKeyInd_0
   2046            }
   2047            else if ( ind->keyType == KEY_TYPE_TC_LINK )
   \                     ??ZDSecMgrRequestKeyInd_1:
   \   00001D   7404         MOV       A,#0x4
   \   00001F   68           XRL       A,R0
   \   000020   7003         JNZ       ??ZDSecMgrRequestKeyInd_0
   2048            {
   2049              ZDSecMgrTclkReq( ind );
   \   000022                ; Setup parameters for call to function ZDSecMgrTclkReq
   \   000022   12....       LCALL     `??ZDSecMgrTclkReq::?relay`; Banked call to: ZDSecMgrTclkReq
   2050            }
   2051            //else ignore
   2052          }
   \                     ??ZDSecMgrRequestKeyInd_0:
   \   000025   02....       LJMP      ??Subroutine81_0 & 0xFFFF
   2053          
   2054          
   2055          /******************************************************************************
   2056           * @fn          ZDSecMgrVerifyKeyInd
   2057           *
   2058           * @brief       Process the ZDO_VerifyKeyInd_t message.
   2059           *
   2060           * @param       ind - [in] ZDO_VerifyKeyInd_t indication
   2061           *
   2062           * @return      none
   2063           */

   \                                 In  segment BANKED_CODE, align 1, keep-with-next
   2064          void ZDSecMgrVerifyKeyInd( ZDO_VerifyKeyInd_t* ind )
   \                     ZDSecMgrVerifyKeyInd:
   2065          {
   \   000000   C082         PUSH      DPL
   \   000002   C083         PUSH      DPH
   \   000004                ; Saved register size: 2
   \   000004                ; Auto size: 0
   2066            ZDSecMgrAppConfKeyReq( ind );
   \   000004                ; Setup parameters for call to function ZDSecMgrAppConfKeyReq
   \   000004   12....       LCALL     `??ZDSecMgrAppConfKeyReq::?relay`; Banked call to: ZDSecMgrAppConfKeyReq
   2067          }
   \   000007   02....       LJMP      ??Subroutine81_0 & 0xFFFF
   2068          
   2069          
   2070          /******************************************************************************
   2071           * @fn          ZDSecMgrSwitchKeyInd
   2072           *
   2073           * @brief       Process the ZDO_SwitchKeyInd_t message.
   2074           *
   2075           * @param       ind - [in] ZDO_SwitchKeyInd_t indication
   2076           *
   2077           * @return      none
   2078           */

   \                                 In  segment BANKED_CODE, align 1, keep-with-next
   2079          void ZDSecMgrSwitchKeyInd( ZDO_SwitchKeyInd_t* ind )
   \                     ZDSecMgrSwitchKeyInd:
   2080          {
   \   000000   C082         PUSH      DPL
   \   000002   C083         PUSH      DPH
   \   000004                ; Saved register size: 2
   \   000004                ; Auto size: 0
   2081            SSP_SwitchNwkKey( ind->keySeqNum );
   \   000004                ; Setup parameters for call to function SSP_SwitchNwkKey
   \   000004   8A82         MOV       DPL,R2
   \   000006   8B83         MOV       DPH,R3
   \   000008   A3           INC       DPTR
   \   000009   A3           INC       DPTR
   \   00000A   A3           INC       DPTR
   \   00000B   A3           INC       DPTR
   \   00000C   E0           MOVX      A,@DPTR
   \   00000D   F9           MOV       R1,A
   \   00000E   12....       LCALL     `??SSP_SwitchNwkKey::?relay`; Banked call to: SSP_SwitchNwkKey
   2082          
   2083            // Save if nv
   2084            ZDApp_NVUpdate();
   \   000011                ; Setup parameters for call to function ZDApp_NVUpdate
   \   000011   12....       LCALL     `??ZDApp_NVUpdate::?relay`; Banked call to: ZDApp_NVUpdate
   2085          }
   \   000014   02....       LJMP      ??Subroutine81_0 & 0xFFFF
   2086            
   2087          /******************************************************************************
   2088           * @fn          ZDSecMgrGenerateSeed
   2089           *
   2090           * @brief       Generate the seed for TC link keys and store it in Nv
   2091           *
   2092           * @param       SetDefault, force to use new seed
   2093           *
   2094           * @return      none
   2095           */

   \                                 In  segment BANKED_CODE, align 1, keep-with-next
   2096          void ZDSecMgrGenerateSeed(uint8 SetDefault)
   \                     ZDSecMgrGenerateSeed:
   2097          {
   \   000000                REQUIRE ?V0
   \   000000                REQUIRE ?V1
   \   000000   74F6         MOV       A,#-0xa
   \   000002   12....       LCALL     ?BANKED_ENTER_XDATA
   \   000005                ; Saved register size: 10
   \   000005                ; Auto size: 16
   \   000005   74F0         MOV       A,#-0x10
   \   000007   12....       LCALL     ?ALLOC_XSTACK8
   \   00000A   E9           MOV       A,R1
   \   00000B   FE           MOV       R6,A
   2098            uint8 SeedKey[SEC_KEY_LEN];  
   2099            
   2100            ZDSecMgrGenerateRndKey(SeedKey);
   \   00000C                ; Setup parameters for call to function ZDSecMgrGenerateRndKey
   \   00000C   AA..         MOV       R2,?XSP + 0
   \   00000E   AB..         MOV       R3,?XSP + 1
   \   000010   12....       LCALL     `??ZDSecMgrGenerateRndKey::?relay`; Banked call to: ZDSecMgrGenerateRndKey
   2101            
   2102            if((SUCCESS == osal_nv_item_init(ZCD_NV_TCLK_SEED,SEC_KEY_LEN,SeedKey)) && SetDefault)
   \   000013                ; Setup parameters for call to function osal_nv_item_init
   \   000013   A8..         MOV       R0,?XSP + 0
   \   000015   A9..         MOV       R1,?XSP + 1
   \   000017   88..         MOV       ?V0,R0
   \   000019   89..         MOV       ?V1,R1
   \   00001B   78..         MOV       R0,#?V0
   \   00001D   12....       LCALL     ?PUSH_XSTACK_I_TWO
   \   000020   7C10         MOV       R4,#0x10
   \   000022   7D00         MOV       R5,#0x0
   \   000024   7A01         MOV       R2,#0x1
   \   000026   7B01         MOV       R3,#0x1
   \   000028   12....       LCALL     ??Subroutine99_0 & 0xFFFF
   \                     ??CrossCallReturnLabel_247:
   \   00002B   12....       LCALL     ?DEALLOC_XSTACK8
   \   00002E   E9           MOV       A,R1
   \   00002F   7021         JNZ       ??ZDSecMgrGenerateSeed_0
   \   000031   EE           MOV       A,R6
   \   000032   601E         JZ        ??ZDSecMgrGenerateSeed_0
   2103            {
   2104              //Force to use a new seed
   2105              osal_nv_write(ZCD_NV_TCLK_SEED,0,SEC_KEY_LEN,SeedKey);
   \   000034                ; Setup parameters for call to function osal_nv_write
   \   000034   78..         MOV       R0,#?V0
   \   000036   12....       LCALL     ?PUSH_XSTACK_I_TWO
   \   000039   75..10       MOV       ?V0,#0x10
   \   00003C   75..00       MOV       ?V1,#0x0
   \   00003F   78..         MOV       R0,#?V0
   \   000041   12....       LCALL     ?PUSH_XSTACK_I_TWO
   \   000044   7C00         MOV       R4,#0x0
   \   000046   7D00         MOV       R5,#0x0
   \   000048   7A01         MOV       R2,#0x1
   \   00004A   7B01         MOV       R3,#0x1
   \   00004C   12....       LCALL     ??Subroutine101_0 & 0xFFFF
   2106            }
   \                     ??CrossCallReturnLabel_266:
   \   00004F   12....       LCALL     ?DEALLOC_XSTACK8
   2107          
   2108            osal_memset(SeedKey,0,SEC_KEY_LEN);
   \                     ??ZDSecMgrGenerateSeed_0:
   \   000052                ; Setup parameters for call to function osal_memset
   \   000052   7C10         MOV       R4,#0x10
   \   000054   7D00         MOV       R5,#0x0
   \   000056   7900         MOV       R1,#0x0
   \   000058   AA..         MOV       R2,?XSP + 0
   \   00005A   AB..         MOV       R3,?XSP + 1
   \   00005C   12....       LCALL     `??osal_memset::?relay`; Banked call to: osal_memset
   2109          }
   \   00005F   7410         MOV       A,#0x10
   \   000061   80..         SJMP      ??Subroutine90_0
   2110          
   2111          
   2112          /******************************************************************************
   2113           * @fn          ZDSecMgrGenerateKeyFromSeed
   2114           *
   2115           * @brief       Generate the TC link key for an specific device usign seed and ExtAddr
   2116           *
   2117           * @param       [in]  extAddr  
   2118           * @param       [in]  shift    number of byte shifts that the seed will do to 
   2119           *                             generate a new key for the same device. 
   2120           *                             This value must be less than SEC_KEY_LEN
   2121           * @param       [out] key      buffer in which the key will be copied
   2122           *
   2123           * @return      none
   2124           */

   \                                 In  segment BANKED_CODE, align 1, keep-with-next
   2125          void ZDSecMgrGenerateKeyFromSeed(uint8 *extAddr, uint8 shift, uint8 *key)
   \                     ZDSecMgrGenerateKeyFromSeed:
   2126          {
   \   000000                REQUIRE ?V0
   \   000000                REQUIRE ?V1
   \   000000                REQUIRE ?V2
   \   000000                REQUIRE ?V4
   \   000000                REQUIRE ?V5
   \   000000                REQUIRE ?V6
   \   000000                REQUIRE ?V8
   \   000000                REQUIRE ?V9
   \   000000   74EE         MOV       A,#-0x12
   \   000002   12....       LCALL     ?BANKED_ENTER_XDATA
   \   000005                ; Saved register size: 18
   \   000005                ; Auto size: 16
   \   000005   74F0         MOV       A,#-0x10
   \   000007   12....       LCALL     ?ALLOC_XSTACK8
   \   00000A   8A..         MOV       ?V8,R2
   \   00000C   8B..         MOV       ?V9,R3
   \   00000E   89..         MOV       ?V2,R1
   \   000010   EC           MOV       A,R4
   \   000011   FE           MOV       R6,A
   \   000012   ED           MOV       A,R5
   \   000013   FF           MOV       R7,A
   2127            uint8 i;
   2128            uint8 tempKey[SEC_KEY_LEN];
   2129            
   2130            if((key != NULL) && (extAddr != NULL))
   \   000014   EC           MOV       A,R4
   \   000015   4F           ORL       A,R7
   \   000016   7003         JNZ       $+5
   \   000018   02....       LJMP      ??ZDSecMgrGenerateKeyFromSeed_0 & 0xFFFF
   \   00001B   EA           MOV       A,R2
   \   00001C   4B           ORL       A,R3
   \   00001D   7003         JNZ       $+5
   \   00001F   02....       LJMP      ??ZDSecMgrGenerateKeyFromSeed_0 & 0xFFFF
   2131            {
   2132              //Read the key
   2133              osal_nv_read(ZCD_NV_TCLK_SEED,0,SEC_KEY_LEN,tempKey);
   \   000022                ; Setup parameters for call to function osal_nv_read
   \   000022   A8..         MOV       R0,?XSP + 0
   \   000024   A9..         MOV       R1,?XSP + 1
   \   000026   88..         MOV       ?V0,R0
   \   000028   89..         MOV       ?V1,R1
   \   00002A   78..         MOV       R0,#?V0
   \   00002C   12....       LCALL     ?PUSH_XSTACK_I_TWO
   \   00002F   75..10       MOV       ?V0,#0x10
   \   000032   75..00       MOV       ?V1,#0x0
   \   000035   78..         MOV       R0,#?V0
   \   000037   12....       LCALL     ?PUSH_XSTACK_I_TWO
   \   00003A   7C00         MOV       R4,#0x0
   \   00003C   7D00         MOV       R5,#0x0
   \   00003E   7A01         MOV       R2,#0x1
   \   000040   7B01         MOV       R3,#0x1
   \   000042   12....       LCALL     ??Subroutine108_0 & 0xFFFF
   \                     ??CrossCallReturnLabel_297:
   \   000045   12....       LCALL     ?DEALLOC_XSTACK8
   2134          
   2135              //shift the seed
   2136              osal_memcpy(key, &tempKey[shift], SEC_KEY_LEN - shift);
   \   000048   E5..         MOV       A,?V2
   \   00004A   F5..         MOV       ?V0,A
   \   00004C                ; Setup parameters for call to function osal_memcpy
   \   00004C   85..82       MOV       DPL,?XSP + 0
   \   00004F   85..83       MOV       DPH,?XSP + 1
   \   000052   E582         MOV       A,DPL
   \   000054   25..         ADD       A,?V0
   \   000056   F5..         MOV       ?V4,A
   \   000058   E4           CLR       A
   \   000059   3583         ADDC      A,DPH
   \   00005B   F5..         MOV       ?V5,A
   \   00005D   75..00       MOV       ?V6,#0x0
   \   000060   78..         MOV       R0,#?V4
   \   000062   12....       LCALL     ?PUSH_XSTACK_I_THREE
   \   000065   7410         MOV       A,#0x10
   \   000067   C3           CLR       C
   \   000068   95..         SUBB      A,?V0
   \   00006A   FC           MOV       R4,A
   \   00006B   95E0         SUBB      A,0xE0 /* A   */
   \   00006D   FD           MOV       R5,A
   \   00006E   EE           MOV       A,R6
   \   00006F   FA           MOV       R2,A
   \   000070   EF           MOV       A,R7
   \   000071   12....       LCALL     ??Subroutine104_0 & 0xFFFF
   \                     ??CrossCallReturnLabel_288:
   \   000074   12....       LCALL     ?DEALLOC_XSTACK8
   2137              osal_memcpy(&key[SEC_KEY_LEN - shift], tempKey, shift);
   \   000077                ; Setup parameters for call to function osal_memcpy
   \   000077   A8..         MOV       R0,?XSP + 0
   \   000079   A9..         MOV       R1,?XSP + 1
   \   00007B   88..         MOV       ?V4,R0
   \   00007D   89..         MOV       ?V5,R1
   \   00007F   78..         MOV       R0,#?V4
   \   000081   12....       LCALL     ?PUSH_XSTACK_I_THREE
   \   000084   AC..         MOV       R4,?V2
   \   000086   7D00         MOV       R5,#0x0
   \   000088   C3           CLR       C
   \   000089   E4           CLR       A
   \   00008A   95..         SUBB      A,?V0
   \   00008C   F8           MOV       R0,A
   \   00008D   95E0         SUBB      A,0xE0 /* A   */
   \   00008F   F9           MOV       R1,A
   \   000090   EE           MOV       A,R6
   \   000091   28           ADD       A,R0
   \   000092   F8           MOV       R0,A
   \   000093   EF           MOV       A,R7
   \   000094   39           ADDC      A,R1
   \   000095   F9           MOV       R1,A
   \   000096   E8           MOV       A,R0
   \   000097   2410         ADD       A,#0x10
   \   000099   FA           MOV       R2,A
   \   00009A   E4           CLR       A
   \   00009B   39           ADDC      A,R1
   \   00009C   12....       LCALL     ??Subroutine104_0 & 0xFFFF
   \                     ??CrossCallReturnLabel_289:
   \   00009F   12....       LCALL     ?DEALLOC_XSTACK8
   2138             
   2139              //Create the key from the seed
   2140              for(i = 0; i < Z_EXTADDR_LEN; i++)
   \   0000A2   7C00         MOV       R4,#0x0
   2141              {
   2142                key[i] ^= extAddr[i];
   \                     ??ZDSecMgrGenerateKeyFromSeed_1:
   \   0000A4   EC           MOV       A,R4
   \   0000A5   FA           MOV       R2,A
   \   0000A6   E5..         MOV       A,?V8
   \   0000A8   2A           ADD       A,R2
   \   0000A9   F8           MOV       R0,A
   \   0000AA   E4           CLR       A
   \   0000AB   35..         ADDC      A,?V9
   \   0000AD   F9           MOV       R1,A
   \   0000AE   EE           MOV       A,R6
   \   0000AF   2A           ADD       A,R2
   \   0000B0   FA           MOV       R2,A
   \   0000B1   E4           CLR       A
   \   0000B2   3F           ADDC      A,R7
   \   0000B3   FB           MOV       R3,A
   \   0000B4   8882         MOV       DPL,R0
   \   0000B6   8983         MOV       DPH,R1
   \   0000B8   E0           MOVX      A,@DPTR
   \   0000B9   FD           MOV       R5,A
   \   0000BA   8A82         MOV       DPL,R2
   \   0000BC   8B83         MOV       DPH,R3
   \   0000BE   E0           MOVX      A,@DPTR
   \   0000BF   6D           XRL       A,R5
   \   0000C0   12....       LCALL     ?Subroutine25 & 0xFFFF
   2143                key[i+Z_EXTADDR_LEN] ^= extAddr[i];
   2144              }
   \                     ??CrossCallReturnLabel_25:
   \   0000C3   F8           MOV       R0,A
   \   0000C4   8A82         MOV       DPL,R2
   \   0000C6   8B83         MOV       DPH,R3
   \   0000C8   A3           INC       DPTR
   \   0000C9   A3           INC       DPTR
   \   0000CA   A3           INC       DPTR
   \   0000CB   A3           INC       DPTR
   \   0000CC   A3           INC       DPTR
   \   0000CD   A3           INC       DPTR
   \   0000CE   A3           INC       DPTR
   \   0000CF   A3           INC       DPTR
   \   0000D0   E0           MOVX      A,@DPTR
   \   0000D1   68           XRL       A,R0
   \   0000D2   F0           MOVX      @DPTR,A
   \   0000D3   0C           INC       R4
   \   0000D4   EC           MOV       A,R4
   \   0000D5   C3           CLR       C
   \   0000D6   9408         SUBB      A,#0x8
   \   0000D8   40CA         JC        ??ZDSecMgrGenerateKeyFromSeed_1
   2145            }
   2146          }
   \                     ??ZDSecMgrGenerateKeyFromSeed_0:
   \   0000DA   7410         MOV       A,#0x10
   \   0000DC   02....       LJMP      ?Subroutine5 & 0xFFFF

   \                                 In  segment BANKED_CODE, align 1, keep-with-next
   \                     ?Subroutine5:
   \   000000   12....       LCALL     ?DEALLOC_XSTACK8
   \   000003                REQUIRE ??Subroutine102_0
   \   000003                ; // Fall through to label ??Subroutine102_0

   \                                 In  segment BANKED_CODE, align 1, keep-with-next
   \                     ??Subroutine102_0:
   \   000000   7F0A         MOV       R7,#0xa
   \   000002   02....       LJMP      ?BANKED_LEAVE_XDATA

   \                                 In  segment BANKED_CODE, align 1, keep-with-next
   \                     ??Subroutine104_0:
   \   000000   FB           MOV       R3,A
   \   000001                REQUIRE ??Subroutine105_0
   \   000001                ; // Fall through to label ??Subroutine105_0
   2147          
   2148          
   2149          /******************************************************************************
   2150           * @fn          ZDSecMgrGenerateRndKey
   2151           *
   2152          * @brief       Generate a random key. NOTE: Random key is generated by osal_rand, refer to osal_rand to see the random properties of the key generated by this mean.
   2153           *
   2154           * @param       pKey - [out] Buffer pointer in which the key will be passed.
   2155           *
   2156           * @return      none
   2157           */

   \                                 In  segment BANKED_CODE, align 1, keep-with-next
   2158          void ZDSecMgrGenerateRndKey(uint8* pKey)
   \                     ZDSecMgrGenerateRndKey:
   2159          {
   \   000000                REQUIRE ?V0
   \   000000                REQUIRE ?V2
   \   000000                REQUIRE ?V3
   \   000000   74F4         MOV       A,#-0xc
   \   000002   12....       LCALL     ?BANKED_ENTER_XDATA
   \   000005                ; Saved register size: 12
   \   000005                ; Auto size: 0
   \   000005   EA           MOV       A,R2
   \   000006   FE           MOV       R6,A
   \   000007   EB           MOV       A,R3
   \   000008   FF           MOV       R7,A
   2160            uint16  temp;
   2161            uint8   index = 0;
   \   000009   75..00       MOV       ?V0,#0x0
   2162            
   2163            while(index < (SEC_KEY_LEN/2))
   2164            {
   2165              temp = osal_rand();
   \                     ??ZDSecMgrGenerateRndKey_0:
   \   00000C                ; Setup parameters for call to function osal_rand
   \   00000C   12....       LCALL     `??osal_rand::?relay`; Banked call to: osal_rand
   \   00000F   8A..         MOV       ?V2,R2
   \   000011   8B..         MOV       ?V3,R3
   2166              pKey[index*2]   = (uint8) (temp & 0x00FF);
   \   000013   AA..         MOV       R2,?V0
   \   000015   EA           MOV       A,R2
   \   000016   2A           ADD       A,R2
   \   000017   FA           MOV       R2,A
   \   000018   E4           CLR       A
   \   000019   33           RLC       A
   \   00001A   FB           MOV       R3,A
   \   00001B   EE           MOV       A,R6
   \   00001C   2A           ADD       A,R2
   \   00001D   F582         MOV       DPL,A
   \   00001F   EF           MOV       A,R7
   \   000020   3B           ADDC      A,R3
   \   000021   F583         MOV       DPH,A
   \   000023   E5..         MOV       A,?V2
   \   000025   F0           MOVX      @DPTR,A
   2167              pKey[index*2+1] = (uint8) ((temp >> 8) & 0x00FF);
   \   000026   A3           INC       DPTR
   \   000027   E5..         MOV       A,?V3
   \   000029   F0           MOVX      @DPTR,A
   2168              index++;
   \   00002A   05..         INC       ?V0
   2169            }
   \   00002C   E5..         MOV       A,?V0
   \   00002E   C3           CLR       C
   \   00002F   9408         SUBB      A,#0x8
   \   000031   40D9         JC        ??ZDSecMgrGenerateRndKey_0
   2170          }
   \   000033   02....       LJMP      ??Subroutine97_0 & 0xFFFF
   2171          
   2172          
   2173          #if ( ZG_BUILD_COORDINATOR_TYPE )
   2174          /******************************************************************************
   2175           * @fn          ZDSecMgrUpdateNwkKey
   2176           *
   2177           * @brief       Load a new NWK key and trigger a network update to the dstAddr.
   2178           *
   2179           * @param       key       - [in] new NWK key
   2180           * @param       keySeqNum - [in] new NWK key sequence number
   2181           *
   2182           * @return      ZStatus_t
   2183           */

   \                                 In  segment BANKED_CODE, align 1, keep-with-next
   2184          ZStatus_t ZDSecMgrUpdateNwkKey( uint8* key, uint8 keySeqNum, uint16 dstAddr )
   \                     ZDSecMgrUpdateNwkKey:
   2185          {
   \   000000                REQUIRE ?V0
   \   000000                REQUIRE ?V1
   \   000000   74F6         MOV       A,#-0xa
   \   000002   12....       LCALL     ?BANKED_ENTER_XDATA
   \   000005                ; Saved register size: 10
   \   000005                ; Auto size: 26
   \   000005   74E6         MOV       A,#-0x1a
   \   000007   12....       LCALL     ?ALLOC_XSTACK8
   \   00000A   EA           MOV       A,R2
   \   00000B   FE           MOV       R6,A
   \   00000C   EB           MOV       A,R3
   \   00000D   FF           MOV       R7,A
   \   00000E   89..         MOV       ?V1,R1
   2186            ZStatus_t               status;
   2187            APSME_TransportKeyReq_t req;
   2188          
   2189            // initialize common elements of local variables
   2190            req.keyType   = KEY_TYPE_NWK;
   \   000010   7402         MOV       A,#0x2
   \   000012   12....       LCALL     ?XSTACK_DISP0_8
   \   000015   7401         MOV       A,#0x1
   \   000017   F0           MOVX      @DPTR,A
   2191          
   2192            req.dstAddr   = dstAddr;
   \   000018   85..82       MOV       DPL,?XSP + 0
   \   00001B   85..83       MOV       DPH,?XSP + 1
   \   00001E   EC           MOV       A,R4
   \   00001F   F0           MOVX      @DPTR,A
   \   000020   A3           INC       DPTR
   \   000021   ED           MOV       A,R5
   \   000022   F0           MOVX      @DPTR,A
   2193            req.keySeqNum = keySeqNum;
   \   000023   7403         MOV       A,#0x3
   \   000025   12....       LCALL     ?XSTACK_DISP0_8
   \   000028   E9           MOV       A,R1
   \   000029   F0           MOVX      @DPTR,A
   2194            req.key       = key;
   \   00002A   7404         MOV       A,#0x4
   \   00002C   12....       LCALL     ?XSTACK_DISP0_8
   \   00002F   12....       LCALL     ??Subroutine93_0 & 0xFFFF
   2195            req.extAddr   = NULL;
   \                     ??CrossCallReturnLabel_231:
   \   000032   7406         MOV       A,#0x6
   \   000034   12....       LCALL     ?XSTACK_DISP0_8
   \   000037   E4           CLR       A
   \   000038   F0           MOVX      @DPTR,A
   \   000039   A3           INC       DPTR
   \   00003A   F0           MOVX      @DPTR,A
   2196            req.nwkSecure = TRUE;
   \   00003B   740A         MOV       A,#0xa
   \   00003D   12....       LCALL     ?XSTACK_DISP0_8
   \   000040   7401         MOV       A,#0x1
   \   000042   F0           MOVX      @DPTR,A
   2197            req.tunnel    = NULL;
   \   000043   740B         MOV       A,#0xb
   \   000045   12....       LCALL     ?XSTACK_DISP0_8
   \   000048   E4           CLR       A
   \   000049   F0           MOVX      @DPTR,A
   \   00004A   A3           INC       DPTR
   \   00004B   F0           MOVX      @DPTR,A
   2198          
   2199            if ( ZG_CHECK_SECURITY_MODE == ZG_SECURITY_SE_STANDARD )
   2200            {
   2201              // Broadcast transport NWK key
   2202              if (( dstAddr == NWK_BROADCAST_SHORTADDR_DEVALL ) ||
   2203                  ( dstAddr == NWK_BROADCAST_SHORTADDR_DEVZCZR) ||
   2204                  ( dstAddr == NWK_BROADCAST_SHORTADDR_DEVRXON))
   \   00004C   74FF         MOV       A,#-0x1
   \   00004E   6C           XRL       A,R4
   \   00004F   7003         JNZ       ??ZDSecMgrUpdateNwkKey_0
   \   000051   74FF         MOV       A,#-0x1
   \   000053   6D           XRL       A,R5
   \                     ??ZDSecMgrUpdateNwkKey_0:
   \   000054   6014         JZ        ??ZDSecMgrUpdateNwkKey_1
   \   000056   74FC         MOV       A,#-0x4
   \   000058   6C           XRL       A,R4
   \   000059   7003         JNZ       ??ZDSecMgrUpdateNwkKey_2
   \   00005B   74FF         MOV       A,#-0x1
   \   00005D   6D           XRL       A,R5
   \                     ??ZDSecMgrUpdateNwkKey_2:
   \   00005E   600A         JZ        ??ZDSecMgrUpdateNwkKey_1
   \   000060   74FD         MOV       A,#-0x3
   \   000062   6C           XRL       A,R4
   \   000063   7003         JNZ       ??ZDSecMgrUpdateNwkKey_3
   \   000065   74FF         MOV       A,#-0x1
   \   000067   6D           XRL       A,R5
   \                     ??ZDSecMgrUpdateNwkKey_3:
   \   000068   7008         JNZ       ??ZDSecMgrUpdateNwkKey_4
   2205              {
   2206                req.apsSecure = FALSE;
   \                     ??ZDSecMgrUpdateNwkKey_1:
   \   00006A   7409         MOV       A,#0x9
   \   00006C   12....       LCALL     ?XSTACK_DISP0_8
   \   00006F   E4           CLR       A
   \   000070   8037         SJMP      ??ZDSecMgrUpdateNwkKey_5
   2207                status = APSME_TransportKeyReq( &req );
   2208              }
   2209              else
   2210              {
   2211                AddrMgrEntry_t          addrEntry;
   2212          
   2213                addrEntry.user = ADDRMGR_USER_SECURITY;
   \                     ??ZDSecMgrUpdateNwkKey_4:
   \   000072   740D         MOV       A,#0xd
   \   000074   12....       LCALL     ?XSTACK_DISP0_8
   \   000077   7402         MOV       A,#0x2
   \   000079   F0           MOVX      @DPTR,A
   2214                addrEntry.nwkAddr = dstAddr;
   \   00007A   740E         MOV       A,#0xe
   \   00007C   12....       LCALL     ?XSTACK_DISP0_8
   \   00007F   EC           MOV       A,R4
   \   000080   F0           MOVX      @DPTR,A
   \   000081   A3           INC       DPTR
   \   000082   ED           MOV       A,R5
   \   000083   F0           MOVX      @DPTR,A
   2215          
   2216                status = ZFailure;
   \   000084   75..01       MOV       ?V0,#0x1
   2217          
   2218                if ( AddrMgrEntryLookupNwk( &addrEntry ) == TRUE )
   \   000087                ; Setup parameters for call to function AddrMgrEntryLookupNwk
   \   000087   740D         MOV       A,#0xd
   \   000089   12....       LCALL     ?XSTACK_DISP101_8
   \   00008C   12....       LCALL     ?Subroutine50 & 0xFFFF
   \                     ??CrossCallReturnLabel_73:
   \   00008F   7021         JNZ       ??ZDSecMgrUpdateNwkKey_6
   2219                {
   2220                  req.extAddr = addrEntry.extAddr;
   \   000091   7410         MOV       A,#0x10
   \   000093   12....       LCALL     ?XSTACK_DISP0_8
   \   000096   A882         MOV       R0,DPL
   \   000098   A983         MOV       R1,DPH
   \   00009A   7406         MOV       A,#0x6
   \   00009C   12....       LCALL     ?XSTACK_DISP0_8
   \   00009F   12....       LCALL     ??Subroutine86_0 & 0xFFFF
   2221                  req.apsSecure = TRUE;
   \                     ??CrossCallReturnLabel_202:
   \   0000A2   7409         MOV       A,#0x9
   \   0000A4   12....       LCALL     ?XSTACK_DISP0_8
   \   0000A7   7401         MOV       A,#0x1
   2222                  status = APSME_TransportKeyReq( &req );
   2223                }
   2224              }
   2225            }
   \                     ??ZDSecMgrUpdateNwkKey_5:
   \   0000A9   12....       LCALL     ??Subroutine92_0 & 0xFFFF
   \                     ??CrossCallReturnLabel_225:
   \   0000AC   12....       LCALL     `??APSME_TransportKeyReq::?relay`; Banked call to: APSME_TransportKeyReq
   \   0000AF   E9           MOV       A,R1
   \   0000B0   F5..         MOV       ?V0,A
   2226            else // ( ZG_CHECK_SECURITY_MODE == ZG_SECURITY_RESIDENTIAL )
   2227            {
   2228              req.apsSecure = FALSE;
   2229              status = APSME_TransportKeyReq( &req );
   2230            }
   2231          
   2232            SSP_UpdateNwkKey( key, keySeqNum );
   \                     ??ZDSecMgrUpdateNwkKey_6:
   \   0000B2                ; Setup parameters for call to function SSP_UpdateNwkKey
   \   0000B2   A9..         MOV       R1,?V1
   \   0000B4   EE           MOV       A,R6
   \   0000B5   FA           MOV       R2,A
   \   0000B6   EF           MOV       A,R7
   \   0000B7   FB           MOV       R3,A
   \   0000B8   12....       LCALL     `??SSP_UpdateNwkKey::?relay`; Banked call to: SSP_UpdateNwkKey
   2233          
   2234            // Save if nv
   2235            ZDApp_NVUpdate();
   \   0000BB                ; Setup parameters for call to function ZDApp_NVUpdate
   \   0000BB   12....       LCALL     `??ZDApp_NVUpdate::?relay`; Banked call to: ZDApp_NVUpdate
   2236          
   2237            return status;
   \   0000BE   A9..         MOV       R1,?V0
   \   0000C0   741A         MOV       A,#0x1a
   \   0000C2   02....       LJMP      ??Subroutine90_0 & 0xFFFF
   2238          }
   2239          #endif // ( ZG_BUILD_COORDINATOR_TYPE )
   2240          
   2241          #if ( ZG_BUILD_COORDINATOR_TYPE )
   2242          /******************************************************************************
   2243           * @fn          ZDSecMgrSwitchNwkKey
   2244           *
   2245           * @brief       Causes the NWK key to switch via a network command to the dstAddr.
   2246           *
   2247           * @param       keySeqNum - [in] new NWK key sequence number
   2248           *
   2249           * @return      ZStatus_t
   2250           */

   \                                 In  segment BANKED_CODE, align 1, keep-with-next
   2251          ZStatus_t ZDSecMgrSwitchNwkKey( uint8 keySeqNum, uint16 dstAddr )
   \                     ZDSecMgrSwitchNwkKey:
   2252          {
   \   000000                REQUIRE ?V0
   \   000000                REQUIRE ?V1
   \   000000   74F6         MOV       A,#-0xa
   \   000002   12....       LCALL     ?BANKED_ENTER_XDATA
   \   000005                ; Saved register size: 10
   \   000005                ; Auto size: 17
   \   000005   74EF         MOV       A,#-0x11
   \   000007   12....       LCALL     ?ALLOC_XSTACK8
   \   00000A   E9           MOV       A,R1
   \   00000B   FF           MOV       R7,A
   \   00000C   8A..         MOV       ?V0,R2
   \   00000E   8B..         MOV       ?V1,R3
   2253            ZStatus_t            status;
   2254            APSME_SwitchKeyReq_t req;
   2255          
   2256            // initialize common elements of local variables
   2257            req.dstAddr = dstAddr;
   \   000010   12....       LCALL     ?Subroutine22 & 0xFFFF
   2258            req.keySeqNum = keySeqNum;
   \                     ??CrossCallReturnLabel_236:
   \   000013   12....       LCALL     ?XSTACK_DISP0_8
   \   000016   E9           MOV       A,R1
   \   000017   F0           MOVX      @DPTR,A
   2259          
   2260            if ( ZG_CHECK_SECURITY_MODE == ZG_SECURITY_SE_STANDARD )
   2261            {
   2262              // Broadcast switch NWK key
   2263              if (( dstAddr == NWK_BROADCAST_SHORTADDR_DEVALL ) ||
   2264                  ( dstAddr == NWK_BROADCAST_SHORTADDR_DEVZCZR) ||
   2265                  ( dstAddr == NWK_BROADCAST_SHORTADDR_DEVRXON))
   \   000018   74FF         MOV       A,#-0x1
   \   00001A   6A           XRL       A,R2
   \   00001B   7003         JNZ       ??ZDSecMgrSwitchNwkKey_0
   \   00001D   74FF         MOV       A,#-0x1
   \   00001F   6B           XRL       A,R3
   \                     ??ZDSecMgrSwitchNwkKey_0:
   \   000020   6014         JZ        ??ZDSecMgrSwitchNwkKey_1
   \   000022   74FC         MOV       A,#-0x4
   \   000024   6A           XRL       A,R2
   \   000025   7003         JNZ       ??ZDSecMgrSwitchNwkKey_2
   \   000027   74FF         MOV       A,#-0x1
   \   000029   6B           XRL       A,R3
   \                     ??ZDSecMgrSwitchNwkKey_2:
   \   00002A   600A         JZ        ??ZDSecMgrSwitchNwkKey_1
   \   00002C   74FD         MOV       A,#-0x3
   \   00002E   6A           XRL       A,R2
   \   00002F   7003         JNZ       ??ZDSecMgrSwitchNwkKey_3
   \   000031   74FF         MOV       A,#-0x1
   \   000033   6B           XRL       A,R3
   \                     ??ZDSecMgrSwitchNwkKey_3:
   \   000034   7008         JNZ       ??ZDSecMgrSwitchNwkKey_4
   2266              {
   2267                req.apsSecure = FALSE;
   \                     ??ZDSecMgrSwitchNwkKey_1:
   \   000036   7403         MOV       A,#0x3
   \   000038   12....       LCALL     ?XSTACK_DISP0_8
   \   00003B   E4           CLR       A
   \   00003C   802A         SJMP      ??ZDSecMgrSwitchNwkKey_5
   2268                status = APSME_SwitchKeyReq( &req );
   2269              }
   2270              else
   2271              {
   2272                AddrMgrEntry_t          addrEntry;
   2273          
   2274                addrEntry.user = ADDRMGR_USER_SECURITY;
   \                     ??ZDSecMgrSwitchNwkKey_4:
   \   00003E   7404         MOV       A,#0x4
   \   000040   12....       LCALL     ?XSTACK_DISP0_8
   \   000043   7402         MOV       A,#0x2
   \   000045   F0           MOVX      @DPTR,A
   2275                addrEntry.nwkAddr = dstAddr;
   \   000046   7405         MOV       A,#0x5
   \   000048   12....       LCALL     ?XSTACK_DISP0_8
   \   00004B   12....       LCALL     ??Subroutine93_0 & 0xFFFF
   2276          
   2277                status = ZFailure;
   \                     ??CrossCallReturnLabel_232:
   \   00004E   7E01         MOV       R6,#0x1
   2278          
   2279                if ( AddrMgrEntryLookupNwk( &addrEntry ) == TRUE )
   \   000050                ; Setup parameters for call to function AddrMgrEntryLookupNwk
   \   000050   7404         MOV       A,#0x4
   \   000052   12....       LCALL     ?XSTACK_DISP101_8
   \   000055   12....       LCALL     ?Subroutine50 & 0xFFFF
   \                     ??CrossCallReturnLabel_74:
   \   000058   7016         JNZ       ??ZDSecMgrSwitchNwkKey_6
   2280                {
   2281                  req.dstAddr = addrEntry.nwkAddr;
   \   00005A   7405         MOV       A,#0x5
   \   00005C   12....       LCALL     ?XSTACK_DISP0_8
   \   00005F   12....       LCALL     ?Subroutine20 & 0xFFFF
   2282                  req.apsSecure = TRUE;
   \                     ??CrossCallReturnLabel_208:
   \   000062   7403         MOV       A,#0x3
   \   000064   12....       LCALL     ?XSTACK_DISP0_8
   \   000067   EE           MOV       A,R6
   2283                  status = APSME_SwitchKeyReq( &req );
   2284                }
   2285              }
   2286            }
   \                     ??ZDSecMgrSwitchNwkKey_5:
   \   000068   12....       LCALL     ??Subroutine92_0 & 0xFFFF
   \                     ??CrossCallReturnLabel_226:
   \   00006B   12....       LCALL     `??APSME_SwitchKeyReq::?relay`; Banked call to: APSME_SwitchKeyReq
   \   00006E   E9           MOV       A,R1
   \   00006F   FE           MOV       R6,A
   2287            else // ( ZG_CHECK_SECURITY_MODE == ZG_SECURITY_RESIDENTIAL )
   2288            {
   2289              req.apsSecure = FALSE;
   2290              status = APSME_SwitchKeyReq( &req );
   2291            }
   2292          
   2293            if ( dstAddr >= NWK_BROADCAST_SHORTADDR_DEVZCZR)
   \                     ??ZDSecMgrSwitchNwkKey_6:
   \   000070   C3           CLR       C
   \   000071   E5..         MOV       A,?V0
   \   000073   94FC         SUBB      A,#-0x4
   \   000075   E5..         MOV       A,?V1
   \   000077   94FF         SUBB      A,#-0x1
   \   000079   400B         JC        ??ZDSecMgrSwitchNwkKey_7
   2294            {
   2295              zgSwitchCoordKey = TRUE;
   \   00007B   90....       MOV       DPTR,#zgSwitchCoordKey
   \   00007E   7401         MOV       A,#0x1
   \   000080   F0           MOVX      @DPTR,A
   2296              zgSwitchCoordKeyIndex = keySeqNum;
   \   000081   EF           MOV       A,R7
   \   000082   90....       MOV       DPTR,#zgSwitchCoordKeyIndex
   \   000085   F0           MOVX      @DPTR,A
   2297            }
   2298            // Save if nv
   2299            ZDApp_NVUpdate();
   \                     ??ZDSecMgrSwitchNwkKey_7:
   \   000086                ; Setup parameters for call to function ZDApp_NVUpdate
   \   000086   12....       LCALL     `??ZDApp_NVUpdate::?relay`; Banked call to: ZDApp_NVUpdate
   2300          
   2301            return status;
   \   000089   EE           MOV       A,R6
   \   00008A   F9           MOV       R1,A
   \   00008B   02....       LJMP      ?Subroutine4 & 0xFFFF
   2302          }

   \                                 In  segment BANKED_CODE, align 1, keep-with-next
   \                     ?Subroutine22:
   \   000000   85..82       MOV       DPL,?XSP + 0
   \   000003   85..83       MOV       DPH,?XSP + 1
   \   000006                REQUIRE ??Subroutine94_0
   \   000006                ; // Fall through to label ??Subroutine94_0
   2303          #endif // ( ZG_BUILD_COORDINATOR_TYPE )
   2304          
   2305          /******************************************************************************
   2306           * @fn          ZDSecMgrRequestAppKey
   2307           *
   2308           * @brief       Request an application key with partner.
   2309           *
   2310           * @param       partExtAddr - [in] partner extended address
   2311           *
   2312           * @return      ZStatus_t
   2313           */

   \                                 In  segment BANKED_CODE, align 1, keep-with-next
   2314          ZStatus_t ZDSecMgrRequestAppKey( uint8 *partExtAddr )
   \                     ZDSecMgrRequestAppKey:
   2315          {
   \   000000   C082         PUSH      DPL
   \   000002   C083         PUSH      DPH
   \   000004                ; Saved register size: 2
   \   000004                ; Auto size: 4
   \   000004   74FC         MOV       A,#-0x4
   \   000006   12....       LCALL     ?ALLOC_XSTACK8
   2316            ZStatus_t status;
   2317            APSME_RequestKeyReq_t req;
   2318          
   2319            req.dstAddr = 0;
   \   000009   85..82       MOV       DPL,?XSP + 0
   \   00000C   85..83       MOV       DPH,?XSP + 1
   \   00000F   E4           CLR       A
   \   000010   F0           MOVX      @DPTR,A
   2320            req.keyType = KEY_TYPE_APP_MASTER;
   \   000011   04           INC       A
   \   000012   12....       LCALL     ?XSTACK_DISP0_8
   \   000015   7402         MOV       A,#0x2
   \   000017   F0           MOVX      @DPTR,A
   2321          
   2322            req.partExtAddr = partExtAddr;
   \   000018   12....       LCALL     ?XSTACK_DISP0_8
   \   00001B   12....       LCALL     ?Subroutine21 & 0xFFFF
   2323            status = APSME_RequestKeyReq( &req );
   2324          
   2325            return status;
   \                     ??CrossCallReturnLabel_221:
   \   00001E   12....       LCALL     `??APSME_RequestKeyReq::?relay`; Banked call to: APSME_RequestKeyReq
   \   000021   7404         MOV       A,#0x4
   \   000023   02....       LJMP      ?Subroutine9 & 0xFFFF
   2326          }
   2327          
   2328          #if ( ZG_BUILD_JOINING_TYPE )
   2329          /******************************************************************************
   2330           * @fn          ZDSecMgrSetupPartner
   2331           *
   2332           * @brief       Setup for application key partner.
   2333           *
   2334           * @param       partNwkAddr - [in] partner network address
   2335           *
   2336           * @return      ZStatus_t
   2337           */
   2338          ZStatus_t ZDSecMgrSetupPartner( uint16 partNwkAddr, uint8* partExtAddr )
   2339          {
   2340            AddrMgrEntry_t entry;
   2341            ZStatus_t      status;
   2342          
   2343            status = ZFailure;
   2344          
   2345            // update the address manager
   2346            entry.user    = ADDRMGR_USER_SECURITY;
   2347            entry.nwkAddr = partNwkAddr;
   2348            AddrMgrExtAddrSet( entry.extAddr, partExtAddr );
   2349          
   2350            if ( AddrMgrEntryUpdate( &entry ) == TRUE )
   2351            {
   2352              status = ZSuccess;
   2353          
   2354              // check for address discovery
   2355              if ( partNwkAddr == INVALID_NODE_ADDR )
   2356              {
   2357                status = ZDP_NwkAddrReq( partExtAddr, ZDP_ADDR_REQTYPE_SINGLE, 0, 0 );
   2358              }
   2359              else if ( !AddrMgrExtAddrValid( partExtAddr ) )
   2360              {
   2361                status = ZDP_IEEEAddrReq( partNwkAddr, ZDP_ADDR_REQTYPE_SINGLE, 0, 0 );
   2362              }
   2363            }
   2364          
   2365            return status;
   2366          }
   2367          #endif // ( ZG_BUILD_JOINING_TYPE )
   2368          
   2369          #if ( ZG_BUILD_COORDINATOR_TYPE )
   2370          /******************************************************************************
   2371           * @fn          ZDSecMgrAppKeyTypeSet
   2372           *
   2373           * @brief       Set application key type.
   2374           *
   2375           * @param       keyType - [in] application key type (KEY_TYPE_APP_MASTER@2 or
   2376           *                                                   KEY_TYPE_APP_LINK@3
   2377           *
   2378           * @return      ZStatus_t
   2379           */

   \                                 In  segment BANKED_CODE, align 1, keep-with-next
   2380          ZStatus_t ZDSecMgrAppKeyTypeSet( uint8 keyType )
   \                     ZDSecMgrAppKeyTypeSet:
   2381          {
   \   000000   C082         PUSH      DPL
   \   000002   C083         PUSH      DPH
   \   000004                ; Saved register size: 2
   \   000004                ; Auto size: 0
   \   000004   E9           MOV       A,R1
   \   000005   F8           MOV       R0,A
   2382            if ( keyType == KEY_TYPE_APP_LINK )
   \   000006   7403         MOV       A,#0x3
   \   000008   68           XRL       A,R0
   \   000009   90....       MOV       DPTR,#ZDSecMgrAppKeyType
   \   00000C   7004         JNZ       ??ZDSecMgrAppKeyTypeSet_0
   2383            {
   2384              ZDSecMgrAppKeyType = KEY_TYPE_APP_LINK;
   \   00000E   7403         MOV       A,#0x3
   \   000010   8002         SJMP      ??ZDSecMgrAppKeyTypeSet_1
   2385            }
   2386            else
   2387            {
   2388              ZDSecMgrAppKeyType = KEY_TYPE_APP_MASTER;
   \                     ??ZDSecMgrAppKeyTypeSet_0:
   \   000012   7402         MOV       A,#0x2
   2389            }
   \                     ??ZDSecMgrAppKeyTypeSet_1:
   \   000014   02....       LJMP      ?Subroutine2 & 0xFFFF
   2390          
   2391            return ZSuccess;
   2392          }
   2393          #endif
   2394          
   2395          /******************************************************************************
   2396           * ZigBee Device Security Manager - Stub Implementations
   2397           */
   2398          
   2399          
   2400          /******************************************************************************
   2401           * @fn          ZDSecMgrLinkKeySet (stubs APSME_LinkKeySet)
   2402           *
   2403           * @brief       Set <APSME_LinkKeyData_t> for specified NWK address.
   2404           *
   2405           * @param       extAddr - [in] EXT address
   2406           * @param       data    - [in] APSME_LinkKeyData_t
   2407           *
   2408           * @return      ZStatus_t
   2409           */

   \                                 In  segment BANKED_CODE, align 1, keep-with-next
   \                     ?Subroutine27:
   \   000000   F582         MOV       DPL,A
   \   000002   E4           CLR       A
   \   000003   35..         ADDC      A,?V3
   \   000005                REQUIRE ??Subroutine87_0
   \   000005                ; // Fall through to label ??Subroutine87_0

   \                                 In  segment BANKED_CODE, align 1, keep-with-next
   \                     ??Subroutine87_0:
   \   000000   F583         MOV       DPH,A
   \   000002                REQUIRE ??Subroutine88_0
   \   000002                ; // Fall through to label ??Subroutine88_0

   \                                 In  segment BANKED_CODE, align 1, keep-with-next
   2410          ZStatus_t ZDSecMgrLinkKeySet( uint8* extAddr, uint8* key )
   \                     APSME_LinkKeySet:
   2411          {
   \   000000                REQUIRE ?V0
   \   000000                REQUIRE ?V1
   \   000000                REQUIRE ?V2
   \   000000                REQUIRE ?V3
   \   000000                REQUIRE ?V4
   \   000000                REQUIRE ?V5
   \   000000                REQUIRE ?V6
   \   000000   74F1         MOV       A,#-0xf
   \   000002   12....       LCALL     ?BANKED_ENTER_XDATA
   \   000005                ; Saved register size: 15
   \   000005                ; Auto size: 4
   \   000005   74FC         MOV       A,#-0x4
   \   000007   12....       LCALL     ?ALLOC_XSTACK8
   \   00000A   EC           MOV       A,R4
   \   00000B   FE           MOV       R6,A
   \   00000C   ED           MOV       A,R5
   \   00000D   FF           MOV       R7,A
   2412            ZStatus_t status;
   2413            ZDSecMgrEntry_t* entry;
   2414            APSME_LinkKeyData_t *pApsLinkKey = NULL;
   2415            uint16 Index;
   2416          
   2417            // lookup entry index for specified EXT address
   2418            status = ZDSecMgrEntryLookupExtGetIndex( extAddr, &entry, &Index );
   \   00000E                ; Setup parameters for call to function ZDSecMgrEntryLookupExtGetIndex
   \   00000E   7402         MOV       A,#0x2
   \   000010   12....       LCALL     ?XSTACK_DISP100_8
   \   000013   88..         MOV       ?V0,R0
   \   000015   89..         MOV       ?V1,R1
   \   000017   78..         MOV       R0,#?V0
   \   000019   12....       LCALL     ?PUSH_XSTACK_I_TWO
   \   00001C   7402         MOV       A,#0x2
   \   00001E   12....       LCALL     ?XSTACK_DISP102_8
   \   000021   12....       LCALL     `??ZDSecMgrEntryLookupExtGetIndex::?relay`; Banked call to: ZDSecMgrEntryLookupExtGetIndex
   \   000024   7402         MOV       A,#0x2
   \   000026   12....       LCALL     ?DEALLOC_XSTACK8
   \   000029   E9           MOV       A,R1
   \   00002A   F5..         MOV       ?V0,A
   2419          
   2420            if ( status == ZSuccess )
   \   00002C   6003         JZ        $+5
   \   00002E   02....       LJMP      ??CrossCallReturnLabel_217 & 0xFFFF
   2421            {
   2422              // point to NV item
   2423              entry->keyNvId = ZCD_NV_APS_LINK_KEY_DATA_START + Index;
   \   000031   7402         MOV       A,#0x2
   \   000033   12....       LCALL     ?XSTACK_DISP0_8
   \   000036   E0           MOVX      A,@DPTR
   \   000037   2401         ADD       A,#0x1
   \   000039   F8           MOV       R0,A
   \   00003A   A3           INC       DPTR
   \   00003B   E0           MOVX      A,@DPTR
   \   00003C   3402         ADDC      A,#0x2
   \   00003E   12....       LCALL     ?Subroutine31 & 0xFFFF
   \                     ??CrossCallReturnLabel_241:
   \   000041   A3           INC       DPTR
   \   000042   A3           INC       DPTR
   \   000043   12....       LCALL     ??Subroutine86_0 & 0xFFFF
   2424          
   2425              pApsLinkKey = (APSME_LinkKeyData_t *)osal_mem_alloc(sizeof(APSME_LinkKeyData_t));
   \                     ??CrossCallReturnLabel_203:
   \   000046                ; Setup parameters for call to function osal_mem_alloc
   \   000046   12....       LCALL     ?Subroutine47 & 0xFFFF
   2426          
   2427              if (pApsLinkKey != NULL)
   \                     ??CrossCallReturnLabel_68:
   \   000049   7003         JNZ       $+5
   \   00004B   02....       LJMP      ??CrossCallReturnLabel_217 & 0xFFFF
   2428              {
   2429                // read the key form NV, keyNvId must be ZCD_NV_APS_LINK_KEY_DATA_START based
   2430                osal_nv_read( entry->keyNvId, 0,
   2431                             sizeof(APSME_LinkKeyData_t), pApsLinkKey );
   \   00004E                ; Setup parameters for call to function osal_nv_read
   \   00004E   78..         MOV       R0,#?V2
   \   000050   12....       LCALL     ?PUSH_XSTACK_I_TWO
   \   000053   75..18       MOV       ?V4,#0x18
   \   000056   75..00       MOV       ?V5,#0x0
   \   000059   78..         MOV       R0,#?V4
   \   00005B   12....       LCALL     ?PUSH_XSTACK_I_TWO
   \   00005E   7C00         MOV       R4,#0x0
   \   000060   7D00         MOV       R5,#0x0
   \   000062   7404         MOV       A,#0x4
   \   000064   12....       LCALL     ?XSTACK_DISP0_8
   \   000067   12....       LCALL     ?Subroutine29 & 0xFFFF
   \                     ??CrossCallReturnLabel_28:
   \   00006A   12....       LCALL     ??Subroutine108_0 & 0xFFFF
   \                     ??CrossCallReturnLabel_298:
   \   00006D   12....       LCALL     ?DEALLOC_XSTACK8
   2432          
   2433                // set new values of the key
   2434                osal_memcpy( pApsLinkKey->key, key, SEC_KEY_LEN );
   \   000070                ; Setup parameters for call to function osal_memcpy
   \   000070   8E..         MOV       ?V4,R6
   \   000072   8F..         MOV       ?V5,R7
   \   000074   75..00       MOV       ?V6,#0x0
   \   000077   78..         MOV       R0,#?V4
   \   000079   12....       LCALL     ?PUSH_XSTACK_I_THREE
   \   00007C   7C10         MOV       R4,#0x10
   \   00007E   7D00         MOV       R5,#0x0
   \   000080   AA..         MOV       R2,?V2
   \   000082   AB..         MOV       R3,?V3
   \   000084   12....       LCALL     ??Subroutine105_0 & 0xFFFF
   \                     ??CrossCallReturnLabel_291:
   \   000087   12....       LCALL     ?DEALLOC_XSTACK8
   2435                pApsLinkKey->rxFrmCntr = 0;
   \   00008A   E5..         MOV       A,?V2
   \   00008C   2414         ADD       A,#0x14
   \   00008E   12....       LCALL     ?Subroutine27 & 0xFFFF
   2436                pApsLinkKey->txFrmCntr = 0;
   \                     ??CrossCallReturnLabel_218:
   \   000091   E5..         MOV       A,?V2
   \   000093   2410         ADD       A,#0x10
   \   000095   12....       LCALL     ?Subroutine27 & 0xFFFF
   2437          
   2438                osal_nv_write( entry->keyNvId, 0,
   2439                              sizeof(APSME_LinkKeyData_t), pApsLinkKey );
   \                     ??CrossCallReturnLabel_219:
   \   000098                ; Setup parameters for call to function osal_nv_write
   \   000098   78..         MOV       R0,#?V2
   \   00009A   12....       LCALL     ?PUSH_XSTACK_I_TWO
   \   00009D   75..18       MOV       ?V4,#0x18
   \   0000A0   75..00       MOV       ?V5,#0x0
   \   0000A3   78..         MOV       R0,#?V4
   \   0000A5   12....       LCALL     ?PUSH_XSTACK_I_TWO
   \   0000A8   7C00         MOV       R4,#0x0
   \   0000AA   7D00         MOV       R5,#0x0
   \   0000AC   7404         MOV       A,#0x4
   \   0000AE   12....       LCALL     ?XSTACK_DISP0_8
   \   0000B1   12....       LCALL     ?Subroutine29 & 0xFFFF
   \                     ??CrossCallReturnLabel_29:
   \   0000B4   12....       LCALL     ??Subroutine101_0 & 0xFFFF
   \                     ??CrossCallReturnLabel_267:
   \   0000B7   12....       LCALL     ?DEALLOC_XSTACK8
   2440          
   2441                // clear copy of key in RAM
   2442                osal_memset(pApsLinkKey, 0x00, sizeof(APSME_LinkKeyData_t));
   \   0000BA                ; Setup parameters for call to function osal_memset
   \   0000BA   12....       LCALL     ?Subroutine52 & 0xFFFF
   2443          
   2444                osal_mem_free(pApsLinkKey);
   \                     ??CrossCallReturnLabel_78:
   \   0000BD   85..82       MOV       DPL,?XSP + 0
   \   0000C0   85..83       MOV       DPH,?XSP + 1
   \   0000C3   12....       LCALL     ?Subroutine37 & 0xFFFF
   \                     ??CrossCallReturnLabel_51:
   \   0000C6   A3           INC       DPTR
   \   0000C7   A3           INC       DPTR
   \   0000C8   12....       LCALL     ??Subroutine84_0 & 0xFFFF
   \                     ??CrossCallReturnLabel_164:
   \   0000CB   E8           MOV       A,R0
   \   0000CC   75F009       MOV       B,#0x9
   \   0000CF   A4           MUL       AB
   \   0000D0   F8           MOV       R0,A
   \   0000D1   AAF0         MOV       R2,B
   \   0000D3   75F009       MOV       B,#0x9
   \   0000D6   E9           MOV       A,R1
   \   0000D7   A4           MUL       AB
   \   0000D8   2A           ADD       A,R2
   \   0000D9   F9           MOV       R1,A
   \   0000DA   74..         MOV       A,#ApsLinkKeyFrmCntr & 0xff
   \   0000DC   28           ADD       A,R0
   \   0000DD   F8           MOV       R0,A
   \   0000DE   74..         MOV       A,#(ApsLinkKeyFrmCntr >> 8) & 0xff
   \   0000E0   39           ADDC      A,R1
   \   0000E1   F9           MOV       R1,A
   \   0000E2   E8           MOV       A,R0
   \   0000E3   24F7         ADD       A,#-0x9
   \   0000E5   F582         MOV       DPL,A
   \   0000E7   E9           MOV       A,R1
   \   0000E8   34ED         ADDC      A,#-0x13
   \   0000EA   12....       LCALL     ??Subroutine87_0 & 0xFFFF
   2445          
   2446                // set initial values for counters in RAM
   2447                ApsLinkKeyFrmCntr[entry->keyNvId - ZCD_NV_APS_LINK_KEY_DATA_START].txFrmCntr = 0;
   2448                ApsLinkKeyFrmCntr[entry->keyNvId - ZCD_NV_APS_LINK_KEY_DATA_START].rxFrmCntr = 0;
   \                     ??CrossCallReturnLabel_216:
   \   0000ED   E8           MOV       A,R0
   \   0000EE   24FB         ADD       A,#-0x5
   \   0000F0   F582         MOV       DPL,A
   \   0000F2   E9           MOV       A,R1
   \   0000F3   34ED         ADDC      A,#-0x13
   \   0000F5   12....       LCALL     ??Subroutine87_0 & 0xFFFF
   2449              }
   2450            }
   2451          
   2452            return status;
   \                     ??CrossCallReturnLabel_217:
   \   0000F8   A9..         MOV       R1,?V0
   \   0000FA   7404         MOV       A,#0x4
   \   0000FC                REQUIRE ?Subroutine6
   \   0000FC                ; // Fall through to label ?Subroutine6
   2453          }

   \                                 In  segment BANKED_CODE, align 1, keep-with-next
   \                     ?Subroutine6:
   \   000000   12....       LCALL     ?DEALLOC_XSTACK8
   \   000003                REQUIRE ??Subroutine95_0
   \   000003                ; // Fall through to label ??Subroutine95_0

   \                                 In  segment BANKED_CODE, align 1, keep-with-next
   \                     ??Subroutine95_0:
   \   000000   7F07         MOV       R7,#0x7
   \   000002   02....       LJMP      ?BANKED_LEAVE_XDATA

   \                                 In  segment BANKED_CODE, align 1, keep-with-next
   \                     ?Subroutine31:
   \   000000   F9           MOV       R1,A
   \   000001   85..82       MOV       DPL,?XSP + 0
   \   000004   85..83       MOV       DPH,?XSP + 1
   \   000007                REQUIRE ??Subroutine96_0
   \   000007                ; // Fall through to label ??Subroutine96_0

   \                                 In  segment BANKED_CODE, align 1, keep-with-next
   \                     ?Subroutine29:
   \   000000   12....       LCALL     ?Subroutine71 & 0xFFFF
   \                     ??CrossCallReturnLabel_113:
   \   000003   12....       LCALL     ?Subroutine70 & 0xFFFF
   \                     ??CrossCallReturnLabel_149:
   \   000006   22           RET

   \                                 In  segment BANKED_CODE, align 1, keep-with-next
   \                     ?Subroutine71:
   \   000000   12....       LCALL     ?Subroutine76 & 0xFFFF
   \                     ??CrossCallReturnLabel_120:
   \   000003   A3           INC       DPTR
   \   000004   A3           INC       DPTR
   \   000005   22           RET

   \                                 In  segment BANKED_CODE, align 1, keep-with-next
   \                     ?Subroutine52:
   \   000000   7C18         MOV       R4,#0x18
   \   000002   7D00         MOV       R5,#0x0
   \   000004   7900         MOV       R1,#0x0
   \   000006   AA..         MOV       R2,?V2
   \   000008   AB..         MOV       R3,?V3
   \   00000A   12....       LCALL     `??osal_memset::?relay`; Banked call to: osal_memset
   \   00000D                ; Setup parameters for call to function osal_mem_free
   \   00000D                ; Setup parameters for call to function osal_mem_free
   \   00000D   AA..         MOV       R2,?V2
   \   00000F   AB..         MOV       R3,?V3
   \   000011   12....       LCALL     `??osal_mem_free::?relay`; Banked call to: osal_mem_free
   \   000014   22           RET

   \                                 In  segment BANKED_CODE, align 1, keep-with-next
   \                     ?Subroutine47:
   \   000000   7A18         MOV       R2,#0x18
   \   000002   7B00         MOV       R3,#0x0
   \   000004   12....       LCALL     `??osal_mem_alloc::?relay`; Banked call to: osal_mem_alloc
   \   000007   8A..         MOV       ?V2,R2
   \   000009   8B..         MOV       ?V3,R3
   \   00000B   EA           MOV       A,R2
   \   00000C   4B           ORL       A,R3
   \   00000D   22           RET
   2454          
   2455          /******************************************************************************
   2456           * @fn          ZDSecMgrAuthenticationSet
   2457           *
   2458           * @brief       Mark the specific device as authenticated or not
   2459           *
   2460           * @param       extAddr - [in] EXT address
   2461           * @param       option  - [in] authenticated or not
   2462           *
   2463           * @return      ZStatus_t
   2464           */

   \                                 In  segment BANKED_CODE, align 1, keep-with-next
   2465          ZStatus_t ZDSecMgrAuthenticationSet( uint8* extAddr, ZDSecMgr_Authentication_Option option )
   \                     ZDSecMgrAuthenticationSet:
   2466          {
   \   000000   74F7         MOV       A,#-0x9
   \   000002   12....       LCALL     ?BANKED_ENTER_XDATA
   \   000005                ; Saved register size: 9
   \   000005                ; Auto size: 2
   \   000005   74FE         MOV       A,#-0x2
   \   000007   12....       LCALL     ?ALLOC_XSTACK8
   \   00000A   E9           MOV       A,R1
   \   00000B   FE           MOV       R6,A
   2467            ZStatus_t        status;
   2468            ZDSecMgrEntry_t* entry;
   2469          
   2470          
   2471            // lookup entry index for specified EXT address
   2472            status = ZDSecMgrEntryLookupExt( extAddr, &entry );
   \   00000C                ; Setup parameters for call to function ZDSecMgrEntryLookupExt
   \   00000C   AC..         MOV       R4,?XSP + 0
   \   00000E   AD..         MOV       R5,?XSP + 1
   \   000010   12....       LCALL     `??ZDSecMgrEntryLookupExt::?relay`; Banked call to: ZDSecMgrEntryLookupExt
   \   000013   E9           MOV       A,R1
   \   000014   F9           MOV       R1,A
   2473          
   2474            if ( status == ZSuccess )
   \   000015   7005         JNZ       ??ZDSecMgrAuthenticationSet_0
   2475            {
   2476              entry->authenticateOption = option;
   \   000017   12....       LCALL     ?Subroutine36 & 0xFFFF
   2477            }
   \                     ??CrossCallReturnLabel_46:
   \   00001A   EE           MOV       A,R6
   \   00001B   F0           MOVX      @DPTR,A
   2478          
   2479            return status;
   \                     ??ZDSecMgrAuthenticationSet_0:
   \   00001C   02....       LJMP      ?Subroutine7 & 0xFFFF
   2480          }

   \                                 In  segment BANKED_CODE, align 1, keep-with-next
   \                     ?Subroutine36:
   \   000000   85..82       MOV       DPL,?XSP + 0
   \   000003   85..83       MOV       DPH,?XSP + 1
   \   000006   12....       LCALL     ?Subroutine71 & 0xFFFF
   \                     ??CrossCallReturnLabel_114:
   \   000009   A3           INC       DPTR
   \   00000A   A3           INC       DPTR
   \   00000B   22           RET
   2481          
   2482          /******************************************************************************
   2483           * @fn          ZDSecMgrAuthenticationCheck
   2484           *
   2485           * @brief       Check if the specific device has been authenticated or not
   2486           *              For non-trust center device, always return TRUE
   2487           *
   2488           * @param       shortAddr - [in] short address
   2489           *
   2490           * @return      TRUE @ authenticated with CBKE
   2491           *              FALSE @ not authenticated
   2492           */
   2493          

   \                                 In  segment BANKED_CODE, align 1, keep-with-next
   2494          uint8 ZDSecMgrAuthenticationCheck( uint16 shortAddr )
   \                     ZDSecMgrAuthenticationCheck:
   2495          {
   \   000000                REQUIRE ?V0
   \   000000                REQUIRE ?V1
   \   000000   74F6         MOV       A,#-0xa
   \   000002   12....       LCALL     ?BANKED_ENTER_XDATA
   \   000005                ; Saved register size: 10
   \   000005                ; Auto size: 12
   \   000005   74F4         MOV       A,#-0xc
   \   000007   12....       LCALL     ?ALLOC_XSTACK8
   \   00000A   EA           MOV       A,R2
   \   00000B   FE           MOV       R6,A
   \   00000C   EB           MOV       A,R3
   \   00000D   FF           MOV       R7,A
   2496          #if defined (TC_LINKKEY_JOIN)
   2497          
   2498            ZDSecMgrEntry_t* entry;
   2499            uint8 extAddr[Z_EXTADDR_LEN];
   2500          
   2501            // If the local device is not the trust center, always return TRUE
   2502            APSME_GetRequest( apsTrustCenterAddress, 0, extAddr );
   \   00000E                ; Setup parameters for call to function APSME_GetRequest
   \   00000E   7404         MOV       A,#0x4
   \   000010   12....       LCALL     ?XSTACK_DISP102_8
   \   000013   7A00         MOV       R2,#0x0
   \   000015   7B00         MOV       R3,#0x0
   \   000017   79AB         MOV       R1,#-0x55
   \   000019   12....       LCALL     `??APSME_GetRequest::?relay`; Banked call to: APSME_GetRequest
   2503            if ( ! osal_ExtAddrEqual( extAddr , NLME_GetExtAddr() ) )
   \   00001C                ; Setup parameters for call to function NLME_GetExtAddr
   \   00001C   12....       LCALL     ?Subroutine66 & 0xFFFF
   \                     ??CrossCallReturnLabel_108:
   \   00001F                ; Setup parameters for call to function sAddrExtCmp
   \   00001F   7404         MOV       A,#0x4
   \   000021   12....       LCALL     ?XSTACK_DISP101_8
   \   000024   12....       LCALL     `??sAddrExtCmp::?relay`; Banked call to: sAddrExtCmp
   \   000027   E9           MOV       A,R1
   \   000028   603B         JZ        ??ZDSecMgrAuthenticationCheck_0
   2504            {
   2505              return TRUE;
   2506            }
   2507            // Otherwise, check the authentication option
   2508            else if ( AddrMgrExtAddrLookup( shortAddr, extAddr ) )
   \   00002A                ; Setup parameters for call to function AddrMgrExtAddrLookup
   \   00002A   7404         MOV       A,#0x4
   \   00002C   12....       LCALL     ?XSTACK_DISP102_8
   \   00002F   EE           MOV       A,R6
   \   000030   FA           MOV       R2,A
   \   000031   EF           MOV       A,R7
   \   000032   FB           MOV       R3,A
   \   000033   12....       LCALL     `??AddrMgrExtAddrLookup::?relay`; Banked call to: AddrMgrExtAddrLookup
   \   000036   E9           MOV       A,R1
   \   000037   6015         JZ        ??ZDSecMgrAuthenticationCheck_1
   2509            {
   2510              // lookup entry index for specified EXT address
   2511              if ( ZDSecMgrEntryLookupExt( extAddr, &entry ) == ZSuccess )
   \   000039                ; Setup parameters for call to function ZDSecMgrEntryLookupExt
   \   000039   AC..         MOV       R4,?XSP + 0
   \   00003B   AD..         MOV       R5,?XSP + 1
   \   00003D   7404         MOV       A,#0x4
   \   00003F   12....       LCALL     ?XSTACK_DISP101_8
   \   000042   12....       LCALL     `??ZDSecMgrEntryLookupExt::?relay`; Banked call to: ZDSecMgrEntryLookupExt
   \   000045   E9           MOV       A,R1
   \   000046   700D         JNZ       ??ZDSecMgrAuthenticationCheck_2
   2512              {
   2513                if ( entry->authenticateOption != ZDSecMgr_Not_Authenticated )
   \   000048   12....       LCALL     ?Subroutine36 & 0xFFFF
   2514                {
   2515                  return TRUE;
   2516                }
   2517                else
   2518                {
   2519                  return FALSE;
   2520                }
   2521              }
   \                     ??CrossCallReturnLabel_47:
   \   00004B   E0           MOVX      A,@DPTR
   \   00004C   7017         JNZ       ??ZDSecMgrAuthenticationCheck_0
   2522              else
   2523              {
   2524                // it may have been secured with TCLK only
   2525                uint16    ami;
   2526          
   2527                // lookup address index in address manager
   2528                if ( ZDSecMgrExtAddrLookup( extAddr, &ami ) == ZSuccess )
   2529                {
   2530                  return TRUE;
   2531                }
   2532              }
   2533            }
   2534            return FALSE;
   \                     ??ZDSecMgrAuthenticationCheck_1:
   \   00004E   7900         MOV       R1,#0x0
   \                     ??ZDSecMgrAuthenticationCheck_3:
   \   000050   740C         MOV       A,#0xc
   \   000052   02....       LJMP      ??Subroutine90_0 & 0xFFFF
   \                     ??ZDSecMgrAuthenticationCheck_2:
   \   000055                ; Setup parameters for call to function ZDSecMgrExtAddrLookup
   \   000055   7402         MOV       A,#0x2
   \   000057   12....       LCALL     ?XSTACK_DISP102_8
   \   00005A   7404         MOV       A,#0x4
   \   00005C   12....       LCALL     ?XSTACK_DISP101_8
   \   00005F   12....       LCALL     `??ZDSecMgrExtAddrLookup::?relay`; Banked call to: ZDSecMgrExtAddrLookup
   \   000062   E9           MOV       A,R1
   \   000063   70E9         JNZ       ??ZDSecMgrAuthenticationCheck_1
   \                     ??ZDSecMgrAuthenticationCheck_0:
   \   000065   7901         MOV       R1,#0x1
   \   000067   80E7         SJMP      ??ZDSecMgrAuthenticationCheck_3
   2535          
   2536          #else
   2537            (void)shortAddr;  // Intentionally unreferenced parameter
   2538          
   2539            // For non AMI/SE Profile, perform no check and always return TRUE.
   2540            return TRUE;
   2541          
   2542          #endif // TC_LINKKEY_JOIN
   2543          }
   2544          
   2545          
   2546          /******************************************************************************
   2547           * @fn          ZDSecMgrLinkKeyNVIdGet (stubs APSME_LinkKeyNVIdGet)
   2548           *
   2549           * @brief       Get Key NV ID for specified NWK address.
   2550           *
   2551           * @param       extAddr - [in] EXT address
   2552           * @param       keyNvId - [out] NV ID
   2553           *
   2554           * @return      ZStatus_t
   2555           */

   \                                 In  segment BANKED_CODE, align 1, keep-with-next
   2556          ZStatus_t ZDSecMgrLinkKeyNVIdGet(uint8* extAddr, uint16 *pKeyNvId)
   \                     APSME_LinkKeyNVIdGet:
   2557          {
   \   000000   74F7         MOV       A,#-0x9
   \   000002   12....       LCALL     ?BANKED_ENTER_XDATA
   \   000005                ; Saved register size: 9
   \   000005                ; Auto size: 2
   \   000005   74FE         MOV       A,#-0x2
   \   000007   12....       LCALL     ?ALLOC_XSTACK8
   \   00000A   EC           MOV       A,R4
   \   00000B   FE           MOV       R6,A
   \   00000C   ED           MOV       A,R5
   \   00000D   FF           MOV       R7,A
   2558            ZStatus_t status;
   2559            ZDSecMgrEntry_t* entry;
   2560          
   2561            // lookup entry index for specified NWK address
   2562            status = ZDSecMgrEntryLookupExt( extAddr, &entry );
   \   00000E                ; Setup parameters for call to function ZDSecMgrEntryLookupExt
   \   00000E   AC..         MOV       R4,?XSP + 0
   \   000010   AD..         MOV       R5,?XSP + 1
   \   000012   12....       LCALL     `??ZDSecMgrEntryLookupExt::?relay`; Banked call to: ZDSecMgrEntryLookupExt
   \   000015   E9           MOV       A,R1
   \   000016   F9           MOV       R1,A
   2563          
   2564            if ( status == ZSuccess )
   \   000017   7013         JNZ       ??APSME_LinkKeyNVIdGet_0
   2565            {
   2566              // return the index to the NV table
   2567              *pKeyNvId = entry->keyNvId;
   \   000019   85..82       MOV       DPL,?XSP + 0
   \   00001C   85..83       MOV       DPH,?XSP + 1
   \   00001F   12....       LCALL     ?Subroutine29 & 0xFFFF
   2568            }
   \                     ??CrossCallReturnLabel_30:
   \   000022   8E82         MOV       DPL,R6
   \   000024   8F83         MOV       DPH,R7
   \   000026   EA           MOV       A,R2
   \   000027   F0           MOVX      @DPTR,A
   \   000028   A3           INC       DPTR
   \   000029   EB           MOV       A,R3
   \   00002A   8007         SJMP      ??APSME_LinkKeyNVIdGet_1
   2569            else
   2570            {
   2571              *pKeyNvId = SEC_NO_KEY_NV_ID;
   \                     ??APSME_LinkKeyNVIdGet_0:
   \   00002C   8E82         MOV       DPL,R6
   \   00002E   8F83         MOV       DPH,R7
   \   000030   E4           CLR       A
   \   000031   F0           MOVX      @DPTR,A
   \   000032   A3           INC       DPTR
   \                     ??APSME_LinkKeyNVIdGet_1:
   \   000033   F0           MOVX      @DPTR,A
   2572            }
   2573          
   2574            return status;
   \   000034   02....       LJMP      ?Subroutine7 & 0xFFFF
   2575          }
   2576          
   2577          /******************************************************************************
   2578           * @fn          ZDSecMgrIsLinkKeyValid (stubs APSME_IsLinkKeyValid)
   2579           *
   2580           * @brief       Verifies if Link Key in NV has been set.
   2581           *
   2582           * @param       extAddr - [in] EXT address
   2583           *
   2584           * @return      TRUE - Link Key has been established
   2585           *              FALSE - Link Key in NV has default value.
   2586           */

   \                                 In  segment BANKED_CODE, align 1, keep-with-next
   \                     ?Subroutine28:
   \   000000   85..82       MOV       DPL,?XSP + 0
   \   000003   85..83       MOV       DPH,?XSP + 1
   \   000006                REQUIRE ??Subroutine85_0
   \   000006                ; // Fall through to label ??Subroutine85_0

   \                                 In  segment BANKED_CODE, align 1, keep-with-next
   2587          uint8 ZDSecMgrIsLinkKeyValid(uint8* extAddr)
   \                     APSME_IsLinkKeyValid:
   2588          {
   \   000000                REQUIRE ?V0
   \   000000                REQUIRE ?V2
   \   000000                REQUIRE ?V3
   \   000000                REQUIRE ?V4
   \   000000                REQUIRE ?V5
   \   000000                REQUIRE ?V6
   \   000000   74F1         MOV       A,#-0xf
   \   000002   12....       LCALL     ?BANKED_ENTER_XDATA
   \   000005                ; Saved register size: 15
   \   000005                ; Auto size: 18
   \   000005   74EE         MOV       A,#-0x12
   \   000007   12....       LCALL     ?ALLOC_XSTACK8
   \   00000A   EA           MOV       A,R2
   \   00000B   FE           MOV       R6,A
   \   00000C   EB           MOV       A,R3
   \   00000D   FF           MOV       R7,A
   2589            APSME_LinkKeyData_t *pKeyData;
   2590            uint16 apsLinkKeyNvId;
   2591            uint8 nullKey[SEC_KEY_LEN];
   2592            uint8 status = FALSE;
   \   00000E   75..00       MOV       ?V0,#0x0
   2593          
   2594            // initialize default vealue to compare to
   2595            osal_memset(nullKey, 0x00, SEC_KEY_LEN);
   \   000011                ; Setup parameters for call to function osal_memset
   \   000011   7C10         MOV       R4,#0x10
   \   000013   7D00         MOV       R5,#0x0
   \   000015   7900         MOV       R1,#0x0
   \   000017   7402         MOV       A,#0x2
   \   000019   12....       LCALL     ?XSTACK_DISP101_8
   \   00001C   12....       LCALL     `??osal_memset::?relay`; Banked call to: osal_memset
   2596          
   2597            // check for APS link NV ID
   2598            APSME_LinkKeyNVIdGet( extAddr, &apsLinkKeyNvId );
   \   00001F                ; Setup parameters for call to function APSME_LinkKeyNVIdGet
   \   00001F   AC..         MOV       R4,?XSP + 0
   \   000021   AD..         MOV       R5,?XSP + 1
   \   000023   EE           MOV       A,R6
   \   000024   FA           MOV       R2,A
   \   000025   EF           MOV       A,R7
   \   000026   FB           MOV       R3,A
   \   000027   12....       LCALL     `??APSME_LinkKeyNVIdGet::?relay`; Banked call to: APSME_LinkKeyNVIdGet
   2599          
   2600            if (apsLinkKeyNvId != SEC_NO_KEY_NV_ID )
   \   00002A   12....       LCALL     ?Subroutine28 & 0xFFFF
   \                     ??CrossCallReturnLabel_181:
   \   00002D   6059         JZ        ??CrossCallReturnLabel_79
   2601            {
   2602              pKeyData = (APSME_LinkKeyData_t *)osal_mem_alloc(sizeof(APSME_LinkKeyData_t));
   \   00002F                ; Setup parameters for call to function osal_mem_alloc
   \   00002F   12....       LCALL     ?Subroutine47 & 0xFFFF
   2603          
   2604              if (pKeyData != NULL)
   \                     ??CrossCallReturnLabel_69:
   \   000032   6054         JZ        ??CrossCallReturnLabel_79
   2605              {
   2606                // retrieve key from NV
   2607                if ( osal_nv_read( apsLinkKeyNvId, 0,
   2608                                  sizeof(APSME_LinkKeyData_t), pKeyData) == ZSUCCESS)
   \   000034                ; Setup parameters for call to function osal_nv_read
   \   000034   78..         MOV       R0,#?V2
   \   000036   12....       LCALL     ?PUSH_XSTACK_I_TWO
   \   000039   75..18       MOV       ?V4,#0x18
   \   00003C   75..00       MOV       ?V5,#0x0
   \   00003F   78..         MOV       R0,#?V4
   \   000041   12....       LCALL     ?PUSH_XSTACK_I_TWO
   \   000044   7C00         MOV       R4,#0x0
   \   000046   7D00         MOV       R5,#0x0
   \   000048   7404         MOV       A,#0x4
   \   00004A   12....       LCALL     ?XSTACK_DISP0_8
   \   00004D   12....       LCALL     ?Subroutine41 & 0xFFFF
   \                     ??CrossCallReturnLabel_58:
   \   000050   12....       LCALL     ?DEALLOC_XSTACK8
   \   000053   E9           MOV       A,R1
   \   000054   702F         JNZ       ??APSME_IsLinkKeyValid_0
   2609                {
   2610                  // if stored key is different than default value, then a key has been established
   2611                  if (!osal_memcmp(pKeyData, nullKey, SEC_KEY_LEN))
   \   000056                ; Setup parameters for call to function osal_memcmp
   \   000056   7402         MOV       A,#0x2
   \   000058   12....       LCALL     ?XSTACK_DISP100_8
   \   00005B   88..         MOV       ?V4,R0
   \   00005D   89..         MOV       ?V5,R1
   \   00005F   75..00       MOV       ?V6,#0x0
   \   000062   78..         MOV       R0,#?V4
   \   000064   12....       LCALL     ?PUSH_XSTACK_I_THREE
   \   000067   7C10         MOV       R4,#0x10
   \   000069   7D00         MOV       R5,#0x0
   \   00006B   85..82       MOV       DPL,?V2
   \   00006E   85..83       MOV       DPH,?V3
   \   000071   A982         MOV       R1,DPL
   \   000073   AA83         MOV       R2,DPH
   \   000075   7B00         MOV       R3,#0x0
   \   000077   12....       LCALL     `??osal_memcmp::?relay`; Banked call to: osal_memcmp
   \   00007A   7403         MOV       A,#0x3
   \   00007C   12....       LCALL     ?DEALLOC_XSTACK8
   \   00007F   E9           MOV       A,R1
   \   000080   7003         JNZ       ??APSME_IsLinkKeyValid_0
   2612                  {
   2613                    status = TRUE;
   \   000082   75..01       MOV       ?V0,#0x1
   2614                  }
   2615                }
   2616          
   2617                // clear copy of key in RAM
   2618                osal_memset(pKeyData, 0x00, sizeof(APSME_LinkKeyData_t));
   \                     ??APSME_IsLinkKeyValid_0:
   \   000085                ; Setup parameters for call to function osal_memset
   \   000085   12....       LCALL     ?Subroutine52 & 0xFFFF
   2619          
   2620                osal_mem_free(pKeyData);
   2621              }
   2622            }
   2623          
   2624            return status;
   \                     ??CrossCallReturnLabel_79:
   \   000088   A9..         MOV       R1,?V0
   \   00008A   7412         MOV       A,#0x12
   \   00008C   02....       LJMP      ?Subroutine6 & 0xFFFF
   2625          }

   \                                 In  segment BANKED_CODE, align 1, keep-with-next
   \                     ?Subroutine41:
   \   000000   12....       LCALL     ?Subroutine70 & 0xFFFF
   \                     ??CrossCallReturnLabel_153:
   \   000003   12....       LCALL     `??osal_nv_read::?relay`; Banked call to: osal_nv_read
   \   000006   7404         MOV       A,#0x4
   \   000008   22           RET
   2626          
   2627          /******************************************************************************
   2628           * @fn          ZDSecMgrKeyFwdToChild (stubs APSME_KeyFwdToChild)
   2629           *
   2630           * @brief       Verify and process key transportation to child.
   2631           *
   2632           * @param       ind - [in] APSME_TransportKeyInd_t
   2633           *
   2634           * @return      uint8 - success(TRUE:FALSE)
   2635           */

   \                                 In  segment BANKED_CODE, align 1, keep-with-next
   2636          uint8 ZDSecMgrKeyFwdToChild( APSME_TransportKeyInd_t* ind )
   \                     APSME_KeyFwdToChild:
   2637          {
   \   000000                REQUIRE ?V0
   \   000000                REQUIRE ?V1
   \   000000   74F6         MOV       A,#-0xa
   \   000002   12....       LCALL     ?BANKED_ENTER_XDATA
   \   000005                ; Saved register size: 10
   \   000005                ; Auto size: 0
   2638            // verify from Trust Center
   2639            if ( ind->srcAddr == APSME_TRUSTCENTER_NWKADDR )
   \   000005   8A82         MOV       DPL,R2
   \   000007   8B83         MOV       DPH,R3
   \   000009   12....       LCALL     ??Subroutine85_0 & 0xFFFF
   \                     ??CrossCallReturnLabel_180:
   \   00000C   7029         JNZ       ??APSME_KeyFwdToChild_0
   2640            {
   2641              // check for initial NWK key
   2642              if ( ( ind->keyType == KEY_TYPE_NWK ) ||
   2643                   ( ind->keyType == 6            ) )
   \   00000E   8A82         MOV       DPL,R2
   \   000010   8B83         MOV       DPH,R3
   \   000012   A3           INC       DPTR
   \   000013   A3           INC       DPTR
   \   000014   E0           MOVX      A,@DPTR
   \   000015   F8           MOV       R0,A
   \   000016   7401         MOV       A,#0x1
   \   000018   68           XRL       A,R0
   \   000019   6005         JZ        ??APSME_KeyFwdToChild_1
   \   00001B   7406         MOV       A,#0x6
   \   00001D   68           XRL       A,R0
   \   00001E   7013         JNZ       ??APSME_KeyFwdToChild_2
   2644              {
   2645                // set association status to authenticated
   2646                ZDSecMgrAssocDeviceAuth( AssocGetWithExt( ind->dstExtAddr ) );
   \                     ??APSME_KeyFwdToChild_1:
   \   000020                ; Setup parameters for call to function AssocGetWithExt
   \   000020   8A82         MOV       DPL,R2
   \   000022   8B83         MOV       DPH,R3
   \   000024   A3           INC       DPTR
   \   000025   A3           INC       DPTR
   \   000026   A3           INC       DPTR
   \   000027   A3           INC       DPTR
   \   000028   A3           INC       DPTR
   \   000029   A3           INC       DPTR
   \   00002A   12....       LCALL     ??Subroutine80_0 & 0xFFFF
   2647              }
   \                     ??CrossCallReturnLabel_146:
   \   00002D   12....       LCALL     `??AssocGetWithExt::?relay`; Banked call to: AssocGetWithExt
   \   000030                ; Setup parameters for call to function ZDSecMgrAssocDeviceAuth
   \   000030   12....       LCALL     `??ZDSecMgrAssocDeviceAuth::?relay`; Banked call to: ZDSecMgrAssocDeviceAuth
   2648          
   2649              return TRUE;
   \                     ??APSME_KeyFwdToChild_2:
   \   000033   7901         MOV       R1,#0x1
   \   000035   8002         SJMP      ??APSME_KeyFwdToChild_3
   2650            }
   2651          
   2652            return FALSE;
   \                     ??APSME_KeyFwdToChild_0:
   \   000037   7900         MOV       R1,#0x0
   \                     ??APSME_KeyFwdToChild_3:
   \   000039   02....       LJMP      ??Subroutine91_0 & 0xFFFF
   2653          }
   2654          
   2655          /******************************************************************************
   2656           * @fn          ZDSecMgrAddLinkKey
   2657           *
   2658           * @brief       Add the application link key to ZDSecMgr. Also mark the device
   2659           *              as authenticated in the authenticateOption. Note that this function
   2660           *              is hardwared to CBKE right now.
   2661           *
   2662           * @param       shortAddr - short address of the partner device
   2663           * @param       extAddr - extended address of the partner device
   2664           * @param       key - link key
   2665           *
   2666           * @return      ZStatus_t
   2667           */

   \                                 In  segment BANKED_CODE, align 1, keep-with-next
   2668          ZStatus_t ZDSecMgrAddLinkKey( uint16 shortAddr, uint8 *extAddr, uint8 *key)
   \                     ZDSecMgrAddLinkKey:
   2669          {
   \   000000                REQUIRE ?V0
   \   000000                REQUIRE ?V1
   \   000000   74F6         MOV       A,#-0xa
   \   000002   12....       LCALL     ?BANKED_ENTER_XDATA
   \   000005                ; Saved register size: 10
   \   000005                ; Auto size: 4
   \   000005   74FC         MOV       A,#-0x4
   \   000007   12....       LCALL     ?ALLOC_XSTACK8
   \   00000A   EC           MOV       A,R4
   \   00000B   FE           MOV       R6,A
   \   00000C   ED           MOV       A,R5
   \   00000D   FF           MOV       R7,A
   2670            uint16           ami;
   2671            ZDSecMgrEntry_t* entry;
   2672          
   2673            /* Store the device address in the addr manager */
   2674            if( ZDSecMgrAddrStore( shortAddr, extAddr, &ami ) != ZSuccess )
   \   00000E                ; Setup parameters for call to function ZDSecMgrAddrStore
   \   00000E   7402         MOV       A,#0x2
   \   000010   12....       LCALL     ?XSTACK_DISP100_8
   \   000013   88..         MOV       ?V0,R0
   \   000015   89..         MOV       ?V1,R1
   \   000017   78..         MOV       R0,#?V0
   \   000019   12....       LCALL     ?PUSH_XSTACK_I_TWO
   \   00001C   12....       LCALL     ?Subroutine63 & 0xFFFF
   \                     ??CrossCallReturnLabel_104:
   \   00001F   12....       LCALL     ?DEALLOC_XSTACK8
   \   000022   E9           MOV       A,R1
   \   000023   6004         JZ        ??ZDSecMgrAddLinkKey_0
   2675            {
   2676              /* Adding to Addr Manager fails */
   2677              return ZFailure;
   \   000025   7901         MOV       R1,#0x1
   \   000027   8047         SJMP      ??ZDSecMgrAddLinkKey_1
   2678            }
   2679          
   2680            /* Lookup entry using specified address index */
   2681            ZDSecMgrEntryLookupAMI( ami, &entry );
   \                     ??ZDSecMgrAddLinkKey_0:
   \   000029                ; Setup parameters for call to function ZDSecMgrEntryLookupAMI
   \   000029   AC..         MOV       R4,?XSP + 0
   \   00002B   AD..         MOV       R5,?XSP + 1
   \   00002D   7402         MOV       A,#0x2
   \   00002F   12....       LCALL     ?XSTACK_DISP0_8
   \   000032   12....       LCALL     ?Subroutine34 & 0xFFFF
   2682          
   2683            // If no existing entry, create one
   2684            if ( entry == NULL )
   \                     ??CrossCallReturnLabel_43:
   \   000035   12....       LCALL     ?Subroutine28 & 0xFFFF
   \                     ??CrossCallReturnLabel_182:
   \   000038   7019         JNZ       ??CrossCallReturnLabel_204
   2685            {
   2686              if ( ZDSecMgrEntryNew( &entry ) == ZSuccess )
   \   00003A                ; Setup parameters for call to function ZDSecMgrEntryNew
   \   00003A   AA..         MOV       R2,?XSP + 0
   \   00003C   AB..         MOV       R3,?XSP + 1
   \   00003E   12....       LCALL     `??ZDSecMgrEntryNew::?relay`; Banked call to: ZDSecMgrEntryNew
   \   000041   E9           MOV       A,R1
   \   000042   7031         JNZ       ??ZDSecMgrAddLinkKey_2
   2687              {
   2688                entry->ami = ami;
   \   000044   7402         MOV       A,#0x2
   \   000046   12....       LCALL     ?XSTACK_DISP0_8
   \   000049   E0           MOVX      A,@DPTR
   \   00004A   F8           MOV       R0,A
   \   00004B   A3           INC       DPTR
   \   00004C   E0           MOVX      A,@DPTR
   \   00004D   12....       LCALL     ?Subroutine31 & 0xFFFF
   2689              }
   \                     ??CrossCallReturnLabel_242:
   \   000050   12....       LCALL     ??Subroutine86_0 & 0xFFFF
   2690              else
   2691              {
   2692                /* Security Manager full */
   2693                return ZBufferFull;
   2694              }
   2695            }
   2696            // Write the link key
   2697            APSME_LinkKeySet( extAddr, key );
   \                     ??CrossCallReturnLabel_204:
   \   000053                ; Setup parameters for call to function APSME_LinkKeySet
   \   000053   740E         MOV       A,#0xe
   \   000055   12....       LCALL     ?XSTACK_DISP0_8
   \   000058   12....       LCALL     ?Subroutine33 & 0xFFFF
   \                     ??CrossCallReturnLabel_40:
   \   00005B   EE           MOV       A,R6
   \   00005C   FA           MOV       R2,A
   \   00005D   EF           MOV       A,R7
   \   00005E   FB           MOV       R3,A
   \   00005F   12....       LCALL     `??APSME_LinkKeySet::?relay`; Banked call to: APSME_LinkKeySet
   2698          
   2699          #if defined (TC_LINKKEY_JOIN)
   2700            // Mark the device as authenticated.
   2701            ZDSecMgrAuthenticationSet( extAddr, ZDSecMgr_Authenticated_CBCK );
   \   000062                ; Setup parameters for call to function ZDSecMgrAuthenticationSet
   \   000062   7901         MOV       R1,#0x1
   \   000064   EE           MOV       A,R6
   \   000065   FA           MOV       R2,A
   \   000066   EF           MOV       A,R7
   \   000067   FB           MOV       R3,A
   \   000068   12....       LCALL     `??ZDSecMgrAuthenticationSet::?relay`; Banked call to: ZDSecMgrAuthenticationSet
   2702          #endif
   2703          
   2704          #if defined NV_RESTORE
   2705            ZDSecMgrWriteNV();  // Write the new established link key to NV.
   \   00006B                ; Setup parameters for call to function ZDSecMgrWriteNV
   \   00006B   12....       LCALL     `??ZDSecMgrWriteNV::?relay`; Banked call to: ZDSecMgrWriteNV
   2706          #endif
   2707          
   2708            return ZSuccess;
   \   00006E   7900         MOV       R1,#0x0
   \                     ??ZDSecMgrAddLinkKey_1:
   \   000070   7404         MOV       A,#0x4
   \   000072   02....       LJMP      ??Subroutine90_0 & 0xFFFF
   \                     ??ZDSecMgrAddLinkKey_2:
   \   000075   7911         MOV       R1,#0x11
   \   000077   80F7         SJMP      ??ZDSecMgrAddLinkKey_1
   2709          }
   2710          
   2711          /******************************************************************************
   2712           * @fn          ZDSecMgrInitNV
   2713           *
   2714           * @brief       Initialize the SecMgr entry data in NV with all values set to 0
   2715           *
   2716           * @param       none
   2717           *
   2718           * @return      uint8 - <osal_nv_item_init> return codes
   2719           */

   \                                 In  segment BANKED_CODE, align 1, keep-with-next
   2720          uint8 ZDSecMgrInitNV(void)
   \                     ZDSecMgrInitNV:
   2721          {
   \   000000                REQUIRE ?V0
   \   000000                REQUIRE ?V1
   \   000000   74F6         MOV       A,#-0xa
   \   000002   12....       LCALL     ?BANKED_ENTER_XDATA
   \   000005                ; Saved register size: 10
   \   000005                ; Auto size: 2
   \   000005   74FE         MOV       A,#-0x2
   \   000007   12....       LCALL     ?ALLOC_XSTACK8
   2722          
   2723            uint8 rtrn = osal_nv_item_init(ZCD_NV_APS_LINK_KEY_TABLE,
   2724                          (sizeof(nvDeviceListHdr_t) + (sizeof(ZDSecMgrEntry_t) * ZDSECMGR_ENTRY_MAX)), NULL);
   \   00000A                ; Setup parameters for call to function osal_nv_item_init
   \   00000A   E4           CLR       A
   \   00000B   F5..         MOV       ?V0,A
   \   00000D   F5..         MOV       ?V1,A
   \   00000F   78..         MOV       R0,#?V0
   \   000011   12....       LCALL     ?PUSH_XSTACK_I_TWO
   \   000014   7C11         MOV       R4,#0x11
   \   000016   7D00         MOV       R5,#0x0
   \   000018   7A4C         MOV       R2,#0x4c
   \   00001A   7B00         MOV       R3,#0x0
   \   00001C   12....       LCALL     ??Subroutine99_0 & 0xFFFF
   \                     ??CrossCallReturnLabel_248:
   \   00001F   12....       LCALL     ?DEALLOC_XSTACK8
   \   000022   E9           MOV       A,R1
   \   000023   FE           MOV       R6,A
   2725          
   2726            // If the item does not already exist, set all values to 0
   2727            if (rtrn == NV_ITEM_UNINIT)
   \   000024   7409         MOV       A,#0x9
   \   000026   6E           XRL       A,R6
   \   000027   701F         JNZ       ??ZDSecMgrInitNV_0
   2728            {
   2729              nvDeviceListHdr_t hdr;
   2730              hdr.numRecs = 0;
   \   000029   12....       LCALL     ?Subroutine12 & 0xFFFF
   2731              osal_nv_write(ZCD_NV_APS_LINK_KEY_TABLE, 0, sizeof(nvDeviceListHdr_t), &hdr);
   2732            }
   \                     ??CrossCallReturnLabel_4:
   \   00002C   12....       LCALL     ?PUSH_XSTACK_I_TWO
   \   00002F   75..02       MOV       ?V0,#0x2
   \   000032   75..00       MOV       ?V1,#0x0
   \   000035   78..         MOV       R0,#?V0
   \   000037   12....       LCALL     ?PUSH_XSTACK_I_TWO
   \   00003A   7C00         MOV       R4,#0x0
   \   00003C   7D00         MOV       R5,#0x0
   \   00003E   7A4C         MOV       R2,#0x4c
   \   000040   7B00         MOV       R3,#0x0
   \   000042   12....       LCALL     ??Subroutine101_0 & 0xFFFF
   \                     ??CrossCallReturnLabel_268:
   \   000045   12....       LCALL     ?DEALLOC_XSTACK8
   2733          
   2734            rtrn |= osal_nv_item_init( ZCD_NV_TRUSTCENTER_ADDR, Z_EXTADDR_LEN,
   2735                                       zgApsTrustCenterAddr );
   2736          
   2737            return rtrn;
   \                     ??ZDSecMgrInitNV_0:
   \   000048                ; Setup parameters for call to function osal_nv_item_init
   \   000048   75....       MOV       ?V0,#zgApsTrustCenterAddr & 0xff
   \   00004B   75....       MOV       ?V1,#(zgApsTrustCenterAddr >> 8) & 0xff
   \   00004E   78..         MOV       R0,#?V0
   \   000050   12....       LCALL     ?PUSH_XSTACK_I_TWO
   \   000053   7C08         MOV       R4,#0x8
   \   000055   7D00         MOV       R5,#0x0
   \   000057   7A71         MOV       R2,#0x71
   \   000059   7B00         MOV       R3,#0x0
   \   00005B   12....       LCALL     ??Subroutine99_0 & 0xFFFF
   \                     ??CrossCallReturnLabel_249:
   \   00005E   12....       LCALL     ?DEALLOC_XSTACK8
   \   000061   E9           MOV       A,R1
   \   000062   4E           ORL       A,R6
   \   000063   F9           MOV       R1,A
   \   000064   7402         MOV       A,#0x2
   \   000066   02....       LJMP      ??Subroutine90_0 & 0xFFFF
   2738          }

   \                                 In  segment BANKED_CODE, align 1, keep-with-next
   \                     ?Subroutine12:
   \   000000   85..82       MOV       DPL,?XSP + 0
   \   000003   85..83       MOV       DPH,?XSP + 1
   \   000006   E4           CLR       A
   \   000007   F0           MOVX      @DPTR,A
   \   000008   A3           INC       DPTR
   \   000009   F0           MOVX      @DPTR,A
   \   00000A                ; Setup parameters for call to function osal_nv_write
   \   00000A                ; Setup parameters for call to function osal_nv_write
   \   00000A   A8..         MOV       R0,?XSP + 0
   \   00000C   A9..         MOV       R1,?XSP + 1
   \   00000E   88..         MOV       ?V0,R0
   \   000010   89..         MOV       ?V1,R1
   \   000012   78..         MOV       R0,#?V0
   \   000014   22           RET
   2739          
   2740          #if defined ( NV_RESTORE )
   2741          /*********************************************************************
   2742           * @fn      ZDSecMgrWriteNV()
   2743           *
   2744           * @brief   Save off the APS link key list to NV
   2745           *
   2746           * @param   none
   2747           *
   2748           * @return  none
   2749           */

   \                                 In  segment BANKED_CODE, align 1, keep-with-next
   2750          static void ZDSecMgrWriteNV( void )
   \                     ZDSecMgrWriteNV:
   2751          {
   \   000000                REQUIRE ?V0
   \   000000                REQUIRE ?V1
   \   000000                REQUIRE ?V2
   \   000000                REQUIRE ?V3
   \   000000   74F4         MOV       A,#-0xc
   \   000002   12....       LCALL     ?BANKED_ENTER_XDATA
   \   000005                ; Saved register size: 12
   \   000005                ; Auto size: 2
   \   000005   74FE         MOV       A,#-0x2
   \   000007   12....       LCALL     ?ALLOC_XSTACK8
   2752            uint16 i;
   2753            nvDeviceListHdr_t hdr;
   2754          
   2755            hdr.numRecs = 0;
   \   00000A   85..82       MOV       DPL,?XSP + 0
   \   00000D   85..83       MOV       DPH,?XSP + 1
   \   000010   12....       LCALL     ?Subroutine10 & 0xFFFF
   2756          
   2757            if (ZDSecMgrEntries != NULL)
   \                     ??CrossCallReturnLabel_3:
   \   000013   606F         JZ        ??ZDSecMgrWriteNV_0
   2758            {
   2759              for ( i = 0; i < ZDSECMGR_ENTRY_MAX; i++ )
   \   000015   7E00         MOV       R6,#0x0
   \   000017   7F00         MOV       R7,#0x0
   2760              {
   2761                // Save off the record
   2762                osal_nv_write( ZCD_NV_APS_LINK_KEY_TABLE,
   2763                              (uint16)((sizeof(nvDeviceListHdr_t)) + (i * sizeof(ZDSecMgrEntry_t))),
   2764                              sizeof(ZDSecMgrEntry_t), &ZDSecMgrEntries[i] );
   \                     ??ZDSecMgrWriteNV_1:
   \   000019   8E..         MOV       ?V0,R6
   \   00001B   8F..         MOV       ?V1,R7
   \   00001D   E5..         MOV       A,?V0
   \   00001F   75F005       MOV       B,#0x5
   \   000022   A4           MUL       AB
   \   000023   F5..         MOV       ?V0,A
   \   000025   A8F0         MOV       R0,B
   \   000027   75F005       MOV       B,#0x5
   \   00002A   E5..         MOV       A,?V1
   \   00002C   A4           MUL       AB
   \   00002D   28           ADD       A,R0
   \   00002E   F5..         MOV       ?V1,A
   \   000030                ; Setup parameters for call to function osal_nv_write
   \   000030   90....       MOV       DPTR,#ZDSecMgrEntries
   \   000033   E0           MOVX      A,@DPTR
   \   000034   25..         ADD       A,?V0
   \   000036   F5..         MOV       ?V2,A
   \   000038   A3           INC       DPTR
   \   000039   E0           MOVX      A,@DPTR
   \   00003A   35..         ADDC      A,?V1
   \   00003C   F5..         MOV       ?V3,A
   \   00003E   78..         MOV       R0,#?V2
   \   000040   12....       LCALL     ?PUSH_XSTACK_I_TWO
   \   000043   75..05       MOV       ?V2,#0x5
   \   000046   75..00       MOV       ?V3,#0x0
   \   000049   78..         MOV       R0,#?V2
   \   00004B   12....       LCALL     ?PUSH_XSTACK_I_TWO
   \   00004E   12....       LCALL     ?Subroutine45 & 0xFFFF
   \                     ??CrossCallReturnLabel_64:
   \   000051   12....       LCALL     ?DEALLOC_XSTACK8
   2765          
   2766                if ( ZDSecMgrEntries[i].ami != INVALID_NODE_ADDR )
   \   000054   90....       MOV       DPTR,#ZDSecMgrEntries
   \   000057   E0           MOVX      A,@DPTR
   \   000058   25..         ADD       A,?V0
   \   00005A   F8           MOV       R0,A
   \   00005B   A3           INC       DPTR
   \   00005C   E0           MOVX      A,@DPTR
   \   00005D   35..         ADDC      A,?V1
   \   00005F   8882         MOV       DPL,R0
   \   000061   F583         MOV       DPH,A
   \   000063   E0           MOVX      A,@DPTR
   \   000064   64FE         XRL       A,#0xfe
   \   000066   7003         JNZ       ??ZDSecMgrWriteNV_2
   \   000068   A3           INC       DPTR
   \   000069   E0           MOVX      A,@DPTR
   \   00006A   F4           CPL       A
   \                     ??ZDSecMgrWriteNV_2:
   \   00006B   600A         JZ        ??ZDSecMgrWriteNV_3
   2767                {
   2768                  hdr.numRecs++;
   \   00006D   85..82       MOV       DPL,?XSP + 0
   \   000070   85..83       MOV       DPH,?XSP + 1
   \   000073   12....       LCALL     ?Subroutine43 & 0xFFFF
   2769                }
   2770              }
   \                     ??CrossCallReturnLabel_61:
   \   000076   F0           MOVX      @DPTR,A
   \                     ??ZDSecMgrWriteNV_3:
   \   000077   0E           INC       R6
   \   000078   EE           MOV       A,R6
   \   000079   7001         JNZ       ??ZDSecMgrWriteNV_4
   \   00007B   0F           INC       R7
   \                     ??ZDSecMgrWriteNV_4:
   \   00007C   C3           CLR       C
   \   00007D   9403         SUBB      A,#0x3
   \   00007F   EF           MOV       A,R7
   \   000080   9400         SUBB      A,#0x0
   \   000082   4095         JC        ??ZDSecMgrWriteNV_1
   2771            }
   2772          
   2773            // Save off the header
   2774            osal_nv_write( ZCD_NV_APS_LINK_KEY_TABLE, 0, sizeof( nvDeviceListHdr_t ), &hdr );
   \                     ??ZDSecMgrWriteNV_0:
   \   000084                ; Setup parameters for call to function osal_nv_write
   \   000084   A8..         MOV       R0,?XSP + 0
   \   000086   A9..         MOV       R1,?XSP + 1
   \   000088   88..         MOV       ?V0,R0
   \   00008A   89..         MOV       ?V1,R1
   \   00008C   78..         MOV       R0,#?V0
   \   00008E   12....       LCALL     ?PUSH_XSTACK_I_TWO
   \   000091   75..02       MOV       ?V0,#0x2
   \   000094   75..00       MOV       ?V1,#0x0
   \   000097   78..         MOV       R0,#?V0
   \   000099   12....       LCALL     ?PUSH_XSTACK_I_TWO
   \   00009C   7C00         MOV       R4,#0x0
   \   00009E   7D00         MOV       R5,#0x0
   \   0000A0   7A4C         MOV       R2,#0x4c
   \   0000A2   7B00         MOV       R3,#0x0
   \   0000A4   12....       LCALL     ??Subroutine101_0 & 0xFFFF
   \                     ??CrossCallReturnLabel_269:
   \   0000A7   12....       LCALL     ?DEALLOC_XSTACK8
   2775          }
   \   0000AA   7402         MOV       A,#0x2
   \   0000AC                REQUIRE ?Subroutine3
   \   0000AC                ; // Fall through to label ?Subroutine3

   \                                 In  segment BANKED_CODE, align 1, keep-with-next
   \                     ?Subroutine45:
   \   000000   EE           MOV       A,R6
   \   000001   F8           MOV       R0,A
   \   000002   EF           MOV       A,R7
   \   000003   F9           MOV       R1,A
   \   000004   E8           MOV       A,R0
   \   000005   75F005       MOV       B,#0x5
   \   000008   A4           MUL       AB
   \   000009   F8           MOV       R0,A
   \   00000A   AAF0         MOV       R2,B
   \   00000C   75F005       MOV       B,#0x5
   \   00000F   E9           MOV       A,R1
   \   000010   A4           MUL       AB
   \   000011   2A           ADD       A,R2
   \   000012   F9           MOV       R1,A
   \   000013   E8           MOV       A,R0
   \   000014   2402         ADD       A,#0x2
   \   000016   FC           MOV       R4,A
   \   000017   E4           CLR       A
   \   000018   39           ADDC      A,R1
   \   000019   FD           MOV       R5,A
   \   00001A   7A4C         MOV       R2,#0x4c
   \   00001C   7B00         MOV       R3,#0x0
   \   00001E   12....       LCALL     `??osal_nv_write::?relay`; Banked call to: osal_nv_write
   \   000021   7404         MOV       A,#0x4
   \   000023   22           RET
   2776          #endif // NV_RESTORE
   2777          
   2778          #if defined ( NV_RESTORE )
   2779          /******************************************************************************
   2780           * @fn          ZDSecMgrRestoreFromNV
   2781           *
   2782           * @brief       Restore the APS Link Key entry data from NV. It does not restore
   2783           *              the key data itself as they remain in NV until they are used.
   2784           *              Only list data is restored.
   2785           *              Restore zgTrustCenterAdress from NV.
   2786           *
   2787           * @param       none
   2788           *
   2789           * @return      None.
   2790           */

   \                                 In  segment BANKED_CODE, align 1, keep-with-next
   2791          static void ZDSecMgrRestoreFromNV( void )
   \                     ZDSecMgrRestoreFromNV:
   2792          {
   \   000000                REQUIRE ?V0
   \   000000                REQUIRE ?V1
   \   000000                REQUIRE ?V2
   \   000000                REQUIRE ?V3
   \   000000                REQUIRE ?V4
   \   000000                REQUIRE ?V5
   \   000000                REQUIRE ?V6
   \   000000                REQUIRE ?V7
   \   000000                REQUIRE ?V8
   \   000000                REQUIRE ?V9
   \   000000   74EE         MOV       A,#-0x12
   \   000002   12....       LCALL     ?BANKED_ENTER_XDATA
   \   000005                ; Saved register size: 18
   \   000005                ; Auto size: 2
   \   000005   74FE         MOV       A,#-0x2
   \   000007   12....       LCALL     ?ALLOC_XSTACK8
   2793            nvDeviceListHdr_t hdr;
   2794            APSME_LinkKeyData_t *pApsLinkKey = NULL;
   2795          
   2796            if ((osal_nv_read(ZCD_NV_APS_LINK_KEY_TABLE, 0, sizeof(nvDeviceListHdr_t), &hdr) == ZSUCCESS) &&
   2797                ((hdr.numRecs > 0) && (hdr.numRecs <= ZDSECMGR_ENTRY_MAX)))
   \   00000A                ; Setup parameters for call to function osal_nv_read
   \   00000A   A8..         MOV       R0,?XSP + 0
   \   00000C   A9..         MOV       R1,?XSP + 1
   \   00000E   88..         MOV       ?V0,R0
   \   000010   89..         MOV       ?V1,R1
   \   000012   78..         MOV       R0,#?V0
   \   000014   12....       LCALL     ?PUSH_XSTACK_I_TWO
   \   000017   75..02       MOV       ?V0,#0x2
   \   00001A   75..00       MOV       ?V1,#0x0
   \   00001D   78..         MOV       R0,#?V0
   \   00001F   12....       LCALL     ?PUSH_XSTACK_I_TWO
   \   000022   12....       LCALL     ?Subroutine56 & 0xFFFF
   \                     ??CrossCallReturnLabel_294:
   \   000025   12....       LCALL     ?DEALLOC_XSTACK8
   \   000028   E9           MOV       A,R1
   \   000029   6003         JZ        $+5
   \   00002B   02....       LJMP      ??ZDSecMgrRestoreFromNV_0 & 0xFFFF
   \   00002E   12....       LCALL     ?Subroutine28 & 0xFFFF
   \                     ??CrossCallReturnLabel_183:
   \   000031   7003         JNZ       $+5
   \   000033   02....       LJMP      ??ZDSecMgrRestoreFromNV_0 & 0xFFFF
   \   000036   85..82       MOV       DPL,?XSP + 0
   \   000039   85..83       MOV       DPH,?XSP + 1
   \   00003C   C3           CLR       C
   \   00003D   E0           MOVX      A,@DPTR
   \   00003E   9404         SUBB      A,#0x4
   \   000040   A3           INC       DPTR
   \   000041   E0           MOVX      A,@DPTR
   \   000042   9400         SUBB      A,#0x0
   \   000044   4003         JC        $+5
   \   000046   02....       LJMP      ??ZDSecMgrRestoreFromNV_0 & 0xFFFF
   2798            {
   2799              uint8 x;
   2800          
   2801              pApsLinkKey = (APSME_LinkKeyData_t *)osal_mem_alloc(sizeof(APSME_LinkKeyData_t));
   \   000049                ; Setup parameters for call to function osal_mem_alloc
   \   000049   7A18         MOV       R2,#0x18
   \   00004B   7B00         MOV       R3,#0x0
   \   00004D   12....       LCALL     `??osal_mem_alloc::?relay`; Banked call to: osal_mem_alloc
   \   000050   8A..         MOV       ?V8,R2
   \   000052   8B..         MOV       ?V9,R3
   2802          
   2803              for (x = 0; x < ZDSECMGR_ENTRY_MAX; x++)
   \   000054   75..00       MOV       ?V0,#0x0
   \   000057   EA           MOV       A,R2
   \   000058   2410         ADD       A,#0x10
   \   00005A   F5..         MOV       ?V2,A
   \   00005C   E4           CLR       A
   \   00005D   35..         ADDC      A,?V9
   \   00005F   F5..         MOV       ?V3,A
   2804              {
   2805                if ( osal_nv_read( ZCD_NV_APS_LINK_KEY_TABLE,
   2806                                  (uint16)(sizeof(nvDeviceListHdr_t) + (x * sizeof(ZDSecMgrEntry_t))),
   2807                                  sizeof(ZDSecMgrEntry_t), &ZDSecMgrEntries[x] ) == SUCCESS )
   \                     ??ZDSecMgrRestoreFromNV_1:
   \   000061   E5..         MOV       A,?V0
   \   000063   75F005       MOV       B,#0x5
   \   000066   A4           MUL       AB
   \   000067   FE           MOV       R6,A
   \   000068   AFF0         MOV       R7,B
   \   00006A                ; Setup parameters for call to function osal_nv_read
   \   00006A   90....       MOV       DPTR,#ZDSecMgrEntries
   \   00006D   E0           MOVX      A,@DPTR
   \   00006E   2E           ADD       A,R6
   \   00006F   F5..         MOV       ?V4,A
   \   000071   A3           INC       DPTR
   \   000072   E0           MOVX      A,@DPTR
   \   000073   3F           ADDC      A,R7
   \   000074   F5..         MOV       ?V5,A
   \   000076   78..         MOV       R0,#?V4
   \   000078   12....       LCALL     ?PUSH_XSTACK_I_TWO
   \   00007B   75..05       MOV       ?V4,#0x5
   \   00007E   75..00       MOV       ?V5,#0x0
   \   000081   78..         MOV       R0,#?V4
   \   000083   12....       LCALL     ?PUSH_XSTACK_I_TWO
   \   000086   EF           MOV       A,R7
   \   000087   F9           MOV       R1,A
   \   000088   EE           MOV       A,R6
   \   000089   2402         ADD       A,#0x2
   \   00008B   FC           MOV       R4,A
   \   00008C   E4           CLR       A
   \   00008D   39           ADDC      A,R1
   \   00008E   FD           MOV       R5,A
   \   00008F   12....       LCALL     ??Subroutine106_0 & 0xFFFF
   \                     ??CrossCallReturnLabel_295:
   \   000092   12....       LCALL     ?DEALLOC_XSTACK8
   \   000095   E9           MOV       A,R1
   \   000096   6003         JZ        $+5
   \   000098   02....       LJMP      ??ZDSecMgrRestoreFromNV_2 & 0xFFFF
   2808                {
   2809                  // update data only for valid entries
   2810                  if ( ZDSecMgrEntries[x].ami != INVALID_NODE_ADDR )
   \   00009B   90....       MOV       DPTR,#ZDSecMgrEntries
   \   00009E   E0           MOVX      A,@DPTR
   \   00009F   2E           ADD       A,R6
   \   0000A0   F8           MOV       R0,A
   \   0000A1   A3           INC       DPTR
   \   0000A2   E0           MOVX      A,@DPTR
   \   0000A3   3F           ADDC      A,R7
   \   0000A4   F9           MOV       R1,A
   \   0000A5   E8           MOV       A,R0
   \   0000A6   FA           MOV       R2,A
   \   0000A7   E9           MOV       A,R1
   \   0000A8   8882         MOV       DPL,R0
   \   0000AA   F583         MOV       DPH,A
   \   0000AC   E0           MOVX      A,@DPTR
   \   0000AD   64FE         XRL       A,#0xfe
   \   0000AF   7003         JNZ       ??ZDSecMgrRestoreFromNV_3
   \   0000B1   A3           INC       DPTR
   \   0000B2   E0           MOVX      A,@DPTR
   \   0000B3   F4           CPL       A
   \                     ??ZDSecMgrRestoreFromNV_3:
   \   0000B4   7003         JNZ       $+5
   \   0000B6   02....       LJMP      ??ZDSecMgrRestoreFromNV_2 & 0xFFFF
   2811                  {
   2812                    if (pApsLinkKey != NULL)
   \   0000B9   E5..         MOV       A,?V8
   \   0000BB   45..         ORL       A,?V9
   \   0000BD   7003         JNZ       $+5
   \   0000BF   02....       LJMP      ??ZDSecMgrRestoreFromNV_2 & 0xFFFF
   2813                    {
   2814                      // read the key form NV, keyNvId must be ZCD_NV_APS_LINK_KEY_DATA_START based
   2815                      osal_nv_read( ZDSecMgrEntries[x].keyNvId, 0,
   2816                                   sizeof(APSME_LinkKeyData_t), pApsLinkKey );
   \   0000C2                ; Setup parameters for call to function osal_nv_read
   \   0000C2   78..         MOV       R0,#?V8
   \   0000C4   12....       LCALL     ?PUSH_XSTACK_I_TWO
   \   0000C7   75..18       MOV       ?V4,#0x18
   \   0000CA   78..         MOV       R0,#?V4
   \   0000CC   12....       LCALL     ?PUSH_XSTACK_I_TWO
   \   0000CF   7C00         MOV       R4,#0x0
   \   0000D1   7D00         MOV       R5,#0x0
   \   0000D3   8A82         MOV       DPL,R2
   \   0000D5   8983         MOV       DPH,R1
   \   0000D7   A3           INC       DPTR
   \   0000D8   A3           INC       DPTR
   \   0000D9   12....       LCALL     ?Subroutine41 & 0xFFFF
   \                     ??CrossCallReturnLabel_59:
   \   0000DC   12....       LCALL     ?DEALLOC_XSTACK8
   2817          
   2818                      // set new values for the counter
   2819                      pApsLinkKey->txFrmCntr += ( MAX_APS_FRAMECOUNTER_CHANGES + 1 );
   \   0000DF   90....       MOV       DPTR,#__Constant_3e9
   \   0000E2   78..         MOV       R0,#?V4
   \   0000E4   12....       LCALL     ?L_MOV_X
   \   0000E7   85..82       MOV       DPL,?V2
   \   0000EA   85..83       MOV       DPH,?V3
   \   0000ED   78..         MOV       R0,#?V4
   \   0000EF   12....       LCALL     ?L_ADD_TO_X
   \   0000F2   12....       LCALL     ?Subroutine40 & 0xFFFF
   \                     ??CrossCallReturnLabel_57:
   \   0000F5   A3           INC       DPTR
   \   0000F6   A3           INC       DPTR
   \   0000F7   E0           MOVX      A,@DPTR
   \   0000F8   FE           MOV       R6,A
   \   0000F9   A3           INC       DPTR
   \   0000FA   E0           MOVX      A,@DPTR
   \   0000FB   FF           MOV       R7,A
   \   0000FC   EE           MOV       A,R6
   \   0000FD   75F009       MOV       B,#0x9
   \   000100   A4           MUL       AB
   \   000101   F8           MOV       R0,A
   \   000102   AAF0         MOV       R2,B
   \   000104   75F009       MOV       B,#0x9
   \   000107   EF           MOV       A,R7
   \   000108   A4           MUL       AB
   \   000109   2A           ADD       A,R2
   \   00010A   F9           MOV       R1,A
   \   00010B   74..         MOV       A,#ApsLinkKeyFrmCntr & 0xff
   \   00010D   28           ADD       A,R0
   \   00010E   FC           MOV       R4,A
   \   00010F   74..         MOV       A,#(ApsLinkKeyFrmCntr >> 8) & 0xff
   \   000111   39           ADDC      A,R1
   \   000112   FD           MOV       R5,A
   \   000113   85..82       MOV       DPL,?V2
   \   000116   85..83       MOV       DPH,?V3
   \   000119   12....       LCALL     ?XLOAD_R0123
   \   00011C   EC           MOV       A,R4
   \   00011D   24F7         ADD       A,#-0x9
   \   00011F   F582         MOV       DPL,A
   \   000121   ED           MOV       A,R5
   \   000122   34ED         ADDC      A,#-0x13
   \   000124   F583         MOV       DPH,A
   \   000126   12....       LCALL     ?XSTORE_R0123
   2820          
   2821                      // restore values for counters in RAM
   2822                      ApsLinkKeyFrmCntr[ZDSecMgrEntries[x].keyNvId - ZCD_NV_APS_LINK_KEY_DATA_START].txFrmCntr =
   2823                                                      pApsLinkKey->txFrmCntr;
   2824          
   2825                      ApsLinkKeyFrmCntr[ZDSecMgrEntries[x].keyNvId - ZCD_NV_APS_LINK_KEY_DATA_START].rxFrmCntr =
   2826                                                      pApsLinkKey->rxFrmCntr;
   \   000129   E5..         MOV       A,?V8
   \   00012B   2414         ADD       A,#0x14
   \   00012D   F582         MOV       DPL,A
   \   00012F   E4           CLR       A
   \   000130   35..         ADDC      A,?V9
   \   000132   F583         MOV       DPH,A
   \   000134   12....       LCALL     ?XLOAD_R0123
   \   000137   EC           MOV       A,R4
   \   000138   24FB         ADD       A,#-0x5
   \   00013A   F582         MOV       DPL,A
   \   00013C   ED           MOV       A,R5
   \   00013D   34ED         ADDC      A,#-0x13
   \   00013F   F583         MOV       DPH,A
   \   000141   12....       LCALL     ?XSTORE_R0123
   2827          
   2828                      osal_nv_write( ZDSecMgrEntries[x].keyNvId, 0,
   2829                                    sizeof(APSME_LinkKeyData_t), pApsLinkKey );
   \   000144                ; Setup parameters for call to function osal_nv_write
   \   000144   78..         MOV       R0,#?V8
   \   000146   12....       LCALL     ?PUSH_XSTACK_I_TWO
   \   000149   75..18       MOV       ?V4,#0x18
   \   00014C   75..00       MOV       ?V5,#0x0
   \   00014F   78..         MOV       R0,#?V4
   \   000151   12....       LCALL     ?PUSH_XSTACK_I_TWO
   \   000154   12....       LCALL     ?Subroutine55 & 0xFFFF
   \                     ??CrossCallReturnLabel_255:
   \   000157   12....       LCALL     ?DEALLOC_XSTACK8
   2830          
   2831                      // clear copy of key in RAM
   2832                      osal_memset(pApsLinkKey, 0x00, sizeof(APSME_LinkKeyData_t));
   \   00015A                ; Setup parameters for call to function osal_memset
   \   00015A   7C18         MOV       R4,#0x18
   \   00015C   7D00         MOV       R5,#0x0
   \   00015E   7900         MOV       R1,#0x0
   \   000160   AA..         MOV       R2,?V8
   \   000162   AB..         MOV       R3,?V9
   \   000164   12....       LCALL     `??osal_memset::?relay`; Banked call to: osal_memset
   2833                    }
   2834                  }
   2835                }
   2836              }
   \                     ??ZDSecMgrRestoreFromNV_2:
   \   000167   05..         INC       ?V0
   \   000169   E5..         MOV       A,?V0
   \   00016B   C3           CLR       C
   \   00016C   9403         SUBB      A,#0x3
   \   00016E   5003         JNC       $+5
   \   000170   02....       LJMP      ??ZDSecMgrRestoreFromNV_1 & 0xFFFF
   2837          
   2838              if (pApsLinkKey != NULL)
   \   000173   E5..         MOV       A,?V8
   \   000175   45..         ORL       A,?V9
   \   000177   6007         JZ        ??ZDSecMgrRestoreFromNV_0
   2839              {
   2840                osal_mem_free(pApsLinkKey);
   \   000179                ; Setup parameters for call to function osal_mem_free
   \   000179   AA..         MOV       R2,?V8
   \   00017B   AB..         MOV       R3,?V9
   \   00017D   12....       LCALL     `??osal_mem_free::?relay`; Banked call to: osal_mem_free
   2841              }
   2842            }
   2843          
   2844            osal_nv_read( ZCD_NV_TRUSTCENTER_ADDR, 0, Z_EXTADDR_LEN, zgApsTrustCenterAddr );
   \                     ??ZDSecMgrRestoreFromNV_0:
   \   000180                ; Setup parameters for call to function osal_nv_read
   \   000180   75....       MOV       ?V0,#zgApsTrustCenterAddr & 0xff
   \   000183   75....       MOV       ?V1,#(zgApsTrustCenterAddr >> 8) & 0xff
   \   000186   78..         MOV       R0,#?V0
   \   000188   12....       LCALL     ?PUSH_XSTACK_I_TWO
   \   00018B   75..08       MOV       ?V0,#0x8
   \   00018E   75..00       MOV       ?V1,#0x0
   \   000191   78..         MOV       R0,#?V0
   \   000193   12....       LCALL     ?PUSH_XSTACK_I_TWO
   \   000196   7C00         MOV       R4,#0x0
   \   000198   7D00         MOV       R5,#0x0
   \   00019A   7A71         MOV       R2,#0x71
   \   00019C   12....       LCALL     ??Subroutine107_0 & 0xFFFF
   \                     ??CrossCallReturnLabel_296:
   \   00019F   12....       LCALL     ?DEALLOC_XSTACK8
   2845          }
   \   0001A2   7402         MOV       A,#0x2
   \   0001A4   02....       LJMP      ?Subroutine5 & 0xFFFF
   2846          #endif // NV_RESTORE
   2847          
   2848          /*********************************************************************
   2849           * @fn          ZDSecMgrSetDefaultNV
   2850           *
   2851           * @brief       Write the defaults to NV for Entry table and for APS key data table
   2852           *
   2853           * @param       none
   2854           *
   2855           * @return      none
   2856           */

   \                                 In  segment BANKED_CODE, align 1, keep-with-next
   2857          void ZDSecMgrSetDefaultNV( void )
   \                     ZDSecMgrSetDefaultNV:
   2858          {
   \   000000                REQUIRE ?V0
   \   000000                REQUIRE ?V1
   \   000000                REQUIRE ?V2
   \   000000                REQUIRE ?V3
   \   000000   74F4         MOV       A,#-0xc
   \   000002   12....       LCALL     ?BANKED_ENTER_XDATA
   \   000005                ; Saved register size: 12
   \   000005                ; Auto size: 7
   \   000005   74F9         MOV       A,#-0x7
   \   000007   12....       LCALL     ?ALLOC_XSTACK8
   2859            uint16 i;
   2860            nvDeviceListHdr_t hdr;
   2861            ZDSecMgrEntry_t secMgrEntry;
   2862            APSME_LinkKeyData_t *pApsLinkKey = NULL;
   2863          
   2864            // Initialize the header
   2865            hdr.numRecs = 0;
   \   00000A   12....       LCALL     ?Subroutine12 & 0xFFFF
   2866          
   2867            // clear the header
   2868            osal_nv_write(ZCD_NV_APS_LINK_KEY_TABLE, 0, sizeof(nvDeviceListHdr_t), &hdr);
   \                     ??CrossCallReturnLabel_5:
   \   00000D   12....       LCALL     ?PUSH_XSTACK_I_TWO
   \   000010   75..02       MOV       ?V0,#0x2
   \   000013   75..00       MOV       ?V1,#0x0
   \   000016   78..         MOV       R0,#?V0
   \   000018   12....       LCALL     ?PUSH_XSTACK_I_TWO
   \   00001B   7C00         MOV       R4,#0x0
   \   00001D   7D00         MOV       R5,#0x0
   \   00001F   7A4C         MOV       R2,#0x4c
   \   000021   7B00         MOV       R3,#0x0
   \   000023   12....       LCALL     ??Subroutine101_0 & 0xFFFF
   \                     ??CrossCallReturnLabel_270:
   \   000026   12....       LCALL     ?DEALLOC_XSTACK8
   2869          
   2870            osal_memset( &secMgrEntry, 0x00, sizeof(ZDSecMgrEntry_t) );
   \   000029                ; Setup parameters for call to function osal_memset
   \   000029   7C05         MOV       R4,#0x5
   \   00002B   7D00         MOV       R5,#0x0
   \   00002D   7900         MOV       R1,#0x0
   \   00002F   7402         MOV       A,#0x2
   \   000031   12....       LCALL     ?XSTACK_DISP101_8
   \   000034   12....       LCALL     `??osal_memset::?relay`; Banked call to: osal_memset
   2871          
   2872            for ( i = 0; i < ZDSECMGR_ENTRY_MAX; i++ )
   \   000037   7E00         MOV       R6,#0x0
   \   000039   7F00         MOV       R7,#0x0
   2873            {
   2874              // Clear the record
   2875              osal_nv_write( ZCD_NV_APS_LINK_KEY_TABLE,
   2876                          (uint16)((sizeof(nvDeviceListHdr_t)) + (i * sizeof(ZDSecMgrEntry_t))),
   2877                                  sizeof(ZDSecMgrEntry_t), &secMgrEntry );
   \                     ??ZDSecMgrSetDefaultNV_0:
   \   00003B                ; Setup parameters for call to function osal_nv_write
   \   00003B   7402         MOV       A,#0x2
   \   00003D   12....       LCALL     ?XSTACK_DISP100_8
   \   000040   88..         MOV       ?V0,R0
   \   000042   89..         MOV       ?V1,R1
   \   000044   78..         MOV       R0,#?V0
   \   000046   12....       LCALL     ?PUSH_XSTACK_I_TWO
   \   000049   75..05       MOV       ?V0,#0x5
   \   00004C   75..00       MOV       ?V1,#0x0
   \   00004F   78..         MOV       R0,#?V0
   \   000051   12....       LCALL     ?PUSH_XSTACK_I_TWO
   \   000054   12....       LCALL     ?Subroutine45 & 0xFFFF
   2878            }
   \                     ??CrossCallReturnLabel_65:
   \   000057   12....       LCALL     ?DEALLOC_XSTACK8
   \   00005A   0E           INC       R6
   \   00005B   EE           MOV       A,R6
   \   00005C   7001         JNZ       ??ZDSecMgrSetDefaultNV_1
   \   00005E   0F           INC       R7
   \                     ??ZDSecMgrSetDefaultNV_1:
   \   00005F   C3           CLR       C
   \   000060   9403         SUBB      A,#0x3
   \   000062   EF           MOV       A,R7
   \   000063   9400         SUBB      A,#0x0
   \   000065   40D4         JC        ??ZDSecMgrSetDefaultNV_0
   2879          
   2880            pApsLinkKey = (APSME_LinkKeyData_t *)osal_mem_alloc(sizeof(APSME_LinkKeyData_t));
   \   000067                ; Setup parameters for call to function osal_mem_alloc
   \   000067   7A18         MOV       R2,#0x18
   \   000069   7B00         MOV       R3,#0x0
   \   00006B   12....       LCALL     `??osal_mem_alloc::?relay`; Banked call to: osal_mem_alloc
   \   00006E   8A..         MOV       ?V0,R2
   \   000070   8B..         MOV       ?V1,R3
   2881          
   2882            if (pApsLinkKey != NULL)
   \   000072   EA           MOV       A,R2
   \   000073   4B           ORL       A,R3
   \   000074   6042         JZ        ??ZDSecMgrSetDefaultNV_2
   2883            {
   2884              osal_memset( pApsLinkKey, 0x00, sizeof(APSME_LinkKeyData_t) );
   \   000076                ; Setup parameters for call to function osal_memset
   \   000076   7C18         MOV       R4,#0x18
   \   000078   7D00         MOV       R5,#0x0
   \   00007A   7900         MOV       R1,#0x0
   \   00007C   12....       LCALL     `??osal_memset::?relay`; Banked call to: osal_memset
   2885          
   2886              for ( i = 0; i < ZDSECMGR_ENTRY_MAX; i++ )
   \   00007F   7E00         MOV       R6,#0x0
   \   000081   7F00         MOV       R7,#0x0
   2887              {
   2888                // Clear the record
   2889                osal_nv_write( (ZCD_NV_APS_LINK_KEY_DATA_START + i), 0,
   2890                              sizeof(APSME_LinkKeyData_t), pApsLinkKey);
   \                     ??ZDSecMgrSetDefaultNV_3:
   \   000083                ; Setup parameters for call to function osal_nv_write
   \   000083   78..         MOV       R0,#?V0
   \   000085   12....       LCALL     ?PUSH_XSTACK_I_TWO
   \   000088   75..18       MOV       ?V2,#0x18
   \   00008B   75..00       MOV       ?V3,#0x0
   \   00008E   78..         MOV       R0,#?V2
   \   000090   12....       LCALL     ?PUSH_XSTACK_I_TWO
   \   000093   7C00         MOV       R4,#0x0
   \   000095   7D00         MOV       R5,#0x0
   \   000097   EE           MOV       A,R6
   \   000098   2401         ADD       A,#0x1
   \   00009A   FA           MOV       R2,A
   \   00009B   EF           MOV       A,R7
   \   00009C   3402         ADDC      A,#0x2
   \   00009E   12....       LCALL     ??Subroutine100_0 & 0xFFFF
   2891              }
   \                     ??CrossCallReturnLabel_261:
   \   0000A1   12....       LCALL     ?DEALLOC_XSTACK8
   \   0000A4   0E           INC       R6
   \   0000A5   EE           MOV       A,R6
   \   0000A6   7001         JNZ       ??ZDSecMgrSetDefaultNV_4
   \   0000A8   0F           INC       R7
   \                     ??ZDSecMgrSetDefaultNV_4:
   \   0000A9   C3           CLR       C
   \   0000AA   9403         SUBB      A,#0x3
   \   0000AC   EF           MOV       A,R7
   \   0000AD   9400         SUBB      A,#0x0
   \   0000AF   40D2         JC        ??ZDSecMgrSetDefaultNV_3
   2892          
   2893              osal_mem_free(pApsLinkKey);
   \   0000B1                ; Setup parameters for call to function osal_mem_free
   \   0000B1   AA..         MOV       R2,?V0
   \   0000B3   AB..         MOV       R3,?V1
   \   0000B5   12....       LCALL     `??osal_mem_free::?relay`; Banked call to: osal_mem_free
   2894            }
   2895          }
   \                     ??ZDSecMgrSetDefaultNV_2:
   \   0000B8   7407         MOV       A,#0x7
   \   0000BA   02....       LJMP      ?Subroutine3 & 0xFFFF
   2896          
   2897          #if defined ( NV_RESTORE )
   2898          /*********************************************************************
   2899           * @fn      ZDSecMgrUpdateNV()
   2900           *
   2901           * @brief   Updates one entry of the APS link key table to NV
   2902           *
   2903           * @param   index - to the entry in security manager table
   2904           *
   2905           * @return  none
   2906           */
   2907          static void ZDSecMgrUpdateNV( uint16 index )
   2908          {
   2909            nvDeviceListHdr_t hdr;
   2910          
   2911            if (ZDSecMgrEntries != NULL)
   2912            {
   2913              // Save off the record
   2914              osal_nv_write( ZCD_NV_APS_LINK_KEY_TABLE,
   2915                             (uint16)((sizeof(nvDeviceListHdr_t)) + (index * sizeof(ZDSecMgrEntry_t))),
   2916                             sizeof(ZDSecMgrEntry_t), &ZDSecMgrEntries[index] );
   2917            }
   2918          
   2919            if (osal_nv_read(ZCD_NV_APS_LINK_KEY_TABLE, 0, sizeof(nvDeviceListHdr_t), &hdr) == ZSUCCESS)
   2920            {
   2921              if ( ZDSecMgrEntries[index].ami == INVALID_NODE_ADDR )
   2922              {
   2923                if (hdr.numRecs > 0)
   2924                {
   2925                  hdr.numRecs--;
   2926                }
   2927              }
   2928              else
   2929              {
   2930                hdr.numRecs++;
   2931              }
   2932          
   2933              // Save off the header
   2934              osal_nv_write( ZCD_NV_APS_LINK_KEY_TABLE, 0, sizeof( nvDeviceListHdr_t ), &hdr );
   2935            }
   2936          }
   2937          #endif // NV_RESTORE
   2938          
   2939          /******************************************************************************
   2940           * @fn          ZDSecMgrAPSRemove
   2941           *
   2942           * @brief       Remove device from network.
   2943           *
   2944           * @param       nwkAddr - device's NWK address
   2945           * @param       extAddr - device's Extended address
   2946           * @param       parentAddr - parent's NWK address
   2947           *
   2948           * @return      ZStatus_t
   2949           */

   \                                 In  segment BANKED_CODE, align 1, keep-with-next
   2950          ZStatus_t ZDSecMgrAPSRemove( uint16 nwkAddr, uint8 *extAddr, uint16 parentAddr )
   \                     ZDSecMgrAPSRemove:
   2951          {
   \   000000   C082         PUSH      DPL
   \   000002   C083         PUSH      DPH
   \   000004                ; Saved register size: 2
   \   000004                ; Auto size: 8
   \   000004   74F8         MOV       A,#-0x8
   \   000006   12....       LCALL     ?ALLOC_XSTACK8
   2952            ZDSecMgrDevice_t device;
   2953          
   2954            if ( ( nwkAddr == INVALID_NODE_ADDR ) ||
   2955                 ( extAddr == NULL )              ||
   2956                 ( parentAddr == INVALID_NODE_ADDR ) )
   \   000009   74FE         MOV       A,#-0x2
   \   00000B   6A           XRL       A,R2
   \   00000C   7003         JNZ       ??ZDSecMgrAPSRemove_0
   \   00000E   74FF         MOV       A,#-0x1
   \   000010   6B           XRL       A,R3
   \                     ??ZDSecMgrAPSRemove_0:
   \   000011   6016         JZ        ??ZDSecMgrAPSRemove_1
   \   000013   EC           MOV       A,R4
   \   000014   4D           ORL       A,R5
   \   000015   6012         JZ        ??ZDSecMgrAPSRemove_1
   \   000017   7408         MOV       A,#0x8
   \   000019   12....       LCALL     ?XSTACK_DISP0_8
   \   00001C   12....       LCALL     ??Subroutine84_0 & 0xFFFF
   \                     ??CrossCallReturnLabel_165:
   \   00001F   74FE         MOV       A,#-0x2
   \   000021   68           XRL       A,R0
   \   000022   7003         JNZ       ??ZDSecMgrAPSRemove_2
   \   000024   74FF         MOV       A,#-0x1
   \   000026   69           XRL       A,R1
   \                     ??ZDSecMgrAPSRemove_2:
   \   000027   7004         JNZ       ??ZDSecMgrAPSRemove_3
   2957            {
   2958              return ( ZFailure );
   \                     ??ZDSecMgrAPSRemove_1:
   \   000029   7901         MOV       R1,#0x1
   \   00002B   801C         SJMP      ??ZDSecMgrAPSRemove_4
   2959            }
   2960          
   2961            device.nwkAddr = nwkAddr;
   \                     ??ZDSecMgrAPSRemove_3:
   \   00002D   12....       LCALL     ?Subroutine22 & 0xFFFF
   2962            device.extAddr = extAddr;
   \                     ??CrossCallReturnLabel_237:
   \   000030   12....       LCALL     ?XSTACK_DISP0_8
   \   000033   EC           MOV       A,R4
   \   000034   F0           MOVX      @DPTR,A
   \   000035   A3           INC       DPTR
   \   000036   ED           MOV       A,R5
   \   000037   F0           MOVX      @DPTR,A
   2963            device.parentAddr = parentAddr;
   \   000038   7404         MOV       A,#0x4
   \   00003A   12....       LCALL     ?XSTACK_DISP0_8
   \   00003D   12....       LCALL     ??Subroutine86_0 & 0xFFFF
   2964          
   2965            // remove device
   2966            ZDSecMgrDeviceRemove( &device );
   \                     ??CrossCallReturnLabel_205:
   \   000040                ; Setup parameters for call to function ZDSecMgrDeviceRemove
   \   000040   AA..         MOV       R2,?XSP + 0
   \   000042   AB..         MOV       R3,?XSP + 1
   \   000044   12....       LCALL     `??ZDSecMgrDeviceRemove::?relay`; Banked call to: ZDSecMgrDeviceRemove
   2967          
   2968            return ( ZSuccess );
   \   000047   7900         MOV       R1,#0x0
   \                     ??ZDSecMgrAPSRemove_4:
   \   000049   7408         MOV       A,#0x8
   \   00004B   02....       LJMP      ?Subroutine9 & 0xFFFF
   2969          }
   2970          
   2971          /******************************************************************************
   2972           * @fn          APSME_TCLinkKeyInit
   2973           *
   2974           * @brief       Initialize the NV table for preconfigured TC link key
   2975           *
   2976           *              When zgUseDefaultTCL is set to TRUE, the default preconfig
   2977           *              Trust Center Link Key is written to NV. A single tclk is used
   2978           *              by all devices joining the network.
   2979           *
   2980           * @param       setDefault - TRUE to set default values
   2981           *
   2982           * @return      none
   2983           */

   \                                 In  segment BANKED_CODE, align 1, keep-with-next
   2984          void APSME_TCLinkKeyInit(uint8 setDefault)
   \                     APSME_TCLinkKeyInit:
   2985          {
   \   000000                REQUIRE ?V0
   \   000000                REQUIRE ?V1
   \   000000                REQUIRE ?V2
   \   000000                REQUIRE ?V3
   \   000000                REQUIRE ?V4
   \   000000                REQUIRE ?V5
   \   000000                REQUIRE ?V6
   \   000000                REQUIRE ?V7
   \   000000                REQUIRE ?V8
   \   000000                REQUIRE ?V10
   \   000000                REQUIRE ?V11
   \   000000   74EC         MOV       A,#-0x14
   \   000002   12....       LCALL     ?BANKED_ENTER_XDATA
   \   000005                ; Saved register size: 20
   \   000005                ; Auto size: 19
   \   000005   74ED         MOV       A,#-0x13
   \   000007   12....       LCALL     ?ALLOC_XSTACK8
   \   00000A   89..         MOV       ?V8,R1
   2986            APSME_TCLKDevEntry_t TCLKDevEntry;
   2987            uint8                rtrn;
   2988            uint16               i;
   2989            
   2990            // Clear the data for the keys
   2991            osal_memset( &TCLKDevEntry, 0x00, sizeof(APSME_TCLKDevEntry_t) );
   \   00000C                ; Setup parameters for call to function osal_memset
   \   00000C   7C13         MOV       R4,#0x13
   \   00000E   7D00         MOV       R5,#0x0
   \   000010   7900         MOV       R1,#0x0
   \   000012   AA..         MOV       R2,?XSP + 0
   \   000014   AB..         MOV       R3,?XSP + 1
   \   000016   12....       LCALL     `??osal_memset::?relay`; Banked call to: osal_memset
   2992            TCLKDevEntry.keyAttributes = ZG_DEFAULT_KEY;
   \   000019   7410         MOV       A,#0x10
   \   00001B   12....       LCALL     ?XSTACK_DISP0_8
   \   00001E   74FF         MOV       A,#-0x1
   \   000020   F0           MOVX      @DPTR,A
   2993            
   2994            // Initialize all NV items
   2995            for( i = 0; i < gZDSECMGR_TC_DEVICE_MAX; i++ )
   \   000021   7E00         MOV       R6,#0x0
   \   000023   7F00         MOV       R7,#0x0
   2996            {
   2997              // If the item doesn't exist in NV memory, create and initialize
   2998              // it with the default value passed in, either defaultTCLK or 0
   2999              rtrn = osal_nv_item_init( (ZCD_NV_TCLK_TABLE_START + i),
   3000                                         sizeof(APSME_TCLKDevEntry_t), &TCLKDevEntry);
   3001          
   3002              if (rtrn == SUCCESS)
   \                     ??APSME_TCLinkKeyInit_0:
   \   000025   EE           MOV       A,R6
   \   000026   2411         ADD       A,#0x11
   \   000028   F5..         MOV       ?V0,A
   \   00002A   EF           MOV       A,R7
   \   00002B   3401         ADDC      A,#0x1
   \   00002D   F5..         MOV       ?V1,A
   \   00002F                ; Setup parameters for call to function osal_nv_item_init
   \   00002F   A8..         MOV       R0,?XSP + 0
   \   000031   A9..         MOV       R1,?XSP + 1
   \   000033   88..         MOV       ?V2,R0
   \   000035   89..         MOV       ?V3,R1
   \   000037   78..         MOV       R0,#?V2
   \   000039   12....       LCALL     ?PUSH_XSTACK_I_TWO
   \   00003C   7C13         MOV       R4,#0x13
   \   00003E   7D00         MOV       R5,#0x0
   \   000040   AA..         MOV       R2,?V0
   \   000042   AB..         MOV       R3,?V1
   \   000044   12....       LCALL     ??Subroutine99_0 & 0xFFFF
   \                     ??CrossCallReturnLabel_250:
   \   000047   12....       LCALL     ?DEALLOC_XSTACK8
   \   00004A   E9           MOV       A,R1
   \   00004B   6003         JZ        $+5
   \   00004D   02....       LJMP      ??APSME_TCLinkKeyInit_1 & 0xFFFF
   3003              {
   3004                if(setDefault)
   \   000050   EE           MOV       A,R6
   \   000051   F8           MOV       R0,A
   \   000052   EF           MOV       A,R7
   \   000053   F9           MOV       R1,A
   \   000054   E8           MOV       A,R0
   \   000055   75F009       MOV       B,#0x9
   \   000058   A4           MUL       AB
   \   000059   F8           MOV       R0,A
   \   00005A   AAF0         MOV       R2,B
   \   00005C   75F009       MOV       B,#0x9
   \   00005F   E9           MOV       A,R1
   \   000060   12....       LCALL     ?Subroutine46 & 0xFFFF
   \                     ??CrossCallReturnLabel_66:
   \   000063   2404         ADD       A,#0x4
   \   000065   F5..         MOV       ?V10,A
   \   000067   E4           CLR       A
   \   000068   35..         ADDC      A,?V3
   \   00006A   F5..         MOV       ?V11,A
   \   00006C   E5..         MOV       A,?V8
   \   00006E   A8..         MOV       R0,?XSP + 0
   \   000070   A9..         MOV       R1,?XSP + 1
   \   000072   88..         MOV       ?V4,R0
   \   000074   89..         MOV       ?V5,R1
   \   000076   78..         MOV       R0,#?V4
   \   000078   6034         JZ        ??APSME_TCLinkKeyInit_2
   3005                {
   3006                  //Force to initialize the entry
   3007                  osal_nv_write(ZCD_NV_TCLK_TABLE_START + i, 0, sizeof(APSME_TCLKDevEntry_t), &TCLKDevEntry);
   \   00007A                ; Setup parameters for call to function osal_nv_write
   \   00007A   12....       LCALL     ?PUSH_XSTACK_I_TWO
   \   00007D   75..13       MOV       ?V4,#0x13
   \   000080   75..00       MOV       ?V5,#0x0
   \   000083   78..         MOV       R0,#?V4
   \   000085   12....       LCALL     ?PUSH_XSTACK_I_TWO
   \   000088   7C00         MOV       R4,#0x0
   \   00008A   7D00         MOV       R5,#0x0
   \   00008C   AA..         MOV       R2,?V0
   \   00008E   AB..         MOV       R3,?V1
   \   000090   12....       LCALL     ??Subroutine101_0 & 0xFFFF
   \                     ??CrossCallReturnLabel_271:
   \   000093   12....       LCALL     ?DEALLOC_XSTACK8
   3008                  TCLinkKeyFrmCntr[i].txFrmCntr = 0;
   \   000096   85..82       MOV       DPL,?V2
   \   000099   85..83       MOV       DPH,?V3
   \   00009C   12....       LCALL     ??Subroutine88_0 & 0xFFFF
   3009                  TCLinkKeyFrmCntr[i].rxFrmCntr = 0;
   \                     ??CrossCallReturnLabel_215:
   \   00009F   85..82       MOV       DPL,?V10
   \   0000A2   85..83       MOV       DPH,?V11
   \   0000A5   F0           MOVX      @DPTR,A
   \   0000A6   A3           INC       DPTR
   \   0000A7   F0           MOVX      @DPTR,A
   \   0000A8   A3           INC       DPTR
   \   0000A9   F0           MOVX      @DPTR,A
   \   0000AA   A3           INC       DPTR
   \   0000AB   02....       LJMP      ??APSME_TCLinkKeyInit_3 & 0xFFFF
   3010                }
   3011                else
   3012                {
   3013                  // set the Frame counters to 0 to existing keys in NV
   3014                  osal_nv_read( ( ZCD_NV_TCLK_TABLE_START + i), 0,
   3015                                 sizeof(APSME_TCLKDevEntry_t), &TCLKDevEntry );
   \                     ??APSME_TCLinkKeyInit_2:
   \   0000AE                ; Setup parameters for call to function osal_nv_read
   \   0000AE   12....       LCALL     ?PUSH_XSTACK_I_TWO
   \   0000B1   75..13       MOV       ?V4,#0x13
   \   0000B4   75..00       MOV       ?V5,#0x0
   \   0000B7   78..         MOV       R0,#?V4
   \   0000B9   12....       LCALL     ?PUSH_XSTACK_I_TWO
   \   0000BC   7C00         MOV       R4,#0x0
   \   0000BE   7D00         MOV       R5,#0x0
   \   0000C0   AA..         MOV       R2,?V0
   \   0000C2   AB..         MOV       R3,?V1
   \   0000C4   12....       LCALL     ??Subroutine108_0 & 0xFFFF
   \                     ??CrossCallReturnLabel_299:
   \   0000C7   12....       LCALL     ?DEALLOC_XSTACK8
   3016          
   3017                  // increase the value stored in NV
   3018                  TCLKDevEntry.txFrmCntr += ( MAX_TCLK_FRAMECOUNTER_CHANGES + 1 );
   \   0000CA   90....       MOV       DPTR,#__Constant_b
   \   0000CD   78..         MOV       R0,#?V4
   \   0000CF   12....       LCALL     ?L_MOV_X
   \   0000D2   85..82       MOV       DPL,?XSP + 0
   \   0000D5   85..83       MOV       DPH,?XSP + 1
   \   0000D8   78..         MOV       R0,#?V4
   \   0000DA   12....       LCALL     ?L_ADD_TO_X
   3019          
   3020                  osal_nv_write( ( ZCD_NV_TCLK_TABLE_START + i), 0,
   3021                                  sizeof(APSME_TCLKDevEntry_t), &TCLKDevEntry );
   \   0000DD                ; Setup parameters for call to function osal_nv_write
   \   0000DD   A8..         MOV       R0,?XSP + 0
   \   0000DF   A9..         MOV       R1,?XSP + 1
   \   0000E1   88..         MOV       ?V4,R0
   \   0000E3   89..         MOV       ?V5,R1
   \   0000E5   78..         MOV       R0,#?V4
   \   0000E7   12....       LCALL     ?PUSH_XSTACK_I_TWO
   \   0000EA   75..13       MOV       ?V4,#0x13
   \   0000ED   75..00       MOV       ?V5,#0x0
   \   0000F0   78..         MOV       R0,#?V4
   \   0000F2   12....       LCALL     ?PUSH_XSTACK_I_TWO
   \   0000F5   7C00         MOV       R4,#0x0
   \   0000F7   7D00         MOV       R5,#0x0
   \   0000F9   AA..         MOV       R2,?V0
   \   0000FB   AB..         MOV       R3,?V1
   \   0000FD   12....       LCALL     ??Subroutine101_0 & 0xFFFF
   \                     ??CrossCallReturnLabel_272:
   \   000100   12....       LCALL     ?DEALLOC_XSTACK8
   3022          
   3023                  // set initial values for counters in RAM
   3024                  TCLinkKeyFrmCntr[i].txFrmCntr = TCLKDevEntry.txFrmCntr;
   \   000103   85..82       MOV       DPL,?XSP + 0
   \   000106   85..83       MOV       DPH,?XSP + 1
   \   000109   12....       LCALL     ?XLOAD_R0123
   \   00010C   85..82       MOV       DPL,?V2
   \   00010F   85..83       MOV       DPH,?V3
   \   000112   12....       LCALL     ?XSTORE_R0123
   3025                  TCLinkKeyFrmCntr[i].rxFrmCntr = TCLKDevEntry.rxFrmCntr;
   \   000115   7404         MOV       A,#0x4
   \   000117   12....       LCALL     ?XSTACK_DISP0_8
   \   00011A   12....       LCALL     ?XLOAD_R0123
   \   00011D   85..82       MOV       DPL,?V10
   \   000120   85..83       MOV       DPH,?V11
   \   000123   12....       LCALL     ?XSTORE_R0123
   3026                  
   3027                  // Making sure data is cleared and set to default for every key all the time
   3028                  osal_memset( &TCLKDevEntry, 0x00, sizeof(APSME_TCLKDevEntry_t) );
   \   000126                ; Setup parameters for call to function osal_memset
   \   000126   7C13         MOV       R4,#0x13
   \   000128   7D00         MOV       R5,#0x0
   \   00012A   7900         MOV       R1,#0x0
   \   00012C   AA..         MOV       R2,?XSP + 0
   \   00012E   AB..         MOV       R3,?XSP + 1
   \   000130   12....       LCALL     `??osal_memset::?relay`; Banked call to: osal_memset
   3029                  TCLKDevEntry.keyAttributes = ZG_DEFAULT_KEY;
   \   000133   7410         MOV       A,#0x10
   \   000135   12....       LCALL     ?XSTACK_DISP0_8
   \   000138   74FF         MOV       A,#-0x1
   \                     ??APSME_TCLinkKeyInit_3:
   \   00013A   F0           MOVX      @DPTR,A
   3030                }
   3031              }
   3032            }
   \                     ??APSME_TCLinkKeyInit_1:
   \   00013B   0E           INC       R6
   \   00013C   EE           MOV       A,R6
   \   00013D   7001         JNZ       ??APSME_TCLinkKeyInit_4
   \   00013F   0F           INC       R7
   \                     ??APSME_TCLinkKeyInit_4:
   \   000140   C3           CLR       C
   \   000141   9428         SUBB      A,#0x28
   \   000143   EF           MOV       A,R7
   \   000144   9400         SUBB      A,#0x0
   \   000146   5003         JNC       $+5
   \   000148   02....       LJMP      ??APSME_TCLinkKeyInit_0 & 0xFFFF
   3033          
   3034            if(setDefault)
   \   00014B   E5..         MOV       A,?V8
   \   00014D   6007         JZ        ??APSME_TCLinkKeyInit_5
   3035            {
   3036              //Force to erase all IC
   3037              APSME_EraseICEntry(NULL);
   \   00014F                ; Setup parameters for call to function APSME_EraseICEntry
   \   00014F   7A00         MOV       R2,#0x0
   \   000151   7B00         MOV       R3,#0x0
   \   000153   12....       LCALL     `??APSME_EraseICEntry::?relay`; Banked call to: APSME_EraseICEntry
   3038            }
   3039          }
   \                     ??APSME_TCLinkKeyInit_5:
   \   000156   7413         MOV       A,#0x13
   \   000158   12....       LCALL     ?DEALLOC_XSTACK8
   \   00015B   7F0C         MOV       R7,#0xc
   \   00015D   02....       LJMP      ?BANKED_LEAVE_XDATA

   \                                 In  segment BANKED_CODE, align 1, keep-with-next
   \                     ?Subroutine46:
   \   000000   A4           MUL       AB
   \   000001   2A           ADD       A,R2
   \   000002   F9           MOV       R1,A
   \   000003   74..         MOV       A,#TCLinkKeyFrmCntr & 0xff
   \   000005   28           ADD       A,R0
   \   000006   F5..         MOV       ?V2,A
   \   000008   74..         MOV       A,#(TCLinkKeyFrmCntr >> 8) & 0xff
   \   00000A   39           ADDC      A,R1
   \   00000B   F5..         MOV       ?V3,A
   \   00000D   E5..         MOV       A,?V2
   \   00000F   22           RET
   3040          
   3041          
   3042          /******************************************************************************
   3043           * @fn          APSME_TCLinkKeySync
   3044           *
   3045           * @brief       Sync Trust Center LINK key data.
   3046           *
   3047           * @param       srcAddr - [in] srcAddr
   3048           * @param       si      - [in, out] SSP_Info_t
   3049           *
   3050           * @return      ZStatus_t
   3051           */

   \                                 In  segment BANKED_CODE, align 1, keep-with-next
   3052          ZStatus_t APSME_TCLinkKeySync( uint16 srcAddr, SSP_Info_t* si )
   \                     APSME_TCLinkKeySync:
   3053          {
   \   000000                REQUIRE ?V0
   \   000000                REQUIRE ?V2
   \   000000                REQUIRE ?V3
   \   000000                REQUIRE ?V4
   \   000000                REQUIRE ?V5
   \   000000                REQUIRE ?V6
   \   000000                REQUIRE ?V7
   \   000000                REQUIRE ?V8
   \   000000                REQUIRE ?V9
   \   000000   74EE         MOV       A,#-0x12
   \   000002   12....       LCALL     ?BANKED_ENTER_XDATA
   \   000005                ; Saved register size: 18
   \   000005                ; Auto size: 20
   \   000005   74EC         MOV       A,#-0x14
   \   000007   12....       LCALL     ?ALLOC_XSTACK8
   \   00000A   8A..         MOV       ?V4,R2
   \   00000C   8B..         MOV       ?V5,R3
   \   00000E   EC           MOV       A,R4
   \   00000F   FE           MOV       R6,A
   \   000010   ED           MOV       A,R5
   \   000011   FF           MOV       R7,A
   3054            APSME_TCLKDevEntry_t  TCLKDevEntry;
   3055            ZStatus_t             status = ZSecNoKey;
   \   000012   75..A1       MOV       ?V0,#-0x5f
   3056            uint32                *tclkRxFrmCntr;
   3057            uint16                entryIndex = 0xFFFF;
   3058            uint16                selectedId = gZDSECMGR_TC_DEVICE_MAX;
   3059            uint8                 entryFound = FALSE;
   \   000015   85..82       MOV       DPL,?XSP + 0
   \   000018   85..83       MOV       DPH,?XSP + 1
   \   00001B   E4           CLR       A
   \   00001C   F0           MOVX      @DPTR,A
   3060            
   3061          #if ZG_BUILD_JOINING_TYPE
   3062            uint8   defaultEntry[Z_EXTADDR_LEN];
   3063          #endif
   3064           
   3065            // Look up the IEEE address of the trust center if it's available
   3066            if ( AddrMgrExtAddrValid( si->extAddr ) == FALSE )
   \   00001D   EC           MOV       A,R4
   \   00001E   2406         ADD       A,#0x6
   \   000020   F5..         MOV       ?V2,A
   \   000022   E4           CLR       A
   \   000023   3F           ADDC      A,R7
   \   000024   F5..         MOV       ?V3,A
   \   000026                ; Setup parameters for call to function AddrMgrExtAddrValid
   \   000026   AA..         MOV       R2,?V2
   \   000028   FB           MOV       R3,A
   \   000029   12....       LCALL     `??AddrMgrExtAddrValid::?relay`; Banked call to: AddrMgrExtAddrValid
   \   00002C   E9           MOV       A,R1
   \   00002D   700B         JNZ       ??APSME_TCLinkKeySync_0
   3067            {
   3068              APSME_LookupExtAddr( srcAddr, si->extAddr );
   \   00002F                ; Setup parameters for call to function APSME_LookupExtAddr
   \   00002F   AC..         MOV       R4,?V2
   \   000031   AD..         MOV       R5,?V3
   \   000033   AA..         MOV       R2,?V4
   \   000035   AB..         MOV       R3,?V5
   \   000037   12....       LCALL     `??APSME_LookupExtAddr::?relay`; Banked call to: APSME_LookupExtAddr
   3069            }
   3070          
   3071            entryIndex = APSME_SearchTCLinkKeyEntry(si->extAddr,&entryFound,&TCLKDevEntry);
   \                     ??APSME_TCLinkKeySync_0:
   \   00003A                ; Setup parameters for call to function APSME_SearchTCLinkKeyEntry
   \   00003A   7401         MOV       A,#0x1
   \   00003C   12....       LCALL     ?XSTACK_DISP100_8
   \   00003F   88..         MOV       ?V4,R0
   \   000041   89..         MOV       ?V5,R1
   \   000043   78..         MOV       R0,#?V4
   \   000045   12....       LCALL     ?PUSH_XSTACK_I_TWO
   \   000048   7402         MOV       A,#0x2
   \   00004A   12....       LCALL     ?XSTACK_DISP102_8
   \   00004D   AA..         MOV       R2,?V2
   \   00004F   AB..         MOV       R3,?V3
   \   000051   12....       LCALL     ?Subroutine57 & 0xFFFF
   \                     ??CrossCallReturnLabel_90:
   \   000054   12....       LCALL     ?DEALLOC_XSTACK8
   \   000057   8A..         MOV       ?V2,R2
   \   000059   8B..         MOV       ?V3,R3
   \   00005B   A8..         MOV       R0,?V2
   \   00005D   A9..         MOV       R1,?V3
   3072            
   3073          #if ZG_BUILD_JOINING_TYPE
   3074            if(ZG_DEVICE_JOINING_TYPE && !entryFound)
   3075            {
   3076              osal_memset(defaultEntry, 0, Z_EXTADDR_LEN);
   3077              entryIndex = APSME_SearchTCLinkKeyEntry(defaultEntry,&entryFound,&TCLKDevEntry);
   3078            }
   3079          #endif
   3080            
   3081            if(entryFound)
   \   00005F   EE           MOV       A,R6
   \   000060   240F         ADD       A,#0xf
   \   000062   F5..         MOV       ?V2,A
   \   000064   E4           CLR       A
   \   000065   3F           ADDC      A,R7
   \   000066   F5..         MOV       ?V3,A
   \   000068   85..82       MOV       DPL,?XSP + 0
   \   00006B   85..83       MOV       DPH,?XSP + 1
   \   00006E   E0           MOVX      A,@DPTR
   \   00006F   7003         JNZ       $+5
   \   000071   02....       LJMP      ??APSME_TCLinkKeySync_1 & 0xFFFF
   3082            {
   3083              status = ZSuccess;
   \   000074   75..00       MOV       ?V0,#0x0
   3084              
   3085              selectedId = entryIndex - ZCD_NV_TCLK_TABLE_START;
   3086          
   3087              switch(TCLKDevEntry.keyAttributes)
   \   000077   EE           MOV       A,R6
   \   000078   2420         ADD       A,#0x20
   \   00007A   FA           MOV       R2,A
   \   00007B   E4           CLR       A
   \   00007C   3F           ADDC      A,R7
   \   00007D   FB           MOV       R3,A
   \   00007E   7411         MOV       A,#0x11
   \   000080   12....       LCALL     ?XSTACK_DISP0_8
   \   000083   E0           MOVX      A,@DPTR
   \   000084   6033         JZ        ??APSME_TCLinkKeySync_2
   \   000086   14           DEC       A
   \   000087   600E         JZ        ??APSME_TCLinkKeySync_3
   \   000089   14           DEC       A
   \   00008A   605C         JZ        ??APSME_TCLinkKeySync_4
   \   00008C   2405         ADD       A,#0x5
   \   00008E   6058         JZ        ??APSME_TCLinkKeySync_4
   \   000090   24FE         ADD       A,#-0x2
   \   000092   6003         JZ        $+5
   \   000094   02....       LJMP      ??APSME_TCLinkKeySync_5 & 0xFFFF
   3088              {
   3089                case ZG_UNVERIFIED_KEY:
   3090                  #if ZG_BUILD_JOINING_TYPE
   3091                  if(ZG_DEVICE_JOINING_TYPE)
   3092                  {   
   3093                    si->keyNvId = ZCD_NV_TCLK_JOIN_DEV;
   3094                    break;
   3095                  }
   3096                  #endif
   3097                case ZG_DEFAULT_KEY:
   3098                  if(ZG_DEVICE_JOINING_TYPE)
   \                     ??APSME_TCLinkKeySync_3:
   \   000097   90....       MOV       DPTR,#zgDeviceLogicalType
   \   00009A   E0           MOVX      A,@DPTR
   \   00009B   6401         XRL       A,#0x1
   \   00009D   6005         JZ        ??APSME_TCLinkKeySync_6
   \   00009F   E0           MOVX      A,@DPTR
   \   0000A0   6402         XRL       A,#0x2
   \   0000A2   7007         JNZ       ??APSME_TCLinkKeySync_7
   3099                  { 
   3100                    //If default was found, then it is joining as FN, then try distributed key as well
   3101                    si->distributedKeyTry = TRUE;
   \                     ??APSME_TCLinkKeySync_6:
   \   0000A4   8A82         MOV       DPL,R2
   \   0000A6   8B83         MOV       DPH,R3
   \   0000A8   7401         MOV       A,#0x1
   \   0000AA   F0           MOVX      @DPTR,A
   3102                  }
   3103                  si->keyNvId = ZCD_NV_TCLK_DEFAULT;
   \                     ??APSME_TCLinkKeySync_7:
   \   0000AB   85..82       MOV       DPL,?V2
   \   0000AE   85..83       MOV       DPH,?V3
   \   0000B1   7403         MOV       A,#0x3
   \   0000B3   F0           MOVX      @DPTR,A
   \   0000B4   A3           INC       DPTR
   \   0000B5   7401         MOV       A,#0x1
   \   0000B7   802B         SJMP      ??APSME_TCLinkKeySync_8
   3104                break;
   3105                case ZG_PROVISIONAL_KEY:
   3106                  si->keyNvId = ZCD_NV_TCLK_IC_TABLE_START + TCLKDevEntry.SeedShift_IcIndex;
   \                     ??APSME_TCLinkKeySync_2:
   \   0000B9   7413         MOV       A,#0x13
   \   0000BB   12....       LCALL     ?XSTACK_DISP0_8
   \   0000BE   12....       LCALL     ?Subroutine44 & 0xFFFF
   \                     ??CrossCallReturnLabel_62:
   \   0000C1   85..82       MOV       DPL,?V2
   \   0000C4   85..83       MOV       DPH,?V3
   \   0000C7   12....       LCALL     ??Subroutine86_0 & 0xFFFF
   3107                  //Attempt to use default keys (centralized and distributed) if IC fails?
   3108                  si->distributedKeyTry = gZDSECMGR_TC_ATTEMPT_DEFAULT_KEY;
   \                     ??CrossCallReturnLabel_206:
   \   0000CA   90....       MOV       DPTR,#gZDSECMGR_TC_ATTEMPT_DEFAULT_KEY
   \   0000CD   E0           MOVX      A,@DPTR
   \   0000CE   8A82         MOV       DPL,R2
   \   0000D0   8B83         MOV       DPH,R3
   \   0000D2   F0           MOVX      @DPTR,A
   3109                  si->defaultKeyTry = gZDSECMGR_TC_ATTEMPT_DEFAULT_KEY;
   \   0000D3   90....       MOV       DPTR,#gZDSECMGR_TC_ATTEMPT_DEFAULT_KEY
   \   0000D6   E0           MOVX      A,@DPTR
   \   0000D7   C0E0         PUSH      A
   \   0000D9   EE           MOV       A,R6
   \   0000DA   2421         ADD       A,#0x21
   \   0000DC   F582         MOV       DPL,A
   \   0000DE   E4           CLR       A
   \   0000DF   3F           ADDC      A,R7
   \   0000E0   F583         MOV       DPH,A
   \   0000E2   D0E0         POP       A
   \                     ??APSME_TCLinkKeySync_8:
   \   0000E4   F0           MOVX      @DPTR,A
   3110                break;
   \   0000E5   02....       LJMP      ??APSME_TCLinkKeySync_5 & 0xFFFF
   3111                case ZG_VERIFIED_KEY:
   3112                case ZG_NON_R21_NWK_JOINED:
   3113                  //Only verify the frame counter for Verified keys, or keys used with non R21 TC
   3114                  tclkRxFrmCntr = &TCLinkKeyFrmCntr[selectedId].rxFrmCntr;
   \                     ??APSME_TCLinkKeySync_4:
   \   0000E8   E8           MOV       A,R0
   \   0000E9   75F009       MOV       B,#0x9
   \   0000EC   A4           MUL       AB
   \   0000ED   F8           MOV       R0,A
   \   0000EE   AAF0         MOV       R2,B
   \   0000F0   75F009       MOV       B,#0x9
   \   0000F3   E9           MOV       A,R1
   \   0000F4   A4           MUL       AB
   \   0000F5   2A           ADD       A,R2
   \   0000F6   F9           MOV       R1,A
   \   0000F7   74..         MOV       A,#(TCLinkKeyFrmCntr + 107) & 0xff
   \   0000F9   28           ADD       A,R0
   \   0000FA   F5..         MOV       ?V8,A
   \   0000FC   74..         MOV       A,#((TCLinkKeyFrmCntr - 2453) >> 8) & 0xff
   \   0000FE   39           ADDC      A,R1
   \   0000FF   F5..         MOV       ?V9,A
   3115          
   3116                  if ( si->frmCntr >= *tclkRxFrmCntr )
   \   000101   12....       LCALL     ?Subroutine67 & 0xFFFF
   \                     ??CrossCallReturnLabel_109:
   \   000104   78..         MOV       R0,#?V4
   \   000106   12....       LCALL     ?L_MOV_X
   \   000109   85..82       MOV       DPL,?V8
   \   00010C   85..83       MOV       DPH,?V9
   \   00010F   78..         MOV       R0,#?V4
   \   000111   12....       LCALL     ?UL_GE_X
   \   000114   5053         JNC       ??APSME_TCLinkKeySync_9
   3117                  {
   3118                    // update the rx frame counter
   3119                    *tclkRxFrmCntr = si->frmCntr + 1;
   \   000116   90....       MOV       DPTR,#__Constant_1
   \   000119   78..         MOV       R0,#?V4
   \   00011B   12....       LCALL     ?L_ADD_X
   \   00011E   85..82       MOV       DPL,?V8
   \   000121   85..83       MOV       DPH,?V9
   \   000124   E5..         MOV       A,?V4
   \   000126   F0           MOVX      @DPTR,A
   \   000127   A3           INC       DPTR
   \   000128   E5..         MOV       A,?V5
   \   00012A   F0           MOVX      @DPTR,A
   \   00012B   A3           INC       DPTR
   \   00012C   E5..         MOV       A,?V6
   \   00012E   F0           MOVX      @DPTR,A
   \   00012F   A3           INC       DPTR
   \   000130   E5..         MOV       A,?V7
   \   000132   F0           MOVX      @DPTR,A
   3120                    status = ZSuccess;
   3121                    
   3122                    #if ZG_BUILD_JOINING_TYPE
   3123                    if(ZG_DEVICE_JOINING_TYPE)
   3124                    {   
   3125                      si->keyNvId = ZCD_NV_TCLK_JOIN_DEV;
   3126                      break;
   3127                    }
   3128                    #endif
   3129                    #if ZG_BUILD_COORDINATOR_TYPE
   3130                    if(ZG_DEVICE_COORDINATOR_TYPE)
   3131                    {
   3132                      si->keyNvId = ZCD_NV_TCLK_SEED;
   \   000133   85..82       MOV       DPL,?V2
   \   000136   85..83       MOV       DPH,?V3
   \   000139   7401         MOV       A,#0x1
   \   00013B   F0           MOVX      @DPTR,A
   \   00013C   A3           INC       DPTR
   \   00013D   F0           MOVX      @DPTR,A
   3133                      si->seedShift = TCLKDevEntry.SeedShift_IcIndex;
   \   00013E   7413         MOV       A,#0x13
   \   000140   12....       LCALL     ?XSTACK_DISP0_8
   \   000143   E0           MOVX      A,@DPTR
   \   000144   C0E0         PUSH      A
   \   000146   12....       LCALL     ?Subroutine68 & 0xFFFF
   3134                    }
   \                     ??CrossCallReturnLabel_111:
   \   000149   D0E0         POP       A
   \   00014B   F0           MOVX      @DPTR,A
   3135                    #endif
   3136                    osal_memcpy(si->dstExtAddr, TCLKDevEntry.extAddr,Z_EXTADDR_LEN);
   \   00014C                ; Setup parameters for call to function osal_memcpy
   \   00014C   7409         MOV       A,#0x9
   \   00014E   12....       LCALL     ?XSTACK_DISP0_8
   \   000151   A982         MOV       R1,DPL
   \   000153   AA83         MOV       R2,DPH
   \   000155   89..         MOV       ?V4,R1
   \   000157   8A..         MOV       ?V5,R2
   \   000159   75..00       MOV       ?V6,#0x0
   \   00015C   78..         MOV       R0,#?V4
   \   00015E   12....       LCALL     ?PUSH_XSTACK_I_THREE
   \   000161   12....       LCALL     ?Subroutine58 & 0xFFFF
   3137                  }
   \                     ??CrossCallReturnLabel_286:
   \   000164   12....       LCALL     ?DEALLOC_XSTACK8
   \   000167   801B         SJMP      ??APSME_TCLinkKeySync_5
   3138                  else
   3139                  {
   3140                    status = ZSecOldFrmCount;
   \                     ??APSME_TCLinkKeySync_9:
   \   000169   75..A2       MOV       ?V0,#-0x5e
   \   00016C   8016         SJMP      ??APSME_TCLinkKeySync_5
   3141                  }
   3142                break;
   3143                default:
   3144                  //This should not happen
   3145                break;
   3146              }
   3147            }
   3148            else
   3149            {
   3150              if (ZG_DEVICE_COORDINATOR_TYPE) 
   3151              {    
   3152                if(bdb_doTrustCenterRequireKeyExchange() == FALSE)
   \                     ??APSME_TCLinkKeySync_1:
   \   00016E                ; Setup parameters for call to function bdb_doTrustCenterRequireKeyExchange
   \   00016E   12....       LCALL     `??bdb_doTrustCenterRequireKeyExchange::?relay`; Banked call to: bdb_doTrustCenterRequireKeyExchange
   \   000171   E9           MOV       A,R1
   \   000172   7010         JNZ       ??APSME_TCLinkKeySync_5
   3153                {
   3154                  //If the TCLK exchange is not mandated, and the key cannot be found for this device, 
   3155                  //is because we have erased the entry. Try with default key.
   3156                  si->keyNvId = ZCD_NV_TCLK_DEFAULT;
   \   000174   85..82       MOV       DPL,?V2
   \   000177   85..83       MOV       DPH,?V3
   \   00017A   7403         MOV       A,#0x3
   \   00017C   F0           MOVX      @DPTR,A
   \   00017D   A3           INC       DPTR
   \   00017E   7401         MOV       A,#0x1
   \   000180   F0           MOVX      @DPTR,A
   3157                  status = ZSuccess;
   \   000181   75..00       MOV       ?V0,#0x0
   3158                }
   3159              }
   3160            }
   3161            
   3162            
   3163            return status;
   \                     ??APSME_TCLinkKeySync_5:
   \   000184   A9..         MOV       R1,?V0
   \   000186   7414         MOV       A,#0x14
   \   000188   02....       LJMP      ?Subroutine5 & 0xFFFF
   3164          }

   \                                 In  segment BANKED_CODE, align 1, keep-with-next
   \                     ?Subroutine68:
   \   000000   EE           MOV       A,R6
   \   000001   2422         ADD       A,#0x22
   \   000003   F582         MOV       DPL,A
   \   000005   E4           CLR       A
   \   000006   3F           ADDC      A,R7
   \   000007   F583         MOV       DPH,A
   \   000009   22           RET

   \                                 In  segment BANKED_CODE, align 1, keep-with-next
   \                     ?Subroutine67:
   \   000000   EE           MOV       A,R6
   \   000001   2412         ADD       A,#0x12
   \   000003   F582         MOV       DPL,A
   \   000005   E4           CLR       A
   \   000006   3F           ADDC      A,R7
   \   000007   F583         MOV       DPH,A
   \   000009   22           RET

   \                                 In  segment BANKED_CODE, align 1, keep-with-next
   \                     ?Subroutine44:
   \   000000   E0           MOVX      A,@DPTR
   \   000001   2404         ADD       A,#0x4
   \   000003   F8           MOV       R0,A
   \   000004   E4           CLR       A
   \   000005   3401         ADDC      A,#0x1
   \   000007   F9           MOV       R1,A
   \   000008   22           RET

   \                                 In  segment BANKED_CODE, align 1, keep-with-next
   \                     ?Subroutine58:
   \   000000   7C08         MOV       R4,#0x8
   \   000002   7D00         MOV       R5,#0x0
   \   000004   EE           MOV       A,R6
   \   000005   2418         ADD       A,#0x18
   \   000007   FA           MOV       R2,A
   \   000008   E4           CLR       A
   \   000009   3F           ADDC      A,R7
   \   00000A                REQUIRE ??Subroutine104_0
   \   00000A                ; // Fall through to label ??Subroutine104_0
   3165          
   3166          /******************************************************************************
   3167           * @fn          APSME_TCLinkKeyLoad
   3168           *
   3169           * @brief       Load Trust Center LINK key data.
   3170           *
   3171           * @param       dstAddr - [in] dstAddr
   3172           * @param       si      - [in, out] SSP_Info_t
   3173           *
   3174           * @return      ZStatus_t
   3175           */

   \                                 In  segment BANKED_CODE, align 1, keep-with-next
   3176          ZStatus_t APSME_TCLinkKeyLoad( uint16 dstAddr, SSP_Info_t* si )
   \                     APSME_TCLinkKeyLoad:
   3177          {
   \   000000                REQUIRE ?V0
   \   000000                REQUIRE ?V1
   \   000000                REQUIRE ?V2
   \   000000                REQUIRE ?V3
   \   000000                REQUIRE ?V4
   \   000000                REQUIRE ?V5
   \   000000                REQUIRE ?V6
   \   000000                REQUIRE ?V7
   \   000000                REQUIRE ?V8
   \   000000                REQUIRE ?V9
   \   000000   74EE         MOV       A,#-0x12
   \   000002   12....       LCALL     ?BANKED_ENTER_XDATA
   \   000005                ; Saved register size: 18
   \   000005                ; Auto size: 33
   \   000005   74DF         MOV       A,#-0x21
   \   000007   12....       LCALL     ?ALLOC_XSTACK8
   \   00000A   EC           MOV       A,R4
   \   00000B   FE           MOV       R6,A
   \   00000C   ED           MOV       A,R5
   \   00000D   FF           MOV       R7,A
   3178            APSME_TCLKDevEntry_t TCLKDevEntry;
   3179            AddrMgrEntry_t       addrEntry;
   3180            ZStatus_t            status = ZSecNoKey;
   \   00000E   75..A1       MOV       ?V0,#-0x5f
   3181            uint16               entryIndex;
   3182            uint8                extAddrFound;
   3183            uint8                found;
   3184          
   3185            
   3186            // Look up the ami of the srcAddr if available
   3187            addrEntry.user    = ADDRMGR_USER_DEFAULT;
   \   000011   7414         MOV       A,#0x14
   \   000013   12....       LCALL     ?XSTACK_DISP0_8
   \   000016   E4           CLR       A
   \   000017   F0           MOVX      @DPTR,A
   3188            addrEntry.nwkAddr = dstAddr;
   \   000018   7415         MOV       A,#0x15
   \   00001A   12....       LCALL     ?XSTACK_DISP0_8
   \   00001D   12....       LCALL     ??Subroutine93_0 & 0xFFFF
   3189          
   3190            extAddrFound = AddrMgrExtAddrValid( si->extAddr );
   3191            
   3192            if(extAddrFound)
   \                     ??CrossCallReturnLabel_233:
   \   000020   EC           MOV       A,R4
   \   000021   2406         ADD       A,#0x6
   \   000023   F5..         MOV       ?V4,A
   \   000025   E4           CLR       A
   \   000026   3F           ADDC      A,R7
   \   000027   F5..         MOV       ?V5,A
   \   000029                ; Setup parameters for call to function AddrMgrExtAddrValid
   \   000029   AA..         MOV       R2,?V4
   \   00002B   FB           MOV       R3,A
   \   00002C   12....       LCALL     `??AddrMgrExtAddrValid::?relay`; Banked call to: AddrMgrExtAddrValid
   \   00002F   E9           MOV       A,R1
   \   000030   7003         JNZ       $+5
   \   000032   02....       LJMP      ??APSME_TCLinkKeyLoad_0 & 0xFFFF
   3193            {
   3194              entryIndex = APSME_SearchTCLinkKeyEntry(si->extAddr,&found,&TCLKDevEntry);
   \   000035                ; Setup parameters for call to function APSME_SearchTCLinkKeyEntry
   \   000035   7401         MOV       A,#0x1
   \   000037   12....       LCALL     ?XSTACK_DISP100_8
   \   00003A   88..         MOV       ?V0,R0
   \   00003C   89..         MOV       ?V1,R1
   \   00003E   78..         MOV       R0,#?V0
   \   000040   12....       LCALL     ?PUSH_XSTACK_I_TWO
   \   000043   7402         MOV       A,#0x2
   \   000045   12....       LCALL     ?XSTACK_DISP102_8
   \   000048   AA..         MOV       R2,?V4
   \   00004A   AB..         MOV       R3,?V5
   \   00004C   12....       LCALL     ?Subroutine57 & 0xFFFF
   \                     ??CrossCallReturnLabel_91:
   \   00004F   12....       LCALL     ?DEALLOC_XSTACK8
   \   000052   8A..         MOV       ?V2,R2
   \   000054   8B..         MOV       ?V3,R3
   3195              if(entryIndex != 0xFFFF)
   \   000056   EE           MOV       A,R6
   \   000057   240F         ADD       A,#0xf
   \   000059   F5..         MOV       ?V0,A
   \   00005B   E4           CLR       A
   \   00005C   3F           ADDC      A,R7
   \   00005D   F5..         MOV       ?V1,A
   \   00005F   74FF         MOV       A,#-0x1
   \   000061   6A           XRL       A,R2
   \   000062   7003         JNZ       ??APSME_TCLinkKeyLoad_1
   \   000064   74FF         MOV       A,#-0x1
   \   000066   6B           XRL       A,R3
   \                     ??APSME_TCLinkKeyLoad_1:
   \   000067   7003         JNZ       $+5
   \   000069   02....       LJMP      ??APSME_TCLinkKeyLoad_2 & 0xFFFF
   3196              {
   3197                uint16 i = entryIndex - ZCD_NV_TCLK_TABLE_START;
   \   00006C   12....       LCALL     ?Subroutine59 & 0xFFFF
   3198                
   3199                if(found)
   \                     ??CrossCallReturnLabel_93:
   \   00006F   AAF0         MOV       R2,B
   \   000071   75F009       MOV       B,#0x9
   \   000074   E9           MOV       A,R1
   \   000075   A4           MUL       AB
   \   000076   2A           ADD       A,R2
   \   000077   F9           MOV       R1,A
   \   000078   74..         MOV       A,#TCLinkKeyFrmCntr & 0xff
   \   00007A   28           ADD       A,R0
   \   00007B   F5..         MOV       ?V8,A
   \   00007D   74..         MOV       A,#(TCLinkKeyFrmCntr >> 8) & 0xff
   \   00007F   39           ADDC      A,R1
   \   000080   F5..         MOV       ?V9,A
   \   000082   85..82       MOV       DPL,?XSP + 0
   \   000085   85..83       MOV       DPH,?XSP + 1
   \   000088   E0           MOVX      A,@DPTR
   \   000089   6068         JZ        ??APSME_TCLinkKeyLoad_3
   3200                {
   3201                  switch(TCLKDevEntry.keyAttributes)
   \   00008B   7411         MOV       A,#0x11
   \   00008D   12....       LCALL     ?XSTACK_DISP0_8
   \   000090   E0           MOVX      A,@DPTR
   \   000091   6014         JZ        ??APSME_TCLinkKeyLoad_4
   \   000093   14           DEC       A
   \   000094   600E         JZ        ??APSME_TCLinkKeyLoad_5
   \   000096   14           DEC       A
   \   000097   6023         JZ        ??APSME_TCLinkKeyLoad_6
   \   000099   2405         ADD       A,#0x5
   \   00009B   6007         JZ        ??APSME_TCLinkKeyLoad_5
   \   00009D   24FE         ADD       A,#-0x2
   \   00009F   6003         JZ        $+5
   \   0000A1   02....       LJMP      ??APSME_TCLinkKeyLoad_7 & 0xFFFF
   3202                  {
   3203                    case ZG_UNVERIFIED_KEY:
   3204                      #if ZG_BUILD_JOINING_TYPE
   3205                      if(ZG_DEVICE_JOINING_TYPE)
   3206                      {   
   3207                        si->keyNvId = ZCD_NV_TCLK_JOIN_DEV;
   3208                        break;
   3209                      }
   3210                      #endif
   3211                    case ZG_DEFAULT_KEY:
   3212                    case ZG_NON_R21_NWK_JOINED:
   3213                      si->keyNvId = ZCD_NV_TCLK_DEFAULT;
   \                     ??APSME_TCLinkKeyLoad_5:
   \   0000A4   02....       LJMP      ??APSME_TCLinkKeyLoad_8 & 0xFFFF
   3214                    break;
   3215                    case ZG_PROVISIONAL_KEY:
   3216                      si->keyNvId = ZCD_NV_TCLK_IC_TABLE_START + TCLKDevEntry.SeedShift_IcIndex;
   \                     ??APSME_TCLinkKeyLoad_4:
   \   0000A7   7413         MOV       A,#0x13
   \   0000A9   12....       LCALL     ?XSTACK_DISP0_8
   \   0000AC   12....       LCALL     ?Subroutine44 & 0xFFFF
   \                     ??CrossCallReturnLabel_63:
   \   0000AF   85..82       MOV       DPL,?V0
   \   0000B2   85..83       MOV       DPH,?V1
   \   0000B5   E8           MOV       A,R0
   \   0000B6   F0           MOVX      @DPTR,A
   \   0000B7   A3           INC       DPTR
   \   0000B8   E9           MOV       A,R1
   \   0000B9   02....       LJMP      ??APSME_TCLinkKeyLoad_9 & 0xFFFF
   3217                    break;
   3218                    case ZG_VERIFIED_KEY:
   3219                      #if ZG_BUILD_JOINING_TYPE
   3220                      if(ZG_DEVICE_JOINING_TYPE)
   3221                      {   
   3222                        si->keyNvId = ZCD_NV_TCLK_JOIN_DEV;
   3223                        break;
   3224                      }
   3225                      #endif
   3226                      #if ZG_BUILD_COORDINATOR_TYPE
   3227                      if(ZG_DEVICE_COORDINATOR_TYPE)
   3228                      {
   3229                        si->keyNvId = ZCD_NV_TCLK_SEED;
   \                     ??APSME_TCLinkKeyLoad_6:
   \   0000BC   85..82       MOV       DPL,?V0
   \   0000BF   85..83       MOV       DPH,?V1
   \   0000C2   7401         MOV       A,#0x1
   \   0000C4   F0           MOVX      @DPTR,A
   \   0000C5   A3           INC       DPTR
   \   0000C6   F0           MOVX      @DPTR,A
   3230                        si->seedShift = TCLKDevEntry.SeedShift_IcIndex;
   \   0000C7   7413         MOV       A,#0x13
   \   0000C9   12....       LCALL     ?XSTACK_DISP0_8
   \   0000CC   E0           MOVX      A,@DPTR
   \   0000CD   C0E0         PUSH      A
   \   0000CF   12....       LCALL     ?Subroutine68 & 0xFFFF
   3231                      }
   \                     ??CrossCallReturnLabel_112:
   \   0000D2   D0E0         POP       A
   \   0000D4   F0           MOVX      @DPTR,A
   3232                      #endif
   3233                      osal_memcpy(si->dstExtAddr, TCLKDevEntry.extAddr,Z_EXTADDR_LEN);
   \   0000D5                ; Setup parameters for call to function osal_memcpy
   \   0000D5   7409         MOV       A,#0x9
   \   0000D7   12....       LCALL     ?XSTACK_DISP0_8
   \   0000DA   A982         MOV       R1,DPL
   \   0000DC   AA83         MOV       R2,DPH
   \   0000DE   89..         MOV       ?V0,R1
   \   0000E0   8A..         MOV       ?V1,R2
   \   0000E2   75..00       MOV       ?V2,#0x0
   \   0000E5   78..         MOV       R0,#?V0
   \   0000E7   12....       LCALL     ?PUSH_XSTACK_I_THREE
   \   0000EA   12....       LCALL     ?Subroutine58 & 0xFFFF
   \                     ??CrossCallReturnLabel_287:
   \   0000ED   12....       LCALL     ?DEALLOC_XSTACK8
   3234                    break;
   \   0000F0   02....       LJMP      ??APSME_TCLinkKeyLoad_7 & 0xFFFF
   3235                    default:
   3236                      //This should not happen
   3237                    break;
   3238                  }
   3239                }
   3240                //Not found, then create an entry for it. Adding the device to the TCLKDev Entries for first time
   3241                else
   3242                {
   3243                  //Initialize the entry
   3244                  osal_memcpy(TCLKDevEntry.extAddr, si->extAddr, Z_EXTADDR_LEN);
   \                     ??APSME_TCLinkKeyLoad_3:
   \   0000F3                ; Setup parameters for call to function osal_memcpy
   \   0000F3   75..00       MOV       ?V6,#0x0
   \   0000F6   78..         MOV       R0,#?V4
   \   0000F8   12....       LCALL     ?PUSH_XSTACK_I_THREE
   \   0000FB   7C08         MOV       R4,#0x8
   \   0000FD   7D00         MOV       R5,#0x0
   \   0000FF   740C         MOV       A,#0xc
   \   000101   12....       LCALL     ?XSTACK_DISP0_8
   \   000104   AA82         MOV       R2,DPL
   \   000106   AB83         MOV       R3,DPH
   \   000108   12....       LCALL     ??Subroutine105_0 & 0xFFFF
   \                     ??CrossCallReturnLabel_292:
   \   00010B   12....       LCALL     ?DEALLOC_XSTACK8
   3245                  TCLKDevEntry.keyAttributes = ZG_DEFAULT_KEY;
   \   00010E   7411         MOV       A,#0x11
   \   000110   12....       LCALL     ?XSTACK_DISP0_8
   \   000113   74FF         MOV       A,#-0x1
   \   000115   F0           MOVX      @DPTR,A
   3246                  TCLKDevEntry.keyType = ZG_GLOBAL_LINK_KEY;
   \   000116   7412         MOV       A,#0x12
   \   000118   12....       LCALL     ?XSTACK_DISP0_8
   \   00011B   7401         MOV       A,#0x1
   \   00011D   F0           MOVX      @DPTR,A
   3247                  //Create the entry with a random shift of the seed. Validate the maximum shift of the seed which is 15
   3248                  TCLKDevEntry.SeedShift_IcIndex = osal_rand() & 0x000F;
   \   00011E                ; Setup parameters for call to function osal_rand
   \   00011E   12....       LCALL     `??osal_rand::?relay`; Banked call to: osal_rand
   \   000121   EA           MOV       A,R2
   \   000122   540F         ANL       A,#0xf
   \   000124   C0E0         PUSH      A
   \   000126   7413         MOV       A,#0x13
   \   000128   12....       LCALL     ?XSTACK_DISP0_8
   \   00012B   D0E0         POP       A
   \   00012D   F0           MOVX      @DPTR,A
   3249                  TCLKDevEntry.txFrmCntr = 0;
   \   00012E   7401         MOV       A,#0x1
   \   000130   12....       LCALL     ?XSTACK_DISP0_8
   \   000133   12....       LCALL     ?Subroutine24 & 0xFFFF
   3250                  TCLKDevEntry.rxFrmCntr = 0;
   \                     ??CrossCallReturnLabel_22:
   \   000136   12....       LCALL     ?XSTACK_DISP0_8
   \   000139   12....       LCALL     ?Subroutine26 & 0xFFFF
   3251                  //save entry in nv
   3252                  osal_nv_write(entryIndex,0,sizeof(APSME_TCLKDevEntry_t),&TCLKDevEntry);
   \                     ??CrossCallReturnLabel_27:
   \   00013C   12....       LCALL     ?XSTACK_DISP100_8
   \   00013F   88..         MOV       ?V4,R0
   \   000141   89..         MOV       ?V5,R1
   \   000143   78..         MOV       R0,#?V4
   \   000145   12....       LCALL     ?PUSH_XSTACK_I_TWO
   \   000148   75..13       MOV       ?V4,#0x13
   \   00014B   75..00       MOV       ?V5,#0x0
   \   00014E   78..         MOV       R0,#?V4
   \   000150   12....       LCALL     ?PUSH_XSTACK_I_TWO
   \   000153   7C00         MOV       R4,#0x0
   \   000155   7D00         MOV       R5,#0x0
   \   000157   AA..         MOV       R2,?V2
   \   000159   AB..         MOV       R3,?V3
   \   00015B   12....       LCALL     ??Subroutine101_0 & 0xFFFF
   \                     ??CrossCallReturnLabel_273:
   \   00015E   12....       LCALL     ?DEALLOC_XSTACK8
   3253                  //Initialize framecounter
   3254                  osal_memset(&TCLinkKeyFrmCntr[i],0,sizeof(APSME_TCLinkKeyFrmCntr_t));
   \   000161                ; Setup parameters for call to function osal_memset
   \   000161   7C09         MOV       R4,#0x9
   \   000163   7D00         MOV       R5,#0x0
   \   000165   7900         MOV       R1,#0x0
   \   000167   AA..         MOV       R2,?V8
   \   000169   AB..         MOV       R3,?V9
   \   00016B   12....       LCALL     `??osal_memset::?relay`; Banked call to: osal_memset
   3255                  // set the keyNvId to use
   3256                  si->keyNvId = ZCD_NV_TCLK_DEFAULT;
   \                     ??APSME_TCLinkKeyLoad_8:
   \   00016E   85..82       MOV       DPL,?V0
   \   000171   85..83       MOV       DPH,?V1
   \   000174   7403         MOV       A,#0x3
   \   000176   F0           MOVX      @DPTR,A
   \   000177   A3           INC       DPTR
   \   000178   7401         MOV       A,#0x1
   \                     ??APSME_TCLinkKeyLoad_9:
   \   00017A   F0           MOVX      @DPTR,A
   3257                }
   3258          
   3259                // update link key related fields
   3260                si->keyID   = SEC_KEYID_LINK;
   \                     ??APSME_TCLinkKeyLoad_7:
   \   00017B   EE           MOV       A,R6
   \   00017C   240E         ADD       A,#0xe
   \   00017E   F582         MOV       DPL,A
   \   000180   E4           CLR       A
   \   000181   3F           ADDC      A,R7
   \   000182   F583         MOV       DPH,A
   \   000184   E4           CLR       A
   \   000185   F0           MOVX      @DPTR,A
   3261                si->frmCntr = TCLinkKeyFrmCntr[i].txFrmCntr;
   \   000186   85..82       MOV       DPL,?V8
   \   000189   85..83       MOV       DPH,?V9
   \   00018C   12....       LCALL     ?XLOAD_R0123
   \   00018F   12....       LCALL     ?Subroutine67 & 0xFFFF
   \                     ??CrossCallReturnLabel_110:
   \   000192   12....       LCALL     ?XSTORE_R0123
   3262          
   3263                // update outgoing frame counter
   3264                TCLinkKeyFrmCntr[i].txFrmCntr++;
   \   000195   90....       MOV       DPTR,#__Constant_1
   \   000198   78..         MOV       R0,#?V0
   \   00019A   12....       LCALL     ?L_MOV_X
   \   00019D   85..82       MOV       DPL,?V8
   \   0001A0   85..83       MOV       DPH,?V9
   \   0001A3   78..         MOV       R0,#?V0
   \   0001A5   12....       LCALL     ?L_ADD_TO_X
   3265          
   3266            #if defined ( NV_RESTORE )
   3267                // write periodically to NV
   3268                if ( !(TCLinkKeyFrmCntr[i].txFrmCntr % MAX_TCLK_FRAMECOUNTER_CHANGES) )
   \   0001A8   85..82       MOV       DPL,?V8
   \   0001AB   85..83       MOV       DPH,?V9
   \   0001AE   78..         MOV       R0,#?V0
   \   0001B0   12....       LCALL     ?L_MOV_X
   \   0001B3   90....       MOV       DPTR,#__Constant_a
   \   0001B6   78..         MOV       R0,#?V4
   \   0001B8   12....       LCALL     ?L_MOV_X
   \   0001BB   78..         MOV       R0,#?V0
   \   0001BD   79..         MOV       R1,#?V4
   \   0001BF   12....       LCALL     ?UL_DIV_MOD
   \   0001C2   E5..         MOV       A,?V4
   \   0001C4   45..         ORL       A,?V5
   \   0001C6   45..         ORL       A,?V6
   \   0001C8   45..         ORL       A,?V7
   \   0001CA   702C         JNZ       ??APSME_TCLinkKeyLoad_10
   3269                {
   3270                  // set the flag to write key to NV
   3271                  TCLinkKeyFrmCntr[i].pendingFlag = TRUE;
   \   0001CC   85..82       MOV       DPL,?V8
   \   0001CF   85..83       MOV       DPH,?V9
   \   0001D2   A3           INC       DPTR
   \   0001D3   A3           INC       DPTR
   \   0001D4   A3           INC       DPTR
   \   0001D5   A3           INC       DPTR
   \   0001D6   A3           INC       DPTR
   \   0001D7   A3           INC       DPTR
   \   0001D8   A3           INC       DPTR
   \   0001D9   A3           INC       DPTR
   \   0001DA   7401         MOV       A,#0x1
   \   0001DC   F0           MOVX      @DPTR,A
   3272          
   3273                  // Notify the ZDApp that the frame counter has changed.
   3274                  osal_set_event( ZDAppTaskID, ZDO_TCLK_FRAMECOUNTER_CHANGE );
   \   0001DD                ; Setup parameters for call to function osal_set_event
   \   0001DD   7A00         MOV       R2,#0x0
   \   0001DF   7B04         MOV       R3,#0x4
   \   0001E1   90....       MOV       DPTR,#ZDAppTaskID
   \   0001E4   E0           MOVX      A,@DPTR
   \   0001E5   F9           MOV       R1,A
   \   0001E6   12....       LCALL     `??osal_set_event::?relay`; Banked call to: osal_set_event
   \   0001E9   800D         SJMP      ??APSME_TCLinkKeyLoad_10
   3275                }
   3276            #endif
   3277              }  
   3278              else
   3279              {
   3280                //If no more TCLK entries, try global so we can try to add legacy devices
   3281                si->keyNvId = ZCD_NV_TCLK_DEFAULT;
   \                     ??APSME_TCLinkKeyLoad_2:
   \   0001EB   85..82       MOV       DPL,?V0
   \   0001EE   85..83       MOV       DPH,?V1
   \   0001F1   7403         MOV       A,#0x3
   \   0001F3   F0           MOVX      @DPTR,A
   \   0001F4   A3           INC       DPTR
   \   0001F5   7401         MOV       A,#0x1
   \   0001F7   F0           MOVX      @DPTR,A
   3282              }
   3283              status = ZSuccess;
   \                     ??APSME_TCLinkKeyLoad_10:
   \   0001F8   75..00       MOV       ?V0,#0x0
   \   0001FB   8012         SJMP      ??APSME_TCLinkKeyLoad_11
   \                     ??APSME_TCLinkKeyLoad_0:
   \   0001FD                ; Setup parameters for call to function AddrMgrEntryLookupNwk
   3284            }
   \   0001FD   7414         MOV       A,#0x14
   \   0001FF   12....       LCALL     ?XSTACK_DISP101_8
   \   000202   12....       LCALL     ?Subroutine50 & 0xFFFF
   \                     ??CrossCallReturnLabel_75:
   \   000205   7008         JNZ       ??APSME_TCLinkKeyLoad_11
   3285            
   3286            // If no TC link key found, remove the device from the address manager
   3287            if ( (status != ZSuccess) && (AddrMgrEntryLookupNwk(&addrEntry) == TRUE) )
   3288            {
   3289              AddrMgrEntryRelease( &addrEntry );
   \   000207                ; Setup parameters for call to function AddrMgrEntryRelease
   \   000207   7414         MOV       A,#0x14
   \   000209   12....       LCALL     ?XSTACK_DISP101_8
   \   00020C   12....       LCALL     `??AddrMgrEntryRelease::?relay`; Banked call to: AddrMgrEntryRelease
   3290            }
   3291          
   3292            return status;
   \                     ??APSME_TCLinkKeyLoad_11:
   \   00020F   A9..         MOV       R1,?V0
   \   000211   7421         MOV       A,#0x21
   \   000213                REQUIRE ?Subroutine5
   \   000213                ; // Fall through to label ?Subroutine5
   3293          }
   3294          
   3295          /******************************************************************************
   3296           * @fn          APSME_IsDefaultTCLK
   3297           *
   3298           * @brief       Return TRUE or FALSE based on the extended address.  If the
   3299           *              input ext address is all FFs, it means the trust center link
   3300           *              assoiciated with the address is the default trust center link key
   3301           *
   3302           * @param       extAddr - [in] extended address
   3303           *
   3304           * @return      uint8 TRUE/FALSE
   3305           */

   \                                 In  segment BANKED_CODE, align 1, keep-with-next
   3306          uint8 APSME_IsDefaultTCLK( uint8 *extAddr )
   \                     APSME_IsDefaultTCLK:
   3307          {
   \   000000   C082         PUSH      DPL
   \   000002   C083         PUSH      DPH
   \   000004                ; Saved register size: 2
   \   000004                ; Auto size: 0
   3308            return osal_isbufset( extAddr, 0xFF, Z_EXTADDR_LEN );
   \   000004                ; Setup parameters for call to function osal_isbufset
   \   000004   7C08         MOV       R4,#0x8
   \   000006   79FF         MOV       R1,#-0x1
   \   000008   12....       LCALL     `??osal_isbufset::?relay`; Banked call to: osal_isbufset
   \   00000B   02....       LJMP      ??Subroutine81_0 & 0xFFFF
   3309          }
   3310          
   3311          /******************************************************************************
   3312           * @fn          ZDSecMgrNwkKeyInit
   3313           *
   3314           * @brief       Initialize the NV items for
   3315           *                  ZCD_NV_NWKKEY,
   3316           *                  ZCD_NV_NWK_ACTIVE_KEY_INFO and
   3317           *                  ZCD_NV_NWK_ALTERN_KEY_INFO
   3318           *
   3319           * @param       setDefault
   3320           *
   3321           * @return      none
   3322           */

   \                                 In  segment BANKED_CODE, align 1, keep-with-next
   \                     ?Subroutine64:
   \   000000   7C0C         MOV       R4,#0xc
   \   000002                REQUIRE ??Subroutine98_0
   \   000002                ; // Fall through to label ??Subroutine98_0

   \                                 In  segment BANKED_CODE, align 1, keep-with-next
   \                     ??Subroutine98_0:
   \   000000   7D00         MOV       R5,#0x0
   \   000002   EE           MOV       A,R6
   \   000003   FA           MOV       R2,A
   \   000004   EF           MOV       A,R7
   \   000005   FB           MOV       R3,A
   \   000006                REQUIRE ??Subroutine99_0
   \   000006                ; // Fall through to label ??Subroutine99_0

   \                                 In  segment BANKED_CODE, align 1, keep-with-next
   3323          void ZDSecMgrNwkKeyInit(uint8 setDefault)
   \                     ZDSecMgrNwkKeyInit:
   3324          {
   \   000000                REQUIRE ?V0
   \   000000                REQUIRE ?V1
   \   000000                REQUIRE ?V2
   \   000000                REQUIRE ?V3
   \   000000   74F4         MOV       A,#-0xc
   \   000002   12....       LCALL     ?BANKED_ENTER_XDATA
   \   000005                ; Saved register size: 12
   \   000005                ; Auto size: 50
   \   000005   74CE         MOV       A,#-0x32
   \   000007   12....       LCALL     ?ALLOC_XSTACK8
   \   00000A   89..         MOV       ?V0,R1
   3325            uint8 status;
   3326            nwkKeyDesc nwkKey;
   3327            // Initialize NV items for NWK key, this structure contains the frame counter
   3328            // and is only used when NV_RESTORE is enabled
   3329            nwkActiveKeyItems keyItems;
   3330            
   3331          
   3332            uint8 i,nwkFrameCounterReset = FALSE;
   \   00000C   C2..         CLR       ?VB.0
   3333            nwkSecMaterialDesc_t nwkSecMaterialDesc;
   3334            
   3335            //NwkSecMaterial entry is empty if set to 0s
   3336            osal_memset(&nwkSecMaterialDesc,0,sizeof(nwkSecMaterialDesc_t));
   \   00000E                ; Setup parameters for call to function osal_memset
   \   00000E   7C0C         MOV       R4,#0xc
   \   000010   7D00         MOV       R5,#0x0
   \   000012   7900         MOV       R1,#0x0
   \   000014   AA..         MOV       R2,?XSP + 0
   \   000016   AB..         MOV       R3,?XSP + 1
   \   000018   12....       LCALL     `??osal_memset::?relay`; Banked call to: osal_memset
   3337          #ifdef NV_RESTORE  
   3338            // Has been set to reset the nwk security material?
   3339            if ( zgReadStartupOptions() & ZCD_STARTOPT_CLEAR_NWK_FRAME_COUNTER )
   \   00001B                ; Setup parameters for call to function zgReadStartupOptions
   \   00001B   12....       LCALL     `??zgReadStartupOptions::?relay`; Banked call to: zgReadStartupOptions
   \   00001E   E9           MOV       A,R1
   \   00001F   F8           MOV       R0,A
   \   000020   A2E7         MOV       C,0xE0 /* A   */.7
   \   000022   5002         JNC       ??ZDSecMgrNwkKeyInit_0
   3340            {
   3341              nwkFrameCounterReset = TRUE;
   \   000024   D2..         SETB      ?VB.0
   3342            }
   3343          #else
   3344            nwkFrameCounterReset = TRUE;
   3345          #endif
   3346            
   3347            //Initialize the nwk security material
   3348            for( i = 0; i < gMAX_NWK_SEC_MATERIAL_TABLE_ENTRIES; i++)
   \                     ??ZDSecMgrNwkKeyInit_0:
   \   000026   75..00       MOV       ?V1,#0x0
   \   000029   8039         SJMP      ??ZDSecMgrNwkKeyInit_1
   3349            {
   3350              if((osal_nv_item_init(ZCD_NV_NWK_SEC_MATERIAL_TABLE_START + i,sizeof(nwkSecMaterialDesc_t),&nwkSecMaterialDesc) == SUCCESS) && (nwkFrameCounterReset))
   \                     ??ZDSecMgrNwkKeyInit_2:
   \   00002B   EE           MOV       A,R6
   \   00002C   2475         ADD       A,#0x75
   \   00002E   FE           MOV       R6,A
   \   00002F   5001         JNC       ??ZDSecMgrNwkKeyInit_3
   \   000031   0F           INC       R7
   \                     ??ZDSecMgrNwkKeyInit_3:
   \   000032                ; Setup parameters for call to function osal_nv_item_init
   \   000032   A8..         MOV       R0,?XSP + 0
   \   000034   A9..         MOV       R1,?XSP + 1
   \   000036   88..         MOV       ?V2,R0
   \   000038   89..         MOV       ?V3,R1
   \   00003A   78..         MOV       R0,#?V2
   \   00003C   12....       LCALL     ?PUSH_XSTACK_I_TWO
   \   00003F   12....       LCALL     ?Subroutine64 & 0xFFFF
   \                     ??CrossCallReturnLabel_243:
   \   000042   12....       LCALL     ?DEALLOC_XSTACK8
   \   000045   E9           MOV       A,R1
   \   000046   701A         JNZ       ??ZDSecMgrNwkKeyInit_4
   \   000048   A2..         MOV       C,?VB.0
   \   00004A   5016         JNC       ??ZDSecMgrNwkKeyInit_4
   3351              {
   3352                osal_nv_write(ZCD_NV_NWK_SEC_MATERIAL_TABLE_START + i,0,sizeof(nwkSecMaterialDesc_t),&nwkSecMaterialDesc);
   \   00004C                ; Setup parameters for call to function osal_nv_write
   \   00004C   78..         MOV       R0,#?V2
   \   00004E   12....       LCALL     ?PUSH_XSTACK_I_TWO
   \   000051   75..0C       MOV       ?V2,#0xc
   \   000054   75..00       MOV       ?V3,#0x0
   \   000057   78..         MOV       R0,#?V2
   \   000059   12....       LCALL     ?PUSH_XSTACK_I_TWO
   \   00005C   12....       LCALL     ?Subroutine55 & 0xFFFF
   3353              }
   3354            }
   \                     ??CrossCallReturnLabel_256:
   \   00005F   12....       LCALL     ?DEALLOC_XSTACK8
   \                     ??ZDSecMgrNwkKeyInit_4:
   \   000062   05..         INC       ?V1
   \                     ??ZDSecMgrNwkKeyInit_1:
   \   000064   AE..         MOV       R6,?V1
   \   000066   7F00         MOV       R7,#0x0
   \   000068   90....       MOV       DPTR,#gMAX_NWK_SEC_MATERIAL_TABLE_ENTRIES
   \   00006B   E4           CLR       A
   \   00006C   93           MOVC      A,@A+DPTR
   \   00006D   F8           MOV       R0,A
   \   00006E   EE           MOV       A,R6
   \   00006F   C3           CLR       C
   \   000070   98           SUBB      A,R0
   \   000071   40B8         JC        ??ZDSecMgrNwkKeyInit_2
   3355            //Set the last item to the generic nwk security material by setting extPanId to 0xFFs
   3356            osal_memset(nwkSecMaterialDesc.extendedPanID,0xFF,Z_EXTADDR_LEN);
   \   000073                ; Setup parameters for call to function osal_memset
   \   000073   7C08         MOV       R4,#0x8
   \   000075   7D00         MOV       R5,#0x0
   \   000077   79FF         MOV       R1,#-0x1
   \   000079   7404         MOV       A,#0x4
   \   00007B   12....       LCALL     ?XSTACK_DISP0_8
   \   00007E   AA82         MOV       R2,DPL
   \   000080   AB83         MOV       R3,DPH
   \   000082   12....       LCALL     `??osal_memset::?relay`; Banked call to: osal_memset
   3357            
   3358            if((osal_nv_item_init(ZCD_NV_NWK_SEC_MATERIAL_TABLE_START + i - 1,sizeof(nwkSecMaterialDesc_t),&nwkSecMaterialDesc) == SUCCESS) && (nwkFrameCounterReset))
   \   000085   EE           MOV       A,R6
   \   000086   2474         ADD       A,#0x74
   \   000088   FE           MOV       R6,A
   \   000089   5001         JNC       ??ZDSecMgrNwkKeyInit_5
   \   00008B   0F           INC       R7
   \                     ??ZDSecMgrNwkKeyInit_5:
   \   00008C                ; Setup parameters for call to function osal_nv_item_init
   \   00008C   A8..         MOV       R0,?XSP + 0
   \   00008E   A9..         MOV       R1,?XSP + 1
   \   000090   88..         MOV       ?V2,R0
   \   000092   89..         MOV       ?V3,R1
   \   000094   78..         MOV       R0,#?V2
   \   000096   12....       LCALL     ?PUSH_XSTACK_I_TWO
   \   000099   12....       LCALL     ?Subroutine64 & 0xFFFF
   \                     ??CrossCallReturnLabel_244:
   \   00009C   12....       LCALL     ?DEALLOC_XSTACK8
   \   00009F   E9           MOV       A,R1
   \   0000A0   701A         JNZ       ??ZDSecMgrNwkKeyInit_6
   \   0000A2   A2..         MOV       C,?VB.0
   \   0000A4   5016         JNC       ??ZDSecMgrNwkKeyInit_6
   3359            {
   3360              osal_nv_write(ZCD_NV_NWK_SEC_MATERIAL_TABLE_START + i - 1,0,sizeof(nwkSecMaterialDesc_t),&nwkSecMaterialDesc);
   \   0000A6                ; Setup parameters for call to function osal_nv_write
   \   0000A6   78..         MOV       R0,#?V2
   \   0000A8   12....       LCALL     ?PUSH_XSTACK_I_TWO
   \   0000AB   75..0C       MOV       ?V2,#0xc
   \   0000AE   75..00       MOV       ?V3,#0x0
   \   0000B1   78..         MOV       R0,#?V2
   \   0000B3   12....       LCALL     ?PUSH_XSTACK_I_TWO
   \   0000B6   12....       LCALL     ?Subroutine55 & 0xFFFF
   3361            }
   \                     ??CrossCallReturnLabel_257:
   \   0000B9   12....       LCALL     ?DEALLOC_XSTACK8
   3362          
   3363          
   3364            osal_memset( &keyItems, 0, sizeof( nwkActiveKeyItems ) );
   \                     ??ZDSecMgrNwkKeyInit_6:
   \   0000BC                ; Setup parameters for call to function osal_memset
   \   0000BC   7C15         MOV       R4,#0x15
   \   0000BE   7D00         MOV       R5,#0x0
   \   0000C0   7900         MOV       R1,#0x0
   \   0000C2   741D         MOV       A,#0x1d
   \   0000C4   12....       LCALL     ?XSTACK_DISP101_8
   \   0000C7   12....       LCALL     `??osal_memset::?relay`; Banked call to: osal_memset
   3365          
   3366            status = osal_nv_item_init( ZCD_NV_NWKKEY, sizeof(nwkActiveKeyItems), (void *)&keyItems );
   3367          
   3368          #if defined ( NV_RESTORE )
   3369            // reset the values of NV items if NV_RESTORE is not enabled
   3370            if ((status == SUCCESS) && (setDefault == TRUE))
   \   0000CA                ; Setup parameters for call to function osal_nv_item_init
   \   0000CA   741D         MOV       A,#0x1d
   \   0000CC   12....       LCALL     ?XSTACK_DISP100_8
   \   0000CF   88..         MOV       ?V2,R0
   \   0000D1   89..         MOV       ?V3,R1
   \   0000D3   78..         MOV       R0,#?V2
   \   0000D5   12....       LCALL     ?PUSH_XSTACK_I_TWO
   \   0000D8   7C15         MOV       R4,#0x15
   \   0000DA   7D00         MOV       R5,#0x0
   \   0000DC   7A82         MOV       R2,#-0x7e
   \   0000DE   7B00         MOV       R3,#0x0
   \   0000E0   12....       LCALL     ??Subroutine99_0 & 0xFFFF
   \                     ??CrossCallReturnLabel_251:
   \   0000E3   12....       LCALL     ?DEALLOC_XSTACK8
   \   0000E6   E9           MOV       A,R1
   \   0000E7   7024         JNZ       ??ZDSecMgrNwkKeyInit_7
   \   0000E9   7401         MOV       A,#0x1
   \   0000EB   65..         XRL       A,?V0
   \   0000ED   701E         JNZ       ??ZDSecMgrNwkKeyInit_7
   3371            {
   3372              // clear NV data to default values
   3373              osal_nv_write( ZCD_NV_NWKKEY, 0, sizeof(nwkActiveKeyItems), &keyItems );
   \   0000EF                ; Setup parameters for call to function osal_nv_write
   \   0000EF   78..         MOV       R0,#?V2
   \   0000F1   12....       LCALL     ?PUSH_XSTACK_I_TWO
   \   0000F4   75..15       MOV       ?V2,#0x15
   \   0000F7   75..00       MOV       ?V3,#0x0
   \   0000FA   78..         MOV       R0,#?V2
   \   0000FC   12....       LCALL     ?PUSH_XSTACK_I_TWO
   \   0000FF   7C00         MOV       R4,#0x0
   \   000101   7D00         MOV       R5,#0x0
   \   000103   7A82         MOV       R2,#-0x7e
   \   000105   7B00         MOV       R3,#0x0
   \   000107   12....       LCALL     ??Subroutine101_0 & 0xFFFF
   3374            }
   \                     ??CrossCallReturnLabel_274:
   \   00010A   12....       LCALL     ?DEALLOC_XSTACK8
   3375          #else
   3376            (void)setDefault;   // to eliminate compiler warning
   3377          
   3378            // reset the values of NV items if NV_RESTORE is not enabled
   3379            if (status == SUCCESS)
   3380            {
   3381              osal_nv_write( ZCD_NV_NWKKEY, 0, sizeof(nwkActiveKeyItems), &keyItems );
   3382            }
   3383          #endif // defined (NV_RESTORE)
   3384          
   3385            // Initialize NV items for NWK Active and Alternate keys. These items are used
   3386            // all the time, independently of NV_RESTORE being set or not
   3387            osal_memset( &nwkKey, 0x00, sizeof(nwkKey) );
   \                     ??ZDSecMgrNwkKeyInit_7:
   \   00010D                ; Setup parameters for call to function osal_memset
   \   00010D   7C11         MOV       R4,#0x11
   \   00010F   7D00         MOV       R5,#0x0
   \   000111   7900         MOV       R1,#0x0
   \   000113   740C         MOV       A,#0xc
   \   000115   12....       LCALL     ?XSTACK_DISP101_8
   \   000118   12....       LCALL     `??osal_memset::?relay`; Banked call to: osal_memset
   3388          
   3389            status = osal_nv_item_init( ZCD_NV_NWK_ACTIVE_KEY_INFO, sizeof(nwkKey), &nwkKey);
   3390          
   3391          #if defined ( NV_RESTORE )
   3392            // reset the values of NV items if NV_RESTORE is not enabled
   3393            if ((status == SUCCESS) && (setDefault == TRUE))
   \   00011B                ; Setup parameters for call to function osal_nv_item_init
   \   00011B   740C         MOV       A,#0xc
   \   00011D   12....       LCALL     ?XSTACK_DISP100_8
   \   000120   88..         MOV       ?V2,R0
   \   000122   89..         MOV       ?V3,R1
   \   000124   78..         MOV       R0,#?V2
   \   000126   12....       LCALL     ?PUSH_XSTACK_I_TWO
   \   000129   7C11         MOV       R4,#0x11
   \   00012B   7D00         MOV       R5,#0x0
   \   00012D   7A3A         MOV       R2,#0x3a
   \   00012F   7B00         MOV       R3,#0x0
   \   000131   12....       LCALL     ??Subroutine99_0 & 0xFFFF
   \                     ??CrossCallReturnLabel_252:
   \   000134   12....       LCALL     ?DEALLOC_XSTACK8
   \   000137   E9           MOV       A,R1
   \   000138   7024         JNZ       ??ZDSecMgrNwkKeyInit_8
   \   00013A   7401         MOV       A,#0x1
   \   00013C   65..         XRL       A,?V0
   \   00013E   701E         JNZ       ??ZDSecMgrNwkKeyInit_8
   3394            {
   3395              // clear NV data to default values
   3396              osal_nv_write( ZCD_NV_NWK_ACTIVE_KEY_INFO, 0, sizeof(nwkKey), &nwkKey );
   \   000140                ; Setup parameters for call to function osal_nv_write
   \   000140   78..         MOV       R0,#?V2
   \   000142   12....       LCALL     ?PUSH_XSTACK_I_TWO
   \   000145   75..11       MOV       ?V2,#0x11
   \   000148   75..00       MOV       ?V3,#0x0
   \   00014B   78..         MOV       R0,#?V2
   \   00014D   12....       LCALL     ?PUSH_XSTACK_I_TWO
   \   000150   7C00         MOV       R4,#0x0
   \   000152   7D00         MOV       R5,#0x0
   \   000154   7A3A         MOV       R2,#0x3a
   \   000156   7B00         MOV       R3,#0x0
   \   000158   12....       LCALL     ??Subroutine101_0 & 0xFFFF
   3397            }
   \                     ??CrossCallReturnLabel_275:
   \   00015B   12....       LCALL     ?DEALLOC_XSTACK8
   3398          #else
   3399            // reset the values of NV items if NV_RESTORE is not enabled
   3400            if (status == SUCCESS)
   3401            {
   3402              osal_nv_write( ZCD_NV_NWK_ACTIVE_KEY_INFO, 0, sizeof(nwkKey), &nwkKey );
   3403            }
   3404          #endif // defined (NV_RESTORE)
   3405          
   3406            status = osal_nv_item_init( ZCD_NV_NWK_ALTERN_KEY_INFO, sizeof(nwkKey), &nwkKey );
   3407          
   3408          #if defined ( NV_RESTORE )
   3409            // reset the values of NV items if NV_RESTORE is not enabled
   3410            if ((status == SUCCESS) && (setDefault == TRUE))
   \                     ??ZDSecMgrNwkKeyInit_8:
   \   00015E                ; Setup parameters for call to function osal_nv_item_init
   \   00015E   740C         MOV       A,#0xc
   \   000160   12....       LCALL     ?XSTACK_DISP100_8
   \   000163   88..         MOV       ?V2,R0
   \   000165   89..         MOV       ?V3,R1
   \   000167   78..         MOV       R0,#?V2
   \   000169   12....       LCALL     ?PUSH_XSTACK_I_TWO
   \   00016C   7C11         MOV       R4,#0x11
   \   00016E   7D00         MOV       R5,#0x0
   \   000170   7A3B         MOV       R2,#0x3b
   \   000172   7B00         MOV       R3,#0x0
   \   000174   12....       LCALL     ??Subroutine99_0 & 0xFFFF
   \                     ??CrossCallReturnLabel_253:
   \   000177   12....       LCALL     ?DEALLOC_XSTACK8
   \   00017A   E9           MOV       A,R1
   \   00017B   7024         JNZ       ??ZDSecMgrNwkKeyInit_9
   \   00017D   7401         MOV       A,#0x1
   \   00017F   65..         XRL       A,?V0
   \   000181   701E         JNZ       ??ZDSecMgrNwkKeyInit_9
   3411            {
   3412              // clear NV data to default values
   3413              osal_nv_write( ZCD_NV_NWK_ALTERN_KEY_INFO, 0, sizeof(nwkKey), &nwkKey );
   \   000183                ; Setup parameters for call to function osal_nv_write
   \   000183   78..         MOV       R0,#?V2
   \   000185   12....       LCALL     ?PUSH_XSTACK_I_TWO
   \   000188   75..11       MOV       ?V2,#0x11
   \   00018B   75..00       MOV       ?V3,#0x0
   \   00018E   78..         MOV       R0,#?V2
   \   000190   12....       LCALL     ?PUSH_XSTACK_I_TWO
   \   000193   7C00         MOV       R4,#0x0
   \   000195   7D00         MOV       R5,#0x0
   \   000197   7A3B         MOV       R2,#0x3b
   \   000199   7B00         MOV       R3,#0x0
   \   00019B   12....       LCALL     ??Subroutine101_0 & 0xFFFF
   3414            }
   \                     ??CrossCallReturnLabel_276:
   \   00019E   12....       LCALL     ?DEALLOC_XSTACK8
   3415          #else
   3416            // reset the values of NV items if NV_RESTORE is not enabled
   3417            if (status == SUCCESS)
   3418            {
   3419              osal_nv_write( ZCD_NV_NWK_ALTERN_KEY_INFO, 0, sizeof(nwkKey), &nwkKey );
   3420            }
   3421          #endif // defined (NV_RESTORE)
   3422          
   3423          }
   \                     ??ZDSecMgrNwkKeyInit_9:
   \   0001A1   7432         MOV       A,#0x32
   \   0001A3   02....       LJMP      ?Subroutine3 & 0xFFFF
   3424          
   3425          
   3426          
   3427          /*********************************************************************
   3428           * @fn          ZDSecMgrReadKeyFromNv
   3429           *
   3430           * @brief       Looks for a specific key in NV based on Index value
   3431           *
   3432           * @param   keyNvId - Index of key to look in NV
   3433           *                    valid values are:
   3434           *                    ZCD_NV_NWK_ACTIVE_KEY_INFO
   3435           *                    ZCD_NV_NWK_ALTERN_KEY_INFO
   3436           *                    ZCD_NV_TCLK_TABLE_START + <offset_in_table>
   3437           *                    ZCD_NV_APS_LINK_KEY_DATA_START + <offset_in_table>
   3438           *                    ZCD_NV_PRECFGKEY
   3439           *
   3440           * @param  *keyinfo - Data is read into this buffer.
   3441           *
   3442           * @return  SUCCESS if NV data was copied to the keyinfo parameter .
   3443           *          Otherwise, NV_OPER_FAILED for failure.
   3444           */

   \                                 In  segment BANKED_CODE, align 1, keep-with-next
   3445          ZStatus_t ZDSecMgrReadKeyFromNv(uint16 keyNvId, void *keyinfo)
   \                     ZDSecMgrReadKeyFromNv:
   3446          {
   \   000000                REQUIRE ?V0
   \   000000                REQUIRE ?V1
   \   000000                REQUIRE ?V4
   \   000000                REQUIRE ?V5
   \   000000                REQUIRE ?V6
   \   000000   74F1         MOV       A,#-0xf
   \   000002   12....       LCALL     ?BANKED_ENTER_XDATA
   \   000005                ; Saved register size: 15
   \   000005                ; Auto size: 0
   \   000005   8C..         MOV       ?V0,R4
   \   000007   8D..         MOV       ?V1,R5
   3447            if ((keyNvId == ZCD_NV_NWK_ACTIVE_KEY_INFO) ||
   3448                (keyNvId == ZCD_NV_NWK_ALTERN_KEY_INFO))
   \   000009   743A         MOV       A,#0x3a
   \   00000B   6A           XRL       A,R2
   \   00000C   7001         JNZ       ??ZDSecMgrReadKeyFromNv_0
   \   00000E   EB           MOV       A,R3
   \                     ??ZDSecMgrReadKeyFromNv_0:
   \   00000F   6006         JZ        ??ZDSecMgrReadKeyFromNv_1
   \   000011   743B         MOV       A,#0x3b
   \   000013   6A           XRL       A,R2
   \   000014   4B           ORL       A,R3
   \   000015   7014         JNZ       ??ZDSecMgrReadKeyFromNv_2
   3449            {
   3450              // get NWK active or alternate key from NV
   3451              return (osal_nv_read(keyNvId,
   3452                                   osal_offsetof(nwkKeyDesc, key),
   3453                                   SEC_KEY_LEN,
   3454                                   keyinfo));
   \                     ??ZDSecMgrReadKeyFromNv_1:
   \   000017                ; Setup parameters for call to function osal_nv_read
   \   000017   78..         MOV       R0,#?V0
   \   000019   12....       LCALL     ?PUSH_XSTACK_I_TWO
   \   00001C   75..10       MOV       ?V0,#0x10
   \   00001F   75..00       MOV       ?V1,#0x0
   \   000022   78..         MOV       R0,#?V0
   \   000024   12....       LCALL     ?PUSH_XSTACK_I_TWO
   \   000027   7C01         MOV       R4,#0x1
   \   000029   806C         SJMP      ??ZDSecMgrReadKeyFromNv_3
   3455            }
   3456            
   3457            else if(keyNvId == ZCD_NV_TCLK_DEFAULT)
   \                     ??ZDSecMgrReadKeyFromNv_2:
   \   00002B   7403         MOV       A,#0x3
   \   00002D   6A           XRL       A,R2
   \   00002E   7003         JNZ       ??ZDSecMgrReadKeyFromNv_4
   \   000030   7401         MOV       A,#0x1
   \   000032   6B           XRL       A,R3
   \                     ??ZDSecMgrReadKeyFromNv_4:
   \   000033   7020         JNZ       ??ZDSecMgrReadKeyFromNv_5
   3458            {
   3459              osal_memcpy(keyinfo,defaultTCLinkKey,SEC_KEY_LEN);
   \   000035                ; Setup parameters for call to function osal_memcpy
   \   000035   75....       MOV       ?V4,#defaultTCLinkKey & 0xff
   \   000038   75....       MOV       ?V5,#(defaultTCLinkKey >> 8) & 0xff
   \   00003B   75..80       MOV       ?V6,#-0x80
   \   00003E   78..         MOV       R0,#?V4
   \   000040   12....       LCALL     ?PUSH_XSTACK_I_THREE
   \   000043   7C10         MOV       R4,#0x10
   \   000045   7D00         MOV       R5,#0x0
   \   000047   AA..         MOV       R2,?V0
   \   000049   AB..         MOV       R3,?V1
   \   00004B   12....       LCALL     ??Subroutine105_0 & 0xFFFF
   \                     ??CrossCallReturnLabel_293:
   \   00004E   12....       LCALL     ?DEALLOC_XSTACK8
   3460              return ZSuccess;
   \   000051   7900         MOV       R1,#0x0
   \   000053   804E         SJMP      ??ZDSecMgrReadKeyFromNv_6
   3461            }
   3462            
   3463          #if (ZG_BUILD_JOINING_TYPE) 
   3464            else if(keyNvId == ZCD_NV_DISTRIBUTED_KEY)
   3465            {
   3466              if(ZG_DEVICE_JOINING_TYPE)
   3467              {
   3468                osal_memcpy(keyinfo,distributedDefaultKey,SEC_KEY_LEN);
   3469                return ZSuccess;
   3470              }
   3471            }
   3472          #endif
   3473            
   3474            else if((keyNvId == ZCD_NV_TCLK_JOIN_DEV) || (keyNvId == ZCD_NV_PRECFGKEY)) 
   \                     ??ZDSecMgrReadKeyFromNv_5:
   \   000055   7402         MOV       A,#0x2
   \   000057   6A           XRL       A,R2
   \   000058   7003         JNZ       ??ZDSecMgrReadKeyFromNv_7
   \   00005A   7401         MOV       A,#0x1
   \   00005C   6B           XRL       A,R3
   \                     ??ZDSecMgrReadKeyFromNv_7:
   \   00005D   6026         JZ        ??ZDSecMgrReadKeyFromNv_8
   \   00005F   7462         MOV       A,#0x62
   \   000061   6A           XRL       A,R2
   \   000062   4B           ORL       A,R3
   \   000063   6020         JZ        ??ZDSecMgrReadKeyFromNv_8
   3475            {
   3476              // Read entry keyNvId of the TC link key table from NV. keyNvId should be
   3477              // ZCD_NV_TCLK_TABLE_START + <offset_in_table>
   3478              return (osal_nv_read(keyNvId,
   3479                                   0,
   3480                                   SEC_KEY_LEN,
   3481                                   keyinfo));
   \   000065                ; Setup parameters for call to function osal_nv_read
   3482            }
   3483              else if (keyNvId == ZCD_NV_PRECFGKEY)
   3484            {
   3485              // Read entry keyNvId of the Preconfig key from NV.
   3486              return (osal_nv_read(keyNvId,
   3487                                   0,
   3488                                   SEC_KEY_LEN,
   3489                                   keyinfo));
   3490            }
   3491          
   3492            else if((keyNvId >= ZCD_NV_TCLK_IC_TABLE_START) &&
   3493                     (keyNvId < (ZCD_NV_TCLK_IC_TABLE_START + gZDSECMGR_TC_DEVICE_IC_MAX)))
   \   000065   EA           MOV       A,R2
   \   000066   24FC         ADD       A,#-0x4
   \   000068   F8           MOV       R0,A
   \   000069   EB           MOV       A,R3
   \   00006A   34FE         ADDC      A,#-0x2
   \   00006C   F9           MOV       R1,A
   \   00006D   C3           CLR       C
   \   00006E   E8           MOV       A,R0
   \   00006F   940C         SUBB      A,#0xc
   \   000071   E9           MOV       A,R1
   \   000072   9400         SUBB      A,#0x0
   \   000074   400F         JC        ??ZDSecMgrReadKeyFromNv_8
   3494            {
   3495              //Read the key derived from the IC
   3496              return (osal_nv_read(keyNvId,
   3497                                   0,
   3498                                   SEC_KEY_LEN,
   3499                                   keyinfo));
   \   000076                ; Setup parameters for call to function osal_nv_read
   3500            
   3501            }
   3502            else if ((keyNvId >= ZCD_NV_APS_LINK_KEY_DATA_START) &&
   3503                     (keyNvId < (ZCD_NV_APS_LINK_KEY_DATA_START + ZDSECMGR_ENTRY_MAX)))
   \   000076   EA           MOV       A,R2
   \   000077   24FF         ADD       A,#-0x1
   \   000079   F8           MOV       R0,A
   \   00007A   EB           MOV       A,R3
   \   00007B   34FD         ADDC      A,#-0x3
   \   00007D   F9           MOV       R1,A
   \   00007E   C3           CLR       C
   \   00007F   E8           MOV       A,R0
   \   000080   12....       LCALL     ??Subroutine78_0 & 0xFFFF
   \                     ??CrossCallReturnLabel_126:
   \   000083   501C         JNC       ??ZDSecMgrReadKeyFromNv_9
   3504            {
   3505              // Read entry keyNvId of the APS link key table from NV. keyNvId should be
   3506              // ZCD_NV_APS_LINK_KEY_DATA_START + <offset_in_table>
   3507              return (osal_nv_read(keyNvId,
   3508                                   osal_offsetof(APSME_LinkKeyData_t, key),
   3509                                   SEC_KEY_LEN,
   3510                                   keyinfo));
   \   000085                ; Setup parameters for call to function osal_nv_read
   \                     ??ZDSecMgrReadKeyFromNv_8:
   \   000085   78..         MOV       R0,#?V0
   \   000087   12....       LCALL     ?PUSH_XSTACK_I_TWO
   \   00008A   75..10       MOV       ?V0,#0x10
   \   00008D   75..00       MOV       ?V1,#0x0
   \   000090   78..         MOV       R0,#?V0
   \   000092   12....       LCALL     ?PUSH_XSTACK_I_TWO
   \   000095   7C00         MOV       R4,#0x0
   \                     ??ZDSecMgrReadKeyFromNv_3:
   \   000097   7D00         MOV       R5,#0x0
   3511            }
   \   000099   12....       LCALL     ??Subroutine108_0 & 0xFFFF
   \                     ??CrossCallReturnLabel_300:
   \   00009C   12....       LCALL     ?DEALLOC_XSTACK8
   \   00009F   8002         SJMP      ??ZDSecMgrReadKeyFromNv_6
   3512          
   3513            return NV_OPER_FAILED;
   \                     ??ZDSecMgrReadKeyFromNv_9:
   \   0000A1   790A         MOV       R1,#0xa
   \                     ??ZDSecMgrReadKeyFromNv_6:
   \   0000A3   02....       LJMP      ??Subroutine95_0 & 0xFFFF
   3514          }
   3515          
   3516          /******************************************************************************
   3517           * @fn          ZDSecMgrApsLinkKeyInit
   3518           *
   3519           * @brief       Initialize the NV table for Application link keys
   3520           *
   3521           * @param       setDefault - TRUE to set default values
   3522           *
   3523           * @return      none
   3524           */

   \                                 In  segment BANKED_CODE, align 1, keep-with-next
   3525          void ZDSecMgrApsLinkKeyInit(uint8 setDefault)
   \                     ZDSecMgrApsLinkKeyInit:
   3526          {
   \   000000                REQUIRE ?V0
   \   000000                REQUIRE ?V1
   \   000000                REQUIRE ?V2
   \   000000                REQUIRE ?V3
   \   000000   74F4         MOV       A,#-0xc
   \   000002   12....       LCALL     ?BANKED_ENTER_XDATA
   \   000005                ; Saved register size: 12
   \   000005                ; Auto size: 24
   \   000005   74E8         MOV       A,#-0x18
   \   000007   12....       LCALL     ?ALLOC_XSTACK8
   \   00000A   89..         MOV       ?V1,R1
   3527            APSME_LinkKeyData_t pApsLinkKey;
   3528            uint8 i;
   3529            uint8 status;
   3530          
   3531            // Initialize all NV items for APS link key, if not exist already.
   3532            osal_memset( &pApsLinkKey, 0x00, sizeof(APSME_LinkKeyData_t) );
   \   00000C                ; Setup parameters for call to function osal_memset
   \   00000C   7C18         MOV       R4,#0x18
   \   00000E   7D00         MOV       R5,#0x0
   \   000010   7900         MOV       R1,#0x0
   \   000012   AA..         MOV       R2,?XSP + 0
   \   000014   AB..         MOV       R3,?XSP + 1
   \   000016   12....       LCALL     `??osal_memset::?relay`; Banked call to: osal_memset
   3533          
   3534            for( i = 0; i < ZDSECMGR_ENTRY_MAX; i++ )
   \   000019   75..00       MOV       ?V0,#0x0
   3535            {
   3536              status = osal_nv_item_init( (ZCD_NV_APS_LINK_KEY_DATA_START + i),
   3537                                         sizeof(APSME_LinkKeyData_t), &pApsLinkKey );
   3538          
   3539          #if defined ( NV_RESTORE )
   3540            // If the set default is requested, the APS Link key needs to be erased, regardless of the NV_RESTORE enabled
   3541                if ((status == SUCCESS) && (setDefault == TRUE ))
   \                     ??ZDSecMgrApsLinkKeyInit_0:
   \   00001C   E5..         MOV       A,?V0
   \   00001E   2401         ADD       A,#0x1
   \   000020   FE           MOV       R6,A
   \   000021   E4           CLR       A
   \   000022   3402         ADDC      A,#0x2
   \   000024   FF           MOV       R7,A
   \   000025                ; Setup parameters for call to function osal_nv_item_init
   \   000025   A8..         MOV       R0,?XSP + 0
   \   000027   A9..         MOV       R1,?XSP + 1
   \   000029   88..         MOV       ?V2,R0
   \   00002B   89..         MOV       ?V3,R1
   \   00002D   78..         MOV       R0,#?V2
   \   00002F   12....       LCALL     ?PUSH_XSTACK_I_TWO
   \   000032   7C18         MOV       R4,#0x18
   \   000034   12....       LCALL     ??Subroutine98_0 & 0xFFFF
   \                     ??CrossCallReturnLabel_245:
   \   000037   12....       LCALL     ?DEALLOC_XSTACK8
   \   00003A   E9           MOV       A,R1
   \   00003B   701C         JNZ       ??ZDSecMgrApsLinkKeyInit_1
   \   00003D   7401         MOV       A,#0x1
   \   00003F   65..         XRL       A,?V1
   \   000041   7016         JNZ       ??ZDSecMgrApsLinkKeyInit_1
   3542                {
   3543                  osal_nv_write( (ZCD_NV_APS_LINK_KEY_DATA_START + i), 0,
   3544                                sizeof(APSME_LinkKeyData_t), &pApsLinkKey );
   \   000043                ; Setup parameters for call to function osal_nv_write
   \   000043   78..         MOV       R0,#?V2
   \   000045   12....       LCALL     ?PUSH_XSTACK_I_TWO
   \   000048   75..18       MOV       ?V2,#0x18
   \   00004B   75..00       MOV       ?V3,#0x0
   \   00004E   78..         MOV       R0,#?V2
   \   000050   12....       LCALL     ?PUSH_XSTACK_I_TWO
   \   000053   12....       LCALL     ?Subroutine55 & 0xFFFF
   3545          
   3546                }
   3547          #else
   3548              // reset the values of NV items if NV_RESTORE is not enabled
   3549              if (status == SUCCESS)
   3550              {
   3551                osal_nv_write( (ZCD_NV_APS_LINK_KEY_DATA_START + i), 0,
   3552                              sizeof(APSME_LinkKeyData_t), &pApsLinkKey );
   3553          
   3554              }
   3555          #endif // defined (NV_RESTORE)
   3556            }
   \                     ??CrossCallReturnLabel_258:
   \   000056   12....       LCALL     ?DEALLOC_XSTACK8
   \                     ??ZDSecMgrApsLinkKeyInit_1:
   \   000059   05..         INC       ?V0
   \   00005B   EE           MOV       A,R6
   \   00005C   C3           CLR       C
   \   00005D   9403         SUBB      A,#0x3
   \   00005F   40BB         JC        ??ZDSecMgrApsLinkKeyInit_0
   3557          }
   \   000061   7418         MOV       A,#0x18
   \   000063   02....       LJMP      ?Subroutine3 & 0xFFFF
   3558          
   3559          
   3560          /******************************************************************************
   3561           * @fn          ZDSecMgrInitNVKeyTables
   3562           *
   3563           * @brief       Initialize the NV table for All keys: NWK, Master, TCLK and APS
   3564           *
   3565           * @param       setDefault - TRUE to set default values
   3566           *
   3567           * @return      none
   3568           */

   \                                 In  segment BANKED_CODE, align 1, keep-with-next
   3569          void ZDSecMgrInitNVKeyTables(uint8 setDefault)
   \                     ZDSecMgrInitNVKeyTables:
   3570          {
   \   000000   74F7         MOV       A,#-0x9
   \   000002   12....       LCALL     ?BANKED_ENTER_XDATA
   \   000005                ; Saved register size: 9
   \   000005                ; Auto size: 0
   \   000005   E9           MOV       A,R1
   \   000006   FE           MOV       R6,A
   3571            ZDSecMgrNwkKeyInit(setDefault);
   \   000007                ; Setup parameters for call to function ZDSecMgrNwkKeyInit
   \   000007   12....       LCALL     `??ZDSecMgrNwkKeyInit::?relay`; Banked call to: ZDSecMgrNwkKeyInit
   3572            ZDSecMgrApsLinkKeyInit(setDefault); 
   \   00000A                ; Setup parameters for call to function ZDSecMgrApsLinkKeyInit
   \   00000A   EE           MOV       A,R6
   \   00000B   F9           MOV       R1,A
   \   00000C   12....       LCALL     `??ZDSecMgrApsLinkKeyInit::?relay`; Banked call to: ZDSecMgrApsLinkKeyInit
   3573            APSME_TCLinkKeyInit(setDefault);
   \   00000F                ; Setup parameters for call to function APSME_TCLinkKeyInit
   \   00000F   EE           MOV       A,R6
   \   000010   F9           MOV       R1,A
   \   000011   12....       LCALL     `??APSME_TCLinkKeyInit::?relay`; Banked call to: APSME_TCLinkKeyInit
   3574            
   3575          #if ZG_BUILD_COORDINATOR_TYPE
   3576            if(ZG_DEVICE_COORDINATOR_TYPE)
   3577            {
   3578              ZDSecMgrGenerateSeed(setDefault);
   \   000014                ; Setup parameters for call to function ZDSecMgrGenerateSeed
   \   000014   EE           MOV       A,R6
   \   000015   F9           MOV       R1,A
   \   000016   12....       LCALL     `??ZDSecMgrGenerateSeed::?relay`; Banked call to: ZDSecMgrGenerateSeed
   3579              
   3580            }
   3581          #endif
   3582          }
   \   000019   02....       LJMP      ??Subroutine83_0 & 0xFFFF
   3583          
   3584          
   3585          /******************************************************************************
   3586           * @fn          ZDSecMgrSaveApsLinkKey
   3587           *
   3588           * @brief       Save APS Link Key to NV. It will loop through all the keys
   3589           *              to see which one to save.
   3590           *
   3591           * @param       none
   3592           *
   3593           * @return      none
   3594           */

   \                                 In  segment BANKED_CODE, align 1, keep-with-next
   3595          void ZDSecMgrSaveApsLinkKey(void)
   \                     ZDSecMgrSaveApsLinkKey:
   3596          {
   \   000000                REQUIRE ?V0
   \   000000                REQUIRE ?V1
   \   000000                REQUIRE ?V2
   \   000000                REQUIRE ?V3
   \   000000                REQUIRE ?V4
   \   000000                REQUIRE ?V5
   \   000000                REQUIRE ?V6
   \   000000                REQUIRE ?V7
   \   000000                REQUIRE ?V8
   \   000000                REQUIRE ?V9
   \   000000   74EE         MOV       A,#-0x12
   \   000002   12....       LCALL     ?BANKED_ENTER_XDATA
   \   000005                ; Saved register size: 18
   \   000005                ; Auto size: 0
   3597            APSME_LinkKeyData_t *pKeyData = NULL;
   3598            int i;
   3599          
   3600            pKeyData = (APSME_LinkKeyData_t *)osal_mem_alloc(sizeof(APSME_LinkKeyData_t));
   \   000005                ; Setup parameters for call to function osal_mem_alloc
   \   000005   7A18         MOV       R2,#0x18
   \   000007   12....       LCALL     ?Subroutine48 & 0xFFFF
   3601          
   3602            if (pKeyData != NULL)
   \                     ??CrossCallReturnLabel_70:
   \   00000A   7003         JNZ       $+5
   \   00000C   02....       LJMP      ??ZDSecMgrSaveApsLinkKey_0 & 0xFFFF
   3603            {
   3604              // checks all pending flags to know which one to save
   3605              for (i = 0; i < ZDSECMGR_ENTRY_MAX; i++)
   \   00000F   75..00       MOV       ?V0,#0x0
   \   000012   75..00       MOV       ?V1,#0x0
   3606              {
   3607                if (ApsLinkKeyFrmCntr[i].pendingFlag == TRUE)
   \                     ??ZDSecMgrSaveApsLinkKey_1:
   \   000015   E5..         MOV       A,?V0
   \   000017   75F009       MOV       B,#0x9
   \   00001A   A4           MUL       AB
   \   00001B   F8           MOV       R0,A
   \   00001C   AAF0         MOV       R2,B
   \   00001E   75F009       MOV       B,#0x9
   \   000021   E5..         MOV       A,?V1
   \   000023   A4           MUL       AB
   \   000024   2A           ADD       A,R2
   \   000025   F9           MOV       R1,A
   \   000026   74..         MOV       A,#ApsLinkKeyFrmCntr & 0xff
   \   000028   28           ADD       A,R0
   \   000029   F5..         MOV       ?V2,A
   \   00002B   74..         MOV       A,#(ApsLinkKeyFrmCntr >> 8) & 0xff
   \   00002D   39           ADDC      A,R1
   \   00002E   F5..         MOV       ?V3,A
   \   000030   E5..         MOV       A,?V2
   \   000032   12....       LCALL     ?Subroutine65 & 0xFFFF
   \                     ??CrossCallReturnLabel_105:
   \   000035   707B         JNZ       ??ZDSecMgrSaveApsLinkKey_2
   \   000037   E5..         MOV       A,?V0
   \   000039   2401         ADD       A,#0x1
   \   00003B   FE           MOV       R6,A
   \   00003C   E5..         MOV       A,?V1
   \   00003E   3402         ADDC      A,#0x2
   \   000040   FF           MOV       R7,A
   \   000041                ; Setup parameters for call to function osal_nv_read
   \   000041   78..         MOV       R0,#?V6
   \   000043   12....       LCALL     ?PUSH_XSTACK_I_TWO
   \   000046   75..18       MOV       ?V8,#0x18
   \   000049   75..00       MOV       ?V9,#0x0
   \   00004C   78..         MOV       R0,#?V8
   \   00004E   12....       LCALL     ?PUSH_XSTACK_I_TWO
   \   000051   7C00         MOV       R4,#0x0
   \   000053   7D00         MOV       R5,#0x0
   \   000055   EE           MOV       A,R6
   \   000056   FA           MOV       R2,A
   \   000057   EF           MOV       A,R7
   \   000058   FB           MOV       R3,A
   \   000059   12....       LCALL     ??Subroutine108_0 & 0xFFFF
   \                     ??CrossCallReturnLabel_301:
   \   00005C   12....       LCALL     ?DEALLOC_XSTACK8
   \   00005F   E9           MOV       A,R1
   \   000060   7050         JNZ       ??ZDSecMgrSaveApsLinkKey_2
   3608                {
   3609                  // retrieve key from NV
   3610                  if (osal_nv_read(ZCD_NV_APS_LINK_KEY_DATA_START + i, 0,
   3611                                   sizeof(APSME_LinkKeyData_t), pKeyData) == SUCCESS)
   3612                  {
   3613                    pKeyData->txFrmCntr = ApsLinkKeyFrmCntr[i].txFrmCntr;
   \   000062   85..82       MOV       DPL,?V2
   \   000065   85..83       MOV       DPH,?V3
   \   000068   12....       LCALL     ?XLOAD_R0123
   \   00006B   E5..         MOV       A,?V6
   \   00006D   2410         ADD       A,#0x10
   \   00006F   F582         MOV       DPL,A
   \   000071   E4           CLR       A
   \   000072   35..         ADDC      A,?V7
   \   000074   F583         MOV       DPH,A
   \   000076   12....       LCALL     ?XSTORE_R0123
   3614                    pKeyData->rxFrmCntr = ApsLinkKeyFrmCntr[i].rxFrmCntr;
   \   000079   85..82       MOV       DPL,?V2
   \   00007C   85..83       MOV       DPH,?V3
   \   00007F   A3           INC       DPTR
   \   000080   A3           INC       DPTR
   \   000081   A3           INC       DPTR
   \   000082   A3           INC       DPTR
   \   000083   12....       LCALL     ?XLOAD_R0123
   \   000086   E5..         MOV       A,?V6
   \   000088   2414         ADD       A,#0x14
   \   00008A   F582         MOV       DPL,A
   \   00008C   E4           CLR       A
   \   00008D   35..         ADDC      A,?V7
   \   00008F   F583         MOV       DPH,A
   \   000091   12....       LCALL     ?XSTORE_R0123
   3615          
   3616                    // Write the APS link key back to the NV
   3617                    osal_nv_write(ZCD_NV_APS_LINK_KEY_DATA_START + i, 0,
   3618                                  sizeof(APSME_LinkKeyData_t), pKeyData);
   \   000094                ; Setup parameters for call to function osal_nv_write
   \   000094   78..         MOV       R0,#?V6
   \   000096   12....       LCALL     ?PUSH_XSTACK_I_TWO
   \   000099   75..18       MOV       ?V2,#0x18
   \   00009C   75..00       MOV       ?V3,#0x0
   \   00009F   78..         MOV       R0,#?V2
   \   0000A1   12....       LCALL     ?PUSH_XSTACK_I_TWO
   \   0000A4   12....       LCALL     ?Subroutine55 & 0xFFFF
   \                     ??CrossCallReturnLabel_259:
   \   0000A7   12....       LCALL     ?DEALLOC_XSTACK8
   3619          
   3620                    // clear the pending write flag
   3621                    ApsLinkKeyFrmCntr[i].pendingFlag = FALSE;
   \   0000AA   85..82       MOV       DPL,?V4
   \   0000AD   85..83       MOV       DPH,?V5
   \   0000B0   E4           CLR       A
   \   0000B1   F0           MOVX      @DPTR,A
   3622                  }
   3623                }
   3624              }
   \                     ??ZDSecMgrSaveApsLinkKey_2:
   \   0000B2   05..         INC       ?V0
   \   0000B4   E5..         MOV       A,?V0
   \   0000B6   7002         JNZ       ??ZDSecMgrSaveApsLinkKey_3
   \   0000B8   05..         INC       ?V1
   \                     ??ZDSecMgrSaveApsLinkKey_3:
   \   0000BA   C3           CLR       C
   \   0000BB   9403         SUBB      A,#0x3
   \   0000BD   E5..         MOV       A,?V1
   \   0000BF   9400         SUBB      A,#0x0
   \   0000C1   A2D2         MOV       C,0xD0 /* PSW */.2
   \   0000C3   65D0         XRL       A,PSW
   \   0000C5   33           RLC       A
   \   0000C6   5003         JNC       $+5
   \   0000C8   02....       LJMP      ??ZDSecMgrSaveApsLinkKey_1 & 0xFFFF
   3625          
   3626              // clear copy of key in RAM
   3627              osal_memset( pKeyData, 0x00, sizeof(APSME_LinkKeyData_t) );
   \   0000CB                ; Setup parameters for call to function osal_memset
   \   0000CB   7C18         MOV       R4,#0x18
   \   0000CD   7D00         MOV       R5,#0x0
   \   0000CF   7900         MOV       R1,#0x0
   \   0000D1   AA..         MOV       R2,?V6
   \   0000D3   AB..         MOV       R3,?V7
   \   0000D5   12....       LCALL     `??osal_memset::?relay`; Banked call to: osal_memset
   3628          
   3629              osal_mem_free(pKeyData);
   \   0000D8                ; Setup parameters for call to function osal_mem_free
   \   0000D8   AA..         MOV       R2,?V6
   \   0000DA   AB..         MOV       R3,?V7
   \   0000DC   12....       LCALL     `??osal_mem_free::?relay`; Banked call to: osal_mem_free
   3630            }
   3631          }
   \                     ??ZDSecMgrSaveApsLinkKey_0:
   \   0000DF   02....       LJMP      ??Subroutine102_0 & 0xFFFF

   \                                 In  segment BANKED_CODE, align 1, keep-with-next
   \                     ?Subroutine65:
   \   000000   2408         ADD       A,#0x8
   \   000002   F5..         MOV       ?V4,A
   \   000004   E4           CLR       A
   \   000005   35..         ADDC      A,?V3
   \   000007   F5..         MOV       ?V5,A
   \   000009   85..82       MOV       DPL,?V4
   \   00000C   F583         MOV       DPH,A
   \   00000E   E0           MOVX      A,@DPTR
   \   00000F   6401         XRL       A,#0x1
   \   000011   22           RET

   \                                 In  segment BANKED_CODE, align 1, keep-with-next
   \                     ?Subroutine48:
   \   000000   7B00         MOV       R3,#0x0
   \   000002   12....       LCALL     `??osal_mem_alloc::?relay`; Banked call to: osal_mem_alloc
   \   000005   8A..         MOV       ?V6,R2
   \   000007   8B..         MOV       ?V7,R3
   \   000009   EA           MOV       A,R2
   \   00000A   4B           ORL       A,R3
   \   00000B   22           RET
   3632          
   3633          /******************************************************************************
   3634           * @fn          ZDSecMgrSaveTCLinkKey
   3635           *
   3636           * @brief       Save TC Link Key to NV. It will loop through all the keys
   3637           *              to see which one to save.
   3638           *
   3639           * @param       none
   3640           *
   3641           * @return      none
   3642           */

   \                                 In  segment BANKED_CODE, align 1, keep-with-next
   3643          void ZDSecMgrSaveTCLinkKey(void)
   \                     ZDSecMgrSaveTCLinkKey:
   3644          {
   \   000000                REQUIRE ?V0
   \   000000                REQUIRE ?V1
   \   000000                REQUIRE ?V2
   \   000000                REQUIRE ?V3
   \   000000                REQUIRE ?V4
   \   000000                REQUIRE ?V5
   \   000000                REQUIRE ?V6
   \   000000                REQUIRE ?V7
   \   000000                REQUIRE ?V8
   \   000000                REQUIRE ?V9
   \   000000   74EE         MOV       A,#-0x12
   \   000002   12....       LCALL     ?BANKED_ENTER_XDATA
   \   000005                ; Saved register size: 18
   \   000005                ; Auto size: 0
   3645            APSME_TCLKDevEntry_t *pKeyData = NULL;
   3646            uint16 i;
   3647          
   3648            pKeyData = (APSME_TCLKDevEntry_t *)osal_mem_alloc(sizeof(APSME_TCLKDevEntry_t));
   \   000005                ; Setup parameters for call to function osal_mem_alloc
   \   000005   7A13         MOV       R2,#0x13
   \   000007   12....       LCALL     ?Subroutine48 & 0xFFFF
   3649          
   3650            if (pKeyData != NULL)
   \                     ??CrossCallReturnLabel_71:
   \   00000A   7003         JNZ       $+5
   \   00000C   02....       LJMP      ??ZDSecMgrSaveTCLinkKey_0 & 0xFFFF
   3651            {
   3652              for( i = 0; i < gZDSECMGR_TC_DEVICE_MAX; i++ )
   \   00000F   75..00       MOV       ?V0,#0x0
   \   000012   75..00       MOV       ?V1,#0x0
   3653              {
   3654                if (TCLinkKeyFrmCntr[i].pendingFlag == TRUE)
   \                     ??ZDSecMgrSaveTCLinkKey_1:
   \   000015   E5..         MOV       A,?V0
   \   000017   75F009       MOV       B,#0x9
   \   00001A   A4           MUL       AB
   \   00001B   F8           MOV       R0,A
   \   00001C   AAF0         MOV       R2,B
   \   00001E   75F009       MOV       B,#0x9
   \   000021   E5..         MOV       A,?V1
   \   000023   12....       LCALL     ?Subroutine46 & 0xFFFF
   \                     ??CrossCallReturnLabel_67:
   \   000026   12....       LCALL     ?Subroutine65 & 0xFFFF
   \                     ??CrossCallReturnLabel_106:
   \   000029   7075         JNZ       ??ZDSecMgrSaveTCLinkKey_2
   3655                {
   3656                  if (osal_nv_read(ZCD_NV_TCLK_TABLE_START + i, 0,
   3657                                   sizeof(APSME_TCLKDevEntry_t), pKeyData) == SUCCESS)
   \   00002B   E5..         MOV       A,?V0
   \   00002D   2411         ADD       A,#0x11
   \   00002F   FE           MOV       R6,A
   \   000030   E5..         MOV       A,?V1
   \   000032   3401         ADDC      A,#0x1
   \   000034   FF           MOV       R7,A
   \   000035                ; Setup parameters for call to function osal_nv_read
   \   000035   78..         MOV       R0,#?V6
   \   000037   12....       LCALL     ?PUSH_XSTACK_I_TWO
   \   00003A   75..13       MOV       ?V8,#0x13
   \   00003D   75..00       MOV       ?V9,#0x0
   \   000040   78..         MOV       R0,#?V8
   \   000042   12....       LCALL     ?PUSH_XSTACK_I_TWO
   \   000045   7C00         MOV       R4,#0x0
   \   000047   7D00         MOV       R5,#0x0
   \   000049   EE           MOV       A,R6
   \   00004A   FA           MOV       R2,A
   \   00004B   EF           MOV       A,R7
   \   00004C   FB           MOV       R3,A
   \   00004D   12....       LCALL     ??Subroutine108_0 & 0xFFFF
   \                     ??CrossCallReturnLabel_302:
   \   000050   12....       LCALL     ?DEALLOC_XSTACK8
   \   000053   E9           MOV       A,R1
   \   000054   704A         JNZ       ??ZDSecMgrSaveTCLinkKey_2
   3658                  {
   3659                    pKeyData->txFrmCntr = TCLinkKeyFrmCntr[i].txFrmCntr;
   \   000056   85..82       MOV       DPL,?V2
   \   000059   85..83       MOV       DPH,?V3
   \   00005C   12....       LCALL     ?XLOAD_R0123
   \   00005F   85..82       MOV       DPL,?V6
   \   000062   85..83       MOV       DPH,?V7
   \   000065   12....       LCALL     ?XSTORE_R0123
   3660                    pKeyData->rxFrmCntr = TCLinkKeyFrmCntr[i].rxFrmCntr;
   \   000068   85..82       MOV       DPL,?V2
   \   00006B   85..83       MOV       DPH,?V3
   \   00006E   A3           INC       DPTR
   \   00006F   A3           INC       DPTR
   \   000070   A3           INC       DPTR
   \   000071   A3           INC       DPTR
   \   000072   12....       LCALL     ?XLOAD_R0123
   \   000075   85..82       MOV       DPL,?V6
   \   000078   85..83       MOV       DPH,?V7
   \   00007B   A3           INC       DPTR
   \   00007C   A3           INC       DPTR
   \   00007D   A3           INC       DPTR
   \   00007E   A3           INC       DPTR
   \   00007F   12....       LCALL     ?XSTORE_R0123
   3661          
   3662                    // Write the TC link key back to the NV
   3663                    osal_nv_write(ZCD_NV_TCLK_TABLE_START + i, 0,
   3664                                  sizeof(APSME_TCLKDevEntry_t), pKeyData);
   \   000082                ; Setup parameters for call to function osal_nv_write
   \   000082   78..         MOV       R0,#?V6
   \   000084   12....       LCALL     ?PUSH_XSTACK_I_TWO
   \   000087   75..13       MOV       ?V2,#0x13
   \   00008A   75..00       MOV       ?V3,#0x0
   \   00008D   78..         MOV       R0,#?V2
   \   00008F   12....       LCALL     ?PUSH_XSTACK_I_TWO
   \   000092   12....       LCALL     ?Subroutine55 & 0xFFFF
   \                     ??CrossCallReturnLabel_260:
   \   000095   12....       LCALL     ?DEALLOC_XSTACK8
   3665          
   3666                    // clear the pending write flag
   3667                    TCLinkKeyFrmCntr[i].pendingFlag = FALSE;
   \   000098   85..82       MOV       DPL,?V4
   \   00009B   85..83       MOV       DPH,?V5
   \   00009E   E4           CLR       A
   \   00009F   F0           MOVX      @DPTR,A
   3668                  }
   3669                }
   3670              }
   \                     ??ZDSecMgrSaveTCLinkKey_2:
   \   0000A0   05..         INC       ?V0
   \   0000A2   E5..         MOV       A,?V0
   \   0000A4   7002         JNZ       ??ZDSecMgrSaveTCLinkKey_3
   \   0000A6   05..         INC       ?V1
   \                     ??ZDSecMgrSaveTCLinkKey_3:
   \   0000A8   C3           CLR       C
   \   0000A9   9428         SUBB      A,#0x28
   \   0000AB   E5..         MOV       A,?V1
   \   0000AD   9400         SUBB      A,#0x0
   \   0000AF   5003         JNC       $+5
   \   0000B1   02....       LJMP      ??ZDSecMgrSaveTCLinkKey_1 & 0xFFFF
   3671          
   3672              osal_mem_free(pKeyData);
   \   0000B4                ; Setup parameters for call to function osal_mem_free
   \   0000B4   AA..         MOV       R2,?V6
   \   0000B6   AB..         MOV       R3,?V7
   \   0000B8   12....       LCALL     `??osal_mem_free::?relay`; Banked call to: osal_mem_free
   3673            }
   3674          }
   \                     ??ZDSecMgrSaveTCLinkKey_0:
   \   0000BB   02....       LJMP      ??Subroutine102_0 & 0xFFFF
   3675          
   3676          /******************************************************************************
   3677           * @fn          ZDSecMgrUpdateTCAddress
   3678           *
   3679           * @brief       Update Trust Center address and save to NV.
   3680           *
   3681           * @param       extAddr - [in] extended address or NULL if no TC protected
   3682           *
   3683           * @return      none
   3684           */

   \                                 In  segment BANKED_CODE, align 1, keep-with-next
   3685          void ZDSecMgrUpdateTCAddress( uint8 *extAddr )
   \                     ZDSecMgrUpdateTCAddress:
   3686          {
   \   000000                REQUIRE ?V0
   \   000000                REQUIRE ?V1
   \   000000   74F6         MOV       A,#-0xa
   \   000002   12....       LCALL     ?BANKED_ENTER_XDATA
   \   000005                ; Saved register size: 10
   \   000005                ; Auto size: 8
   \   000005   74F8         MOV       A,#-0x8
   \   000007   12....       LCALL     ?ALLOC_XSTACK8
   3687            uint8 noTCAddress[Z_EXTADDR_LEN] = { 0xFF, 0xFF, 0xFF, 0xFF, 0xFF, 0xFF, 0xFF, 0xFF };
   \   00000A   90....       MOV       DPTR,#`?<Constant {255, 255, 255, 255, 255, 255, 255,`
   \   00000D   AC..         MOV       R4,?XSP + 0
   \   00000F   AD..         MOV       R5,?XSP + 1
   \   000011   7408         MOV       A,#0x8
   \   000013   12....       LCALL     ?MOVE_LONG8_XDATA_XDATA
   3688            APSME_SetRequest( apsTrustCenterAddress, 0, ( extAddr != NULL) ? extAddr : noTCAddress );
   \   000016   EA           MOV       A,R2
   \   000017   4B           ORL       A,R3
   \   000018   6006         JZ        ??ZDSecMgrUpdateTCAddress_0
   \   00001A   EA           MOV       A,R2
   \   00001B   FE           MOV       R6,A
   \   00001C   EB           MOV       A,R3
   \   00001D   FF           MOV       R7,A
   \   00001E   800C         SJMP      ??ZDSecMgrUpdateTCAddress_1
   \                     ??ZDSecMgrUpdateTCAddress_0:
   \   000020   A8..         MOV       R0,?XSP + 0
   \   000022   A9..         MOV       R1,?XSP + 1
   \   000024   88..         MOV       ?V0,R0
   \   000026   89..         MOV       ?V1,R1
   \   000028   AE..         MOV       R6,?V0
   \   00002A   AF..         MOV       R7,?V1
   \                     ??ZDSecMgrUpdateTCAddress_1:
   \   00002C                ; Setup parameters for call to function APSME_SetRequest
   \   00002C   EE           MOV       A,R6
   \   00002D   FC           MOV       R4,A
   \   00002E   EF           MOV       A,R7
   \   00002F   FD           MOV       R5,A
   \   000030   7A00         MOV       R2,#0x0
   \   000032   7B00         MOV       R3,#0x0
   \   000034   79AB         MOV       R1,#-0x55
   \   000036   12....       LCALL     `??APSME_SetRequest::?relay`; Banked call to: APSME_SetRequest
   3689            osal_cpyExtAddr( zgApsTrustCenterAddr, ( extAddr != NULL) ? extAddr : noTCAddress );
   \   000039   EE           MOV       A,R6
   \   00003A   FC           MOV       R4,A
   \   00003B   EF           MOV       A,R7
   \   00003C   FD           MOV       R5,A
   \   00003D                ; Setup parameters for call to function sAddrExtCpy
   \   00003D   7A..         MOV       R2,#zgApsTrustCenterAddr & 0xff
   \   00003F   7B..         MOV       R3,#(zgApsTrustCenterAddr >> 8) & 0xff
   \   000041   12....       LCALL     `??sAddrExtCpy::?relay`; Banked call to: sAddrExtCpy
   3690            
   3691          #if defined ( NV_RESTORE )
   3692            osal_nv_write( ZCD_NV_TRUSTCENTER_ADDR, 0, Z_EXTADDR_LEN, zgApsTrustCenterAddr );
   \   000044                ; Setup parameters for call to function osal_nv_write
   \   000044   75....       MOV       ?V0,#zgApsTrustCenterAddr & 0xff
   \   000047   75....       MOV       ?V1,#(zgApsTrustCenterAddr >> 8) & 0xff
   \   00004A   78..         MOV       R0,#?V0
   \   00004C   12....       LCALL     ?PUSH_XSTACK_I_TWO
   \   00004F   75..08       MOV       ?V0,#0x8
   \   000052   75..00       MOV       ?V1,#0x0
   \   000055   78..         MOV       R0,#?V0
   \   000057   12....       LCALL     ?PUSH_XSTACK_I_TWO
   \   00005A   7C00         MOV       R4,#0x0
   \   00005C   7D00         MOV       R5,#0x0
   \   00005E   7A71         MOV       R2,#0x71
   \   000060   7B00         MOV       R3,#0x0
   \   000062   12....       LCALL     ??Subroutine101_0 & 0xFFFF
   \                     ??CrossCallReturnLabel_277:
   \   000065   12....       LCALL     ?DEALLOC_XSTACK8
   3693          #endif
   3694          }
   \   000068   7408         MOV       A,#0x8
   \   00006A   02....       LJMP      ??Subroutine90_0 & 0xFFFF
   3695          
   3696          #if defined ( ZBA_FALLBACK_NWKKEY )
   3697          /******************************************************************************
   3698           * @fn          ZDSecMgrFallbackNwkKey
   3699           *
   3700           * @brief       Use the ZBA fallback network key.
   3701           *
   3702           * @param       none
   3703           *
   3704           * @return      none
   3705           */
   3706          void ZDSecMgrFallbackNwkKey( void )
   3707          {
   3708            if ( !_NIB.nwkKeyLoaded )
   3709            {
   3710              uint8 fallbackKey[SEC_KEY_LEN];
   3711          
   3712              ZDSecMgrReadKeyFromNv( ZCD_NV_PRECFGKEY, fallbackKey );
   3713              SSP_UpdateNwkKey( fallbackKey, 0);
   3714              SSP_SwitchNwkKey( 0 );
   3715          
   3716              // clear local copy of key
   3717              osal_memset( fallbackKey, 0x00, SEC_KEY_LEN );
   3718          
   3719              // handle next step in authentication process
   3720              ZDSecMgrAuthNwkKey();
   3721            }
   3722          }
   3723          #endif // defined ( ZBA_FALLBACK_NWKKEY )
   3724          
   3725          #if defined ( NV_RESTORE )
   3726          /******************************************************************************
   3727           * @fn          ZDSecMgrClearNVKeyValues
   3728           *
   3729           * @brief       If NV_RESTORE is enabled and the status of the network needs
   3730           *              default values this fuction clears ZCD_NV_NWKKEY,
   3731           *              ZCD_NV_NWK_ACTIVE_KEY_INFO and ZCD_NV_NWK_ALTERN_KEY_INFO link
   3732           *
   3733           * @param       none
   3734           *
   3735           * @return      none
   3736           */

   \                                 In  segment BANKED_CODE, align 1, keep-with-next
   3737          void ZDSecMgrClearNVKeyValues(void)
   \                     ZDSecMgrClearNVKeyValues:
   3738          {
   \   000000                REQUIRE ?V0
   \   000000                REQUIRE ?V1
   \   000000   74F6         MOV       A,#-0xa
   \   000002   12....       LCALL     ?BANKED_ENTER_XDATA
   \   000005                ; Saved register size: 10
   \   000005                ; Auto size: 38
   \   000005   74DA         MOV       A,#-0x26
   \   000007   12....       LCALL     ?ALLOC_XSTACK8
   3739            nwkActiveKeyItems keyItems;
   3740            nwkKeyDesc nwkKey;
   3741          
   3742            osal_memset(&keyItems, 0x00, sizeof(nwkActiveKeyItems));
   \   00000A                ; Setup parameters for call to function osal_memset
   \   00000A   7C15         MOV       R4,#0x15
   \   00000C   7D00         MOV       R5,#0x0
   \   00000E   7900         MOV       R1,#0x0
   \   000010   7411         MOV       A,#0x11
   \   000012   12....       LCALL     ?XSTACK_DISP101_8
   \   000015   12....       LCALL     `??osal_memset::?relay`; Banked call to: osal_memset
   3743          
   3744            osal_nv_write(ZCD_NV_NWKKEY, 0, sizeof(nwkActiveKeyItems), &keyItems);
   \   000018                ; Setup parameters for call to function osal_nv_write
   \   000018   7411         MOV       A,#0x11
   \   00001A   12....       LCALL     ?XSTACK_DISP100_8
   \   00001D   88..         MOV       ?V0,R0
   \   00001F   89..         MOV       ?V1,R1
   \   000021   78..         MOV       R0,#?V0
   \   000023   12....       LCALL     ?PUSH_XSTACK_I_TWO
   \   000026   75..15       MOV       ?V0,#0x15
   \   000029   75..00       MOV       ?V1,#0x0
   \   00002C   78..         MOV       R0,#?V0
   \   00002E   12....       LCALL     ?PUSH_XSTACK_I_TWO
   \   000031   7C00         MOV       R4,#0x0
   \   000033   7D00         MOV       R5,#0x0
   \   000035   7A82         MOV       R2,#-0x7e
   \   000037   7B00         MOV       R3,#0x0
   \   000039   12....       LCALL     ??Subroutine101_0 & 0xFFFF
   \                     ??CrossCallReturnLabel_278:
   \   00003C   12....       LCALL     ?DEALLOC_XSTACK8
   3745          
   3746            // Initialize NV items for NWK Active and Alternate keys.
   3747            osal_memset( &nwkKey, 0x00, sizeof(nwkKeyDesc) );
   \   00003F                ; Setup parameters for call to function osal_memset
   \   00003F   7C11         MOV       R4,#0x11
   \   000041   7D00         MOV       R5,#0x0
   \   000043   7900         MOV       R1,#0x0
   \   000045   AA..         MOV       R2,?XSP + 0
   \   000047   AB..         MOV       R3,?XSP + 1
   \   000049   12....       LCALL     `??osal_memset::?relay`; Banked call to: osal_memset
   3748          
   3749            osal_nv_write(ZCD_NV_NWK_ACTIVE_KEY_INFO, 0, sizeof(nwkKeyDesc), &nwkKey);
   \   00004C                ; Setup parameters for call to function osal_nv_write
   \   00004C   A8..         MOV       R0,?XSP + 0
   \   00004E   A9..         MOV       R1,?XSP + 1
   \   000050   88..         MOV       ?V0,R0
   \   000052   89..         MOV       ?V1,R1
   \   000054   78..         MOV       R0,#?V0
   \   000056   12....       LCALL     ?PUSH_XSTACK_I_TWO
   \   000059   75..11       MOV       ?V0,#0x11
   \   00005C   75..00       MOV       ?V1,#0x0
   \   00005F   78..         MOV       R0,#?V0
   \   000061   12....       LCALL     ?PUSH_XSTACK_I_TWO
   \   000064   7C00         MOV       R4,#0x0
   \   000066   7D00         MOV       R5,#0x0
   \   000068   7A3A         MOV       R2,#0x3a
   \   00006A   7B00         MOV       R3,#0x0
   \   00006C   12....       LCALL     ??Subroutine101_0 & 0xFFFF
   \                     ??CrossCallReturnLabel_279:
   \   00006F   12....       LCALL     ?DEALLOC_XSTACK8
   3750          
   3751            osal_nv_write(ZCD_NV_NWK_ALTERN_KEY_INFO, 0, sizeof(nwkKeyDesc), &nwkKey);
   \   000072                ; Setup parameters for call to function osal_nv_write
   \   000072   A8..         MOV       R0,?XSP + 0
   \   000074   A9..         MOV       R1,?XSP + 1
   \   000076   88..         MOV       ?V0,R0
   \   000078   89..         MOV       ?V1,R1
   \   00007A   78..         MOV       R0,#?V0
   \   00007C   12....       LCALL     ?PUSH_XSTACK_I_TWO
   \   00007F   75..11       MOV       ?V0,#0x11
   \   000082   75..00       MOV       ?V1,#0x0
   \   000085   78..         MOV       R0,#?V0
   \   000087   12....       LCALL     ?PUSH_XSTACK_I_TWO
   \   00008A   7C00         MOV       R4,#0x0
   \   00008C   7D00         MOV       R5,#0x0
   \   00008E   7A3B         MOV       R2,#0x3b
   \   000090   7B00         MOV       R3,#0x0
   \   000092   12....       LCALL     ??Subroutine101_0 & 0xFFFF
   \                     ??CrossCallReturnLabel_280:
   \   000095   12....       LCALL     ?DEALLOC_XSTACK8
   3752          }
   \   000098   7426         MOV       A,#0x26
   \   00009A   02....       LJMP      ??Subroutine90_0 & 0xFFFF

   \                                 In  segment XDATA_ID, align 1, keep-with-next
   \                     `?<Initializer for requestNewTrustCenterLinkKey`:
   \   000000   01           DB 1

   \                                 In  segment XDATA_ID, align 1, keep-with-next
   \                     `?<Initializer for requestLinkKeyTimeout>`:
   \   000000   88130000     DD 5000

   \                                 In  segment XDATA_ID, align 1, keep-with-next
   \                     `?<Initializer for ZDSecMgrAppKeyType>`:
   \   000000   03           DB 3

   \                                 In  segment XDATA_ROM_C, align 1
   \                     `?<Constant {255, 255, 255, 255, 255, 255, 255,`:
   \   000000   FF           DB 255
   \   000001   FF           DB 255
   \   000002   FF           DB 255
   \   000003   FF           DB 255
   \   000004   FF           DB 255
   \   000005   FF           DB 255
   \   000006   FF           DB 255
   \   000007   FF           DB 255

   \                                 In  segment XDATA_ROM_C, align 1
   \                     __Constant_3e9:
   \   000000   E9030000     DD 1001

   \                                 In  segment XDATA_ROM_C, align 1
   \                     __Constant_b:
   \   000000   0B000000     DD 11

   \                                 In  segment XDATA_ROM_C, align 1
   \                     __Constant_1:
   \   000000   01000000     DD 1

   \                                 In  segment XDATA_ROM_C, align 1
   \                     __Constant_a:
   \   000000   0A000000     DD 10
   3753          #endif // defined ( NV_RESTORE )
   3754          
   3755          /******************************************************************************
   3756          ******************************************************************************/

   Maximum stack usage in bytes:

   ISTACK XSTACK Function
   ------ ------ --------
      2      0   APSME_IsDefaultTCLK
        2      0   -> osal_isbufset
      0     37   APSME_IsLinkKeyValid
        0     33   -> APSME_LinkKeyNVIdGet
        0     33   -> osal_mem_alloc
        0     33   -> osal_mem_free
        0     36   -> osal_memcmp
        0     33   -> osal_memset
        0     37   -> osal_nv_read
      0     10   APSME_KeyFwdToChild
        0     10   -> AssocGetWithExt
        0     10   -> ZDSecMgrAssocDeviceAuth
      0     44   APSME_LinkKeyNVIdGet
        0     11   -> ZDSecMgrEntryLookupExt
      0     75   APSME_LinkKeySet
        0     21   -> ZDSecMgrEntryLookupExtGetIndex
        0     19   -> osal_mem_alloc
        0     19   -> osal_mem_free
        0     22   -> osal_memcpy
        0     19   -> osal_memset
        0     23   -> osal_nv_read
        0     23   -> osal_nv_write
      0     52   APSME_TCLinkKeyInit
        0     39   -> APSME_EraseICEntry
        0     39   -> osal_memset
        0     41   -> osal_nv_item_init
        0     43   -> osal_nv_read
        0     43   -> osal_nv_write
      1     55   APSME_TCLinkKeyLoad
        0     53   -> APSME_SearchTCLinkKeyEntry
        0     51   -> AddrMgrEntryLookupNwk
        0     51   -> AddrMgrEntryRelease
        0     51   -> AddrMgrExtAddrValid
        0     54   -> osal_memcpy
        0     51   -> osal_memset
        0     55   -> osal_nv_write
        0     51   -> osal_rand
        0     51   -> osal_set_event
      1     41   APSME_TCLinkKeySync
        0     38   -> APSME_LookupExtAddr
        0     40   -> APSME_SearchTCLinkKeyEntry
        0     38   -> AddrMgrExtAddrValid
        0     38   -> bdb_doTrustCenterRequireKeyExchange
        0     41   -> osal_memcpy
      2     10   ZDSecMgrAPSRemove
        2      8   -> ZDSecMgrDeviceRemove
      0     18   ZDSecMgrAddLinkKey
        0     14   -> APSME_LinkKeySet
        0     16   -> ZDSecMgrAddrStore
        0     14   -> ZDSecMgrAuthenticationSet
        0     14   -> ZDSecMgrEntryLookupAMI
        0     14   -> ZDSecMgrEntryNew
        0     14   -> ZDSecMgrWriteNV
      0     57   ZDSecMgrAddrClear
        0     24   -> AddrMgrEntryRelease
        0     24   -> ZDSecMgrExtAddrLookup
      0     76   ZDSecMgrAddrStore
        0     22   -> AddrMgrEntryUpdate
        0     22   -> AddrMgrExtAddrSet
      3      6   ZDSecMgrAppConfKeyReq
        2      6   -> APSME_ConfirmKeyReq
      3     59   ZDSecMgrAppKeyGet
        2      0   -> SSP_GetTrueRand
      0     59   ZDSecMgrAppKeyReq
        0     51   -> APSME_LookupExtAddr
        0     51   -> APSME_LookupNwkAddr
        0     51   -> APSME_TransportKeyReq
        0     59   -> ZDSecMgrAppKeyGet
        0     51   -> osal_memset
      2      0   ZDSecMgrAppKeyTypeSet
      0     49   ZDSecMgrApsLinkKeyInit
        0     36   -> osal_memset
        0     38   -> osal_nv_item_init
        0     40   -> osal_nv_write
      2     36   ZDSecMgrAssocDeviceAuth
      2     52   ZDSecMgrAuthNwkKey
        2      0   -> osal_set_event
      0     22   ZDSecMgrAuthenticationCheck
        0     22   -> APSME_GetRequest
        0     22   -> AddrMgrExtAddrLookup
        0     22   -> NLME_GetExtAddr
        0     22   -> ZDSecMgrEntryLookupExt
        0     22   -> ZDSecMgrExtAddrLookup
        0     22   -> sAddrExtCmp
      1     25   ZDSecMgrAuthenticationSet
        0     11   -> ZDSecMgrEntryLookupExt
      0     52   ZDSecMgrClearNVKeyValues
        0     48   -> osal_memset
        0     52   -> osal_nv_write
      2      0   ZDSecMgrConfig
        2      0   -> APSME_SecurityCM_CD
        2      0   -> SSP_Init
      0     71   ZDSecMgrDeviceJoin
        0     30   -> ZDSecMgrAddrClear
        0     32   -> ZDSecMgrAddrStore
        0     30   -> ZDSecMgrDeviceRemove
        0     30   -> ZDSecMgrDeviceValidate
        0     30   -> ZDSecMgrSendNwkKey
        0     33   -> osal_memcpy
      1     40   ZDSecMgrDeviceJoinDirect
        0     38   -> APSME_SearchTCLinkKeyEntry
        0     36   -> AssocGetWithShort
        0     36   -> NLME_GetShortAddr
        0     36   -> ZDSecMgrAssocDeviceAuth
        0     36   -> ZDSecMgrDeviceJoin
        0     36   -> bdb_TCAddJoiningDevice
        0     40   -> osal_nv_write
      0     29   ZDSecMgrDeviceJoinFwd
        0     27   -> APSME_GetRequest
        0     29   -> APSME_SearchTCLinkKeyEntry
        0     27   -> APSME_UpdateDeviceReq
        0     27   -> AssocGetWithShort
        0     27   -> ZDSecMgrAssocDeviceAuth
      2     33   ZDSecMgrDeviceNew
        2      0   -> ZDSecMgrDeviceJoinDirect
      0     61   ZDSecMgrDeviceRemove
        0     29   -> APSME_GetRequest
        0     29   -> APSME_RemoveDeviceReq
        0     31   -> APSME_SearchTCLinkKeyEntry
        0     29   -> AssocGetWithExt
        0     29   -> NLME_GetShortAddr
        0     29   -> NLME_LeaveReq
      0     11   ZDSecMgrDeviceRemoveByExtAddr
        0     11   -> ZDSecMgrEntryFree
        0     11   -> ZDSecMgrEntryLookupExt
      2     30   ZDSecMgrDeviceValidate
        2      0   -> ZDSecMgrDeviceValidateRM
      2      0   ZDSecMgrDeviceValidateRM
      0     35   ZDSecMgrEntryFree
        0     20   -> ZDSecMgrEntryLookupAMIGetIndex
        0     20   -> osal_mem_alloc
        0     20   -> osal_mem_free
        0     20   -> osal_memset
        0     24   -> osal_nv_read
        0     24   -> osal_nv_write
      0     19   ZDSecMgrEntryInit
        0      9   -> ZDSecMgrRestoreFromNV
        0      9   -> osal_mem_alloc
      0     22   ZDSecMgrEntryLookup
        0     22   -> AddrMgrEntryLookupNwk
      0     61   ZDSecMgrEntryLookupAMI
      0     29   ZDSecMgrEntryLookupAMIGetIndex
      0     33   ZDSecMgrEntryLookupExt
        0     11   -> ZDSecMgrEntryLookupAMI
        0     11   -> ZDSecMgrExtAddrLookup
      0     32   ZDSecMgrEntryLookupExtGetIndex
        0     11   -> ZDSecMgrExtAddrLookup
      0     61   ZDSecMgrEntryNew
      0     74   ZDSecMgrExtAddrLookup
        0     22   -> AddrMgrEntryLookupExt
        0     22   -> AddrMgrExtAddrSet
      0     24   ZDSecMgrExtAddrStore
        0     22   -> AddrMgrEntryUpdate
        0     22   -> AddrMgrExtAddrSet
      0    107   ZDSecMgrGenerateKeyFromSeed
        0     37   -> osal_memcpy
        0     38   -> osal_nv_read
      1     38   ZDSecMgrGenerateRndKey
        0     12   -> osal_rand
      0     39   ZDSecMgrGenerateSeed
        0     26   -> ZDSecMgrGenerateRndKey
        0     26   -> osal_memset
        0     28   -> osal_nv_item_init
        0     30   -> osal_nv_write
      0     10   ZDSecMgrInit
        0     10   -> APSME_SecurityCM_CD
        0     10   -> APSME_SetRequest
        0     10   -> NLME_GetExtAddr
        0     10   -> SSP_Init
        0     10   -> ZDSecMgrEntryInit
      0     16   ZDSecMgrInitNV
        0     14   -> osal_nv_item_init
        0     16   -> osal_nv_write
      0      9   ZDSecMgrInitNVKeyTables
        0      9   -> APSME_TCLinkKeyInit
        0      9   -> ZDSecMgrApsLinkKeyInit
        0      9   -> ZDSecMgrGenerateSeed
        0      9   -> ZDSecMgrNwkKeyInit
      1     33   ZDSecMgrNewDeviceEvent
        0     33   -> AddrMgrEntryGet
        0     33   -> AssocGetWithShort
        0     33   -> AssocRemove
        0     33   -> NLME_GetShortAddr
        0     33   -> ZDSecMgrAddrClear
        0     33   -> ZDSecMgrAssocDeviceAuth
        0     33   -> ZDSecMgrDeviceNew
      0     75   ZDSecMgrNwkKeyInit
        0     62   -> osal_memset
        0     64   -> osal_nv_item_init
        0     66   -> osal_nv_write
        0     62   -> zgReadStartupOptions
      2      0   ZDSecMgrPermitJoining
      2      0   ZDSecMgrPermitJoiningTimeout
      0     71   ZDSecMgrReadKeyFromNv
        0     18   -> osal_memcpy
        0     19   -> osal_nv_read
      0     17   ZDSecMgrRemoveDeviceInd
        0     17   -> APSME_LookupNwkAddr
        0     17   -> NLME_GetShortAddr
        0     17   -> ZDSecMgrDeviceRemove
      2      4   ZDSecMgrRequestAppKey
        2      4   -> APSME_RequestKeyReq
      2      0   ZDSecMgrRequestKeyInd
        2      0   -> ZDSecMgrAppKeyReq
        2      0   -> ZDSecMgrTclkReq
      0     33   ZDSecMgrRestoreFromNV
        0     20   -> osal_mem_alloc
        0     20   -> osal_mem_free
        0     20   -> osal_memset
        0     24   -> osal_nv_read
        0     24   -> osal_nv_write
      0     22   ZDSecMgrSaveApsLinkKey
        0     18   -> osal_mem_alloc
        0     18   -> osal_mem_free
        0     18   -> osal_memset
        0     22   -> osal_nv_read
        0     22   -> osal_nv_write
      0     22   ZDSecMgrSaveTCLinkKey
        0     18   -> osal_mem_alloc
        0     18   -> osal_mem_free
        0     22   -> osal_nv_read
        0     22   -> osal_nv_write
      1     80   ZDSecMgrSendNwkKey
        0     46   -> APSME_TransportKeyReq
        0     46   -> NLME_GetShortAddr
        0     50   -> NLME_ReadNwkKeyInfo
        0     46   -> osal_memset
      0     23   ZDSecMgrSetDefaultNV
        0     19   -> osal_mem_alloc
        0     19   -> osal_mem_free
        0     19   -> osal_memset
        0     23   -> osal_nv_write
      2      0   ZDSecMgrSwitchKeyInd
        2      0   -> SSP_SwitchNwkKey
        2      0   -> ZDApp_NVUpdate
      1     27   ZDSecMgrSwitchNwkKey
        0     27   -> APSME_SwitchKeyReq
        0     27   -> AddrMgrEntryLookupNwk
        0     27   -> ZDApp_NVUpdate
      0     79   ZDSecMgrTCDataLoad
        0     25   -> APSME_IsDistributedSecurity
        0     25   -> AddrMgrEntryLookupExt
        0     27   -> ZDSecMgrAddrStore
        0     25   -> sAddrExtCpy
      0     17   ZDSecMgrTCExtAddrCheck
        0     17   -> APSME_GetRequest
        0     17   -> sAddrExtCmp
      0     71   ZDSecMgrTclkReq
        0     69   -> APSME_LookupExtAddr
        0     69   -> APSME_LookupNwkAddr
        0     71   -> APSME_SearchTCLinkKeyEntry
        0     69   -> APSME_TransportKeyReq
        0     69   -> ZDSecMgrGenerateKeyFromSeed
        0     69   -> osal_memset
      0     56   ZDSecMgrTransportKeyInd
        0     52   -> APSME_EraseICEntry
        0     52   -> APSME_LinkKeySet
        0     54   -> APSME_SearchTCLinkKeyEntry
        0     52   -> SSP_SwitchNwkKey
        0     52   -> SSP_UpdateNwkKey
        0     52   -> ZDP_NwkAddrReq
        0     54   -> ZDSecMgrAddrStore
        0     52   -> ZDSecMgrAuthNwkKey
        0     52   -> ZDSecMgrEntryLookupAMI
        0     52   -> ZDSecMgrEntryNew
        0     52   -> ZDSecMgrExtAddrLookup
        0     52   -> ZDSecMgrReadKeyFromNv
        0     52   -> ZDSecMgrTCDataLoad
        0     52   -> ZDSecMgrUpdateTCAddress
        0     52   -> ZDSecMgrWriteNV
        0     52   -> bdb_tcLinkKeyExchangeAttempt
        0     52   -> osal_isbufset
        0     52   -> osal_memset
        0     54   -> osal_nv_item_init
        0     56   -> osal_nv_write
      1     42   ZDSecMgrUpdateDeviceInd
        0     40   -> APSME_SearchTCLinkKeyEntry
        0     38   -> ZDSecMgrDeviceJoin
        0     38   -> bdb_TCAddJoiningDevice
        0     42   -> osal_nv_write
      1     36   ZDSecMgrUpdateNwkKey
        0     36   -> APSME_TransportKeyReq
        0     36   -> AddrMgrEntryLookupNwk
        0     36   -> SSP_UpdateNwkKey
        0     36   -> ZDApp_NVUpdate
      0     74   ZDSecMgrUpdateTCAddress
        0     18   -> APSME_SetRequest
        0     22   -> osal_nv_write
        0     18   -> sAddrExtCpy
      2      0   ZDSecMgrVerifyKeyInd
        2      0   -> ZDSecMgrAppConfKeyReq
      0     70   ZDSecMgrWriteNV
        0     18   -> osal_nv_write


   Segment part sizes:

   Bytes  Function/Label
   -----  --------------
       8  ?<Constant {255, 255, 255, 255, 255, 255, 255,
       1  ?<Initializer for ZDSecMgrAppKeyType>
       4  ?<Initializer for requestLinkKeyTimeout>
       1  ?<Initializer for requestNewTrustCenterLinkKey
       1  ??Subroutine100_0
       6  ??Subroutine101_0
       5  ??Subroutine102_0
       8  ??Subroutine103_0
       1  ??Subroutine104_0
       6  ??Subroutine105_0
       2  ??Subroutine106_0
       2  ??Subroutine107_0
       6  ??Subroutine108_0
       8  ??Subroutine77_0
       6  ??Subroutine78_0
       8  ??Subroutine79_0
       4  ??Subroutine80_0
       7  ??Subroutine81_0
       3  ??Subroutine82_0
       5  ??Subroutine83_0
       4  ??Subroutine84_0
       5  ??Subroutine85_0
       6  ??Subroutine86_0
       2  ??Subroutine87_0
       1  ??Subroutine88_0
       4  ??Subroutine89_0
       3  ??Subroutine90_0
       5  ??Subroutine91_0
       6  ??Subroutine92_0
       6  ??Subroutine93_0
       8  ??Subroutine94_0
       5  ??Subroutine95_0
       9  ??Subroutine96_0
       5  ??Subroutine97_0
       6  ??Subroutine98_0
       6  ??Subroutine99_0
       2  ?Subroutine0
       8  ?Subroutine1
      12  ?Subroutine10
       3  ?Subroutine11
      21  ?Subroutine12
      12  ?Subroutine13
      13  ?Subroutine14
       4  ?Subroutine15
       9  ?Subroutine16
       8  ?Subroutine17
      11  ?Subroutine18
       8  ?Subroutine19
       3  ?Subroutine2
       9  ?Subroutine20
       4  ?Subroutine21
       6  ?Subroutine22
       4  ?Subroutine23
       6  ?Subroutine24
       7  ?Subroutine25
       5  ?Subroutine26
       5  ?Subroutine27
       6  ?Subroutine28
       7  ?Subroutine29
       3  ?Subroutine3
      17  ?Subroutine30
       7  ?Subroutine31
       6  ?Subroutine32
       6  ?Subroutine33
       7  ?Subroutine34
      10  ?Subroutine35
      12  ?Subroutine36
       4  ?Subroutine37
       8  ?Subroutine38
      14  ?Subroutine39
       2  ?Subroutine4
      14  ?Subroutine40
       9  ?Subroutine41
       6  ?Subroutine42
       9  ?Subroutine43
       9  ?Subroutine44
      36  ?Subroutine45
      16  ?Subroutine46
      14  ?Subroutine47
      12  ?Subroutine48
       1  ?Subroutine49
       3  ?Subroutine5
       7  ?Subroutine50
      27  ?Subroutine51
      21  ?Subroutine52
      10  ?Subroutine53
      10  ?Subroutine54
       7  ?Subroutine55
       4  ?Subroutine56
       6  ?Subroutine57
      10  ?Subroutine58
      15  ?Subroutine59
       3  ?Subroutine6
      17  ?Subroutine60
       8  ?Subroutine61
      10  ?Subroutine62
       6  ?Subroutine63
       2  ?Subroutine64
      18  ?Subroutine65
      12  ?Subroutine66
      10  ?Subroutine67
      10  ?Subroutine68
       1  ?Subroutine69
       5  ?Subroutine7
       6  ?Subroutine70
       6  ?Subroutine71
      10  ?Subroutine72
       7  ?Subroutine73
       6  ?Subroutine74
      30  ?Subroutine75
       9  ?Subroutine76
       4  ?Subroutine8
       6  ?Subroutine9
      14  APSME_IsDefaultTCLK
     143  APSME_IsLinkKeyValid
      60  APSME_KeyFwdToChild
      55  APSME_LinkKeyNVIdGet
     252  APSME_LinkKeySet
     352  APSME_TCLinkKeyInit
     531  APSME_TCLinkKeyLoad
     395  APSME_TCLinkKeySync
      27  ApsLinkKeyFrmCntr
     360  TCLinkKeyFrmCntr
      19  TrustCenterLinkKey
      78  ZDSecMgrAPSRemove
     121  ZDSecMgrAddLinkKey
      62  ZDSecMgrAddrClear
      67  ZDSecMgrAddrStore
      73  ZDSecMgrAppConfKeyReq
      39  ZDSecMgrAppKeyGet
     245  ZDSecMgrAppKeyReq
       1  ZDSecMgrAppKeyType
      23  ZDSecMgrAppKeyTypeSet
     102  ZDSecMgrApsLinkKeyInit
      23  ZDSecMgrAssocDeviceAuth
      26  ZDSecMgrAuthNwkKey
     105  ZDSecMgrAuthenticationCheck
      31  ZDSecMgrAuthenticationSet
     157  ZDSecMgrClearNVKeyValues
      12  ZDSecMgrConfig
     240  ZDSecMgrDeviceJoin
     239  ZDSecMgrDeviceJoinDirect
     231  ZDSecMgrDeviceJoinFwd
       9  ZDSecMgrDeviceNew
     291  ZDSecMgrDeviceRemove
      35  ZDSecMgrDeviceRemoveByExtAddr
      24  ZDSecMgrDeviceValidate
      17  ZDSecMgrDeviceValidateRM
       2  ZDSecMgrEntries
     340  ZDSecMgrEntryFree
      71  ZDSecMgrEntryInit
      94  ZDSecMgrEntryLookup
      67  ZDSecMgrEntryLookupAMI
      63  ZDSecMgrEntryLookupAMIGetIndex
      56  ZDSecMgrEntryLookupExt
      88  ZDSecMgrEntryLookupExtGetIndex
     110  ZDSecMgrEntryNew
      72  ZDSecMgrExtAddrLookup
      67  ZDSecMgrExtAddrStore
     223  ZDSecMgrGenerateKeyFromSeed
      54  ZDSecMgrGenerateRndKey
      99  ZDSecMgrGenerateSeed
      40  ZDSecMgrInit
     105  ZDSecMgrInitNV
      28  ZDSecMgrInitNVKeyTables
     218  ZDSecMgrNewDeviceEvent
     422  ZDSecMgrNwkKeyInit
      29  ZDSecMgrPermitJoining
       1  ZDSecMgrPermitJoiningEnabled
       1  ZDSecMgrPermitJoiningTimed
      23  ZDSecMgrPermitJoiningTimeout
     166  ZDSecMgrReadKeyFromNv
      67  ZDSecMgrRemoveDeviceInd
      38  ZDSecMgrRequestAppKey
      40  ZDSecMgrRequestKeyInd
     423  ZDSecMgrRestoreFromNV
     226  ZDSecMgrSaveApsLinkKey
     190  ZDSecMgrSaveTCLinkKey
     269  ZDSecMgrSendNwkKey
     189  ZDSecMgrSetDefaultNV
      23  ZDSecMgrSwitchKeyInd
     142  ZDSecMgrSwitchNwkKey
       1  ZDSecMgrTCAuthenticated
      88  ZDSecMgrTCDataLoad
       8  ZDSecMgrTCExtAddr
      38  ZDSecMgrTCExtAddrCheck
     220  ZDSecMgrTclkReq
     559  ZDSecMgrTransportKeyInd
     255  ZDSecMgrUpdateDeviceInd
     197  ZDSecMgrUpdateNwkKey
     109  ZDSecMgrUpdateTCAddress
      10  ZDSecMgrVerifyKeyInd
     172  ZDSecMgrWriteNV
       4  __Constant_1
       4  __Constant_3e9
       4  __Constant_a
       4  __Constant_b
       1  gZDSECMGR_TC_ATTEMPT_DEFAULT_KEY
       2  gZDSECMGR_TC_DEVICE_IC_MAX
       2  gZDSECMGR_TC_DEVICE_MAX
       4  requestLinkKeyTimeout
       1  requestNewTrustCenterLinkKey
     426  -- Other

 
 10 602 bytes in segment BANKED_CODE
    426 bytes in segment BANK_RELAYS
      4 bytes in segment CODE_C
      6 bytes in segment XDATA_I
      6 bytes in segment XDATA_ID
     24 bytes in segment XDATA_ROM_C
    420 bytes in segment XDATA_Z
 
    436 bytes of CODE     memory
      8 bytes of CONST    memory (+ 16 bytes shared)
 10 602 bytes of HUGECODE memory
    426 bytes of XDATA    memory

Errors: none
Warnings: none
