///////////////////////////////////////////////////////////////////////////////
//
// IAR C/C++ Compiler V10.30.1.6000 for 8051              20/Apr/2021  23:38:52
// Copyright 2004-2018 IAR Systems AB.
// Evaluation license - IAR Embedded Workbench for 8051, Evaluation edition 10.30
//
//    Core               =  plain
//    Code model         =  banked
//    Data model         =  large
//    Calling convention =  xdata reentrant
//    Constant location  =  data_rom
//    Dptr setup         =  1,16
//                          
//    Source file        =  
//        C:\Texas Instruments\Z-Stack 3.0.2-20210417T211827Z-001\Z-Stack
//        3.0.2\Z-Stack 3.0.2\Components\stack\bdb\bdb_FindingAndBinding.c
//    Command line       =  
//        -f C:\users\slavko\Temp\EWb07c.tmp ("C:\Texas Instruments\Z-Stack
//        3.0.2-20210417T211827Z-001\Z-Stack 3.0.2\Z-Stack
//        3.0.2\Components\stack\bdb\bdb_FindingAndBinding.c" -D BDB_REPORTING
//        -D SECURE=1 -D TC_LINKKEY_JOIN -D NV_INIT -D NV_RESTORE -D xZTOOL_P1
//        -D xMT_TASK -D xMT_APP_FUNC -D xMT_SYS_FUNC -D xMT_ZDO_FUNC -D
//        xMT_ZDO_MGMT -D xMT_APP_CNF_FUNC -D LCD_SUPPORTED=DEBUG -D
//        MULTICAST_ENABLED=FALSE -D ZCL_READ -D ZCL_DISCOVER -D ZCL_WRITE -D
//        ZCL_BASIC -D ZCL_IDENTIFY -D ZCL_ON_OFF -D ZCL_SCENES -D ZCL_GROUPS
//        -D ZCL_LEVEL_CTRL -D HAL_LED=TRUE -D HAL_KEY=TRUE -D BLINK_LEDS -lC
//        "C:\Texas Instruments\Z-Stack 3.0.2-20210417T211827Z-001\Z-Stack
//        3.0.2\Z-Stack
//        3.0.2\Projects\zstack\HomeAutomation\SampleLight\CC2530DB\RouterEB\List"
//        -lA "C:\Texas Instruments\Z-Stack 3.0.2-20210417T211827Z-001\Z-Stack
//        3.0.2\Z-Stack
//        3.0.2\Projects\zstack\HomeAutomation\SampleLight\CC2530DB\RouterEB\List"
//        --diag_suppress Pe001,Pa010 -o "C:\Texas Instruments\Z-Stack
//        3.0.2-20210417T211827Z-001\Z-Stack 3.0.2\Z-Stack
//        3.0.2\Projects\zstack\HomeAutomation\SampleLight\CC2530DB\RouterEB\Obj"
//        -e --debug --core=plain --dptr=16,1 --data_model=large
//        --code_model=banked --calling_convention=xdata_reentrant
//        --place_constants=data_rom --nr_virtual_regs 16 -f "C:\Texas
//        Instruments\Z-Stack 3.0.2-20210417T211827Z-001\Z-Stack 3.0.2\Z-Stack
//        3.0.2\Projects\zstack\HomeAutomation\SampleLight\CC2530DB\..\..\..\Tools\CC2530DB\f8wRouter.cfg"
//        (-DCPU32MHZ -DROOT=__near_func -DMAC_CFG_APP_PENDING_QUEUE=TRUE
//        -DMAC_CFG_TX_DATA_MAX=5 -DMAC_CFG_TX_MAX=8 -DMAC_CFG_RX_MAX=5
//        -DRTR_NWK) -f "C:\Texas Instruments\Z-Stack
//        3.0.2-20210417T211827Z-001\Z-Stack 3.0.2\Z-Stack
//        3.0.2\Projects\zstack\HomeAutomation\SampleLight\CC2530DB\..\..\..\Tools\CC2530DB\f8wConfig.cfg"
//        (-DZIGBEEPRO -DSECURE=1 -DZG_SECURE_DYNAMIC=0 -DREFLECTOR
//        -DDEFAULT_CHANLIST=0x00000800 -DZDAPP_CONFIG_PAN_ID=0xFFFF
//        -DNWK_START_DELAY=100 -DEXTENDED_JOINING_RANDOM_MASK=0x007F
//        -DBEACON_REQUEST_DELAY=100 -DBEACON_REQ_DELAY_MASK=0x00FF
//        -DLINK_STATUS_JITTER_MASK=0x007F -DROUTE_EXPIRY_TIME=30
//        -DAPSC_ACK_WAIT_DURATION_POLLED=3000 -DNWK_INDIRECT_MSG_TIMEOUT=7
//        -DMAX_RREQ_ENTRIES=8 -DAPSC_MAX_FRAME_RETRIES=3
//        -DNWK_MAX_DATA_RETRIES=2 -DMAX_POLL_FAILURE_RETRIES=2 -DMAX_BCAST=9
//        -DAPS_MAX_GROUPS=16 -DMAX_RTG_ENTRIES=40 -DNWK_MAX_BINDING_ENTRIES=4
//        -DMAX_BINDING_CLUSTER_IDS=4 -DDEFAULT_KEY={0}
//        -DMAC_MAX_FRAME_SIZE=116 -DZDNWKMGR_MIN_TRANSMISSIONS=20
//        "-DCONST=const __code" -DGENERIC=__generic -DRFD_RCVC_ALWAYS_ON=FALSE
//        -DPOLL_RATE=1000 -DQUEUED_POLL_RATE=100 -DRESPONSE_POLL_RATE=100
//        -DREJOIN_POLL_RATE=440 -DREJOIN_BACKOFF=900000 -DREJOIN_SCAN=900000
//        -DENABLE_LED4_DISABLE_S1) -f "C:\Texas Instruments\Z-Stack
//        3.0.2-20210417T211827Z-001\Z-Stack 3.0.2\Z-Stack
//        3.0.2\Projects\zstack\HomeAutomation\SampleLight\CC2530DB\..\..\..\Tools\CC2530DB\f8wZCL.cfg"
//        -I "C:\Texas Instruments\Z-Stack 3.0.2-20210417T211827Z-001\Z-Stack
//        3.0.2\Z-Stack
//        3.0.2\Projects\zstack\HomeAutomation\SampleLight\CC2530DB\" -I
//        "C:\Texas Instruments\Z-Stack 3.0.2-20210417T211827Z-001\Z-Stack
//        3.0.2\Z-Stack
//        3.0.2\Projects\zstack\HomeAutomation\SampleLight\CC2530DB\..\Source\"
//        -I "C:\Texas Instruments\Z-Stack 3.0.2-20210417T211827Z-001\Z-Stack
//        3.0.2\Z-Stack
//        3.0.2\Projects\zstack\HomeAutomation\SampleLight\CC2530DB\..\..\Source\"
//        -I "C:\Texas Instruments\Z-Stack 3.0.2-20210417T211827Z-001\Z-Stack
//        3.0.2\Z-Stack
//        3.0.2\Projects\zstack\HomeAutomation\SampleLight\CC2530DB\..\..\..\ZMain\TI2530DB\"
//        -I "C:\Texas Instruments\Z-Stack 3.0.2-20210417T211827Z-001\Z-Stack
//        3.0.2\Z-Stack
//        3.0.2\Projects\zstack\HomeAutomation\SampleLight\CC2530DB\..\..\..\..\..\Components\hal\include\"
//        -I "C:\Texas Instruments\Z-Stack 3.0.2-20210417T211827Z-001\Z-Stack
//        3.0.2\Z-Stack
//        3.0.2\Projects\zstack\HomeAutomation\SampleLight\CC2530DB\..\..\..\..\..\Components\hal\target\CC2530EB\"
//        -I "C:\Texas Instruments\Z-Stack 3.0.2-20210417T211827Z-001\Z-Stack
//        3.0.2\Z-Stack
//        3.0.2\Projects\zstack\HomeAutomation\SampleLight\CC2530DB\..\..\..\..\..\Components\mac\include\"
//        -I "C:\Texas Instruments\Z-Stack 3.0.2-20210417T211827Z-001\Z-Stack
//        3.0.2\Z-Stack
//        3.0.2\Projects\zstack\HomeAutomation\SampleLight\CC2530DB\..\..\..\..\..\Components\mac\high_level\"
//        -I "C:\Texas Instruments\Z-Stack 3.0.2-20210417T211827Z-001\Z-Stack
//        3.0.2\Z-Stack
//        3.0.2\Projects\zstack\HomeAutomation\SampleLight\CC2530DB\..\..\..\..\..\Components\mac\low_level\srf04\"
//        -I "C:\Texas Instruments\Z-Stack 3.0.2-20210417T211827Z-001\Z-Stack
//        3.0.2\Z-Stack
//        3.0.2\Projects\zstack\HomeAutomation\SampleLight\CC2530DB\..\..\..\..\..\Components\mac\low_level\srf04\single_chip\"
//        -I "C:\Texas Instruments\Z-Stack 3.0.2-20210417T211827Z-001\Z-Stack
//        3.0.2\Z-Stack
//        3.0.2\Projects\zstack\HomeAutomation\SampleLight\CC2530DB\..\..\..\..\..\Components\mt\"
//        -I "C:\Texas Instruments\Z-Stack 3.0.2-20210417T211827Z-001\Z-Stack
//        3.0.2\Z-Stack
//        3.0.2\Projects\zstack\HomeAutomation\SampleLight\CC2530DB\..\..\..\..\..\Components\osal\include\"
//        -I "C:\Texas Instruments\Z-Stack 3.0.2-20210417T211827Z-001\Z-Stack
//        3.0.2\Z-Stack
//        3.0.2\Projects\zstack\HomeAutomation\SampleLight\CC2530DB\..\..\..\..\..\Components\services\saddr\"
//        -I "C:\Texas Instruments\Z-Stack 3.0.2-20210417T211827Z-001\Z-Stack
//        3.0.2\Z-Stack
//        3.0.2\Projects\zstack\HomeAutomation\SampleLight\CC2530DB\..\..\..\..\..\Components\services\sdata\"
//        -I "C:\Texas Instruments\Z-Stack 3.0.2-20210417T211827Z-001\Z-Stack
//        3.0.2\Z-Stack
//        3.0.2\Projects\zstack\HomeAutomation\SampleLight\CC2530DB\..\..\..\..\..\Components\stack\af\"
//        -I "C:\Texas Instruments\Z-Stack 3.0.2-20210417T211827Z-001\Z-Stack
//        3.0.2\Z-Stack
//        3.0.2\Projects\zstack\HomeAutomation\SampleLight\CC2530DB\..\..\..\..\..\Components\stack\bdb\"
//        -I "C:\Texas Instruments\Z-Stack 3.0.2-20210417T211827Z-001\Z-Stack
//        3.0.2\Z-Stack
//        3.0.2\Projects\zstack\HomeAutomation\SampleLight\CC2530DB\..\..\..\..\..\Components\stack\nwk\"
//        -I "C:\Texas Instruments\Z-Stack 3.0.2-20210417T211827Z-001\Z-Stack
//        3.0.2\Z-Stack
//        3.0.2\Projects\zstack\HomeAutomation\SampleLight\CC2530DB\..\..\..\..\..\Components\stack\bdb\"
//        -I "C:\Texas Instruments\Z-Stack 3.0.2-20210417T211827Z-001\Z-Stack
//        3.0.2\Z-Stack
//        3.0.2\Projects\zstack\HomeAutomation\SampleLight\CC2530DB\..\..\..\..\..\Components\stack\gp\"
//        -I "C:\Texas Instruments\Z-Stack 3.0.2-20210417T211827Z-001\Z-Stack
//        3.0.2\Z-Stack
//        3.0.2\Projects\zstack\HomeAutomation\SampleLight\CC2530DB\..\..\..\..\..\Components\stack\sapi\"
//        -I "C:\Texas Instruments\Z-Stack 3.0.2-20210417T211827Z-001\Z-Stack
//        3.0.2\Z-Stack
//        3.0.2\Projects\zstack\HomeAutomation\SampleLight\CC2530DB\..\..\..\..\..\Components\stack\sec\"
//        -I "C:\Texas Instruments\Z-Stack 3.0.2-20210417T211827Z-001\Z-Stack
//        3.0.2\Z-Stack
//        3.0.2\Projects\zstack\HomeAutomation\SampleLight\CC2530DB\..\..\..\..\..\Components\stack\sys\"
//        -I "C:\Texas Instruments\Z-Stack 3.0.2-20210417T211827Z-001\Z-Stack
//        3.0.2\Z-Stack
//        3.0.2\Projects\zstack\HomeAutomation\SampleLight\CC2530DB\..\..\..\..\..\Components\stack\zcl\"
//        -I "C:\Texas Instruments\Z-Stack 3.0.2-20210417T211827Z-001\Z-Stack
//        3.0.2\Z-Stack
//        3.0.2\Projects\zstack\HomeAutomation\SampleLight\CC2530DB\..\..\..\..\..\Components\stack\zdo\"
//        -I "C:\Texas Instruments\Z-Stack 3.0.2-20210417T211827Z-001\Z-Stack
//        3.0.2\Z-Stack
//        3.0.2\Projects\zstack\HomeAutomation\SampleLight\CC2530DB\..\..\..\..\..\Components\zmac\"
//        -I "C:\Texas Instruments\Z-Stack 3.0.2-20210417T211827Z-001\Z-Stack
//        3.0.2\Z-Stack
//        3.0.2\Projects\zstack\HomeAutomation\SampleLight\CC2530DB\..\..\..\..\..\Components\zmac\f8w\"
//        -Ohz --require_prototypes)
//    Locale             =  English_USA.1252
//    List file          =  
//        C:\Texas Instruments\Z-Stack 3.0.2-20210417T211827Z-001\Z-Stack
//        3.0.2\Z-Stack
//        3.0.2\Projects\zstack\HomeAutomation\SampleLight\CC2530DB\RouterEB\List\bdb_FindingAndBinding.s51
//
///////////////////////////////////////////////////////////////////////////////

        NAME bdb_FindingAndBinding

        RTMODEL "__SystemLibrary", "CLib"
        RTMODEL "__calling_convention", "xdata_reentrant"
        RTMODEL "__code_model", "banked"
        RTMODEL "__core", "plain"
        RTMODEL "__data_model", "large"
        RTMODEL "__dptr_size", "16"
        RTMODEL "__extended_stack", "disabled"
        RTMODEL "__location_for_constants", "data"
        RTMODEL "__number_of_dptrs", "1"
        RTMODEL "__register_banks", "*"
        RTMODEL "__rt_version", "1"

        RSEG DOVERLAY:DATA:NOROOT(0)
        RSEG IOVERLAY:IDATA:NOROOT(0)
        RSEG ISTACK:IDATA:NOROOT(0)
        RSEG PSTACK:XDATA:NOROOT(0)
        RSEG XSTACK:XDATA:NOROOT(0)

        EXTERN ?V0
        EXTERN ?V1
        EXTERN ?V2
        EXTERN ?V3
        EXTERN ?V4
        EXTERN ?V5
        EXTERN ?V6
        EXTERN ?V7
        EXTERN ?V8
        EXTERN ?V9
        EXTERN ?V10
        EXTERN ?V11
        EXTERN ?ALLOC_XSTACK8
        EXTERN ?BANKED_ENTER_XDATA
        EXTERN ?BANKED_LEAVE_XDATA
        EXTERN ?BDISPATCH
        EXTERN ?BRET
        EXTERN ?CALL_IND
        EXTERN ?DEALLOC_XSTACK8
        EXTERN ?L_ADD_X
        EXTERN ?L_MOV_X
        EXTERN ?MOVE_LONG8_XDATA_XDATA
        EXTERN ?PUSH_XSTACK8_X_FOUR
        EXTERN ?PUSH_XSTACK8_X_TWO
        EXTERN ?PUSH_XSTACK_I_ONE
        EXTERN ?PUSH_XSTACK_I_TWO
        EXTERN ?UL_DIV_MOD
        EXTERN ?XSP
        EXTERN ?XSTACK_DISP0_8
        EXTERN ?XSTACK_DISP100_8
        EXTERN ?XSTACK_DISP101_8
        EXTERN ?XSTACK_DISP102_8
        EXTERN __INIT_XDATA_I
        EXTERN __INIT_XDATA_Z

        PUBLIC `??bdb_FindIfAppCluster::?relay`
        FUNCTION `??bdb_FindIfAppCluster::?relay`,0203H
        PUBLIC `??bdb_GetFBInitiatorStatus::?relay`
        FUNCTION `??bdb_GetFBInitiatorStatus::?relay`,0203H
        PUBLIC `??bdb_ProcessIEEEAddrRsp::?relay`
        FUNCTION `??bdb_ProcessIEEEAddrRsp::?relay`,0203H
        PUBLIC `??bdb_ProcessRespondentList::?relay`
        FUNCTION `??bdb_ProcessRespondentList::?relay`,0203H
        PUBLIC `??bdb_ProcessSimpleDesc::?relay`
        FUNCTION `??bdb_ProcessSimpleDesc::?relay`,0203H
        PUBLIC `??bdb_RegisterBindNotificationCB::?relay`
        FUNCTION `??bdb_RegisterBindNotificationCB::?relay`,0203H
        PUBLIC `??bdb_RegisterIdentifyTimeChangeCB::?relay`
        FUNCTION `??bdb_RegisterIdentifyTimeChangeCB::?relay`,0203H
        PUBLIC `??bdb_SendIdentifyQuery::?relay`
        FUNCTION `??bdb_SendIdentifyQuery::?relay`,0203H
        PUBLIC `??bdb_SetIdentifyActiveEndpoint::?relay`
        FUNCTION `??bdb_SetIdentifyActiveEndpoint::?relay`,0203H
        PUBLIC `??bdb_StopInitiatorFindingBinding::?relay`
        FUNCTION `??bdb_StopInitiatorFindingBinding::?relay`,0203H
        PUBLIC `??bdb_ZclIdentifyQueryCmdInd::?relay`
        FUNCTION `??bdb_ZclIdentifyQueryCmdInd::?relay`,0203H
        PUBLIC `??bdb_checkMatchingEndpoints::?relay`
        FUNCTION `??bdb_checkMatchingEndpoints::?relay`,0203H
        PUBLIC `??bdb_exitFindingBindingWStatus::?relay`
        FUNCTION `??bdb_exitFindingBindingWStatus::?relay`,0203H
        PUBLIC `??bdb_findRespondentNode::?relay`
        FUNCTION `??bdb_findRespondentNode::?relay`,0203H
        PUBLIC `??bdb_getRespondentRetry::?relay`
        FUNCTION `??bdb_getRespondentRetry::?relay`,0203H
        PUBLIC `??bdb_setEpDescListToActiveEndpoint::?relay`
        FUNCTION `??bdb_setEpDescListToActiveEndpoint::?relay`,0203H
        FUNCTION `??bdb_zclFindingBindingAddBindEntry::?relay`,0203H
        PUBLIC `??bdb_zclFindingBindingEpType::?relay`
        FUNCTION `??bdb_zclFindingBindingEpType::?relay`,0203H
        FUNCTION `??bdb_zclSimpleDescClusterListClean::?relay`,0203H
        PUBWEAK __Constant_1388
        PUBWEAK __Constant_3e7
        PUBWEAK __Constant_3e8
        PUBLIC bdbIndentifyActiveEndpoint
        PUBLIC bdb_FindIfAppCluster
        FUNCTION bdb_FindIfAppCluster,0203H
        ARGFRAME XSTACK, 14, STACK
        ARGFRAME IOVERLAY, 0, STATIC
        ARGFRAME DOVERLAY, 0, STATIC
        LOCFRAME XSTACK, 9, STACK
        PUBLIC bdb_FindingBindingTargetSimpleDesc
        PUBLIC bdb_GetFBInitiatorStatus
        FUNCTION bdb_GetFBInitiatorStatus,0a1203H
        ARGFRAME XSTACK, 0, STACK
        LOCFRAME ISTACK, 1, STACK
        LOCFRAME XSTACK, 20, STACK
        PUBLIC bdb_ProcessIEEEAddrRsp
        FUNCTION bdb_ProcessIEEEAddrRsp,0a1203H
        ARGFRAME XSTACK, 0, STACK
        LOCFRAME XSTACK, 25, STACK
        PUBLIC bdb_ProcessRespondentList
        FUNCTION bdb_ProcessRespondentList,0a1203H
        ARGFRAME XSTACK, 0, STACK
        LOCFRAME ISTACK, 1, STACK
        LOCFRAME XSTACK, 22, STACK
        PUBLIC bdb_ProcessSimpleDesc
        FUNCTION bdb_ProcessSimpleDesc,0a1203H
        ARGFRAME XSTACK, 0, STACK
        LOCFRAME XSTACK, 28, STACK
        PUBLIC bdb_RegisterBindNotificationCB
        FUNCTION bdb_RegisterBindNotificationCB,0203H
        ARGFRAME XSTACK, 0, STACK
        LOCFRAME ISTACK, 2, STACK
        PUBLIC bdb_RegisterIdentifyTimeChangeCB
        FUNCTION bdb_RegisterIdentifyTimeChangeCB,0203H
        ARGFRAME XSTACK, 0, STACK
        LOCFRAME ISTACK, 2, STACK
        PUBLIC bdb_SendIdentifyQuery
        FUNCTION bdb_SendIdentifyQuery,0a1203H
        ARGFRAME XSTACK, 0, STACK
        LOCFRAME XSTACK, 33, STACK
        PUBLIC bdb_SetIdentifyActiveEndpoint
        FUNCTION bdb_SetIdentifyActiveEndpoint,0203H
        ARGFRAME XSTACK, 0, STACK
        LOCFRAME ISTACK, 2, STACK
        PUBLIC bdb_StopInitiatorFindingBinding
        FUNCTION bdb_StopInitiatorFindingBinding,021203H
        ARGFRAME XSTACK, 0, STACK
        LOCFRAME ISTACK, 2, STACK
        PUBLIC bdb_ZclIdentifyQueryCmdInd
        FUNCTION bdb_ZclIdentifyQueryCmdInd,0a1203H
        ARGFRAME XSTACK, 0, STACK
        LOCFRAME ISTACK, 1, STACK
        LOCFRAME XSTACK, 10, STACK
        PUBLIC bdb_ZclType1Clusters
        PUBLIC bdb_ZclType2Clusters
        PUBLIC bdb_checkMatchingEndpoints
        FUNCTION bdb_checkMatchingEndpoints,0a1203H
        ARGFRAME XSTACK, 28, STACK
        ARGFRAME IOVERLAY, 0, STATIC
        ARGFRAME DOVERLAY, 0, STATIC
        LOCFRAME ISTACK, 1, STACK
        LOCFRAME XSTACK, 47, STACK
        PUBLIC bdb_exitFindingBindingWStatus
        FUNCTION bdb_exitFindingBindingWStatus,021203H
        ARGFRAME XSTACK, 41, STACK
        ARGFRAME IOVERLAY, 0, STATIC
        ARGFRAME DOVERLAY, 0, STATIC
        LOCFRAME XSTACK, 9, STACK
        PUBLIC bdb_findRespondentNode
        FUNCTION bdb_findRespondentNode,0203H
        ARGFRAME XSTACK, 28, STACK
        ARGFRAME IOVERLAY, 0, STATIC
        ARGFRAME DOVERLAY, 0, STATIC
        LOCFRAME ISTACK, 2, STACK
        PUBLIC bdb_getRespondentRetry
        FUNCTION bdb_getRespondentRetry,0203H
        ARGFRAME XSTACK, 18, STACK
        ARGFRAME IOVERLAY, 0, STATIC
        ARGFRAME DOVERLAY, 0, STATIC
        LOCFRAME ISTACK, 2, STACK
        PUBLIC bdb_setEpDescListToActiveEndpoint
        FUNCTION bdb_setEpDescListToActiveEndpoint,0203H
        ARGFRAME XSTACK, 28, STACK
        ARGFRAME IOVERLAY, 0, STATIC
        ARGFRAME DOVERLAY, 0, STATIC
        LOCFRAME ISTACK, 2, STACK
        FUNCTION bdb_zclFindingBindingAddBindEntry,0a1203H
        ARGFRAME XSTACK, 47, STACK
        ARGFRAME IOVERLAY, 0, STATIC
        ARGFRAME DOVERLAY, 0, STATIC
        LOCFRAME XSTACK, 16, STACK
        PUBLIC bdb_zclFindingBindingEpType
        FUNCTION bdb_zclFindingBindingEpType,0a1203H
        ARGFRAME XSTACK, 0, STACK
        LOCFRAME XSTACK, 16, STACK
        FUNCTION bdb_zclSimpleDescClusterListClean,0a1203H
        ARGFRAME XSTACK, 41, STACK
        ARGFRAME IOVERLAY, 0, STATIC
        ARGFRAME DOVERLAY, 0, STATIC
        LOCFRAME XSTACK, 10, STACK
        PUBLIC grpName
        PUBLIC pfnBindNotificationCB
        PUBLIC pfnIdentifyTimeChangeCB
        
          CFI Names cfiNames0
          CFI StackFrame CFA_SP SP IDATA
          CFI StackFrame CFA_PSP16 PSP16 XDATA
          CFI StackFrame CFA_XSP16 XSP16 XDATA
          CFI StaticOverlayFrame CFA_IOVERLAY IOVERLAY
          CFI StaticOverlayFrame CFA_DOVERLAY DOVERLAY
          CFI Resource `PSW.CY`:1, `B.BR0`:1, `B.BR1`:1, `B.BR2`:1, `B.BR3`:1
          CFI Resource `B.BR4`:1, `B.BR5`:1, `B.BR6`:1, `B.BR7`:1, `VB.BR8`:1
          CFI Resource `VB.BR9`:1, `VB.BR10`:1, `VB.BR11`:1, `VB.BR12`:1
          CFI Resource `VB.BR13`:1, `VB.BR14`:1, `VB.BR15`:1, VB:8, B:8, A:8
          CFI Resource PSW:8, DPL0:8, DPH0:8, R0:8, R1:8, R2:8, R3:8, R4:8, R5:8
          CFI Resource R6:8, R7:8, V0:8, V1:8, V2:8, V3:8, V4:8, V5:8, V6:8, V7:8
          CFI Resource V8:8, V9:8, V10:8, V11:8, V12:8, V13:8, V14:8, V15:8, SP:8
          CFI Resource PSPH:8, PSPL:8, PSP16:16, XSPH:8, XSPL:8, XSP16:16
          CFI VirtualResource ?RET:24
          CFI Resource ?BRET_EXT:8
          CFI VirtualResource ?RET_HIGH:8, ?RET_LOW:8
          CFI ResourceParts PSP16 PSPH, PSPL
          CFI ResourceParts XSP16 XSPH, XSPL
          CFI ResourceParts ?RET ?BRET_EXT, ?RET_HIGH, ?RET_LOW
          CFI EndNames cfiNames0
        
          CFI Common cfiCommon0 Using cfiNames0
          CFI CodeAlign 1
          CFI DataAlign -1
          CFI ReturnAddress ?RET CODE
          CFI CFA_DOVERLAY Used
          CFI CFA_IOVERLAY Used
          CFI CFA_SP SP+-3
          CFI CFA_PSP16 PSP16+0
          CFI CFA_XSP16 XSP16+0
          CFI `PSW.CY` SameValue
          CFI `B.BR0` SameValue
          CFI `B.BR1` SameValue
          CFI `B.BR2` SameValue
          CFI `B.BR3` SameValue
          CFI `B.BR4` SameValue
          CFI `B.BR5` SameValue
          CFI `B.BR6` SameValue
          CFI `B.BR7` SameValue
          CFI `VB.BR8` SameValue
          CFI `VB.BR9` SameValue
          CFI `VB.BR10` SameValue
          CFI `VB.BR11` SameValue
          CFI `VB.BR12` SameValue
          CFI `VB.BR13` SameValue
          CFI `VB.BR14` SameValue
          CFI `VB.BR15` SameValue
          CFI VB SameValue
          CFI B Undefined
          CFI A Undefined
          CFI PSW SameValue
          CFI DPL0 SameValue
          CFI DPH0 SameValue
          CFI R0 Undefined
          CFI R1 Undefined
          CFI R2 Undefined
          CFI R3 Undefined
          CFI R4 Undefined
          CFI R5 Undefined
          CFI R6 SameValue
          CFI R7 SameValue
          CFI V0 SameValue
          CFI V1 SameValue
          CFI V2 SameValue
          CFI V3 SameValue
          CFI V4 SameValue
          CFI V5 SameValue
          CFI V6 SameValue
          CFI V7 SameValue
          CFI V8 SameValue
          CFI V9 SameValue
          CFI V10 SameValue
          CFI V11 SameValue
          CFI V12 SameValue
          CFI V13 SameValue
          CFI V14 SameValue
          CFI V15 SameValue
          CFI PSPH Undefined
          CFI PSPL Undefined
          CFI XSPH Undefined
          CFI XSPL Undefined
          CFI ?RET Concat
          CFI ?BRET_EXT Frame(CFA_SP, 3)
          CFI ?RET_HIGH Frame(CFA_SP, 2)
          CFI ?RET_LOW Frame(CFA_SP, 1)
          CFI EndCommon cfiCommon0
        
        
          CFI Common cfiCommon1 Using cfiNames0
          CFI CodeAlign 1
          CFI DataAlign -1
          CFI ReturnAddress ?RET CODE
          CFI CFA_DOVERLAY Used
          CFI CFA_IOVERLAY Used
          CFI CFA_SP SP+-2
          CFI CFA_PSP16 PSP16+0
          CFI CFA_XSP16 XSP16+0
          CFI `PSW.CY` SameValue
          CFI `B.BR0` SameValue
          CFI `B.BR1` SameValue
          CFI `B.BR2` SameValue
          CFI `B.BR3` SameValue
          CFI `B.BR4` SameValue
          CFI `B.BR5` SameValue
          CFI `B.BR6` SameValue
          CFI `B.BR7` SameValue
          CFI `VB.BR8` SameValue
          CFI `VB.BR9` SameValue
          CFI `VB.BR10` SameValue
          CFI `VB.BR11` SameValue
          CFI `VB.BR12` SameValue
          CFI `VB.BR13` SameValue
          CFI `VB.BR14` SameValue
          CFI `VB.BR15` SameValue
          CFI VB SameValue
          CFI B SameValue
          CFI A SameValue
          CFI PSW SameValue
          CFI DPL0 SameValue
          CFI DPH0 SameValue
          CFI R0 SameValue
          CFI R1 SameValue
          CFI R2 SameValue
          CFI R3 SameValue
          CFI R4 SameValue
          CFI R5 SameValue
          CFI R6 SameValue
          CFI R7 SameValue
          CFI V0 SameValue
          CFI V1 SameValue
          CFI V2 SameValue
          CFI V3 SameValue
          CFI V4 SameValue
          CFI V5 SameValue
          CFI V6 SameValue
          CFI V7 SameValue
          CFI V8 SameValue
          CFI V9 SameValue
          CFI V10 SameValue
          CFI V11 SameValue
          CFI V12 SameValue
          CFI V13 SameValue
          CFI V14 SameValue
          CFI V15 SameValue
          CFI PSPH Undefined
          CFI PSPL Undefined
          CFI XSPH Undefined
          CFI XSPL Undefined
          CFI ?RET Concat
          CFI ?BRET_EXT SameValue
          CFI ?RET_HIGH Frame(CFA_SP, 2)
          CFI ?RET_LOW Frame(CFA_SP, 1)
          CFI EndCommon cfiCommon1
        
AddrMgrEntryUpdate  SYMBOL "AddrMgrEntryUpdate"
`??AddrMgrEntryUpdate::?relay` SYMBOL "?relay", AddrMgrEntryUpdate
AddrMgrExtAddrLookup SYMBOL "AddrMgrExtAddrLookup"
`??AddrMgrExtAddrLookup::?relay` SYMBOL "?relay", AddrMgrExtAddrLookup
AddrMgrExtAddrSet   SYMBOL "AddrMgrExtAddrSet"
`??AddrMgrExtAddrSet::?relay` SYMBOL "?relay", AddrMgrExtAddrSet
ZDO_AnyClusterMatches SYMBOL "ZDO_AnyClusterMatches"
`??ZDO_AnyClusterMatches::?relay` SYMBOL "?relay", ZDO_AnyClusterMatches
ZDO_ParseAddrRsp    SYMBOL "ZDO_ParseAddrRsp"
`??ZDO_ParseAddrRsp::?relay` SYMBOL "?relay", ZDO_ParseAddrRsp
ZDO_ParseSimpleDescBuf SYMBOL "ZDO_ParseSimpleDescBuf"
`??ZDO_ParseSimpleDescBuf::?relay` SYMBOL "?relay", ZDO_ParseSimpleDescBuf
ZDP_IEEEAddrReq     SYMBOL "ZDP_IEEEAddrReq"
`??ZDP_IEEEAddrReq::?relay` SYMBOL "?relay", ZDP_IEEEAddrReq
ZDP_SimpleDescReq   SYMBOL "ZDP_SimpleDescReq"
`??ZDP_SimpleDescReq::?relay` SYMBOL "?relay", ZDP_SimpleDescReq
bdb_AddRespondentNode SYMBOL "bdb_AddRespondentNode"
`??bdb_AddRespondentNode::?relay` SYMBOL "?relay", bdb_AddRespondentNode
bdb_getZCLFrameCounter SYMBOL "bdb_getZCLFrameCounter"
`??bdb_getZCLFrameCounter::?relay` SYMBOL "?relay", bdb_getZCLFrameCounter
bdb_reportCommissioningState SYMBOL "bdb_reportCommissioningState"
`??bdb_reportCommissioningState::?relay` SYMBOL "?relay", bdb_reportCommissioningState
bdb_zclRespondentListClean SYMBOL "bdb_zclRespondentListClean"
`??bdb_zclRespondentListClean::?relay` SYMBOL "?relay", bdb_zclRespondentListClean
osal_get_timeoutEx  SYMBOL "osal_get_timeoutEx"
`??osal_get_timeoutEx::?relay` SYMBOL "?relay", osal_get_timeoutEx
osal_mem_free       SYMBOL "osal_mem_free"
`??osal_mem_free::?relay` SYMBOL "?relay", osal_mem_free
osal_set_event      SYMBOL "osal_set_event"
`??osal_set_event::?relay` SYMBOL "?relay", osal_set_event
osal_start_timerEx  SYMBOL "osal_start_timerEx"
`??osal_start_timerEx::?relay` SYMBOL "?relay", osal_start_timerEx
osal_stop_timerEx   SYMBOL "osal_stop_timerEx"
`??osal_stop_timerEx::?relay` SYMBOL "?relay", osal_stop_timerEx
zclGeneral_SendAddGroupRequest SYMBOL "zclGeneral_SendAddGroupRequest"
`??zclGeneral_SendAddGroupRequest::?relay` SYMBOL "?relay", zclGeneral_SendAddGroupRequest
zcl_SendCommand     SYMBOL "zcl_SendCommand"
`??zcl_SendCommand::?relay` SYMBOL "?relay", zcl_SendCommand
zcl_registerClusterOptionList SYMBOL "zcl_registerClusterOptionList"
`??zcl_registerClusterOptionList::?relay` SYMBOL "?relay", zcl_registerClusterOptionList
bdb_FindIfAppCluster SYMBOL "bdb_FindIfAppCluster"
`??bdb_FindIfAppCluster::?relay` SYMBOL "?relay", bdb_FindIfAppCluster
bdb_GetFBInitiatorStatus SYMBOL "bdb_GetFBInitiatorStatus"
`??bdb_GetFBInitiatorStatus::?relay` SYMBOL "?relay", bdb_GetFBInitiatorStatus
bdb_ProcessIEEEAddrRsp SYMBOL "bdb_ProcessIEEEAddrRsp"
`??bdb_ProcessIEEEAddrRsp::?relay` SYMBOL "?relay", bdb_ProcessIEEEAddrRsp
bdb_ProcessRespondentList SYMBOL "bdb_ProcessRespondentList"
`??bdb_ProcessRespondentList::?relay` SYMBOL "?relay", bdb_ProcessRespondentList
bdb_ProcessSimpleDesc SYMBOL "bdb_ProcessSimpleDesc"
`??bdb_ProcessSimpleDesc::?relay` SYMBOL "?relay", bdb_ProcessSimpleDesc
bdb_RegisterBindNotificationCB SYMBOL "bdb_RegisterBindNotificationCB"
`??bdb_RegisterBindNotificationCB::?relay` SYMBOL "?relay", bdb_RegisterBindNotificationCB
bdb_RegisterIdentifyTimeChangeCB SYMBOL "bdb_RegisterIdentifyTimeChangeCB"
`??bdb_RegisterIdentifyTimeChangeCB::?relay` SYMBOL "?relay", bdb_RegisterIdentifyTimeChangeCB
bdb_SendIdentifyQuery SYMBOL "bdb_SendIdentifyQuery"
`??bdb_SendIdentifyQuery::?relay` SYMBOL "?relay", bdb_SendIdentifyQuery
bdb_SetIdentifyActiveEndpoint SYMBOL "bdb_SetIdentifyActiveEndpoint"
`??bdb_SetIdentifyActiveEndpoint::?relay` SYMBOL "?relay", bdb_SetIdentifyActiveEndpoint
bdb_StopInitiatorFindingBinding SYMBOL "bdb_StopInitiatorFindingBinding"
`??bdb_StopInitiatorFindingBinding::?relay` SYMBOL "?relay", bdb_StopInitiatorFindingBinding
bdb_ZclIdentifyQueryCmdInd SYMBOL "bdb_ZclIdentifyQueryCmdInd"
`??bdb_ZclIdentifyQueryCmdInd::?relay` SYMBOL "?relay", bdb_ZclIdentifyQueryCmdInd
bdb_checkMatchingEndpoints SYMBOL "bdb_checkMatchingEndpoints"
`??bdb_checkMatchingEndpoints::?relay` SYMBOL "?relay", bdb_checkMatchingEndpoints
bdb_exitFindingBindingWStatus SYMBOL "bdb_exitFindingBindingWStatus"
`??bdb_exitFindingBindingWStatus::?relay` SYMBOL "?relay", bdb_exitFindingBindingWStatus
bdb_findRespondentNode SYMBOL "bdb_findRespondentNode"
`??bdb_findRespondentNode::?relay` SYMBOL "?relay", bdb_findRespondentNode
bdb_getRespondentRetry SYMBOL "bdb_getRespondentRetry"
`??bdb_getRespondentRetry::?relay` SYMBOL "?relay", bdb_getRespondentRetry
bdb_setEpDescListToActiveEndpoint SYMBOL "bdb_setEpDescListToActiveEndpoint"
`??bdb_setEpDescListToActiveEndpoint::?relay` SYMBOL "?relay", bdb_setEpDescListToActiveEndpoint
bdb_zclFindingBindingEpType SYMBOL "bdb_zclFindingBindingEpType"
`??bdb_zclFindingBindingEpType::?relay` SYMBOL "?relay", bdb_zclFindingBindingEpType

        EXTERN `??AddrMgrEntryUpdate::?relay`
        FUNCTION `??AddrMgrEntryUpdate::?relay`,00H
        EXTERN `??AddrMgrExtAddrLookup::?relay`
        FUNCTION `??AddrMgrExtAddrLookup::?relay`,00H
        EXTERN `??AddrMgrExtAddrSet::?relay`
        FUNCTION `??AddrMgrExtAddrSet::?relay`,00H
        EXTERN `??ZDO_AnyClusterMatches::?relay`
        FUNCTION `??ZDO_AnyClusterMatches::?relay`,00H
        EXTERN `??ZDO_ParseAddrRsp::?relay`
        FUNCTION `??ZDO_ParseAddrRsp::?relay`,00H
        EXTERN `??ZDO_ParseSimpleDescBuf::?relay`
        FUNCTION `??ZDO_ParseSimpleDescBuf::?relay`,00H
        EXTERN `??ZDP_IEEEAddrReq::?relay`
        FUNCTION `??ZDP_IEEEAddrReq::?relay`,00H
        EXTERN `??ZDP_SimpleDescReq::?relay`
        FUNCTION `??ZDP_SimpleDescReq::?relay`,00H
        EXTERN `??bdb_AddRespondentNode::?relay`
        FUNCTION `??bdb_AddRespondentNode::?relay`,00H
        EXTERN `??bdb_getZCLFrameCounter::?relay`
        FUNCTION `??bdb_getZCLFrameCounter::?relay`,00H
        EXTERN `??bdb_reportCommissioningState::?relay`
        FUNCTION `??bdb_reportCommissioningState::?relay`,00H
        EXTERN `??bdb_zclRespondentListClean::?relay`
        FUNCTION `??bdb_zclRespondentListClean::?relay`,00H
        EXTERN `??osal_get_timeoutEx::?relay`
        FUNCTION `??osal_get_timeoutEx::?relay`,00H
        EXTERN `??osal_mem_free::?relay`
        FUNCTION `??osal_mem_free::?relay`,00H
        EXTERN `??osal_set_event::?relay`
        FUNCTION `??osal_set_event::?relay`,00H
        EXTERN `??osal_start_timerEx::?relay`
        FUNCTION `??osal_start_timerEx::?relay`,00H
        EXTERN `??osal_stop_timerEx::?relay`
        FUNCTION `??osal_stop_timerEx::?relay`,00H
        EXTERN `??zclGeneral_SendAddGroupRequest::?relay`
        FUNCTION `??zclGeneral_SendAddGroupRequest::?relay`,00H
        EXTERN `??zcl_SendCommand::?relay`
        FUNCTION `??zcl_SendCommand::?relay`,00H
        EXTERN `??zcl_registerClusterOptionList::?relay`
        FUNCTION `??zcl_registerClusterOptionList::?relay`,00H
        EXTERN AddrMgrEntryUpdate
        FUNCTION AddrMgrEntryUpdate,0202H
        ARGFRAME ISTACK, 0, STACK
        ARGFRAME PSTACK, 0, STACK
        ARGFRAME XSTACK, 25, STACK
        ARGFRAME IOVERLAY, 0, STATIC
        ARGFRAME DOVERLAY, 0, STATIC
        EXTERN AddrMgrExtAddrLookup
        FUNCTION AddrMgrExtAddrLookup,0202H
        ARGFRAME ISTACK, 0, STACK
        ARGFRAME PSTACK, 0, STACK
        ARGFRAME XSTACK, 41, STACK
        ARGFRAME IOVERLAY, 0, STATIC
        ARGFRAME DOVERLAY, 0, STATIC
        EXTERN AddrMgrExtAddrSet
        FUNCTION AddrMgrExtAddrSet,0202H
        ARGFRAME ISTACK, 0, STACK
        ARGFRAME PSTACK, 0, STACK
        ARGFRAME XSTACK, 25, STACK
        ARGFRAME IOVERLAY, 0, STATIC
        ARGFRAME DOVERLAY, 0, STATIC
        EXTERN ZDO_AnyClusterMatches
        FUNCTION ZDO_AnyClusterMatches,0202H
        ARGFRAME ISTACK, 0, STACK
        ARGFRAME PSTACK, 0, STACK
        ARGFRAME XSTACK, 16, STACK
        ARGFRAME IOVERLAY, 0, STATIC
        ARGFRAME DOVERLAY, 0, STATIC
        EXTERN ZDO_ParseAddrRsp
        FUNCTION ZDO_ParseAddrRsp,0202H
        ARGFRAME ISTACK, 0, STACK
        ARGFRAME PSTACK, 0, STACK
        ARGFRAME XSTACK, 25, STACK
        ARGFRAME IOVERLAY, 0, STATIC
        ARGFRAME DOVERLAY, 0, STATIC
        EXTERN ZDO_ParseSimpleDescBuf
        FUNCTION ZDO_ParseSimpleDescBuf,0202H
        ARGFRAME ISTACK, 0, STACK
        ARGFRAME PSTACK, 0, STACK
        ARGFRAME XSTACK, 28, STACK
        ARGFRAME IOVERLAY, 0, STATIC
        ARGFRAME DOVERLAY, 0, STATIC
        EXTERN ZDP_IEEEAddrReq
        FUNCTION ZDP_IEEEAddrReq,0202H
        ARGFRAME ISTACK, 0, STACK
        ARGFRAME PSTACK, 0, STACK
        ARGFRAME XSTACK, 18, STACK
        ARGFRAME IOVERLAY, 0, STATIC
        ARGFRAME DOVERLAY, 0, STATIC
        EXTERN ZDP_SimpleDescReq
        FUNCTION ZDP_SimpleDescReq,0202H
        ARGFRAME ISTACK, 0, STACK
        ARGFRAME PSTACK, 0, STACK
        ARGFRAME XSTACK, 19, STACK
        ARGFRAME IOVERLAY, 0, STATIC
        ARGFRAME DOVERLAY, 0, STATIC
        EXTERN bdbAttributes
        EXTERN bdbCommissioningProcedureState
        EXTERN bdb_AddRespondentNode
        FUNCTION bdb_AddRespondentNode,0202H
        ARGFRAME ISTACK, 0, STACK
        ARGFRAME PSTACK, 0, STACK
        ARGFRAME XSTACK, 10, STACK
        ARGFRAME IOVERLAY, 0, STATIC
        ARGFRAME DOVERLAY, 0, STATIC
        EXTERN bdb_CurrEpDescriptorList
        EXTERN bdb_FB_InitiatorCurrentCyclesNumber
        EXTERN bdb_HeadEpDescriptorList
        EXTERN bdb_TaskID
        EXTERN bdb_getZCLFrameCounter
        FUNCTION bdb_getZCLFrameCounter,0202H
        ARGFRAME ISTACK, 0, STACK
        ARGFRAME PSTACK, 0, STACK
        ARGFRAME XSTACK, 22, STACK
        ARGFRAME IOVERLAY, 0, STATIC
        ARGFRAME DOVERLAY, 0, STATIC
        EXTERN bdb_reportCommissioningState
        FUNCTION bdb_reportCommissioningState,0202H
        ARGFRAME ISTACK, 0, STACK
        ARGFRAME PSTACK, 0, STACK
        ARGFRAME XSTACK, 9, STACK
        ARGFRAME IOVERLAY, 0, STATIC
        ARGFRAME DOVERLAY, 0, STATIC
        EXTERN bdb_zclRespondentListClean
        FUNCTION bdb_zclRespondentListClean,0202H
        ARGFRAME ISTACK, 2, STACK
        ARGFRAME PSTACK, 0, STACK
        ARGFRAME XSTACK, 0, STACK
        ARGFRAME IOVERLAY, 0, STATIC
        ARGFRAME DOVERLAY, 0, STATIC
        EXTERN osal_get_timeoutEx
        FUNCTION osal_get_timeoutEx,0202H
        ARGFRAME ISTACK, 0, STACK
        ARGFRAME PSTACK, 0, STACK
        ARGFRAME XSTACK, 20, STACK
        ARGFRAME IOVERLAY, 0, STATIC
        ARGFRAME DOVERLAY, 0, STATIC
        EXTERN osal_mem_free
        FUNCTION osal_mem_free,0202H
        ARGFRAME ISTACK, 0, STACK
        ARGFRAME PSTACK, 0, STACK
        ARGFRAME XSTACK, 25, STACK
        ARGFRAME IOVERLAY, 0, STATIC
        ARGFRAME DOVERLAY, 0, STATIC
        EXTERN osal_set_event
        FUNCTION osal_set_event,0202H
        ARGFRAME ISTACK, 0, STACK
        ARGFRAME PSTACK, 0, STACK
        ARGFRAME XSTACK, 10, STACK
        ARGFRAME IOVERLAY, 0, STATIC
        ARGFRAME DOVERLAY, 0, STATIC
        EXTERN osal_start_timerEx
        FUNCTION osal_start_timerEx,0202H
        ARGFRAME ISTACK, 0, STACK
        ARGFRAME PSTACK, 0, STACK
        ARGFRAME XSTACK, 26, STACK
        ARGFRAME IOVERLAY, 0, STATIC
        ARGFRAME DOVERLAY, 0, STATIC
        EXTERN osal_stop_timerEx
        FUNCTION osal_stop_timerEx,0202H
        ARGFRAME ISTACK, 2, STACK
        ARGFRAME PSTACK, 0, STACK
        ARGFRAME XSTACK, 41, STACK
        ARGFRAME IOVERLAY, 0, STATIC
        ARGFRAME DOVERLAY, 0, STATIC
        EXTERN pRespondentCurr
        EXTERN pRespondentHead
        EXTERN pRespondentNext
        EXTERN pbindAddEntry
        EXTERN zclGeneral_SendAddGroupRequest
        FUNCTION zclGeneral_SendAddGroupRequest,0202H
        ARGFRAME ISTACK, 0, STACK
        ARGFRAME PSTACK, 0, STACK
        ARGFRAME XSTACK, 46, STACK
        ARGFRAME IOVERLAY, 0, STATIC
        ARGFRAME DOVERLAY, 0, STATIC
        EXTERN zcl_SendCommand
        FUNCTION zcl_SendCommand,0202H
        ARGFRAME ISTACK, 0, STACK
        ARGFRAME PSTACK, 0, STACK
        ARGFRAME XSTACK, 33, STACK
        ARGFRAME IOVERLAY, 0, STATIC
        ARGFRAME DOVERLAY, 0, STATIC
        EXTERN zcl_registerClusterOptionList
        FUNCTION zcl_registerClusterOptionList,0202H
        ARGFRAME ISTACK, 0, STACK
        ARGFRAME PSTACK, 0, STACK
        ARGFRAME XSTACK, 41, STACK
        ARGFRAME IOVERLAY, 0, STATIC
        ARGFRAME DOVERLAY, 0, STATIC

// C:\Texas Instruments\Z-Stack 3.0.2-20210417T211827Z-001\Z-Stack 3.0.2\Z-Stack 3.0.2\Components\stack\bdb\bdb_FindingAndBinding.c
//    1 /**************************************************************************************************
//    2   Filename:       bdb_FindingAndBinding.c
//    3   Revised:        $Date: 2016-02-25 11:51:49 -0700 (Thu, 25 Feb 2016) $
//    4   Revision:       $Revision: - $
//    5 
//    6   Description:    This file contains the Base Device Behavior functions and attributes.
//    7 
//    8 
//    9   Copyright 2006-2015 Texas Instruments Incorporated. All rights reserved.
//   10 
//   11   IMPORTANT: Your use of this Software is limited to those specific rights
//   12   granted under the terms of a software license agreement between the user
//   13   who downloaded the software, his/her employer (which must be your employer)
//   14   and Texas Instruments Incorporated (the "License").  You may not use this
//   15   Software unless you agree to abide by the terms of the License. The License
//   16   limits your use, and you acknowledge, that the Software may not be modified,
//   17   copied or distributed unless embedded on a Texas Instruments microcontroller
//   18   or used solely and exclusively in conjunction with a Texas Instruments radio
//   19   frequency transceiver, which is integrated into your product.  Other than for
//   20   the foregoing purpose, you may not use, reproduce, copy, prepare derivative
//   21   works of, modify, distribute, perform, display or sell this Software and/or
//   22   its documentation for any purpose.
//   23 
//   24   YOU FURTHER ACKNOWLEDGE AND AGREE THAT THE SOFTWARE AND DOCUMENTATION ARE
//   25   PROVIDED "AS IS" WITHOUT WARRANTY OF ANY KIND, EITHER EXPRESS OR IMPLIED,
//   26   INCLUDING WITHOUT LIMITATION, ANY WARRANTY OF MERCHANTABILITY, TITLE,
//   27   NON-INFRINGEMENT AND FITNESS FOR A PARTICULAR PURPOSE. IN NO EVENT SHALL
//   28   TEXAS INSTRUMENTS OR ITS LICENSORS BE LIABLE OR OBLIGATED UNDER CONTRACT,
//   29   NEGLIGENCE, STRICT LIABILITY, CONTRIBUTION, BREACH OF WARRANTY, OR OTHER
//   30   LEGAL EQUITABLE THEORY ANY DIRECT OR INDIRECT DAMAGES OR EXPENSES
//   31   INCLUDING BUT NOT LIMITED TO ANY INCIDENTAL, SPECIAL, INDIRECT, PUNITIVE
//   32   OR CONSEQUENTIAL DAMAGES, LOST PROFITS OR LOST DATA, COST OF PROCUREMENT
//   33   OF SUBSTITUTE GOODS, TECHNOLOGY, SERVICES, OR ANY CLAIMS BY THIRD PARTIES
//   34   (INCLUDING BUT NOT LIMITED TO ANY DEFENSE THEREOF), OR OTHER SIMILAR COSTS.
//   35 
//   36   Should you have any questions regarding your right to use this Software,
//   37   contact Texas Instruments Incorporated at www.TI.com.
//   38 **************************************************************************************************/
//   39 
//   40 /*********************************************************************
//   41  * INCLUDES
//   42  */
//   43 
//   44 #include "bdb.h"
//   45 #include "ZDObject.h"
//   46 #include "bdb_interface.h"
//   47 #include "AddrMgr.h"
//   48    
//   49 #if (BDB_FINDING_BINDING_CAPABILITY_ENABLED==1)   
//   50    
//   51 /*********************************************************************
//   52  * MACROS
//   53  */
//   54 
//   55 
//   56 
//   57    
//   58 /*********************************************************************
//   59  * CONSTANTS
//   60  */
//   61 /*********************************************************************
//   62  * TYPEDEFS
//   63  */
//   64  
//   65  
//   66 /*********************************************************************
//   67  * GLOBAL VARIABLES
//   68  */
//   69 

        RSEG XDATA_I:XDATA:NOROOT(0)
//   70 uint8 grpName[6] = {'G','r','o','u','p','\0'};
grpName:
        DATA8
        DS 6
        REQUIRE `?<Initializer for grpName>`
        REQUIRE __INIT_XDATA_I

        RSEG XDATA_Z:XDATA:NOROOT(0)
        DATA16
//   71 bdbGCB_IdentifyTimeChange_t      pfnIdentifyTimeChangeCB = NULL; 
pfnIdentifyTimeChangeCB:
        DS 2
        REQUIRE __INIT_XDATA_Z

        RSEG XDATA_Z:XDATA:NOROOT(0)
        DATA16
//   72 bdbGCB_BindNotification_t        pfnBindNotificationCB = NULL;
pfnBindNotificationCB:
        DS 2
        REQUIRE __INIT_XDATA_Z
//   73 
//   74 /*********************************************************************
//   75  * EXTERNAL VARIABLES
//   76  */
//   77 
//   78 /*********************************************************************
//   79  * EXTERNAL FUNCTIONS
//   80  */
//   81 
//   82 
//   83 
//   84 /*********************************************************************
//   85  * LOCAL VARIABLES
//   86  */
//   87 

        RSEG XDATA_Z:XDATA:NOROOT(0)
        DATA8
//   88 SimpleDescriptionFormat_t  bdb_FindingBindingTargetSimpleDesc;
bdb_FindingBindingTargetSimpleDesc:
        DS 12
        REQUIRE __INIT_XDATA_Z
//   89 

        RSEG XDATA_I:XDATA:NOROOT(0)
//   90 uint8 bdbIndentifyActiveEndpoint  = 0xFF;
bdbIndentifyActiveEndpoint:
        DATA8
        DS 1
        REQUIRE `?<Initializer for bdbIndentifyActiveEndpoint>`
        REQUIRE __INIT_XDATA_I
//   91 
//   92 //Your JOB:
//   93 //Remove the clusters that your application do not use. This will save some flash and processing
//   94 //when looking into matching clusters during the finding & binding procedure

        RSEG XDATA_ROM_C:CONST:REORDER:NOROOT(0)
        DATA8
//   95 const cId_t bdb_ZclType1Clusters[] =
bdb_ZclType1Clusters:
        DATA16
        DW 5
        DW 6
        DW 8
        DW 9
        DW 22
        DW 258
        DW 514
        DW 515
        DW 768
        DW 769
        DW 1281
        DW 1282
        DW 1536
        DW 1537
        DW 2820
        DW 1556
        DW 1557
        DW 1559
        DW 1792
        DW 1793
        DW 1794
        DW 1795
        DW 2308
        DW 2304
//   96 {
//   97   ZCL_CLUSTER_ID_GEN_SCENES,
//   98   ZCL_CLUSTER_ID_GEN_ON_OFF,
//   99   ZCL_CLUSTER_ID_GEN_LEVEL_CONTROL,
//  100   ZCL_CLUSTER_ID_GEN_ALARMS,
//  101   ZCL_CLUSTER_ID_GEN_PARTITION,
//  102   ZCL_CLUSTER_ID_CLOSURES_WINDOW_COVERING,
//  103   ZCL_CLUSTER_ID_HVAC_FAN_CONTROL,
//  104   ZCL_CLUSTER_ID_HVAC_DIHUMIDIFICATION_CONTROL,
//  105   ZCL_CLUSTER_ID_LIGHTING_COLOR_CONTROL,
//  106   ZCL_CLUSTER_ID_LIGHTING_BALLAST_CONFIG,
//  107   ZCL_CLUSTER_ID_SS_IAS_ACE,
//  108   ZCL_CLUSTER_ID_SS_IAS_WD,
//  109   ZCL_CLUSTER_ID_PI_GENERIC_TUNNEL,
//  110   ZCL_CLUSTER_ID_PI_BACNET_PROTOCOL_TUNNEL,
//  111   ZCL_CLUSTER_ID_HA_ELECTRICAL_MEASUREMENT,
//  112   ZCL_CLUSTER_ID_PI_11073_PROTOCOL_TUNNEL,
//  113   ZCL_CLUSTER_ID_PI_ISO7818_PROTOCOL_TUNNEL,
//  114   ZCL_CLUSTER_ID_PI_RETAIL_TUNNEL,
//  115   ZCL_CLUSTER_ID_SE_PRICE,
//  116   ZCL_CLUSTER_ID_SE_DRLC,
//  117   ZCL_CLUSTER_ID_SE_METERING,
//  118   ZCL_CLUSTER_ID_SE_MESSAGING,
//  119   ZCL_CLUSTER_ID_TELECOMMUNICATIONS_VOICE_OVER_ZIGBEE,
//  120   ZCL_CLUSTER_ID_TELECOMMUNICATIONS_INFORMATION,
//  121 };
//  122 
//  123 //Your JOB:
//  124 //Remove the clusters that your application do not use. This will save some flash and processing
//  125 //when looking into matching clusters during the finding & binding procedure

        RSEG XDATA_ROM_C:CONST:REORDER:NOROOT(0)
        DATA8
//  126 const cId_t bdb_ZclType2Clusters[] =
bdb_ZclType2Clusters:
        DATA16
        DW 7
        DW 10
        DW 12
        DW 13
        DW 14
        DW 15
        DW 16
        DW 17
        DW 18
        DW 19
        DW 20
        DW 25
        DW 27
        DW 256
        DW 257
        DW 512
        DW 513
        DW 1026
        DW 1024
        DW 1025
        DW 1027
        DW 1028
        DW 1029
        DW 1030
        DW 1280
        DW 1538
        DW 1539
        DW 1540
        DW 1541
        DW 1542
        DW 1543
        DW 1544
        DW 1545
        DW 1546
        DW 1547
        DW 1548
        DW 1549
        DW 1550
        DW 1551
        DW 1552
        DW 1553
        DW 1554
        DW 1555
        DW 1796
        DW 2304
        DW 2816
        DW 2817
        DW 2818
        DW 2819
//  127 {
//  128   ZCL_CLUSTER_ID_GEN_ON_OFF_SWITCH_CONFIG,
//  129   ZCL_CLUSTER_ID_GEN_TIME,
//  130   ZCL_CLUSTER_ID_GEN_ANALOG_INPUT_BASIC,
//  131   ZCL_CLUSTER_ID_GEN_ANALOG_OUTPUT_BASIC,
//  132   ZCL_CLUSTER_ID_GEN_ANALOG_VALUE_BASIC,
//  133   ZCL_CLUSTER_ID_GEN_BINARY_INPUT_BASIC,
//  134   ZCL_CLUSTER_ID_GEN_BINARY_OUTPUT_BASIC,
//  135   ZCL_CLUSTER_ID_GEN_BINARY_VALUE_BASIC,
//  136   ZCL_CLUSTER_ID_GEN_MULTISTATE_INPUT_BASIC,
//  137   ZCL_CLUSTER_ID_GEN_MULTISTATE_OUTPUT_BASIC,
//  138   ZCL_CLUSTER_ID_GEN_MULTISTATE_VALUE_BASIC,
//  139   ZCL_CLUSTER_ID_OTA,
//  140   ZCL_CLUSTER_ID_GEN_APPLIANCE_CONTROL,
//  141   ZCL_CLUSTER_ID_CLOSURES_SHADE_CONFIG,
//  142   ZCL_CLUSTER_ID_CLOSURES_DOOR_LOCK,
//  143   ZCL_CLUSTER_ID_HVAC_PUMP_CONFIG_CONTROL,
//  144   ZCL_CLUSTER_ID_HVAC_THERMOSTAT,
//  145   ZCL_CLUSTER_ID_MS_TEMPERATURE_MEASUREMENT,
//  146   ZCL_CLUSTER_ID_MS_ILLUMINANCE_MEASUREMENT,
//  147   ZCL_CLUSTER_ID_MS_ILLUMINANCE_LEVEL_SENSING_CONFIG,
//  148   ZCL_CLUSTER_ID_MS_PRESSURE_MEASUREMENT,
//  149   ZCL_CLUSTER_ID_MS_FLOW_MEASUREMENT,
//  150   ZCL_CLUSTER_ID_MS_RELATIVE_HUMIDITY,
//  151   ZCL_CLUSTER_ID_MS_OCCUPANCY_SENSING,
//  152   ZCL_CLUSTER_ID_SS_IAS_ZONE,
//  153   ZCL_CLUSTER_ID_PI_ANALOG_INPUT_BACNET_REG,
//  154   ZCL_CLUSTER_ID_PI_ANALOG_INPUT_BACNET_EXT,
//  155   ZCL_CLUSTER_ID_PI_ANALOG_OUTPUT_BACNET_REG,
//  156   ZCL_CLUSTER_ID_PI_ANALOG_OUTPUT_BACNET_EXT,
//  157   ZCL_CLUSTER_ID_PI_ANALOG_VALUE_BACNET_REG,
//  158   ZCL_CLUSTER_ID_PI_ANALOG_VALUE_BACNET_EXT,
//  159   ZCL_CLUSTER_ID_PI_BINARY_INPUT_BACNET_REG,
//  160   ZCL_CLUSTER_ID_PI_BINARY_INPUT_BACNET_EXT,
//  161   ZCL_CLUSTER_ID_PI_BINARY_OUTPUT_BACNET_REG,
//  162   ZCL_CLUSTER_ID_PI_BINARY_OUTPUT_BACNET_EXT,
//  163   ZCL_CLUSTER_ID_PI_BINARY_VALUE_BACNET_REG,
//  164   ZCL_CLUSTER_ID_PI_BINARY_VALUE_BACNET_EXT,
//  165   ZCL_CLUSTER_ID_PI_MULTISTATE_INPUT_BACNET_REG,
//  166   ZCL_CLUSTER_ID_PI_MULTISTATE_INPUT_BACNET_EXT,
//  167   ZCL_CLUSTER_ID_PI_MULTISTATE_OUTPUT_BACNET_REG,
//  168   ZCL_CLUSTER_ID_PI_MULTISTATE_OUTPUT_BACNET_EXT,
//  169   ZCL_CLUSTER_ID_PI_MULTISTATE_VALUE_BACNET_REG,
//  170   ZCL_CLUSTER_ID_PI_MULTISTATE_VALUE_BACNET_EXT,
//  171   ZCL_CLUSTER_ID_SE_TUNNELING,
//  172   ZCL_CLUSTER_ID_TELECOMMUNICATIONS_INFORMATION,
//  173   ZCL_CLUSTER_ID_HA_APPLIANCE_IDENTIFICATION,
//  174   ZCL_CLUSTER_ID_HA_METER_IDENTIFICATION,
//  175   ZCL_CLUSTER_ID_HA_APPLIANCE_EVENTS_ALERTS,
//  176   ZCL_CLUSTER_ID_HA_APPLIANCE_STATISTICS,
//  177 };
//  178 
//  179 #ifdef ZCL_GROUPS

        RSEG XDATA_I:XDATA:NOROOT(0)
//  180 static zclOptionRec_t zcl_Groups_Options[] =
zcl_Groups_Options:
        DATA8
        DS 3
        REQUIRE `?<Initializer for zcl_Groups_Options>`
        REQUIRE __INIT_XDATA_I
//  181 {
//  182   {
//  183     ZCL_CLUSTER_ID_GEN_GROUPS,
//  184     ( AF_ACK_REQUEST ),
//  185   },
//  186 };
//  187 #endif
//  188 
//  189 
//  190  /*********************************************************************
//  191  * LOCAL FUNCTIONS
//  192  */
//  193 static ZStatus_t bdb_zclFindingBindingAddBindEntry( byte SrcEndpInt,
//  194                                   uint16 BindClusterId,
//  195                                   byte Cnt,                 
//  196                                   uint16 * ClusterList,
//  197                                   zAddrType_t *DstAddr, byte DstEndpInt, uint8 addBind, uint8 isClusterOutput );
//  198 
//  199 uint8 bdb_FindIfAppCluster( cId_t ClusterId, uint8 isClusterOutput );
//  200 
//  201 
//  202 static void bdb_zclSimpleDescClusterListClean( SimpleDescriptionFormat_t *pSimpleDesc );
//  203 bdbFindingBindingRespondent_t* bdb_findRespondentNode(uint8 endpoint, uint16 shortAddress);
//  204 bdbFindingBindingRespondent_t* bdb_getRespondentRetry(bdbFindingBindingRespondent_t* pRespondentHead);
//  205 void bdb_checkMatchingEndpoints(uint8 bindIfMatch, uint16 shortAddress, bdbFindingBindingRespondent_t **pCurr);
//  206  /*********************************************************************
//  207  * PUBLIC FUNCTIONS
//  208  *********************************************************************/
//  209 
//  210 void bdb_ProcessSimpleDesc( zdoIncomingMsg_t *msgPtr );
//  211 void bdb_ProcessIEEEAddrRsp(zdoIncomingMsg_t *pMsg);
//  212 
//  213 /*********************************************************************
//  214  * @fn      bdb_SetIdentifyActiveEndpoint
//  215  *
//  216  * @brief   Set the endpoint which will perform the finding and binding (either Target or Initiator)
//  217  *
//  218  * @param   Active endpoint with which perform F&B. If set to 0xFF all endpoints with Identify will be attempted. The endpoint must be either Initiator or Target or Both
//  219  *
//  220  * @return  ZFailure - F&B commissioning mode already requested
//  221  *          ZInvalidParameter - Endpoint specified not found or reserved by Zigbee
//  222  *          ZSuccess - 
//  223  */

        RSEG BANKED_CODE:HUGECODE:NOROOT(0)
//  224 ZStatus_t bdb_SetIdentifyActiveEndpoint(uint8 activeEndpoint)
bdb_SetIdentifyActiveEndpoint:
          CFI Block cfiBlock0 Using cfiCommon0
          CFI Function bdb_SetIdentifyActiveEndpoint
        CODE
//  225 {
        PUSH      DPL
          CFI DPL0 Frame(CFA_SP, 4)
          CFI CFA_SP SP+-4
        PUSH      DPH
          CFI DPH0 Frame(CFA_SP, 5)
          CFI CFA_SP SP+-5
        ; Saved register size: 2
        ; Auto size: 0
        MOV       A,R1
        MOV       R4,A
//  226   epList_t *bdb_EpDescriptorListTemp = NULL;
//  227   
//  228   //Cannot process the request if no endpoints or F&B is under process
//  229   if(bdbAttributes.bdbCommissioningMode & BDB_COMMISSIONING_MODE_FINDING_BINDING)
        MOV       DPTR,#bdbAttributes + 11
        MOVX      A,@DPTR
        MOV       C,0xE0 /* A   */.3
        JNC       ??bdb_SetIdentifyActiveEndpoint_0
//  230   {
//  231     return ZFailure;
        MOV       R1,#0x1
        SJMP      ??bdb_SetIdentifyActiveEndpoint_1
//  232   }
//  233   
//  234   if(activeEndpoint == 0xFF)
??bdb_SetIdentifyActiveEndpoint_0:
        MOV       A,#-0x1
        XRL       A,R4
        JZ        ??bdb_SetIdentifyActiveEndpoint_2
//  235   {
//  236     bdbIndentifyActiveEndpoint = activeEndpoint;
//  237     return ZSuccess;
//  238   }
//  239   
//  240   if((activeEndpoint != 0) && (activeEndpoint < BDB_ZIGBEE_RESERVED_ENDPOINTS_START))
        MOV       A,R1
        JZ        ??bdb_SetIdentifyActiveEndpoint_3
        CLR       C
        SUBB      A,#-0xf
        JNC       ??bdb_SetIdentifyActiveEndpoint_3
//  241   {
//  242     bdb_EpDescriptorListTemp = bdb_HeadEpDescriptorList;
        MOV       DPTR,#bdb_HeadEpDescriptorList
        MOVX      A,@DPTR
        MOV       R2,A
        INC       DPTR
        MOVX      A,@DPTR
        SJMP      ??bdb_SetIdentifyActiveEndpoint_4
//  243     
//  244     while(bdb_EpDescriptorListTemp != NULL)
//  245     {
//  246       if(bdb_EpDescriptorListTemp->epDesc->endPoint == activeEndpoint)
//  247       {
//  248         if(bdb_EpDescriptorListTemp->epDesc->epType)
//  249         {
//  250           bdbIndentifyActiveEndpoint = activeEndpoint;
//  251           return ZSuccess;
//  252         }
//  253         else
//  254         {
//  255           return ZInvalidParameter;
//  256         }
//  257       }
//  258       bdb_EpDescriptorListTemp = bdb_EpDescriptorListTemp->nextDesc;
??bdb_SetIdentifyActiveEndpoint_5:
        MOV       DPL,R2
        MOV       DPH,R3
        LCALL     ?Subroutine24 & 0xFFFF
??CrossCallReturnLabel_28:
        MOV       A,R0
        MOV       R2,A
        MOV       A,R1
??bdb_SetIdentifyActiveEndpoint_4:
        MOV       R3,A
        MOV       A,R2
        ORL       A,R3
        JZ        ??bdb_SetIdentifyActiveEndpoint_3
        MOV       DPL,R2
        MOV       DPH,R3
        LCALL     ?Subroutine25 & 0xFFFF
??CrossCallReturnLabel_33:
        XRL       A,R4
        JNZ       ??bdb_SetIdentifyActiveEndpoint_5
        INC       DPTR
        MOVX      A,@DPTR
        JZ        ??bdb_SetIdentifyActiveEndpoint_3
??bdb_SetIdentifyActiveEndpoint_2:
        MOV       A,R4
        MOV       DPTR,#bdbIndentifyActiveEndpoint
        MOVX      @DPTR,A
        MOV       R1,#0x0
        SJMP      ??bdb_SetIdentifyActiveEndpoint_1
//  259     }
//  260   }
//  261   
//  262   return ZInvalidParameter;
??bdb_SetIdentifyActiveEndpoint_3:
        MOV       R1,#0x2
??bdb_SetIdentifyActiveEndpoint_1:
        SJMP      ??Subroutine40_0
//  263 }
          CFI EndBlock cfiBlock0
//  264 
//  265 
//  266 /*********************************************************************
//  267  * @fn      bdb_setEpDescListToActiveEndpoint
//  268  *
//  269  * @brief   Set the endpoint list to the active endpoint selected by the application for F&B process
//  270  *
//  271  * @return  Current endpoint descriptor
//  272  */
//  273 

        RSEG BANKED_CODE:HUGECODE:NOROOT(0)
//  274 endPointDesc_t* bdb_setEpDescListToActiveEndpoint(void)
bdb_setEpDescListToActiveEndpoint:
          CFI Block cfiBlock1 Using cfiCommon0
          CFI Function bdb_setEpDescListToActiveEndpoint
        CODE
//  275 {
        PUSH      DPL
          CFI DPL0 Frame(CFA_SP, 4)
          CFI CFA_SP SP+-4
        PUSH      DPH
          CFI DPH0 Frame(CFA_SP, 5)
          CFI CFA_SP SP+-5
        ; Saved register size: 2
        ; Auto size: 0
//  276   bdb_CurrEpDescriptorList = bdb_HeadEpDescriptorList;
        MOV       DPTR,#bdb_HeadEpDescriptorList
        LCALL     ?Subroutine24 & 0xFFFF
??CrossCallReturnLabel_29:
        LCALL     ?Subroutine35 & 0xFFFF
//  277  
//  278   //Check which active endpoit is being requested
//  279   if(bdbIndentifyActiveEndpoint != 0xFF)
??CrossCallReturnLabel_52:
        MOV       DPTR,#bdbIndentifyActiveEndpoint
        MOVX      A,@DPTR
        CPL       A
        JZ        ??CrossCallReturnLabel_1
//  280   {
//  281     //Search for an specific endpoint
//  282     while(bdb_CurrEpDescriptorList != NULL)
??bdb_setEpDescListToActiveEndpoint_0:
        MOV       DPTR,#bdb_CurrEpDescriptorList
        LCALL     ??Subroutine56_0 & 0xFFFF
??CrossCallReturnLabel_106:
        JZ        ??bdb_setEpDescListToActiveEndpoint_1
//  283     {
//  284       if(bdb_CurrEpDescriptorList->epDesc->endPoint == bdbIndentifyActiveEndpoint)
        LCALL     ?Subroutine13 & 0xFFFF
??CrossCallReturnLabel_43:
        MOV       R0,A
        MOV       DPTR,#bdbIndentifyActiveEndpoint
        MOVX      A,@DPTR
        XRL       A,R0
        JZ        ??bdb_setEpDescListToActiveEndpoint_2
//  285       {
//  286         return bdb_CurrEpDescriptorList->epDesc;
//  287       }
//  288       bdb_CurrEpDescriptorList = bdb_CurrEpDescriptorList->nextDesc;
        LCALL     ?Subroutine5 & 0xFFFF
//  289     }
//  290   }
??CrossCallReturnLabel_0:
        SJMP      ??bdb_setEpDescListToActiveEndpoint_0
//  291   else
//  292   {
//  293     //Look for the first endpoint that is either intiator or target to perform F&B. Is assumed that the endpoint supports Identify
//  294     while(bdb_CurrEpDescriptorList != NULL)
//  295     {
//  296       if((bdb_CurrEpDescriptorList->epDesc->endPoint != 0) && 
//  297          (bdb_CurrEpDescriptorList->epDesc->endPoint < BDB_ZIGBEE_RESERVED_ENDPOINTS_START) && 
//  298          (bdb_CurrEpDescriptorList->epDesc->epType))
//  299       {
//  300         return bdb_CurrEpDescriptorList->epDesc;
//  301       }
//  302       bdb_CurrEpDescriptorList = bdb_CurrEpDescriptorList->nextDesc;
??bdb_setEpDescListToActiveEndpoint_3:
        LCALL     ?Subroutine5 & 0xFFFF
??CrossCallReturnLabel_1:
        MOV       DPTR,#bdb_CurrEpDescriptorList
        LCALL     ??Subroutine56_0 & 0xFFFF
??CrossCallReturnLabel_107:
        JZ        ??bdb_setEpDescListToActiveEndpoint_1
        LCALL     ??Subroutine47_0 & 0xFFFF
??CrossCallReturnLabel_60:
        LCALL     ?Subroutine25 & 0xFFFF
??CrossCallReturnLabel_34:
        JZ        ??bdb_setEpDescListToActiveEndpoint_3
        CLR       C
        SUBB      A,#-0xf
        JNC       ??bdb_setEpDescListToActiveEndpoint_3
        INC       DPTR
        MOVX      A,@DPTR
        JZ        ??bdb_setEpDescListToActiveEndpoint_3
??bdb_setEpDescListToActiveEndpoint_2:
        LCALL     ?Subroutine11 & 0xFFFF
//  303     }
//  304   }
??CrossCallReturnLabel_11:
        MOV       R2,A
        INC       DPTR
        MOVX      A,@DPTR
        MOV       R3,A
        SJMP      ??bdb_setEpDescListToActiveEndpoint_4
//  305   //not found
//  306   return NULL;
??bdb_setEpDescListToActiveEndpoint_1:
        MOV       R2,#0x0
        MOV       R3,#0x0
??bdb_setEpDescListToActiveEndpoint_4:
        SJMP      ??Subroutine40_0
//  307 }
          CFI EndBlock cfiBlock1

        RSEG BANKED_CODE:HUGECODE:NOROOT(0)
?Subroutine25:
          CFI Block cfiCond2 Using cfiCommon0
          CFI Function bdb_SetIdentifyActiveEndpoint
          CFI Conditional ??CrossCallReturnLabel_33
          CFI DPL0 Frame(CFA_SP, 4)
          CFI DPH0 Frame(CFA_SP, 5)
          CFI CFA_SP SP+-7
          CFI Block cfiCond3 Using cfiCommon0
          CFI (cfiCond3) Function bdb_setEpDescListToActiveEndpoint
          CFI (cfiCond3) Conditional ??CrossCallReturnLabel_34
          CFI (cfiCond3) DPL0 Frame(CFA_SP, 4)
          CFI (cfiCond3) DPH0 Frame(CFA_SP, 5)
          CFI (cfiCond3) CFA_SP SP+-7
          CFI Block cfiPicker4 Using cfiCommon1
          CFI (cfiPicker4) NoFunction
          CFI (cfiPicker4) Picker
        INC       DPTR
        INC       DPTR
        LCALL     ?Subroutine38 & 0xFFFF
??CrossCallReturnLabel_119:
        MOV       DPL,R0
        MOV       DPH,A
        MOVX      A,@DPTR
        RET
          CFI EndBlock cfiCond2
          CFI EndBlock cfiCond3
          CFI EndBlock cfiPicker4

        RSEG BANKED_CODE:HUGECODE:NOROOT(0)
?Subroutine13:
          CFI Block cfiCond5 Using cfiCommon0
          CFI Function bdb_setEpDescListToActiveEndpoint
          CFI Conditional ??CrossCallReturnLabel_43
          CFI DPL0 Frame(CFA_SP, 4)
          CFI DPH0 Frame(CFA_SP, 5)
          CFI CFA_SP SP+-7
          CFI Block cfiCond6 Using cfiCommon0
          CFI (cfiCond6) Function bdb_checkMatchingEndpoints
          CFI (cfiCond6) Conditional ??CrossCallReturnLabel_44
          CFI (cfiCond6) R6 load(1, XDATA, add(CFA_XSP16, literal(-20)))
          CFI (cfiCond6) VB load(1, XDATA, add(CFA_XSP16, literal(-19)))
          CFI (cfiCond6) V0 load(1, XDATA, add(CFA_XSP16, literal(-18)))
          CFI (cfiCond6) V1 load(1, XDATA, add(CFA_XSP16, literal(-17)))
          CFI (cfiCond6) V2 load(1, XDATA, add(CFA_XSP16, literal(-16)))
          CFI (cfiCond6) V3 load(1, XDATA, add(CFA_XSP16, literal(-15)))
          CFI (cfiCond6) V4 load(1, XDATA, add(CFA_XSP16, literal(-14)))
          CFI (cfiCond6) V5 load(1, XDATA, add(CFA_XSP16, literal(-13)))
          CFI (cfiCond6) V6 load(1, XDATA, add(CFA_XSP16, literal(-12)))
          CFI (cfiCond6) V7 load(1, XDATA, add(CFA_XSP16, literal(-11)))
          CFI (cfiCond6) V8 load(1, XDATA, add(CFA_XSP16, literal(-10)))
          CFI (cfiCond6) V9 load(1, XDATA, add(CFA_XSP16, literal(-9)))
          CFI (cfiCond6) V10 load(1, XDATA, add(CFA_XSP16, literal(-8)))
          CFI (cfiCond6) V11 load(1, XDATA, add(CFA_XSP16, literal(-7)))
          CFI (cfiCond6) R7 load(1, XDATA, add(CFA_XSP16, literal(-6)))
          CFI (cfiCond6) ?RET_LOW load(1, XDATA, add(CFA_XSP16, literal(-5)))
          CFI (cfiCond6) ?RET_HIGH load(1, XDATA, add(CFA_XSP16, literal(-4)))
          CFI (cfiCond6) ?BRET_EXT load(1, XDATA, add(CFA_XSP16, literal(-3)))
          CFI (cfiCond6) DPL0 load(1, XDATA, add(CFA_XSP16, literal(-2)))
          CFI (cfiCond6) DPH0 load(1, XDATA, add(CFA_XSP16, literal(-1)))
          CFI (cfiCond6) CFA_SP SP+-2
          CFI (cfiCond6) CFA_XSP16 add(XSP16, 41)
          CFI Block cfiPicker7 Using cfiCommon1
          CFI (cfiPicker7) NoFunction
          CFI (cfiPicker7) Picker
        MOVX      A,@DPTR
        MOV       DPH,A
        MOV       DPL,R0
        INC       DPTR
        INC       DPTR
          CFI EndBlock cfiCond5
          CFI EndBlock cfiCond6
          CFI EndBlock cfiPicker7
        REQUIRE ??Subroutine39_0
        ; // Fall through to label ??Subroutine39_0

        RSEG BANKED_CODE:HUGECODE:NOROOT(0)
??Subroutine39_0:
          CFI Block cfiCond8 Using cfiCommon0
          CFI Function bdb_ProcessRespondentList
          CFI Conditional ??CrossCallReturnLabel_41
          CFI R6 load(1, XDATA, add(CFA_XSP16, literal(-9)))
          CFI VB load(1, XDATA, add(CFA_XSP16, literal(-8)))
          CFI V0 load(1, XDATA, add(CFA_XSP16, literal(-7)))
          CFI R7 load(1, XDATA, add(CFA_XSP16, literal(-6)))
          CFI ?RET_LOW load(1, XDATA, add(CFA_XSP16, literal(-5)))
          CFI ?RET_HIGH load(1, XDATA, add(CFA_XSP16, literal(-4)))
          CFI ?BRET_EXT load(1, XDATA, add(CFA_XSP16, literal(-3)))
          CFI DPL0 load(1, XDATA, add(CFA_XSP16, literal(-2)))
          CFI DPH0 load(1, XDATA, add(CFA_XSP16, literal(-1)))
          CFI CFA_SP SP+-2
          CFI CFA_XSP16 add(XSP16, 18)
          CFI Block cfiCond9 Using cfiCommon0
          CFI (cfiCond9) Function bdb_ProcessRespondentList
          CFI (cfiCond9) Conditional ??CrossCallReturnLabel_42
          CFI (cfiCond9) R6 load(1, XDATA, add(CFA_XSP16, literal(-9)))
          CFI (cfiCond9) VB load(1, XDATA, add(CFA_XSP16, literal(-8)))
          CFI (cfiCond9) V0 load(1, XDATA, add(CFA_XSP16, literal(-7)))
          CFI (cfiCond9) R7 load(1, XDATA, add(CFA_XSP16, literal(-6)))
          CFI (cfiCond9) ?RET_LOW load(1, XDATA, add(CFA_XSP16, literal(-5)))
          CFI (cfiCond9) ?RET_HIGH load(1, XDATA, add(CFA_XSP16, literal(-4)))
          CFI (cfiCond9) ?BRET_EXT load(1, XDATA, add(CFA_XSP16, literal(-3)))
          CFI (cfiCond9) DPL0 load(1, XDATA, add(CFA_XSP16, literal(-2)))
          CFI (cfiCond9) DPH0 load(1, XDATA, add(CFA_XSP16, literal(-1)))
          CFI (cfiCond9) CFA_SP SP+-2
          CFI (cfiCond9) CFA_XSP16 add(XSP16, 19)
          CFI Block cfiCond10 Using cfiCommon0
          CFI (cfiCond10) Function bdb_setEpDescListToActiveEndpoint
          CFI (cfiCond10) Conditional ??CrossCallReturnLabel_43
          CFI (cfiCond10) DPL0 Frame(CFA_SP, 4)
          CFI (cfiCond10) DPH0 Frame(CFA_SP, 5)
          CFI (cfiCond10) CFA_SP SP+-7
          CFI Block cfiCond11 Using cfiCommon0
          CFI (cfiCond11) Function bdb_checkMatchingEndpoints
          CFI (cfiCond11) Conditional ??CrossCallReturnLabel_44
          CFI (cfiCond11) R6 load(1, XDATA, add(CFA_XSP16, literal(-20)))
          CFI (cfiCond11) VB load(1, XDATA, add(CFA_XSP16, literal(-19)))
          CFI (cfiCond11) V0 load(1, XDATA, add(CFA_XSP16, literal(-18)))
          CFI (cfiCond11) V1 load(1, XDATA, add(CFA_XSP16, literal(-17)))
          CFI (cfiCond11) V2 load(1, XDATA, add(CFA_XSP16, literal(-16)))
          CFI (cfiCond11) V3 load(1, XDATA, add(CFA_XSP16, literal(-15)))
          CFI (cfiCond11) V4 load(1, XDATA, add(CFA_XSP16, literal(-14)))
          CFI (cfiCond11) V5 load(1, XDATA, add(CFA_XSP16, literal(-13)))
          CFI (cfiCond11) V6 load(1, XDATA, add(CFA_XSP16, literal(-12)))
          CFI (cfiCond11) V7 load(1, XDATA, add(CFA_XSP16, literal(-11)))
          CFI (cfiCond11) V8 load(1, XDATA, add(CFA_XSP16, literal(-10)))
          CFI (cfiCond11) V9 load(1, XDATA, add(CFA_XSP16, literal(-9)))
          CFI (cfiCond11) V10 load(1, XDATA, add(CFA_XSP16, literal(-8)))
          CFI (cfiCond11) V11 load(1, XDATA, add(CFA_XSP16, literal(-7)))
          CFI (cfiCond11) R7 load(1, XDATA, add(CFA_XSP16, literal(-6)))
          CFI (cfiCond11) ?RET_LOW load(1, XDATA, add(CFA_XSP16, literal(-5)))
          CFI (cfiCond11) ?RET_HIGH load(1, XDATA, add(CFA_XSP16, literal(-4)))
          CFI (cfiCond11) ?BRET_EXT load(1, XDATA, add(CFA_XSP16, literal(-3)))
          CFI (cfiCond11) DPL0 load(1, XDATA, add(CFA_XSP16, literal(-2)))
          CFI (cfiCond11) DPH0 load(1, XDATA, add(CFA_XSP16, literal(-1)))
          CFI (cfiCond11) CFA_SP SP+-2
          CFI (cfiCond11) CFA_XSP16 add(XSP16, 41)
          CFI Block cfiPicker12 Using cfiCommon1
          CFI (cfiPicker12) NoFunction
          CFI (cfiPicker12) Picker
        LCALL     ??Subroutine41_0 & 0xFFFF
??CrossCallReturnLabel_47:
        MOVX      A,@DPTR
        RET
          CFI EndBlock cfiCond8
          CFI EndBlock cfiCond9
          CFI EndBlock cfiCond10
          CFI EndBlock cfiCond11
          CFI EndBlock cfiPicker12

        RSEG BANKED_CODE:HUGECODE:NOROOT(0)
?Subroutine0:
          CFI Block cfiBlock13 Using cfiCommon0
          CFI NoFunction
          CFI CFA_SP SP+-5
          CFI DPL0 Frame(CFA_SP, 4)
          CFI DPH0 Frame(CFA_SP, 5)
        LCALL     ??Subroutine53_0 & 0xFFFF
??CrossCallReturnLabel_93:
          CFI EndBlock cfiBlock13
        REQUIRE ??Subroutine40_0
        ; // Fall through to label ??Subroutine40_0

        RSEG BANKED_CODE:HUGECODE:NOROOT(0)
??Subroutine40_0:
          CFI Block cfiBlock14 Using cfiCommon0
          CFI NoFunction
          CFI CFA_SP SP+-5
          CFI DPL0 Frame(CFA_SP, 4)
          CFI DPH0 Frame(CFA_SP, 5)
        POP       DPH
          CFI CFA_SP SP+-4
          CFI DPH0 SameValue
        POP       DPL
          CFI CFA_SP SP+-3
          CFI DPL0 SameValue
        LJMP      ?BRET
          CFI EndBlock cfiBlock14
//  308 
//  309 
//  310 /*********************************************************************
//  311  * @fn      bdb_ProcessIEEEAddrRsp
//  312  *
//  313  * @brief   Process IEEE addr response and mark the entry as done or remove the 
//  314  *          bind if not successful.
//  315  *
//  316  * @param   zdoIncomingMsg_t *pMsg
//  317  *
//  318  * @return  none
//  319  */

        RSEG BANKED_CODE:HUGECODE:NOROOT(0)
//  320 void bdb_ProcessIEEEAddrRsp(zdoIncomingMsg_t *pMsg)
bdb_ProcessIEEEAddrRsp:
          CFI Block cfiBlock15 Using cfiCommon0
          CFI Function bdb_ProcessIEEEAddrRsp
        CODE
//  321 {
        FUNCALL bdb_ProcessIEEEAddrRsp, ZDO_ParseAddrRsp
        LOCFRAME ISTACK, 0, STACK
        LOCFRAME PSTACK, 0, STACK
        LOCFRAME XSTACK, 25, STACK
        LOCFRAME IOVERLAY, 0, STATIC
        LOCFRAME DOVERLAY, 0, STATIC
        ARGFRAME ISTACK, 0, STACK
        ARGFRAME PSTACK, 0, STACK
        ARGFRAME XSTACK, 25, STACK
        ARGFRAME IOVERLAY, 0, STATIC
        ARGFRAME DOVERLAY, 0, STATIC
        FUNCALL bdb_ProcessIEEEAddrRsp, bdb_setEpDescListToActiveEndpoint
        LOCFRAME ISTACK, 0, STACK
        LOCFRAME PSTACK, 0, STACK
        LOCFRAME XSTACK, 25, STACK
        LOCFRAME IOVERLAY, 0, STATIC
        LOCFRAME DOVERLAY, 0, STATIC
        ARGFRAME ISTACK, 0, STACK
        ARGFRAME PSTACK, 0, STACK
        ARGFRAME XSTACK, 25, STACK
        ARGFRAME IOVERLAY, 0, STATIC
        ARGFRAME DOVERLAY, 0, STATIC
        FUNCALL bdb_ProcessIEEEAddrRsp, bdb_findRespondentNode
        LOCFRAME ISTACK, 0, STACK
        LOCFRAME PSTACK, 0, STACK
        LOCFRAME XSTACK, 25, STACK
        LOCFRAME IOVERLAY, 0, STATIC
        LOCFRAME DOVERLAY, 0, STATIC
        ARGFRAME ISTACK, 0, STACK
        ARGFRAME PSTACK, 0, STACK
        ARGFRAME XSTACK, 25, STACK
        ARGFRAME IOVERLAY, 0, STATIC
        ARGFRAME DOVERLAY, 0, STATIC
        FUNCALL bdb_ProcessIEEEAddrRsp, AddrMgrExtAddrSet
        LOCFRAME ISTACK, 0, STACK
        LOCFRAME PSTACK, 0, STACK
        LOCFRAME XSTACK, 25, STACK
        LOCFRAME IOVERLAY, 0, STATIC
        LOCFRAME DOVERLAY, 0, STATIC
        ARGFRAME ISTACK, 0, STACK
        ARGFRAME PSTACK, 0, STACK
        ARGFRAME XSTACK, 25, STACK
        ARGFRAME IOVERLAY, 0, STATIC
        ARGFRAME DOVERLAY, 0, STATIC
        FUNCALL bdb_ProcessIEEEAddrRsp, AddrMgrEntryUpdate
        LOCFRAME ISTACK, 0, STACK
        LOCFRAME PSTACK, 0, STACK
        LOCFRAME XSTACK, 25, STACK
        LOCFRAME IOVERLAY, 0, STATIC
        LOCFRAME DOVERLAY, 0, STATIC
        ARGFRAME ISTACK, 0, STACK
        ARGFRAME PSTACK, 0, STACK
        ARGFRAME XSTACK, 25, STACK
        ARGFRAME IOVERLAY, 0, STATIC
        ARGFRAME DOVERLAY, 0, STATIC
        FUNCALL bdb_ProcessIEEEAddrRsp, osal_stop_timerEx
        LOCFRAME ISTACK, 0, STACK
        LOCFRAME PSTACK, 0, STACK
        LOCFRAME XSTACK, 25, STACK
        LOCFRAME IOVERLAY, 0, STATIC
        LOCFRAME DOVERLAY, 0, STATIC
        ARGFRAME ISTACK, 0, STACK
        ARGFRAME PSTACK, 0, STACK
        ARGFRAME XSTACK, 25, STACK
        ARGFRAME IOVERLAY, 0, STATIC
        ARGFRAME DOVERLAY, 0, STATIC
        FUNCALL bdb_ProcessIEEEAddrRsp, bdb_zclSimpleDescClusterListClean
        LOCFRAME ISTACK, 0, STACK
        LOCFRAME PSTACK, 0, STACK
        LOCFRAME XSTACK, 25, STACK
        LOCFRAME IOVERLAY, 0, STATIC
        LOCFRAME DOVERLAY, 0, STATIC
        ARGFRAME ISTACK, 0, STACK
        ARGFRAME PSTACK, 0, STACK
        ARGFRAME XSTACK, 25, STACK
        ARGFRAME IOVERLAY, 0, STATIC
        ARGFRAME DOVERLAY, 0, STATIC
        FUNCALL bdb_ProcessIEEEAddrRsp, osal_stop_timerEx
        LOCFRAME ISTACK, 0, STACK
        LOCFRAME PSTACK, 0, STACK
        LOCFRAME XSTACK, 25, STACK
        LOCFRAME IOVERLAY, 0, STATIC
        LOCFRAME DOVERLAY, 0, STATIC
        ARGFRAME ISTACK, 0, STACK
        ARGFRAME PSTACK, 0, STACK
        ARGFRAME XSTACK, 25, STACK
        ARGFRAME IOVERLAY, 0, STATIC
        ARGFRAME DOVERLAY, 0, STATIC
        FUNCALL bdb_ProcessIEEEAddrRsp, bdb_exitFindingBindingWStatus
        LOCFRAME ISTACK, 0, STACK
        LOCFRAME PSTACK, 0, STACK
        LOCFRAME XSTACK, 25, STACK
        LOCFRAME IOVERLAY, 0, STATIC
        LOCFRAME DOVERLAY, 0, STATIC
        ARGFRAME ISTACK, 0, STACK
        ARGFRAME PSTACK, 0, STACK
        ARGFRAME XSTACK, 25, STACK
        ARGFRAME IOVERLAY, 0, STATIC
        ARGFRAME DOVERLAY, 0, STATIC
        FUNCALL bdb_ProcessIEEEAddrRsp, bdb_checkMatchingEndpoints
        LOCFRAME ISTACK, 0, STACK
        LOCFRAME PSTACK, 0, STACK
        LOCFRAME XSTACK, 25, STACK
        LOCFRAME IOVERLAY, 0, STATIC
        LOCFRAME DOVERLAY, 0, STATIC
        ARGFRAME ISTACK, 0, STACK
        ARGFRAME PSTACK, 0, STACK
        ARGFRAME XSTACK, 25, STACK
        ARGFRAME IOVERLAY, 0, STATIC
        ARGFRAME DOVERLAY, 0, STATIC
        FUNCALL bdb_ProcessIEEEAddrRsp, osal_mem_free
        LOCFRAME ISTACK, 0, STACK
        LOCFRAME PSTACK, 0, STACK
        LOCFRAME XSTACK, 25, STACK
        LOCFRAME IOVERLAY, 0, STATIC
        LOCFRAME DOVERLAY, 0, STATIC
        ARGFRAME ISTACK, 0, STACK
        ARGFRAME PSTACK, 0, STACK
        ARGFRAME XSTACK, 25, STACK
        ARGFRAME IOVERLAY, 0, STATIC
        ARGFRAME DOVERLAY, 0, STATIC
        REQUIRE ?V0
        REQUIRE ?V1
        MOV       A,#-0xa
        LCALL     ?BANKED_ENTER_XDATA
          CFI DPH0 load(1, XDATA, add(CFA_XSP16, literal(-1)))
          CFI DPL0 load(1, XDATA, add(CFA_XSP16, literal(-2)))
          CFI ?BRET_EXT load(1, XDATA, add(CFA_XSP16, literal(-3)))
          CFI ?RET_HIGH load(1, XDATA, add(CFA_XSP16, literal(-4)))
          CFI ?RET_LOW load(1, XDATA, add(CFA_XSP16, literal(-5)))
          CFI R7 load(1, XDATA, add(CFA_XSP16, literal(-6)))
          CFI V1 load(1, XDATA, add(CFA_XSP16, literal(-7)))
          CFI V0 load(1, XDATA, add(CFA_XSP16, literal(-8)))
          CFI VB load(1, XDATA, add(CFA_XSP16, literal(-9)))
          CFI R6 load(1, XDATA, add(CFA_XSP16, literal(-10)))
          CFI CFA_SP SP+0
          CFI CFA_XSP16 add(XSP16, 10)
        ; Saved register size: 10
        ; Auto size: 15
        MOV       A,#-0xf
        LCALL     ?ALLOC_XSTACK8
          CFI CFA_XSP16 add(XSP16, 25)
//  322   ZDO_NwkIEEEAddrResp_t *pAddrRsp = NULL;
//  323   bdbFindingBindingRespondent_t *pCurr = NULL;
        MOV       DPL,?XSP + 0
        MOV       DPH,?XSP + 1
        CLR       A
        MOVX      @DPTR,A
        INC       DPTR
        MOVX      @DPTR,A
//  324 
//  325   pAddrRsp = ZDO_ParseAddrRsp( pMsg );
        ; Setup parameters for call to function ZDO_ParseAddrRsp
        LCALL     `??ZDO_ParseAddrRsp::?relay`; Banked call to: ZDO_ParseAddrRsp
        MOV       ?V0,R2
        MOV       ?V1,R3
        MOV       R6,?V0
        MOV       R7,?V1
//  326   
//  327   if(pAddrRsp == NULL)
        MOV       A,R2
        ORL       A,R7
        JNZ       $+5
        LJMP      ??bdb_ProcessIEEEAddrRsp_0 & 0xFFFF
//  328   {
//  329     return;
//  330   }
//  331   
//  332   bdb_setEpDescListToActiveEndpoint();
        ; Setup parameters for call to function bdb_setEpDescListToActiveEndpoint
        LCALL     `??bdb_setEpDescListToActiveEndpoint::?relay`; Banked call to: bdb_setEpDescListToActiveEndpoint
//  333   
//  334   pCurr = bdb_findRespondentNode(bdb_FindingBindingTargetSimpleDesc.EndPoint, pAddrRsp->nwkAddr);
        MOV       DPL,R6
        MOV       DPH,R7
        INC       DPTR
        MOV       ?V0,DPL
        MOV       ?V1,DPH
        ; Setup parameters for call to function bdb_findRespondentNode
        LCALL     ?Subroutine4 & 0xFFFF
//  335   
//  336   //Does the entry exist and we were waiting an IEEE addr rsp from this device?
//  337   if((pCurr != NULL) && (pCurr->attempts > FINDING_AND_BINDING_MISSING_IEEE_ADDR))
??CrossCallReturnLabel_104:
        JZ        ??CrossCallReturnLabel_16
        MOV       A,R0
        LCALL     ?Subroutine27 & 0xFFFF
??CrossCallReturnLabel_35:
        CLR       C
        SUBB      A,#-0x7f
        JC        ??CrossCallReturnLabel_16
//  338   {
//  339     if(pAddrRsp->status == ZSuccess )
        MOV       DPL,R6
        MOV       DPH,R7
        MOVX      A,@DPTR
        JNZ       ??bdb_ProcessIEEEAddrRsp_1
//  340     {
//  341       uint8 extAddr[8]; 
//  342       AddrMgrEntry_t entry;
//  343       
//  344       entry.nwkAddr = pAddrRsp->nwkAddr;
        MOV       DPL,?V0
        MOV       DPH,?V1
        LCALL     ?Subroutine24 & 0xFFFF
??CrossCallReturnLabel_30:
        MOV       A,#0x3
        LCALL     ?XSTACK_DISP0_8
        LCALL     ??Subroutine42_0 & 0xFFFF
//  345       entry.user = ADDRMGR_USER_BINDING;
??CrossCallReturnLabel_48:
        MOV       A,#0x2
        LCALL     ?XSTACK_DISP0_8
        MOV       A,#0x4
        MOVX      @DPTR,A
//  346       AddrMgrExtAddrSet(entry.extAddr, pAddrRsp->extAddr);
        ; Setup parameters for call to function AddrMgrExtAddrSet
        MOV       A,R6
        ADD       A,#0x3
        MOV       R4,A
        CLR       A
        ADDC      A,R7
        MOV       R5,A
        MOV       A,#0x5
        LCALL     ?XSTACK_DISP0_8
        MOV       R2,DPL
        MOV       R3,DPH
        LCALL     `??AddrMgrExtAddrSet::?relay`; Banked call to: AddrMgrExtAddrSet
//  347       
//  348       //Add it as bind entry
//  349       if(AddrMgrEntryUpdate(&entry) == FALSE)
        ; Setup parameters for call to function AddrMgrEntryUpdate
        MOV       A,#0x2
        LCALL     ?XSTACK_DISP101_8
        LCALL     `??AddrMgrEntryUpdate::?relay`; Banked call to: AddrMgrEntryUpdate
        MOV       A,R1
        JNZ       ??bdb_ProcessIEEEAddrRsp_2
//  350       {
//  351         //No space, then report F&B table full
//  352         //If periodic was triggered, then finish it
//  353         if(FINDING_AND_BINDING_PERIODIC_ENABLE == TRUE)                                  
//  354         {
//  355           bdb_FB_InitiatorCurrentCyclesNumber = 0;
        LCALL     ?Subroutine7 & 0xFFFF
//  356           osal_stop_timerEx(bdb_TaskID, BDB_FINDING_AND_BINDING_PERIOD_TIMEOUT);
//  357         }
//  358         
//  359         bdb_zclSimpleDescClusterListClean( &bdb_FindingBindingTargetSimpleDesc );
//  360         osal_stop_timerEx( bdb_TaskID, BDB_RESPONDENT_PROCESS_TIMEOUT );
//  361         bdb_exitFindingBindingWStatus( BDB_COMMISSIONING_FB_BINDING_TABLE_FULL );
//  362         return;
??CrossCallReturnLabel_3:
        SJMP      ??bdb_ProcessIEEEAddrRsp_0
//  363       }
//  364 
//  365       //search for the matching clusters to be added this time as we have the IEEE addrs
//  366       bdb_checkMatchingEndpoints(TRUE, pAddrRsp->nwkAddr, &pCurr);
??bdb_ProcessIEEEAddrRsp_2:
        ; Setup parameters for call to function bdb_checkMatchingEndpoints
        MOV       R4,?XSP + 0
        MOV       R5,?XSP + 1
        MOV       DPL,?V0
        MOV       DPH,?V1
        LCALL     ??Subroutine49_0 & 0xFFFF
??CrossCallReturnLabel_65:
        MOV       R1,#0x1
        LCALL     `??bdb_checkMatchingEndpoints::?relay`; Banked call to: bdb_checkMatchingEndpoints
//  367       (void)extAddr;  //dummy
//  368     }
//  369     //Bind cannot be added if the device was not found
//  370     pCurr->attempts = FINDING_AND_BINDING_RESPONDENT_COMPLETE;
??bdb_ProcessIEEEAddrRsp_1:
        MOV       DPL,?XSP + 0
        MOV       DPH,?XSP + 1
        LCALL     ?Subroutine14 & 0xFFFF
//  371   }
//  372   
//  373   //release the memory
//  374   osal_mem_free( pAddrRsp );
??CrossCallReturnLabel_16:
        ; Setup parameters for call to function osal_mem_free
        MOV       A,R6
        MOV       R2,A
        MOV       A,R7
        MOV       R3,A
        LCALL     `??osal_mem_free::?relay`; Banked call to: osal_mem_free
//  375 }
??bdb_ProcessIEEEAddrRsp_0:
        MOV       A,#0xf
        LJMP      ?Subroutine1 & 0xFFFF
          CFI EndBlock cfiBlock15

        RSEG BANKED_CODE:HUGECODE:NOROOT(0)
?Subroutine24:
          CFI Block cfiCond16 Using cfiCommon0
          CFI Function bdb_SetIdentifyActiveEndpoint
          CFI Conditional ??CrossCallReturnLabel_28
          CFI DPL0 Frame(CFA_SP, 4)
          CFI DPH0 Frame(CFA_SP, 5)
          CFI CFA_SP SP+-7
          CFI Block cfiCond17 Using cfiCommon0
          CFI (cfiCond17) Function bdb_setEpDescListToActiveEndpoint
          CFI (cfiCond17) Conditional ??CrossCallReturnLabel_29
          CFI (cfiCond17) DPL0 Frame(CFA_SP, 4)
          CFI (cfiCond17) DPH0 Frame(CFA_SP, 5)
          CFI (cfiCond17) CFA_SP SP+-7
          CFI Block cfiCond18 Using cfiCommon0
          CFI (cfiCond18) Function bdb_ProcessIEEEAddrRsp
          CFI (cfiCond18) Conditional ??CrossCallReturnLabel_30
          CFI (cfiCond18) R6 load(1, XDATA, add(CFA_XSP16, literal(-10)))
          CFI (cfiCond18) VB load(1, XDATA, add(CFA_XSP16, literal(-9)))
          CFI (cfiCond18) V0 load(1, XDATA, add(CFA_XSP16, literal(-8)))
          CFI (cfiCond18) V1 load(1, XDATA, add(CFA_XSP16, literal(-7)))
          CFI (cfiCond18) R7 load(1, XDATA, add(CFA_XSP16, literal(-6)))
          CFI (cfiCond18) ?RET_LOW load(1, XDATA, add(CFA_XSP16, literal(-5)))
          CFI (cfiCond18) ?RET_HIGH load(1, XDATA, add(CFA_XSP16, literal(-4)))
          CFI (cfiCond18) ?BRET_EXT load(1, XDATA, add(CFA_XSP16, literal(-3)))
          CFI (cfiCond18) DPL0 load(1, XDATA, add(CFA_XSP16, literal(-2)))
          CFI (cfiCond18) DPH0 load(1, XDATA, add(CFA_XSP16, literal(-1)))
          CFI (cfiCond18) CFA_SP SP+-2
          CFI (cfiCond18) CFA_XSP16 add(XSP16, 25)
          CFI Block cfiCond19 Using cfiCommon0
          CFI (cfiCond19) Function bdb_zclFindingBindingEpType
          CFI (cfiCond19) Conditional ??CrossCallReturnLabel_31
          CFI (cfiCond19) R6 load(1, XDATA, add(CFA_XSP16, literal(-14)))
          CFI (cfiCond19) VB load(1, XDATA, add(CFA_XSP16, literal(-13)))
          CFI (cfiCond19) V0 load(1, XDATA, add(CFA_XSP16, literal(-12)))
          CFI (cfiCond19) V1 load(1, XDATA, add(CFA_XSP16, literal(-11)))
          CFI (cfiCond19) V2 load(1, XDATA, add(CFA_XSP16, literal(-10)))
          CFI (cfiCond19) V3 load(1, XDATA, add(CFA_XSP16, literal(-9)))
          CFI (cfiCond19) V4 load(1, XDATA, add(CFA_XSP16, literal(-8)))
          CFI (cfiCond19) V5 load(1, XDATA, add(CFA_XSP16, literal(-7)))
          CFI (cfiCond19) R7 load(1, XDATA, add(CFA_XSP16, literal(-6)))
          CFI (cfiCond19) ?RET_LOW load(1, XDATA, add(CFA_XSP16, literal(-5)))
          CFI (cfiCond19) ?RET_HIGH load(1, XDATA, add(CFA_XSP16, literal(-4)))
          CFI (cfiCond19) ?BRET_EXT load(1, XDATA, add(CFA_XSP16, literal(-3)))
          CFI (cfiCond19) DPL0 load(1, XDATA, add(CFA_XSP16, literal(-2)))
          CFI (cfiCond19) DPH0 load(1, XDATA, add(CFA_XSP16, literal(-1)))
          CFI (cfiCond19) CFA_SP SP+-2
          CFI (cfiCond19) CFA_XSP16 add(XSP16, 14)
          CFI Block cfiCond20 Using cfiCommon0
          CFI (cfiCond20) Function bdb_ZclIdentifyQueryCmdInd
          CFI (cfiCond20) Conditional ??CrossCallReturnLabel_32
          CFI (cfiCond20) R6 load(1, XDATA, add(CFA_XSP16, literal(-10)))
          CFI (cfiCond20) VB load(1, XDATA, add(CFA_XSP16, literal(-9)))
          CFI (cfiCond20) V0 load(1, XDATA, add(CFA_XSP16, literal(-8)))
          CFI (cfiCond20) V1 load(1, XDATA, add(CFA_XSP16, literal(-7)))
          CFI (cfiCond20) R7 load(1, XDATA, add(CFA_XSP16, literal(-6)))
          CFI (cfiCond20) ?RET_LOW load(1, XDATA, add(CFA_XSP16, literal(-5)))
          CFI (cfiCond20) ?RET_HIGH load(1, XDATA, add(CFA_XSP16, literal(-4)))
          CFI (cfiCond20) ?BRET_EXT load(1, XDATA, add(CFA_XSP16, literal(-3)))
          CFI (cfiCond20) DPL0 load(1, XDATA, add(CFA_XSP16, literal(-2)))
          CFI (cfiCond20) DPH0 load(1, XDATA, add(CFA_XSP16, literal(-1)))
          CFI (cfiCond20) CFA_SP SP+-2
          CFI (cfiCond20) CFA_XSP16 add(XSP16, 10)
          CFI Block cfiPicker21 Using cfiCommon1
          CFI (cfiPicker21) NoFunction
          CFI (cfiPicker21) Picker
        LCALL     ?Subroutine30 & 0xFFFF
??CrossCallReturnLabel_117:
        RET
          CFI EndBlock cfiCond16
          CFI EndBlock cfiCond17
          CFI EndBlock cfiCond18
          CFI EndBlock cfiCond19
          CFI EndBlock cfiCond20
          CFI EndBlock cfiPicker21

        RSEG BANKED_CODE:HUGECODE:NOROOT(0)
?Subroutine30:
          CFI Block cfiCond22 Using cfiCommon0
          CFI Function bdb_SetIdentifyActiveEndpoint
          CFI Conditional ??CrossCallReturnLabel_117, ??CrossCallReturnLabel_28
          CFI DPL0 Frame(CFA_SP, 4)
          CFI DPH0 Frame(CFA_SP, 5)
          CFI CFA_SP SP+-9
          CFI Block cfiCond23 Using cfiCommon0
          CFI (cfiCond23) Function bdb_setEpDescListToActiveEndpoint
          CFI (cfiCond23) Conditional ??CrossCallReturnLabel_117, ??CrossCallReturnLabel_29
          CFI (cfiCond23) DPL0 Frame(CFA_SP, 4)
          CFI (cfiCond23) DPH0 Frame(CFA_SP, 5)
          CFI (cfiCond23) CFA_SP SP+-9
          CFI Block cfiCond24 Using cfiCommon0
          CFI (cfiCond24) Function bdb_ProcessIEEEAddrRsp
          CFI (cfiCond24) Conditional ??CrossCallReturnLabel_117, ??CrossCallReturnLabel_30
          CFI (cfiCond24) R6 load(1, XDATA, add(CFA_XSP16, literal(-10)))
          CFI (cfiCond24) VB load(1, XDATA, add(CFA_XSP16, literal(-9)))
          CFI (cfiCond24) V0 load(1, XDATA, add(CFA_XSP16, literal(-8)))
          CFI (cfiCond24) V1 load(1, XDATA, add(CFA_XSP16, literal(-7)))
          CFI (cfiCond24) R7 load(1, XDATA, add(CFA_XSP16, literal(-6)))
          CFI (cfiCond24) ?RET_LOW load(1, XDATA, add(CFA_XSP16, literal(-5)))
          CFI (cfiCond24) ?RET_HIGH load(1, XDATA, add(CFA_XSP16, literal(-4)))
          CFI (cfiCond24) ?BRET_EXT load(1, XDATA, add(CFA_XSP16, literal(-3)))
          CFI (cfiCond24) DPL0 load(1, XDATA, add(CFA_XSP16, literal(-2)))
          CFI (cfiCond24) DPH0 load(1, XDATA, add(CFA_XSP16, literal(-1)))
          CFI (cfiCond24) CFA_SP SP+-4
          CFI (cfiCond24) CFA_XSP16 add(XSP16, 25)
          CFI Block cfiCond25 Using cfiCommon0
          CFI (cfiCond25) Function bdb_zclFindingBindingEpType
          CFI (cfiCond25) Conditional ??CrossCallReturnLabel_117, ??CrossCallReturnLabel_31
          CFI (cfiCond25) R6 load(1, XDATA, add(CFA_XSP16, literal(-14)))
          CFI (cfiCond25) VB load(1, XDATA, add(CFA_XSP16, literal(-13)))
          CFI (cfiCond25) V0 load(1, XDATA, add(CFA_XSP16, literal(-12)))
          CFI (cfiCond25) V1 load(1, XDATA, add(CFA_XSP16, literal(-11)))
          CFI (cfiCond25) V2 load(1, XDATA, add(CFA_XSP16, literal(-10)))
          CFI (cfiCond25) V3 load(1, XDATA, add(CFA_XSP16, literal(-9)))
          CFI (cfiCond25) V4 load(1, XDATA, add(CFA_XSP16, literal(-8)))
          CFI (cfiCond25) V5 load(1, XDATA, add(CFA_XSP16, literal(-7)))
          CFI (cfiCond25) R7 load(1, XDATA, add(CFA_XSP16, literal(-6)))
          CFI (cfiCond25) ?RET_LOW load(1, XDATA, add(CFA_XSP16, literal(-5)))
          CFI (cfiCond25) ?RET_HIGH load(1, XDATA, add(CFA_XSP16, literal(-4)))
          CFI (cfiCond25) ?BRET_EXT load(1, XDATA, add(CFA_XSP16, literal(-3)))
          CFI (cfiCond25) DPL0 load(1, XDATA, add(CFA_XSP16, literal(-2)))
          CFI (cfiCond25) DPH0 load(1, XDATA, add(CFA_XSP16, literal(-1)))
          CFI (cfiCond25) CFA_SP SP+-4
          CFI (cfiCond25) CFA_XSP16 add(XSP16, 14)
          CFI Block cfiCond26 Using cfiCommon0
          CFI (cfiCond26) Function bdb_ZclIdentifyQueryCmdInd
          CFI (cfiCond26) Conditional ??CrossCallReturnLabel_117, ??CrossCallReturnLabel_32
          CFI (cfiCond26) R6 load(1, XDATA, add(CFA_XSP16, literal(-10)))
          CFI (cfiCond26) VB load(1, XDATA, add(CFA_XSP16, literal(-9)))
          CFI (cfiCond26) V0 load(1, XDATA, add(CFA_XSP16, literal(-8)))
          CFI (cfiCond26) V1 load(1, XDATA, add(CFA_XSP16, literal(-7)))
          CFI (cfiCond26) R7 load(1, XDATA, add(CFA_XSP16, literal(-6)))
          CFI (cfiCond26) ?RET_LOW load(1, XDATA, add(CFA_XSP16, literal(-5)))
          CFI (cfiCond26) ?RET_HIGH load(1, XDATA, add(CFA_XSP16, literal(-4)))
          CFI (cfiCond26) ?BRET_EXT load(1, XDATA, add(CFA_XSP16, literal(-3)))
          CFI (cfiCond26) DPL0 load(1, XDATA, add(CFA_XSP16, literal(-2)))
          CFI (cfiCond26) DPH0 load(1, XDATA, add(CFA_XSP16, literal(-1)))
          CFI (cfiCond26) CFA_SP SP+-4
          CFI (cfiCond26) CFA_XSP16 add(XSP16, 10)
          CFI Block cfiCond27 Using cfiCommon0
          CFI (cfiCond27) Function bdb_setEpDescListToActiveEndpoint
          CFI (cfiCond27) Conditional ??CrossCallReturnLabel_114, ??CrossCallReturnLabel_0
          CFI (cfiCond27) DPL0 Frame(CFA_SP, 4)
          CFI (cfiCond27) DPH0 Frame(CFA_SP, 5)
          CFI (cfiCond27) CFA_SP SP+-9
          CFI Block cfiCond28 Using cfiCommon0
          CFI (cfiCond28) Function bdb_setEpDescListToActiveEndpoint
          CFI (cfiCond28) Conditional ??CrossCallReturnLabel_114, ??CrossCallReturnLabel_1
          CFI (cfiCond28) DPL0 Frame(CFA_SP, 4)
          CFI (cfiCond28) DPH0 Frame(CFA_SP, 5)
          CFI (cfiCond28) CFA_SP SP+-9
          CFI Block cfiCond29 Using cfiCommon0
          CFI (cfiCond29) Function bdb_checkMatchingEndpoints
          CFI (cfiCond29) Conditional ??CrossCallReturnLabel_114, ??CrossCallReturnLabel_2
          CFI (cfiCond29) R6 load(1, XDATA, add(CFA_XSP16, literal(-20)))
          CFI (cfiCond29) VB load(1, XDATA, add(CFA_XSP16, literal(-19)))
          CFI (cfiCond29) V0 load(1, XDATA, add(CFA_XSP16, literal(-18)))
          CFI (cfiCond29) V1 load(1, XDATA, add(CFA_XSP16, literal(-17)))
          CFI (cfiCond29) V2 load(1, XDATA, add(CFA_XSP16, literal(-16)))
          CFI (cfiCond29) V3 load(1, XDATA, add(CFA_XSP16, literal(-15)))
          CFI (cfiCond29) V4 load(1, XDATA, add(CFA_XSP16, literal(-14)))
          CFI (cfiCond29) V5 load(1, XDATA, add(CFA_XSP16, literal(-13)))
          CFI (cfiCond29) V6 load(1, XDATA, add(CFA_XSP16, literal(-12)))
          CFI (cfiCond29) V7 load(1, XDATA, add(CFA_XSP16, literal(-11)))
          CFI (cfiCond29) V8 load(1, XDATA, add(CFA_XSP16, literal(-10)))
          CFI (cfiCond29) V9 load(1, XDATA, add(CFA_XSP16, literal(-9)))
          CFI (cfiCond29) V10 load(1, XDATA, add(CFA_XSP16, literal(-8)))
          CFI (cfiCond29) V11 load(1, XDATA, add(CFA_XSP16, literal(-7)))
          CFI (cfiCond29) R7 load(1, XDATA, add(CFA_XSP16, literal(-6)))
          CFI (cfiCond29) ?RET_LOW load(1, XDATA, add(CFA_XSP16, literal(-5)))
          CFI (cfiCond29) ?RET_HIGH load(1, XDATA, add(CFA_XSP16, literal(-4)))
          CFI (cfiCond29) ?BRET_EXT load(1, XDATA, add(CFA_XSP16, literal(-3)))
          CFI (cfiCond29) DPL0 load(1, XDATA, add(CFA_XSP16, literal(-2)))
          CFI (cfiCond29) DPH0 load(1, XDATA, add(CFA_XSP16, literal(-1)))
          CFI (cfiCond29) CFA_SP SP+-4
          CFI (cfiCond29) CFA_XSP16 add(XSP16, 41)
          CFI Block cfiCond30 Using cfiCommon0
          CFI (cfiCond30) Function bdb_ProcessSimpleDesc
          CFI (cfiCond30) Conditional ??CrossCallReturnLabel_116, ??CrossCallReturnLabel_26
          CFI (cfiCond30) R6 load(1, XDATA, add(CFA_XSP16, literal(-9)))
          CFI (cfiCond30) VB load(1, XDATA, add(CFA_XSP16, literal(-8)))
          CFI (cfiCond30) V0 load(1, XDATA, add(CFA_XSP16, literal(-7)))
          CFI (cfiCond30) R7 load(1, XDATA, add(CFA_XSP16, literal(-6)))
          CFI (cfiCond30) ?RET_LOW load(1, XDATA, add(CFA_XSP16, literal(-5)))
          CFI (cfiCond30) ?RET_HIGH load(1, XDATA, add(CFA_XSP16, literal(-4)))
          CFI (cfiCond30) ?BRET_EXT load(1, XDATA, add(CFA_XSP16, literal(-3)))
          CFI (cfiCond30) DPL0 load(1, XDATA, add(CFA_XSP16, literal(-2)))
          CFI (cfiCond30) DPH0 load(1, XDATA, add(CFA_XSP16, literal(-1)))
          CFI (cfiCond30) CFA_SP SP+-4
          CFI (cfiCond30) CFA_XSP16 add(XSP16, 28)
          CFI Block cfiCond31 Using cfiCommon0
          CFI (cfiCond31) Function bdb_ZclIdentifyQueryCmdInd
          CFI (cfiCond31) Conditional ??CrossCallReturnLabel_116, ??CrossCallReturnLabel_27
          CFI (cfiCond31) R6 load(1, XDATA, add(CFA_XSP16, literal(-10)))
          CFI (cfiCond31) VB load(1, XDATA, add(CFA_XSP16, literal(-9)))
          CFI (cfiCond31) V0 load(1, XDATA, add(CFA_XSP16, literal(-8)))
          CFI (cfiCond31) V1 load(1, XDATA, add(CFA_XSP16, literal(-7)))
          CFI (cfiCond31) R7 load(1, XDATA, add(CFA_XSP16, literal(-6)))
          CFI (cfiCond31) ?RET_LOW load(1, XDATA, add(CFA_XSP16, literal(-5)))
          CFI (cfiCond31) ?RET_HIGH load(1, XDATA, add(CFA_XSP16, literal(-4)))
          CFI (cfiCond31) ?BRET_EXT load(1, XDATA, add(CFA_XSP16, literal(-3)))
          CFI (cfiCond31) DPL0 load(1, XDATA, add(CFA_XSP16, literal(-2)))
          CFI (cfiCond31) DPH0 load(1, XDATA, add(CFA_XSP16, literal(-1)))
          CFI (cfiCond31) CFA_SP SP+-4
          CFI (cfiCond31) CFA_XSP16 add(XSP16, 10)
          CFI Block cfiCond32 Using cfiCommon0
          CFI (cfiCond32) Function bdb_checkMatchingEndpoints
          CFI (cfiCond32) Conditional ??CrossCallReturnLabel_115, ??CrossCallReturnLabel_14
          CFI (cfiCond32) R6 load(1, XDATA, add(CFA_XSP16, literal(-20)))
          CFI (cfiCond32) VB load(1, XDATA, add(CFA_XSP16, literal(-19)))
          CFI (cfiCond32) V0 load(1, XDATA, add(CFA_XSP16, literal(-18)))
          CFI (cfiCond32) V1 load(1, XDATA, add(CFA_XSP16, literal(-17)))
          CFI (cfiCond32) V2 load(1, XDATA, add(CFA_XSP16, literal(-16)))
          CFI (cfiCond32) V3 load(1, XDATA, add(CFA_XSP16, literal(-15)))
          CFI (cfiCond32) V4 load(1, XDATA, add(CFA_XSP16, literal(-14)))
          CFI (cfiCond32) V5 load(1, XDATA, add(CFA_XSP16, literal(-13)))
          CFI (cfiCond32) V6 load(1, XDATA, add(CFA_XSP16, literal(-12)))
          CFI (cfiCond32) V7 load(1, XDATA, add(CFA_XSP16, literal(-11)))
          CFI (cfiCond32) V8 load(1, XDATA, add(CFA_XSP16, literal(-10)))
          CFI (cfiCond32) V9 load(1, XDATA, add(CFA_XSP16, literal(-9)))
          CFI (cfiCond32) V10 load(1, XDATA, add(CFA_XSP16, literal(-8)))
          CFI (cfiCond32) V11 load(1, XDATA, add(CFA_XSP16, literal(-7)))
          CFI (cfiCond32) R7 load(1, XDATA, add(CFA_XSP16, literal(-6)))
          CFI (cfiCond32) ?RET_LOW load(1, XDATA, add(CFA_XSP16, literal(-5)))
          CFI (cfiCond32) ?RET_HIGH load(1, XDATA, add(CFA_XSP16, literal(-4)))
          CFI (cfiCond32) ?BRET_EXT load(1, XDATA, add(CFA_XSP16, literal(-3)))
          CFI (cfiCond32) DPL0 load(1, XDATA, add(CFA_XSP16, literal(-2)))
          CFI (cfiCond32) DPH0 load(1, XDATA, add(CFA_XSP16, literal(-1)))
          CFI (cfiCond32) CFA_SP SP+-4
          CFI (cfiCond32) CFA_XSP16 add(XSP16, 41)
          CFI Block cfiCond33 Using cfiCommon0
          CFI (cfiCond33) Function bdb_ProcessRespondentList
          CFI (cfiCond33) Conditional ??CrossCallReturnLabel_115, ??CrossCallReturnLabel_15
          CFI (cfiCond33) R6 load(1, XDATA, add(CFA_XSP16, literal(-9)))
          CFI (cfiCond33) VB load(1, XDATA, add(CFA_XSP16, literal(-8)))
          CFI (cfiCond33) V0 load(1, XDATA, add(CFA_XSP16, literal(-7)))
          CFI (cfiCond33) R7 load(1, XDATA, add(CFA_XSP16, literal(-6)))
          CFI (cfiCond33) ?RET_LOW load(1, XDATA, add(CFA_XSP16, literal(-5)))
          CFI (cfiCond33) ?RET_HIGH load(1, XDATA, add(CFA_XSP16, literal(-4)))
          CFI (cfiCond33) ?BRET_EXT load(1, XDATA, add(CFA_XSP16, literal(-3)))
          CFI (cfiCond33) DPL0 load(1, XDATA, add(CFA_XSP16, literal(-2)))
          CFI (cfiCond33) DPH0 load(1, XDATA, add(CFA_XSP16, literal(-1)))
          CFI (cfiCond33) CFA_SP SP+-4
          CFI (cfiCond33) CFA_XSP16 add(XSP16, 18)
          CFI Block cfiCond34 Using cfiCommon0
          CFI (cfiCond34) Function bdb_ProcessIEEEAddrRsp
          CFI (cfiCond34) Conditional ??CrossCallReturnLabel_118, ??CrossCallReturnLabel_104
          CFI (cfiCond34) R6 load(1, XDATA, add(CFA_XSP16, literal(-10)))
          CFI (cfiCond34) VB load(1, XDATA, add(CFA_XSP16, literal(-9)))
          CFI (cfiCond34) V0 load(1, XDATA, add(CFA_XSP16, literal(-8)))
          CFI (cfiCond34) V1 load(1, XDATA, add(CFA_XSP16, literal(-7)))
          CFI (cfiCond34) R7 load(1, XDATA, add(CFA_XSP16, literal(-6)))
          CFI (cfiCond34) ?RET_LOW load(1, XDATA, add(CFA_XSP16, literal(-5)))
          CFI (cfiCond34) ?RET_HIGH load(1, XDATA, add(CFA_XSP16, literal(-4)))
          CFI (cfiCond34) ?BRET_EXT load(1, XDATA, add(CFA_XSP16, literal(-3)))
          CFI (cfiCond34) DPL0 load(1, XDATA, add(CFA_XSP16, literal(-2)))
          CFI (cfiCond34) DPH0 load(1, XDATA, add(CFA_XSP16, literal(-1)))
          CFI (cfiCond34) CFA_SP SP+-4
          CFI (cfiCond34) CFA_XSP16 add(XSP16, 25)
          CFI Block cfiCond35 Using cfiCommon0
          CFI (cfiCond35) Function bdb_ProcessSimpleDesc
          CFI (cfiCond35) Conditional ??CrossCallReturnLabel_118, ??CrossCallReturnLabel_105
          CFI (cfiCond35) R6 load(1, XDATA, add(CFA_XSP16, literal(-9)))
          CFI (cfiCond35) VB load(1, XDATA, add(CFA_XSP16, literal(-8)))
          CFI (cfiCond35) V0 load(1, XDATA, add(CFA_XSP16, literal(-7)))
          CFI (cfiCond35) R7 load(1, XDATA, add(CFA_XSP16, literal(-6)))
          CFI (cfiCond35) ?RET_LOW load(1, XDATA, add(CFA_XSP16, literal(-5)))
          CFI (cfiCond35) ?RET_HIGH load(1, XDATA, add(CFA_XSP16, literal(-4)))
          CFI (cfiCond35) ?BRET_EXT load(1, XDATA, add(CFA_XSP16, literal(-3)))
          CFI (cfiCond35) DPL0 load(1, XDATA, add(CFA_XSP16, literal(-2)))
          CFI (cfiCond35) DPH0 load(1, XDATA, add(CFA_XSP16, literal(-1)))
          CFI (cfiCond35) CFA_SP SP+-4
          CFI (cfiCond35) CFA_XSP16 add(XSP16, 28)
          CFI Block cfiCond36 Using cfiCommon0
          CFI (cfiCond36) Function bdb_setEpDescListToActiveEndpoint
          CFI (cfiCond36) Conditional ??CrossCallReturnLabel_118, ??CrossCallReturnLabel_106
          CFI (cfiCond36) DPL0 Frame(CFA_SP, 4)
          CFI (cfiCond36) DPH0 Frame(CFA_SP, 5)
          CFI (cfiCond36) CFA_SP SP+-9
          CFI Block cfiCond37 Using cfiCommon0
          CFI (cfiCond37) Function bdb_setEpDescListToActiveEndpoint
          CFI (cfiCond37) Conditional ??CrossCallReturnLabel_118, ??CrossCallReturnLabel_107
          CFI (cfiCond37) DPL0 Frame(CFA_SP, 4)
          CFI (cfiCond37) DPH0 Frame(CFA_SP, 5)
          CFI (cfiCond37) CFA_SP SP+-9
          CFI Block cfiCond38 Using cfiCommon0
          CFI (cfiCond38) Function bdb_checkMatchingEndpoints
          CFI (cfiCond38) Conditional ??CrossCallReturnLabel_118, ??CrossCallReturnLabel_108
          CFI (cfiCond38) R6 load(1, XDATA, add(CFA_XSP16, literal(-20)))
          CFI (cfiCond38) VB load(1, XDATA, add(CFA_XSP16, literal(-19)))
          CFI (cfiCond38) V0 load(1, XDATA, add(CFA_XSP16, literal(-18)))
          CFI (cfiCond38) V1 load(1, XDATA, add(CFA_XSP16, literal(-17)))
          CFI (cfiCond38) V2 load(1, XDATA, add(CFA_XSP16, literal(-16)))
          CFI (cfiCond38) V3 load(1, XDATA, add(CFA_XSP16, literal(-15)))
          CFI (cfiCond38) V4 load(1, XDATA, add(CFA_XSP16, literal(-14)))
          CFI (cfiCond38) V5 load(1, XDATA, add(CFA_XSP16, literal(-13)))
          CFI (cfiCond38) V6 load(1, XDATA, add(CFA_XSP16, literal(-12)))
          CFI (cfiCond38) V7 load(1, XDATA, add(CFA_XSP16, literal(-11)))
          CFI (cfiCond38) V8 load(1, XDATA, add(CFA_XSP16, literal(-10)))
          CFI (cfiCond38) V9 load(1, XDATA, add(CFA_XSP16, literal(-9)))
          CFI (cfiCond38) V10 load(1, XDATA, add(CFA_XSP16, literal(-8)))
          CFI (cfiCond38) V11 load(1, XDATA, add(CFA_XSP16, literal(-7)))
          CFI (cfiCond38) R7 load(1, XDATA, add(CFA_XSP16, literal(-6)))
          CFI (cfiCond38) ?RET_LOW load(1, XDATA, add(CFA_XSP16, literal(-5)))
          CFI (cfiCond38) ?RET_HIGH load(1, XDATA, add(CFA_XSP16, literal(-4)))
          CFI (cfiCond38) ?BRET_EXT load(1, XDATA, add(CFA_XSP16, literal(-3)))
          CFI (cfiCond38) DPL0 load(1, XDATA, add(CFA_XSP16, literal(-2)))
          CFI (cfiCond38) DPH0 load(1, XDATA, add(CFA_XSP16, literal(-1)))
          CFI (cfiCond38) CFA_SP SP+-4
          CFI (cfiCond38) CFA_XSP16 add(XSP16, 41)
          CFI Block cfiCond39 Using cfiCommon0
          CFI (cfiCond39) Function bdb_checkMatchingEndpoints
          CFI (cfiCond39) Conditional ??CrossCallReturnLabel_118, ??CrossCallReturnLabel_109
          CFI (cfiCond39) R6 load(1, XDATA, add(CFA_XSP16, literal(-20)))
          CFI (cfiCond39) VB load(1, XDATA, add(CFA_XSP16, literal(-19)))
          CFI (cfiCond39) V0 load(1, XDATA, add(CFA_XSP16, literal(-18)))
          CFI (cfiCond39) V1 load(1, XDATA, add(CFA_XSP16, literal(-17)))
          CFI (cfiCond39) V2 load(1, XDATA, add(CFA_XSP16, literal(-16)))
          CFI (cfiCond39) V3 load(1, XDATA, add(CFA_XSP16, literal(-15)))
          CFI (cfiCond39) V4 load(1, XDATA, add(CFA_XSP16, literal(-14)))
          CFI (cfiCond39) V5 load(1, XDATA, add(CFA_XSP16, literal(-13)))
          CFI (cfiCond39) V6 load(1, XDATA, add(CFA_XSP16, literal(-12)))
          CFI (cfiCond39) V7 load(1, XDATA, add(CFA_XSP16, literal(-11)))
          CFI (cfiCond39) V8 load(1, XDATA, add(CFA_XSP16, literal(-10)))
          CFI (cfiCond39) V9 load(1, XDATA, add(CFA_XSP16, literal(-9)))
          CFI (cfiCond39) V10 load(1, XDATA, add(CFA_XSP16, literal(-8)))
          CFI (cfiCond39) V11 load(1, XDATA, add(CFA_XSP16, literal(-7)))
          CFI (cfiCond39) R7 load(1, XDATA, add(CFA_XSP16, literal(-6)))
          CFI (cfiCond39) ?RET_LOW load(1, XDATA, add(CFA_XSP16, literal(-5)))
          CFI (cfiCond39) ?RET_HIGH load(1, XDATA, add(CFA_XSP16, literal(-4)))
          CFI (cfiCond39) ?BRET_EXT load(1, XDATA, add(CFA_XSP16, literal(-3)))
          CFI (cfiCond39) DPL0 load(1, XDATA, add(CFA_XSP16, literal(-2)))
          CFI (cfiCond39) DPH0 load(1, XDATA, add(CFA_XSP16, literal(-1)))
          CFI (cfiCond39) CFA_SP SP+-4
          CFI (cfiCond39) CFA_XSP16 add(XSP16, 41)
          CFI Block cfiCond40 Using cfiCommon0
          CFI (cfiCond40) Function bdb_zclFindingBindingAddBindEntry
          CFI (cfiCond40) Conditional ??CrossCallReturnLabel_118, ??CrossCallReturnLabel_110
          CFI (cfiCond40) R6 load(1, XDATA, add(CFA_XSP16, literal(-12)))
          CFI (cfiCond40) VB load(1, XDATA, add(CFA_XSP16, literal(-11)))
          CFI (cfiCond40) V0 load(1, XDATA, add(CFA_XSP16, literal(-10)))
          CFI (cfiCond40) V1 load(1, XDATA, add(CFA_XSP16, literal(-9)))
          CFI (cfiCond40) V2 load(1, XDATA, add(CFA_XSP16, literal(-8)))
          CFI (cfiCond40) V3 load(1, XDATA, add(CFA_XSP16, literal(-7)))
          CFI (cfiCond40) R7 load(1, XDATA, add(CFA_XSP16, literal(-6)))
          CFI (cfiCond40) ?RET_LOW load(1, XDATA, add(CFA_XSP16, literal(-5)))
          CFI (cfiCond40) ?RET_HIGH load(1, XDATA, add(CFA_XSP16, literal(-4)))
          CFI (cfiCond40) ?BRET_EXT load(1, XDATA, add(CFA_XSP16, literal(-3)))
          CFI (cfiCond40) DPL0 load(1, XDATA, add(CFA_XSP16, literal(-2)))
          CFI (cfiCond40) DPH0 load(1, XDATA, add(CFA_XSP16, literal(-1)))
          CFI (cfiCond40) CFA_SP SP+-4
          CFI (cfiCond40) CFA_XSP16 add(XSP16, 14)
          CFI Block cfiCond41 Using cfiCommon0
          CFI (cfiCond41) Function bdb_ProcessRespondentList
          CFI (cfiCond41) Conditional ??CrossCallReturnLabel_118, ??CrossCallReturnLabel_111
          CFI (cfiCond41) R6 load(1, XDATA, add(CFA_XSP16, literal(-9)))
          CFI (cfiCond41) VB load(1, XDATA, add(CFA_XSP16, literal(-8)))
          CFI (cfiCond41) V0 load(1, XDATA, add(CFA_XSP16, literal(-7)))
          CFI (cfiCond41) R7 load(1, XDATA, add(CFA_XSP16, literal(-6)))
          CFI (cfiCond41) ?RET_LOW load(1, XDATA, add(CFA_XSP16, literal(-5)))
          CFI (cfiCond41) ?RET_HIGH load(1, XDATA, add(CFA_XSP16, literal(-4)))
          CFI (cfiCond41) ?BRET_EXT load(1, XDATA, add(CFA_XSP16, literal(-3)))
          CFI (cfiCond41) DPL0 load(1, XDATA, add(CFA_XSP16, literal(-2)))
          CFI (cfiCond41) DPH0 load(1, XDATA, add(CFA_XSP16, literal(-1)))
          CFI (cfiCond41) CFA_SP SP+-4
          CFI (cfiCond41) CFA_XSP16 add(XSP16, 18)
          CFI Block cfiCond42 Using cfiCommon0
          CFI (cfiCond42) Function bdb_ProcessRespondentList
          CFI (cfiCond42) Conditional ??CrossCallReturnLabel_118, ??CrossCallReturnLabel_112
          CFI (cfiCond42) R6 load(1, XDATA, add(CFA_XSP16, literal(-9)))
          CFI (cfiCond42) VB load(1, XDATA, add(CFA_XSP16, literal(-8)))
          CFI (cfiCond42) V0 load(1, XDATA, add(CFA_XSP16, literal(-7)))
          CFI (cfiCond42) R7 load(1, XDATA, add(CFA_XSP16, literal(-6)))
          CFI (cfiCond42) ?RET_LOW load(1, XDATA, add(CFA_XSP16, literal(-5)))
          CFI (cfiCond42) ?RET_HIGH load(1, XDATA, add(CFA_XSP16, literal(-4)))
          CFI (cfiCond42) ?BRET_EXT load(1, XDATA, add(CFA_XSP16, literal(-3)))
          CFI (cfiCond42) DPL0 load(1, XDATA, add(CFA_XSP16, literal(-2)))
          CFI (cfiCond42) DPH0 load(1, XDATA, add(CFA_XSP16, literal(-1)))
          CFI (cfiCond42) CFA_SP SP+-4
          CFI (cfiCond42) CFA_XSP16 add(XSP16, 18)
          CFI Block cfiCond43 Using cfiCommon0
          CFI (cfiCond43) Function bdb_ProcessRespondentList
          CFI (cfiCond43) Conditional ??CrossCallReturnLabel_118, ??CrossCallReturnLabel_113
          CFI (cfiCond43) R6 load(1, XDATA, add(CFA_XSP16, literal(-9)))
          CFI (cfiCond43) VB load(1, XDATA, add(CFA_XSP16, literal(-8)))
          CFI (cfiCond43) V0 load(1, XDATA, add(CFA_XSP16, literal(-7)))
          CFI (cfiCond43) R7 load(1, XDATA, add(CFA_XSP16, literal(-6)))
          CFI (cfiCond43) ?RET_LOW load(1, XDATA, add(CFA_XSP16, literal(-5)))
          CFI (cfiCond43) ?RET_HIGH load(1, XDATA, add(CFA_XSP16, literal(-4)))
          CFI (cfiCond43) ?BRET_EXT load(1, XDATA, add(CFA_XSP16, literal(-3)))
          CFI (cfiCond43) DPL0 load(1, XDATA, add(CFA_XSP16, literal(-2)))
          CFI (cfiCond43) DPH0 load(1, XDATA, add(CFA_XSP16, literal(-1)))
          CFI (cfiCond43) CFA_SP SP+-4
          CFI (cfiCond43) CFA_XSP16 add(XSP16, 18)
          CFI Block cfiPicker44 Using cfiCommon1
          CFI (cfiPicker44) NoFunction
          CFI (cfiPicker44) Picker
        LCALL     ?Subroutine38 & 0xFFFF
??CrossCallReturnLabel_124:
        MOV       R1,A
        RET
          CFI EndBlock cfiCond22
          CFI EndBlock cfiCond23
          CFI EndBlock cfiCond24
          CFI EndBlock cfiCond25
          CFI EndBlock cfiCond26
          CFI EndBlock cfiCond27
          CFI EndBlock cfiCond28
          CFI EndBlock cfiCond29
          CFI EndBlock cfiCond30
          CFI EndBlock cfiCond31
          CFI EndBlock cfiCond32
          CFI EndBlock cfiCond33
          CFI EndBlock cfiCond34
          CFI EndBlock cfiCond35
          CFI EndBlock cfiCond36
          CFI EndBlock cfiCond37
          CFI EndBlock cfiCond38
          CFI EndBlock cfiCond39
          CFI EndBlock cfiCond40
          CFI EndBlock cfiCond41
          CFI EndBlock cfiCond42
          CFI EndBlock cfiCond43
          CFI EndBlock cfiPicker44
//  376 
//  377 
//  378 /*********************************************************************
//  379  * @fn      bdb_StopInitiatorFindingBinding
//  380  *
//  381  * @brief   Stops finding and binding for initiator devices.
//  382  *
//  383  * @param   none
//  384  *
//  385  * @return  none
//  386  */

        RSEG BANKED_CODE:HUGECODE:NOROOT(0)
//  387 void bdb_StopInitiatorFindingBinding(void)
bdb_StopInitiatorFindingBinding:
          CFI Block cfiBlock45 Using cfiCommon0
          CFI Function bdb_StopInitiatorFindingBinding
        CODE
//  388 {
        FUNCALL bdb_StopInitiatorFindingBinding, osal_stop_timerEx
        LOCFRAME ISTACK, 2, STACK
        LOCFRAME PSTACK, 0, STACK
        LOCFRAME XSTACK, 0, STACK
        LOCFRAME IOVERLAY, 0, STATIC
        LOCFRAME DOVERLAY, 0, STATIC
        ARGFRAME ISTACK, 2, STACK
        ARGFRAME PSTACK, 0, STACK
        ARGFRAME XSTACK, 0, STACK
        ARGFRAME IOVERLAY, 0, STATIC
        ARGFRAME DOVERLAY, 0, STATIC
        FUNCALL bdb_StopInitiatorFindingBinding, bdb_zclRespondentListClean
        LOCFRAME ISTACK, 2, STACK
        LOCFRAME PSTACK, 0, STACK
        LOCFRAME XSTACK, 0, STACK
        LOCFRAME IOVERLAY, 0, STATIC
        LOCFRAME DOVERLAY, 0, STATIC
        ARGFRAME ISTACK, 2, STACK
        ARGFRAME PSTACK, 0, STACK
        ARGFRAME XSTACK, 0, STACK
        ARGFRAME IOVERLAY, 0, STATIC
        ARGFRAME DOVERLAY, 0, STATIC
        FUNCALL bdb_StopInitiatorFindingBinding, osal_stop_timerEx
        LOCFRAME ISTACK, 2, STACK
        LOCFRAME PSTACK, 0, STACK
        LOCFRAME XSTACK, 0, STACK
        LOCFRAME IOVERLAY, 0, STATIC
        LOCFRAME DOVERLAY, 0, STATIC
        ARGFRAME ISTACK, 2, STACK
        ARGFRAME PSTACK, 0, STACK
        ARGFRAME XSTACK, 0, STACK
        ARGFRAME IOVERLAY, 0, STATIC
        ARGFRAME DOVERLAY, 0, STATIC
        FUNCALL bdb_StopInitiatorFindingBinding, bdb_exitFindingBindingWStatus
        LOCFRAME ISTACK, 2, STACK
        LOCFRAME PSTACK, 0, STACK
        LOCFRAME XSTACK, 0, STACK
        LOCFRAME IOVERLAY, 0, STATIC
        LOCFRAME DOVERLAY, 0, STATIC
        ARGFRAME ISTACK, 2, STACK
        ARGFRAME PSTACK, 0, STACK
        ARGFRAME XSTACK, 0, STACK
        ARGFRAME IOVERLAY, 0, STATIC
        ARGFRAME DOVERLAY, 0, STATIC
        PUSH      DPL
          CFI DPL0 Frame(CFA_SP, 4)
          CFI CFA_SP SP+-4
        PUSH      DPH
          CFI DPH0 Frame(CFA_SP, 5)
          CFI CFA_SP SP+-5
        ; Saved register size: 2
        ; Auto size: 0
//  389   //If periodic was triggered, then finish it
//  390   if(FINDING_AND_BINDING_PERIODIC_ENABLE == TRUE)                                  
//  391   {
//  392     bdb_FB_InitiatorCurrentCyclesNumber = 0;
        MOV       DPTR,#bdb_FB_InitiatorCurrentCyclesNumber
        CLR       A
        MOVX      @DPTR,A
//  393     osal_stop_timerEx(bdb_TaskID, BDB_FINDING_AND_BINDING_PERIOD_TIMEOUT);
        ; Setup parameters for call to function osal_stop_timerEx
        MOV       R2,#0x40
        MOV       R3,A
        LCALL     ??Subroutine51_0 & 0xFFFF
//  394   }      
//  395   //Clean the respondent list and stop its timer
//  396   bdb_zclRespondentListClean( &pRespondentHead );
??CrossCallReturnLabel_82:
        ; Setup parameters for call to function bdb_zclRespondentListClean
        MOV       R2,#pRespondentHead & 0xff
        MOV       R3,#(pRespondentHead >> 8) & 0xff
        LCALL     `??bdb_zclRespondentListClean::?relay`; Banked call to: bdb_zclRespondentListClean
//  397   osal_stop_timerEx( bdb_TaskID, BDB_RESPONDENT_PROCESS_TIMEOUT );
        ; Setup parameters for call to function osal_stop_timerEx
        LCALL     ?Subroutine26 & 0xFFFF
//  398   
//  399   //Notify status
//  400   bdb_exitFindingBindingWStatus( BDB_COMMISSIONING_FB_NO_IDENTIFY_QUERY_RESPONSE );
??CrossCallReturnLabel_80:
        ; Setup parameters for call to function bdb_exitFindingBindingWStatus
        MOV       R1,#0xb
        LCALL     `??bdb_exitFindingBindingWStatus::?relay`; Banked call to: bdb_exitFindingBindingWStatus
//  401 
//  402 }
        LJMP      ??Subroutine40_0 & 0xFFFF
          CFI EndBlock cfiBlock45
//  403 
//  404 
//  405 /*********************************************************************
//  406  * @fn      bdb_checkMatchingEndpoints
//  407  *
//  408  * @brief   Check active endpoints for F&B and the respondant simple descriptor 
//  409  *          for matching application clusters
//  410  *
//  411  * @param   pRespondant - Respondant to be process
//  412  * @param   bindIfMatch - Flag to indicate that binds for matching cluster must 
//  413  *                        be done
//  414  *
//  415  * @return  status - Result of the operation
//  416  */

        RSEG BANKED_CODE:HUGECODE:NOROOT(0)
//  417 void bdb_checkMatchingEndpoints(uint8 bindIfMatch, uint16 shortAddr, bdbFindingBindingRespondent_t **pCurr)
bdb_checkMatchingEndpoints:
          CFI Block cfiBlock46 Using cfiCommon0
          CFI Function bdb_checkMatchingEndpoints
        CODE
//  418 {
        FUNCALL bdb_checkMatchingEndpoints, zcl_registerClusterOptionList
        LOCFRAME ISTACK, 0, STACK
        LOCFRAME PSTACK, 0, STACK
        LOCFRAME XSTACK, 41, STACK
        LOCFRAME IOVERLAY, 0, STATIC
        LOCFRAME DOVERLAY, 0, STATIC
        ARGFRAME ISTACK, 0, STACK
        ARGFRAME PSTACK, 0, STACK
        ARGFRAME XSTACK, 41, STACK
        ARGFRAME IOVERLAY, 0, STATIC
        ARGFRAME DOVERLAY, 0, STATIC
        FUNCALL bdb_checkMatchingEndpoints, AddrMgrExtAddrLookup
        LOCFRAME ISTACK, 0, STACK
        LOCFRAME PSTACK, 0, STACK
        LOCFRAME XSTACK, 41, STACK
        LOCFRAME IOVERLAY, 0, STATIC
        LOCFRAME DOVERLAY, 0, STATIC
        ARGFRAME ISTACK, 0, STACK
        ARGFRAME PSTACK, 0, STACK
        ARGFRAME XSTACK, 41, STACK
        ARGFRAME IOVERLAY, 0, STATIC
        ARGFRAME DOVERLAY, 0, STATIC
        FUNCALL bdb_checkMatchingEndpoints, bdb_zclFindingBindingAddBindEntry
        LOCFRAME ISTACK, 0, STACK
        LOCFRAME PSTACK, 0, STACK
        LOCFRAME XSTACK, 47, STACK
        LOCFRAME IOVERLAY, 0, STATIC
        LOCFRAME DOVERLAY, 0, STATIC
        ARGFRAME ISTACK, 0, STACK
        ARGFRAME PSTACK, 0, STACK
        ARGFRAME XSTACK, 47, STACK
        ARGFRAME IOVERLAY, 0, STATIC
        ARGFRAME DOVERLAY, 0, STATIC
        FUNCALL bdb_checkMatchingEndpoints, bdb_zclFindingBindingAddBindEntry
        LOCFRAME ISTACK, 0, STACK
        LOCFRAME PSTACK, 0, STACK
        LOCFRAME XSTACK, 47, STACK
        LOCFRAME IOVERLAY, 0, STATIC
        LOCFRAME DOVERLAY, 0, STATIC
        ARGFRAME ISTACK, 0, STACK
        ARGFRAME PSTACK, 0, STACK
        ARGFRAME XSTACK, 47, STACK
        ARGFRAME IOVERLAY, 0, STATIC
        ARGFRAME DOVERLAY, 0, STATIC
        FUNCALL bdb_checkMatchingEndpoints, zclGeneral_SendAddGroupRequest
        LOCFRAME ISTACK, 0, STACK
        LOCFRAME PSTACK, 0, STACK
        LOCFRAME XSTACK, 46, STACK
        LOCFRAME IOVERLAY, 0, STATIC
        LOCFRAME DOVERLAY, 0, STATIC
        ARGFRAME ISTACK, 0, STACK
        ARGFRAME PSTACK, 0, STACK
        ARGFRAME XSTACK, 46, STACK
        ARGFRAME IOVERLAY, 0, STATIC
        ARGFRAME DOVERLAY, 0, STATIC
        FUNCALL bdb_checkMatchingEndpoints, osal_stop_timerEx
        LOCFRAME ISTACK, 0, STACK
        LOCFRAME PSTACK, 0, STACK
        LOCFRAME XSTACK, 41, STACK
        LOCFRAME IOVERLAY, 0, STATIC
        LOCFRAME DOVERLAY, 0, STATIC
        ARGFRAME ISTACK, 0, STACK
        ARGFRAME PSTACK, 0, STACK
        ARGFRAME XSTACK, 41, STACK
        ARGFRAME IOVERLAY, 0, STATIC
        ARGFRAME DOVERLAY, 0, STATIC
        FUNCALL bdb_checkMatchingEndpoints, bdb_zclSimpleDescClusterListClean
        LOCFRAME ISTACK, 0, STACK
        LOCFRAME PSTACK, 0, STACK
        LOCFRAME XSTACK, 41, STACK
        LOCFRAME IOVERLAY, 0, STATIC
        LOCFRAME DOVERLAY, 0, STATIC
        ARGFRAME ISTACK, 0, STACK
        ARGFRAME PSTACK, 0, STACK
        ARGFRAME XSTACK, 41, STACK
        ARGFRAME IOVERLAY, 0, STATIC
        ARGFRAME DOVERLAY, 0, STATIC
        FUNCALL bdb_checkMatchingEndpoints, osal_stop_timerEx
        LOCFRAME ISTACK, 0, STACK
        LOCFRAME PSTACK, 0, STACK
        LOCFRAME XSTACK, 41, STACK
        LOCFRAME IOVERLAY, 0, STATIC
        LOCFRAME DOVERLAY, 0, STATIC
        ARGFRAME ISTACK, 0, STACK
        ARGFRAME PSTACK, 0, STACK
        ARGFRAME XSTACK, 41, STACK
        ARGFRAME IOVERLAY, 0, STATIC
        ARGFRAME DOVERLAY, 0, STATIC
        FUNCALL bdb_checkMatchingEndpoints, bdb_exitFindingBindingWStatus
        LOCFRAME ISTACK, 0, STACK
        LOCFRAME PSTACK, 0, STACK
        LOCFRAME XSTACK, 41, STACK
        LOCFRAME IOVERLAY, 0, STATIC
        LOCFRAME DOVERLAY, 0, STATIC
        ARGFRAME ISTACK, 0, STACK
        ARGFRAME PSTACK, 0, STACK
        ARGFRAME XSTACK, 41, STACK
        ARGFRAME IOVERLAY, 0, STATIC
        ARGFRAME DOVERLAY, 0, STATIC
        REQUIRE ?V0
        REQUIRE ?V1
        REQUIRE ?V2
        REQUIRE ?V3
        REQUIRE ?V4
        REQUIRE ?V5
        REQUIRE ?V6
        REQUIRE ?V7
        REQUIRE ?V8
        REQUIRE ?V9
        REQUIRE ?V10
        REQUIRE ?V11
        MOV       A,#-0x14
        LCALL     ?BANKED_ENTER_XDATA
          CFI DPH0 load(1, XDATA, add(CFA_XSP16, literal(-1)))
          CFI DPL0 load(1, XDATA, add(CFA_XSP16, literal(-2)))
          CFI ?BRET_EXT load(1, XDATA, add(CFA_XSP16, literal(-3)))
          CFI ?RET_HIGH load(1, XDATA, add(CFA_XSP16, literal(-4)))
          CFI ?RET_LOW load(1, XDATA, add(CFA_XSP16, literal(-5)))
          CFI R7 load(1, XDATA, add(CFA_XSP16, literal(-6)))
          CFI V11 load(1, XDATA, add(CFA_XSP16, literal(-7)))
          CFI V10 load(1, XDATA, add(CFA_XSP16, literal(-8)))
          CFI V9 load(1, XDATA, add(CFA_XSP16, literal(-9)))
          CFI V8 load(1, XDATA, add(CFA_XSP16, literal(-10)))
          CFI V7 load(1, XDATA, add(CFA_XSP16, literal(-11)))
          CFI V6 load(1, XDATA, add(CFA_XSP16, literal(-12)))
          CFI V5 load(1, XDATA, add(CFA_XSP16, literal(-13)))
          CFI V4 load(1, XDATA, add(CFA_XSP16, literal(-14)))
          CFI V3 load(1, XDATA, add(CFA_XSP16, literal(-15)))
          CFI V2 load(1, XDATA, add(CFA_XSP16, literal(-16)))
          CFI V1 load(1, XDATA, add(CFA_XSP16, literal(-17)))
          CFI V0 load(1, XDATA, add(CFA_XSP16, literal(-18)))
          CFI VB load(1, XDATA, add(CFA_XSP16, literal(-19)))
          CFI R6 load(1, XDATA, add(CFA_XSP16, literal(-20)))
          CFI CFA_SP SP+0
          CFI CFA_XSP16 add(XSP16, 20)
        ; Saved register size: 20
        ; Auto size: 21
        MOV       A,#-0x15
        LCALL     ?ALLOC_XSTACK8
          CFI CFA_XSP16 add(XSP16, 41)
        MOV       A,R1
        MOV       R6,A
        MOV       ?V10,R2
        MOV       ?V11,R3
        MOV       ?V6,R4
        MOV       ?V7,R5
//  419   uint8 matchFound;
//  420   endPointDesc_t *bdb_CurrEpDescriptor;
//  421   uint8 i, status;
//  422   zAddrType_t dstAddr;
//  423 #ifdef ZCL_GROUPS
//  424   afAddrType_t afDstAddr;
//  425 #endif  
//  426   
//  427   //Check all the endpoints active for F&B
//  428   while(bdb_CurrEpDescriptorList != NULL)
        MOV       DPTR,#bdb_CurrEpDescriptorList
        LCALL     ??Subroutine56_0 & 0xFFFF
??CrossCallReturnLabel_108:
        JNZ       $+5
        LJMP      ??bdb_checkMatchingEndpoints_0 & 0xFFFF
//  429   {
//  430     matchFound = FALSE;
??bdb_checkMatchingEndpoints_1:
        MOV       R7,#0x0
//  431 
//  432     bdb_CurrEpDescriptor = bdb_CurrEpDescriptorList->epDesc;
        LCALL     ?Subroutine11 & 0xFFFF
??CrossCallReturnLabel_12:
        MOV       ?V2,A
        INC       DPTR
        MOVX      A,@DPTR
        MOV       ?V3,A
//  433 
//  434 #ifdef ZCL_GROUPS
//  435     if ( bdbAttributes.bdbCommissioningGroupID != 0xFFFF )    
        MOV       DPTR,#bdbAttributes + 8
        MOVX      A,@DPTR
        CPL       A
        JNZ       ??bdb_checkMatchingEndpoints_2
        INC       DPTR
        MOVX      A,@DPTR
        CPL       A
??bdb_checkMatchingEndpoints_2:
        JZ        ??bdb_checkMatchingEndpoints_3
//  436     {
//  437       zcl_registerClusterOptionList(bdb_CurrEpDescriptor->endPoint,1,zcl_Groups_Options);      
        ; Setup parameters for call to function zcl_registerClusterOptionList
        MOV       R4,#zcl_Groups_Options & 0xff
        MOV       R5,#(zcl_Groups_Options >> 8) & 0xff
        MOV       R2,#0x1
        MOV       DPL,?V2
        MOV       DPH,?V3
        MOVX      A,@DPTR
        MOV       R1,A
        LCALL     `??zcl_registerClusterOptionList::?relay`; Banked call to: zcl_registerClusterOptionList
//  438       
//  439       dstAddr.addr.shortAddr = bdbAttributes.bdbCommissioningGroupID;
        MOV       DPTR,#bdbAttributes + 8
        LCALL     ?Subroutine12 & 0xFFFF
//  440       dstAddr.addrMode = AddrGroup;
??CrossCallReturnLabel_14:
        MOV       A,#0x8
        LCALL     ?XSTACK_DISP0_8
        MOV       A,#0x1
        MOVX      @DPTR,A
        SJMP      ??bdb_checkMatchingEndpoints_4
//  441     }
//  442     else
//  443 #endif
//  444     {
//  445       dstAddr.addrMode = Addr64Bit;
??bdb_checkMatchingEndpoints_3:
        MOV       A,#0x8
        LCALL     ?XSTACK_DISP0_8
        MOV       A,#0x3
        MOVX      @DPTR,A
//  446       if(bindIfMatch)
        MOV       A,R6
        JZ        ??bdb_checkMatchingEndpoints_4
//  447       {
//  448         //if bind is to be created, then we should have the ext address in addr mgr
//  449         AddrMgrExtAddrLookup( shortAddr, dstAddr.addr.extAddr );
        ; Setup parameters for call to function AddrMgrExtAddrLookup
        MOV       R4,?XSP + 0
        MOV       R5,?XSP + 1
        MOV       R2,?V10
        MOV       R3,?V11
        LCALL     `??AddrMgrExtAddrLookup::?relay`; Banked call to: AddrMgrExtAddrLookup
//  450       }
//  451     }
//  452     for(i = 0; i < bdb_CurrEpDescriptor->simpleDesc->AppNumOutClusters; i++)
??bdb_checkMatchingEndpoints_4:
        MOV       ?V0,#0x0
        MOV       A,?V2
        ADD       A,#0x4
        MOV       ?V4,A
        CLR       A
        ADDC      A,?V3
        MOV       ?V5,A
        SJMP      ??bdb_checkMatchingEndpoints_5
//  453     {
//  454       //Filter for Application clusters (to bind app clusters only)
//  455       status = bdb_zclFindingBindingAddBindEntry( bdb_CurrEpDescriptor->endPoint,
//  456                               bdb_CurrEpDescriptor->simpleDesc->pAppOutClusterList[i],
//  457                               bdb_FindingBindingTargetSimpleDesc.AppNumInClusters,
//  458                               bdb_FindingBindingTargetSimpleDesc.pAppInClusterList,
//  459                               &dstAddr, bdb_FindingBindingTargetSimpleDesc.EndPoint, bindIfMatch, TRUE );
??bdb_checkMatchingEndpoints_6:
        ; Setup parameters for call to function bdb_zclFindingBindingAddBindEntry
        MOV       ?V1,#0x1
        MOV       R0,#?V1
        LCALL     ?PUSH_XSTACK_I_ONE
          CFI CFA_XSP16 add(XSP16, 42)
        MOV       A,R6
        MOV       ?V1,A
        MOV       R0,#?V1
        LCALL     ?PUSH_XSTACK_I_ONE
          CFI CFA_XSP16 add(XSP16, 43)
        MOV       A,#0x2
        LCALL     ?XSTACK_DISP100_8
        MOV       ?V8,R0
        MOV       ?V9,R1
        MOV       R0,#?V8
        LCALL     ?PUSH_XSTACK_I_TWO
          CFI CFA_XSP16 add(XSP16, 45)
        MOV       DPTR,#bdb_FindingBindingTargetSimpleDesc + 7
        LCALL     ?PUSH_XSTACK8_X_TWO
          CFI CFA_XSP16 add(XSP16, 47)
        MOV       DPTR,#bdb_FindingBindingTargetSimpleDesc
        MOVX      A,@DPTR
        MOV       R5,A
        MOV       DPTR,#bdb_FindingBindingTargetSimpleDesc + 6
        LCALL     ?Subroutine17 & 0xFFFF
??CrossCallReturnLabel_20:
        INC       DPTR
        INC       DPTR
        INC       DPTR
        LCALL     ?Subroutine8 & 0xFFFF
??CrossCallReturnLabel_5:
        LCALL     ?DEALLOC_XSTACK8
          CFI CFA_XSP16 add(XSP16, 41)
        MOV       A,R1
        MOV       ?V1,A
//  460       
//  461       if ( status == ZApsTableFull )
        MOV       A,#-0x4e
        XRL       A,R1
        JNZ       $+5
        LJMP      ??bdb_checkMatchingEndpoints_7 & 0xFFFF
//  462       {
//  463         break;
//  464       }
//  465       else if(status == ZSuccess)
        MOV       A,R1
        JNZ       ??bdb_checkMatchingEndpoints_8
//  466       {
//  467         matchFound = TRUE;
        MOV       R7,#0x1
//  468         //If a match is found and we are not adding due to lack of IEEE addrs, then skip looking
//  469         if(!bindIfMatch)
        MOV       A,R6
        JNZ       $+5
        LJMP      ??bdb_checkMatchingEndpoints_9 & 0xFFFF
//  470         {
//  471           break;
//  472         }
//  473       }
//  474     }
??bdb_checkMatchingEndpoints_8:
        INC       ?V0
??bdb_checkMatchingEndpoints_5:
        LCALL     ?Subroutine15 & 0xFFFF
??CrossCallReturnLabel_18:
        INC       DPTR
        INC       DPTR
        INC       DPTR
        MOVX      A,@DPTR
        MOV       R0,A
        MOV       A,?V0
        CLR       C
        SUBB      A,R0
        JC        ??bdb_checkMatchingEndpoints_6
//  475     
//  476     //Only search for other matches if the table is not full and we have not 
//  477     //found any match or we have to add bind as many as we can
//  478     if( (status != ZApsTableFull) && (!matchFound || bindIfMatch) )      
        MOV       A,#-0x4e
        XRL       A,?V1
        JZ        ??bdb_checkMatchingEndpoints_7
        MOV       A,R7
        MOV       C,0xE0 /* A   */.0
        JNC       ??bdb_checkMatchingEndpoints_10
        MOV       A,R6
        JZ        ??bdb_checkMatchingEndpoints_7
//  479     {
//  480       for(i = 0; i < bdb_CurrEpDescriptor->simpleDesc->AppNumInClusters; i++)
??bdb_checkMatchingEndpoints_10:
        MOV       ?V0,#0x0
        SJMP      ??bdb_checkMatchingEndpoints_11
//  481       {
//  482         //Filter for Application clusters (to bind app clusters only)
//  483         status = bdb_zclFindingBindingAddBindEntry( bdb_CurrEpDescriptor->endPoint,
//  484                                 bdb_CurrEpDescriptor->simpleDesc->pAppInClusterList[i],
//  485                                 bdb_FindingBindingTargetSimpleDesc.AppNumOutClusters,
//  486                                 bdb_FindingBindingTargetSimpleDesc.pAppOutClusterList,
//  487                                 &dstAddr, bdb_FindingBindingTargetSimpleDesc.EndPoint, bindIfMatch, FALSE );
//  488 
//  489         if ( status == ZApsTableFull )
//  490         {
//  491           break;
//  492         }
//  493         else if(status == ZSuccess)
??bdb_checkMatchingEndpoints_12:
        MOV       A,R1
        JNZ       ??bdb_checkMatchingEndpoints_13
//  494         {
//  495           matchFound = TRUE;
        MOV       R7,#0x1
//  496           
//  497           //If a match is found and we are not adding due to lack of IEEE addrs, then skip looking
//  498           if(!bindIfMatch)
        MOV       A,R6
        JZ        ??bdb_checkMatchingEndpoints_9
//  499           {
//  500             break;
//  501           }
//  502         }
??bdb_checkMatchingEndpoints_13:
        INC       ?V0
??bdb_checkMatchingEndpoints_11:
        LCALL     ?Subroutine15 & 0xFFFF
??CrossCallReturnLabel_19:
        MOVX      A,@DPTR
        MOV       R0,A
        MOV       A,?V0
        CLR       C
        SUBB      A,R0
        JNC       ??bdb_checkMatchingEndpoints_7
        ; Setup parameters for call to function bdb_zclFindingBindingAddBindEntry
        MOV       ?V1,#0x0
        MOV       R0,#?V1
        LCALL     ?PUSH_XSTACK_I_ONE
          CFI CFA_XSP16 add(XSP16, 42)
        MOV       A,R6
        MOV       ?V1,A
        MOV       R0,#?V1
        LCALL     ?PUSH_XSTACK_I_ONE
          CFI CFA_XSP16 add(XSP16, 43)
        MOV       A,#0x2
        LCALL     ?XSTACK_DISP100_8
        MOV       ?V8,R0
        MOV       ?V9,R1
        MOV       R0,#?V8
        LCALL     ?PUSH_XSTACK_I_TWO
          CFI CFA_XSP16 add(XSP16, 45)
        MOV       DPTR,#bdb_FindingBindingTargetSimpleDesc + 10
        LCALL     ?PUSH_XSTACK8_X_TWO
          CFI CFA_XSP16 add(XSP16, 47)
        MOV       DPTR,#bdb_FindingBindingTargetSimpleDesc
        MOVX      A,@DPTR
        MOV       R5,A
        MOV       DPTR,#bdb_FindingBindingTargetSimpleDesc + 9
        LCALL     ?Subroutine17 & 0xFFFF
??CrossCallReturnLabel_21:
        LCALL     ?Subroutine8 & 0xFFFF
??CrossCallReturnLabel_6:
        LCALL     ?DEALLOC_XSTACK8
          CFI CFA_XSP16 add(XSP16, 41)
        MOV       A,R1
        MOV       ?V1,A
        MOV       A,#-0x4e
        XRL       A,R1
        JNZ       ??bdb_checkMatchingEndpoints_12
//  503       }
//  504     }
//  505     
//  506     //Check if we have found any match
//  507     if( matchFound == TRUE )
??bdb_checkMatchingEndpoints_7:
        MOV       A,R7
        MOV       C,0xE0 /* A   */.0
        JNC       ??bdb_checkMatchingEndpoints_14
//  508     {
//  509       if(bindIfMatch)
        MOV       A,R6
        JZ        ??bdb_checkMatchingEndpoints_9
//  510       {
//  511         //Mark respondent as complete as simple desc has been process and we do 
//  512         //have IEEE addrs
//  513         (*pCurr)->attempts = FINDING_AND_BINDING_RESPONDENT_COMPLETE;
        LCALL     ?Subroutine18 & 0xFFFF
//  514       }
??CrossCallReturnLabel_22:
        MOV       A,#-0x1
        SJMP      ??bdb_checkMatchingEndpoints_15
//  515       else
//  516       {
//  517         //Mark as we need IEEE addrs
//  518         (*pCurr)->attempts = FINDING_AND_BINDING_MISSING_IEEE_ADDR;
??bdb_checkMatchingEndpoints_9:
        LCALL     ?Subroutine18 & 0xFFFF
//  519       }
??CrossCallReturnLabel_23:
        MOV       A,#-0x80
??bdb_checkMatchingEndpoints_15:
        MOVX      @DPTR,A
//  520 
//  521 #ifdef ZCL_GROUPS
//  522       if ( bdbAttributes.bdbCommissioningGroupID != 0xFFFF )
        MOV       DPTR,#bdbAttributes + 8
        MOVX      A,@DPTR
        MOV       ?V4,A
        INC       DPTR
        MOVX      A,@DPTR
        MOV       ?V5,A
        MOV       A,#-0x1
        XRL       A,?V4
        JNZ       ??bdb_checkMatchingEndpoints_16
        MOV       A,#-0x1
        XRL       A,?V5
??bdb_checkMatchingEndpoints_16:
        JZ        ??CrossCallReturnLabel_17
//  523       {
//  524         afDstAddr.addr.shortAddr = shortAddr;
        MOV       A,#0x9
        LCALL     ?XSTACK_DISP0_8
        MOV       A,?V10
        MOVX      @DPTR,A
        INC       DPTR
        MOV       A,?V11
        MOVX      @DPTR,A
//  525         afDstAddr.addrMode = afAddr16Bit;
        MOV       A,#0x11
        LCALL     ?XSTACK_DISP0_8
        MOV       A,#0x2
        MOVX      @DPTR,A
//  526         afDstAddr.endPoint = bdb_FindingBindingTargetSimpleDesc.EndPoint;
        MOV       DPTR,#bdb_FindingBindingTargetSimpleDesc
        MOVX      A,@DPTR
        PUSH      A
          CFI CFA_SP SP+-1
        MOV       A,#0x12
        LCALL     ?XSTACK_DISP0_8
        POP       A
          CFI CFA_SP SP+0
        MOVX      @DPTR,A
//  527             
//  528         zclGeneral_SendAddGroupRequest( bdb_CurrEpDescriptor->endPoint, &afDstAddr,
//  529                                     COMMAND_GROUP_ADD, bdbAttributes.bdbCommissioningGroupID, grpName,
//  530                                     TRUE, 0x00 );
        ; Setup parameters for call to function zclGeneral_SendAddGroupRequest
        MOV       ?V0,#0x0
        MOV       R0,#?V0
        LCALL     ?PUSH_XSTACK_I_ONE
          CFI CFA_XSP16 add(XSP16, 42)
        MOV       ?V8,#grpName & 0xff
        MOV       ?V9,#(grpName >> 8) & 0xff
        MOV       R0,#?V8
        LCALL     ?PUSH_XSTACK_I_TWO
          CFI CFA_XSP16 add(XSP16, 44)
        MOV       R0,#?V4
        LCALL     ?PUSH_XSTACK_I_TWO
          CFI CFA_XSP16 add(XSP16, 46)
        MOV       R5,#0x1
        MOV       R4,#0x0
        MOV       A,#0xe
        LCALL     ?XSTACK_DISP101_8
        MOV       DPL,?V2
        MOV       DPH,?V3
        MOVX      A,@DPTR
        MOV       R1,A
        LCALL     `??zclGeneral_SendAddGroupRequest::?relay`; Banked call to: zclGeneral_SendAddGroupRequest
        MOV       A,#0x5
        LCALL     ?DEALLOC_XSTACK8
          CFI CFA_XSP16 add(XSP16, 41)
        SJMP      ??CrossCallReturnLabel_17
//  531       }
//  532 #endif
//  533     }
//  534     else
//  535     {
//  536       //No matching cluster, then we are done with this respondent
//  537       (*pCurr)->attempts = FINDING_AND_BINDING_RESPONDENT_COMPLETE;
??bdb_checkMatchingEndpoints_14:
        MOV       DPL,?V6
        MOV       DPH,?V7
        LCALL     ?Subroutine14 & 0xFFFF
//  538     }
//  539     
//  540     if ( status == ZApsTableFull )
??CrossCallReturnLabel_17:
        MOV       A,#-0x4e
        XRL       A,?V1
        JNZ       ??bdb_checkMatchingEndpoints_17
//  541     {
//  542       //If periodic was triggered, then finish it
//  543       if(FINDING_AND_BINDING_PERIODIC_ENABLE == TRUE)                                  
//  544       {
//  545         bdb_FB_InitiatorCurrentCyclesNumber = 0;
        LCALL     ?Subroutine7 & 0xFFFF
//  546         osal_stop_timerEx(bdb_TaskID, BDB_FINDING_AND_BINDING_PERIOD_TIMEOUT);
//  547       }      
//  548       
//  549       bdb_zclSimpleDescClusterListClean( &bdb_FindingBindingTargetSimpleDesc );
//  550       osal_stop_timerEx( bdb_TaskID, BDB_RESPONDENT_PROCESS_TIMEOUT );
//  551       bdb_exitFindingBindingWStatus( BDB_COMMISSIONING_FB_BINDING_TABLE_FULL );
//  552       
//  553       return;
??CrossCallReturnLabel_4:
        SJMP      ??bdb_checkMatchingEndpoints_0
//  554     }
//  555     
//  556     //If an specific endpoint was requested, then don't go trough the rest of 
//  557     //the endpoints
//  558     if( bdbIndentifyActiveEndpoint != 0xFF )
??bdb_checkMatchingEndpoints_17:
        MOV       DPTR,#bdbIndentifyActiveEndpoint
        MOVX      A,@DPTR
        CPL       A
        JNZ       ??bdb_checkMatchingEndpoints_0
//  559     {
//  560       break;
//  561     }
//  562     else
//  563     {
//  564       //If active endpoints 'all' is attempted, then process the next endpoint in 
//  565       //the list
//  566       bdb_CurrEpDescriptorList = bdb_CurrEpDescriptorList->nextDesc;
        SJMP      ??bdb_checkMatchingEndpoints_18
//  567 
//  568       while(bdb_CurrEpDescriptorList != NULL)
//  569       {
//  570         //It has to be different from 0 or reserved for Zigbee
//  571         if((bdb_CurrEpDescriptorList->epDesc->endPoint != 0) && (bdb_CurrEpDescriptorList->epDesc->endPoint < BDB_ZIGBEE_RESERVED_ENDPOINTS_START))
??bdb_checkMatchingEndpoints_19:
        LCALL     ?Subroutine13 & 0xFFFF
??CrossCallReturnLabel_44:
        JZ        ??bdb_checkMatchingEndpoints_18
        CLR       C
        SUBB      A,#-0xf
        JNC       $+5
        LJMP      ??bdb_checkMatchingEndpoints_1 & 0xFFFF
//  572         {
//  573           break;
//  574         }
//  575         bdb_CurrEpDescriptorList = bdb_CurrEpDescriptorList->nextDesc;
??bdb_checkMatchingEndpoints_18:
        LCALL     ?Subroutine5 & 0xFFFF
//  576       }
??CrossCallReturnLabel_2:
        MOV       DPTR,#bdb_CurrEpDescriptorList
        LCALL     ??Subroutine56_0 & 0xFFFF
//  577     }
//  578   }
??CrossCallReturnLabel_109:
        JNZ       ??bdb_checkMatchingEndpoints_19
//  579 }
??bdb_checkMatchingEndpoints_0:
        MOV       A,#0x15
        LCALL     ?DEALLOC_XSTACK8
          CFI EndBlock cfiBlock46
        REQUIRE ?Subroutine2
        ; // Fall through to label ?Subroutine2

        RSEG BANKED_CODE:HUGECODE:NOROOT(0)
?Subroutine2:
          CFI Block cfiBlock47 Using cfiCommon0
          CFI NoFunction
          CFI CFA_SP SP+0
          CFI CFA_XSP16 add(XSP16, 20)
          CFI VB load(1, XDATA, add(CFA_XSP16, literal(-19)))
          CFI DPL0 load(1, XDATA, add(CFA_XSP16, literal(-2)))
          CFI DPH0 load(1, XDATA, add(CFA_XSP16, literal(-1)))
          CFI R6 load(1, XDATA, add(CFA_XSP16, literal(-20)))
          CFI R7 load(1, XDATA, add(CFA_XSP16, literal(-6)))
          CFI V0 load(1, XDATA, add(CFA_XSP16, literal(-18)))
          CFI V1 load(1, XDATA, add(CFA_XSP16, literal(-17)))
          CFI V2 load(1, XDATA, add(CFA_XSP16, literal(-16)))
          CFI V3 load(1, XDATA, add(CFA_XSP16, literal(-15)))
          CFI V4 load(1, XDATA, add(CFA_XSP16, literal(-14)))
          CFI V5 load(1, XDATA, add(CFA_XSP16, literal(-13)))
          CFI V6 load(1, XDATA, add(CFA_XSP16, literal(-12)))
          CFI V7 load(1, XDATA, add(CFA_XSP16, literal(-11)))
          CFI V8 load(1, XDATA, add(CFA_XSP16, literal(-10)))
          CFI V9 load(1, XDATA, add(CFA_XSP16, literal(-9)))
          CFI V10 load(1, XDATA, add(CFA_XSP16, literal(-8)))
          CFI V11 load(1, XDATA, add(CFA_XSP16, literal(-7)))
          CFI ?BRET_EXT load(1, XDATA, add(CFA_XSP16, literal(-3)))
          CFI ?RET_HIGH load(1, XDATA, add(CFA_XSP16, literal(-4)))
          CFI ?RET_LOW load(1, XDATA, add(CFA_XSP16, literal(-5)))
        MOV       R7,#0xc
        LJMP      ?BANKED_LEAVE_XDATA
          CFI EndBlock cfiBlock47

        RSEG BANKED_CODE:HUGECODE:NOROOT(0)
?Subroutine18:
          CFI Block cfiCond48 Using cfiCommon0
          CFI Function bdb_checkMatchingEndpoints
          CFI Conditional ??CrossCallReturnLabel_22
          CFI R6 load(1, XDATA, add(CFA_XSP16, literal(-20)))
          CFI VB load(1, XDATA, add(CFA_XSP16, literal(-19)))
          CFI V0 load(1, XDATA, add(CFA_XSP16, literal(-18)))
          CFI V1 load(1, XDATA, add(CFA_XSP16, literal(-17)))
          CFI V2 load(1, XDATA, add(CFA_XSP16, literal(-16)))
          CFI V3 load(1, XDATA, add(CFA_XSP16, literal(-15)))
          CFI V4 load(1, XDATA, add(CFA_XSP16, literal(-14)))
          CFI V5 load(1, XDATA, add(CFA_XSP16, literal(-13)))
          CFI V6 load(1, XDATA, add(CFA_XSP16, literal(-12)))
          CFI V7 load(1, XDATA, add(CFA_XSP16, literal(-11)))
          CFI V8 load(1, XDATA, add(CFA_XSP16, literal(-10)))
          CFI V9 load(1, XDATA, add(CFA_XSP16, literal(-9)))
          CFI V10 load(1, XDATA, add(CFA_XSP16, literal(-8)))
          CFI V11 load(1, XDATA, add(CFA_XSP16, literal(-7)))
          CFI R7 load(1, XDATA, add(CFA_XSP16, literal(-6)))
          CFI ?RET_LOW load(1, XDATA, add(CFA_XSP16, literal(-5)))
          CFI ?RET_HIGH load(1, XDATA, add(CFA_XSP16, literal(-4)))
          CFI ?BRET_EXT load(1, XDATA, add(CFA_XSP16, literal(-3)))
          CFI DPL0 load(1, XDATA, add(CFA_XSP16, literal(-2)))
          CFI DPH0 load(1, XDATA, add(CFA_XSP16, literal(-1)))
          CFI CFA_SP SP+-2
          CFI CFA_XSP16 add(XSP16, 41)
          CFI Block cfiCond49 Using cfiCommon0
          CFI (cfiCond49) Function bdb_checkMatchingEndpoints
          CFI (cfiCond49) Conditional ??CrossCallReturnLabel_23
          CFI (cfiCond49) R6 load(1, XDATA, add(CFA_XSP16, literal(-20)))
          CFI (cfiCond49) VB load(1, XDATA, add(CFA_XSP16, literal(-19)))
          CFI (cfiCond49) V0 load(1, XDATA, add(CFA_XSP16, literal(-18)))
          CFI (cfiCond49) V1 load(1, XDATA, add(CFA_XSP16, literal(-17)))
          CFI (cfiCond49) V2 load(1, XDATA, add(CFA_XSP16, literal(-16)))
          CFI (cfiCond49) V3 load(1, XDATA, add(CFA_XSP16, literal(-15)))
          CFI (cfiCond49) V4 load(1, XDATA, add(CFA_XSP16, literal(-14)))
          CFI (cfiCond49) V5 load(1, XDATA, add(CFA_XSP16, literal(-13)))
          CFI (cfiCond49) V6 load(1, XDATA, add(CFA_XSP16, literal(-12)))
          CFI (cfiCond49) V7 load(1, XDATA, add(CFA_XSP16, literal(-11)))
          CFI (cfiCond49) V8 load(1, XDATA, add(CFA_XSP16, literal(-10)))
          CFI (cfiCond49) V9 load(1, XDATA, add(CFA_XSP16, literal(-9)))
          CFI (cfiCond49) V10 load(1, XDATA, add(CFA_XSP16, literal(-8)))
          CFI (cfiCond49) V11 load(1, XDATA, add(CFA_XSP16, literal(-7)))
          CFI (cfiCond49) R7 load(1, XDATA, add(CFA_XSP16, literal(-6)))
          CFI (cfiCond49) ?RET_LOW load(1, XDATA, add(CFA_XSP16, literal(-5)))
          CFI (cfiCond49) ?RET_HIGH load(1, XDATA, add(CFA_XSP16, literal(-4)))
          CFI (cfiCond49) ?BRET_EXT load(1, XDATA, add(CFA_XSP16, literal(-3)))
          CFI (cfiCond49) DPL0 load(1, XDATA, add(CFA_XSP16, literal(-2)))
          CFI (cfiCond49) DPH0 load(1, XDATA, add(CFA_XSP16, literal(-1)))
          CFI (cfiCond49) CFA_SP SP+-2
          CFI (cfiCond49) CFA_XSP16 add(XSP16, 41)
          CFI Block cfiPicker50 Using cfiCommon1
          CFI (cfiPicker50) NoFunction
          CFI (cfiPicker50) Picker
        MOV       DPL,?V6
        MOV       DPH,?V7
        LCALL     ?Subroutine28 & 0xFFFF
??CrossCallReturnLabel_102:
        RET
          CFI EndBlock cfiCond48
          CFI EndBlock cfiCond49
          CFI EndBlock cfiPicker50

        RSEG BANKED_CODE:HUGECODE:NOROOT(0)
?Subroutine28:
          CFI Block cfiCond51 Using cfiCommon0
          CFI Function bdb_checkMatchingEndpoints
          CFI Conditional ??CrossCallReturnLabel_102, ??CrossCallReturnLabel_22
          CFI R6 load(1, XDATA, add(CFA_XSP16, literal(-20)))
          CFI VB load(1, XDATA, add(CFA_XSP16, literal(-19)))
          CFI V0 load(1, XDATA, add(CFA_XSP16, literal(-18)))
          CFI V1 load(1, XDATA, add(CFA_XSP16, literal(-17)))
          CFI V2 load(1, XDATA, add(CFA_XSP16, literal(-16)))
          CFI V3 load(1, XDATA, add(CFA_XSP16, literal(-15)))
          CFI V4 load(1, XDATA, add(CFA_XSP16, literal(-14)))
          CFI V5 load(1, XDATA, add(CFA_XSP16, literal(-13)))
          CFI V6 load(1, XDATA, add(CFA_XSP16, literal(-12)))
          CFI V7 load(1, XDATA, add(CFA_XSP16, literal(-11)))
          CFI V8 load(1, XDATA, add(CFA_XSP16, literal(-10)))
          CFI V9 load(1, XDATA, add(CFA_XSP16, literal(-9)))
          CFI V10 load(1, XDATA, add(CFA_XSP16, literal(-8)))
          CFI V11 load(1, XDATA, add(CFA_XSP16, literal(-7)))
          CFI R7 load(1, XDATA, add(CFA_XSP16, literal(-6)))
          CFI ?RET_LOW load(1, XDATA, add(CFA_XSP16, literal(-5)))
          CFI ?RET_HIGH load(1, XDATA, add(CFA_XSP16, literal(-4)))
          CFI ?BRET_EXT load(1, XDATA, add(CFA_XSP16, literal(-3)))
          CFI DPL0 load(1, XDATA, add(CFA_XSP16, literal(-2)))
          CFI DPH0 load(1, XDATA, add(CFA_XSP16, literal(-1)))
          CFI CFA_SP SP+-4
          CFI CFA_XSP16 add(XSP16, 41)
          CFI Block cfiCond52 Using cfiCommon0
          CFI (cfiCond52) Function bdb_checkMatchingEndpoints
          CFI (cfiCond52) Conditional ??CrossCallReturnLabel_102, ??CrossCallReturnLabel_23
          CFI (cfiCond52) R6 load(1, XDATA, add(CFA_XSP16, literal(-20)))
          CFI (cfiCond52) VB load(1, XDATA, add(CFA_XSP16, literal(-19)))
          CFI (cfiCond52) V0 load(1, XDATA, add(CFA_XSP16, literal(-18)))
          CFI (cfiCond52) V1 load(1, XDATA, add(CFA_XSP16, literal(-17)))
          CFI (cfiCond52) V2 load(1, XDATA, add(CFA_XSP16, literal(-16)))
          CFI (cfiCond52) V3 load(1, XDATA, add(CFA_XSP16, literal(-15)))
          CFI (cfiCond52) V4 load(1, XDATA, add(CFA_XSP16, literal(-14)))
          CFI (cfiCond52) V5 load(1, XDATA, add(CFA_XSP16, literal(-13)))
          CFI (cfiCond52) V6 load(1, XDATA, add(CFA_XSP16, literal(-12)))
          CFI (cfiCond52) V7 load(1, XDATA, add(CFA_XSP16, literal(-11)))
          CFI (cfiCond52) V8 load(1, XDATA, add(CFA_XSP16, literal(-10)))
          CFI (cfiCond52) V9 load(1, XDATA, add(CFA_XSP16, literal(-9)))
          CFI (cfiCond52) V10 load(1, XDATA, add(CFA_XSP16, literal(-8)))
          CFI (cfiCond52) V11 load(1, XDATA, add(CFA_XSP16, literal(-7)))
          CFI (cfiCond52) R7 load(1, XDATA, add(CFA_XSP16, literal(-6)))
          CFI (cfiCond52) ?RET_LOW load(1, XDATA, add(CFA_XSP16, literal(-5)))
          CFI (cfiCond52) ?RET_HIGH load(1, XDATA, add(CFA_XSP16, literal(-4)))
          CFI (cfiCond52) ?BRET_EXT load(1, XDATA, add(CFA_XSP16, literal(-3)))
          CFI (cfiCond52) DPL0 load(1, XDATA, add(CFA_XSP16, literal(-2)))
          CFI (cfiCond52) DPH0 load(1, XDATA, add(CFA_XSP16, literal(-1)))
          CFI (cfiCond52) CFA_SP SP+-4
          CFI (cfiCond52) CFA_XSP16 add(XSP16, 41)
          CFI Block cfiCond53 Using cfiCommon0
          CFI (cfiCond53) Function bdb_ProcessIEEEAddrRsp
          CFI (cfiCond53) Conditional ??CrossCallReturnLabel_101, ??CrossCallReturnLabel_16
          CFI (cfiCond53) R6 load(1, XDATA, add(CFA_XSP16, literal(-10)))
          CFI (cfiCond53) VB load(1, XDATA, add(CFA_XSP16, literal(-9)))
          CFI (cfiCond53) V0 load(1, XDATA, add(CFA_XSP16, literal(-8)))
          CFI (cfiCond53) V1 load(1, XDATA, add(CFA_XSP16, literal(-7)))
          CFI (cfiCond53) R7 load(1, XDATA, add(CFA_XSP16, literal(-6)))
          CFI (cfiCond53) ?RET_LOW load(1, XDATA, add(CFA_XSP16, literal(-5)))
          CFI (cfiCond53) ?RET_HIGH load(1, XDATA, add(CFA_XSP16, literal(-4)))
          CFI (cfiCond53) ?BRET_EXT load(1, XDATA, add(CFA_XSP16, literal(-3)))
          CFI (cfiCond53) DPL0 load(1, XDATA, add(CFA_XSP16, literal(-2)))
          CFI (cfiCond53) DPH0 load(1, XDATA, add(CFA_XSP16, literal(-1)))
          CFI (cfiCond53) CFA_SP SP+-4
          CFI (cfiCond53) CFA_XSP16 add(XSP16, 25)
          CFI Block cfiCond54 Using cfiCommon0
          CFI (cfiCond54) Function bdb_checkMatchingEndpoints
          CFI (cfiCond54) Conditional ??CrossCallReturnLabel_101, ??CrossCallReturnLabel_17
          CFI (cfiCond54) R6 load(1, XDATA, add(CFA_XSP16, literal(-20)))
          CFI (cfiCond54) VB load(1, XDATA, add(CFA_XSP16, literal(-19)))
          CFI (cfiCond54) V0 load(1, XDATA, add(CFA_XSP16, literal(-18)))
          CFI (cfiCond54) V1 load(1, XDATA, add(CFA_XSP16, literal(-17)))
          CFI (cfiCond54) V2 load(1, XDATA, add(CFA_XSP16, literal(-16)))
          CFI (cfiCond54) V3 load(1, XDATA, add(CFA_XSP16, literal(-15)))
          CFI (cfiCond54) V4 load(1, XDATA, add(CFA_XSP16, literal(-14)))
          CFI (cfiCond54) V5 load(1, XDATA, add(CFA_XSP16, literal(-13)))
          CFI (cfiCond54) V6 load(1, XDATA, add(CFA_XSP16, literal(-12)))
          CFI (cfiCond54) V7 load(1, XDATA, add(CFA_XSP16, literal(-11)))
          CFI (cfiCond54) V8 load(1, XDATA, add(CFA_XSP16, literal(-10)))
          CFI (cfiCond54) V9 load(1, XDATA, add(CFA_XSP16, literal(-9)))
          CFI (cfiCond54) V10 load(1, XDATA, add(CFA_XSP16, literal(-8)))
          CFI (cfiCond54) V11 load(1, XDATA, add(CFA_XSP16, literal(-7)))
          CFI (cfiCond54) R7 load(1, XDATA, add(CFA_XSP16, literal(-6)))
          CFI (cfiCond54) ?RET_LOW load(1, XDATA, add(CFA_XSP16, literal(-5)))
          CFI (cfiCond54) ?RET_HIGH load(1, XDATA, add(CFA_XSP16, literal(-4)))
          CFI (cfiCond54) ?BRET_EXT load(1, XDATA, add(CFA_XSP16, literal(-3)))
          CFI (cfiCond54) DPL0 load(1, XDATA, add(CFA_XSP16, literal(-2)))
          CFI (cfiCond54) DPH0 load(1, XDATA, add(CFA_XSP16, literal(-1)))
          CFI (cfiCond54) CFA_SP SP+-4
          CFI (cfiCond54) CFA_XSP16 add(XSP16, 41)
          CFI Block cfiCond55 Using cfiCommon0
          CFI (cfiCond55) Function bdb_ProcessRespondentList
          CFI (cfiCond55) Conditional ??CrossCallReturnLabel_103, ??CrossCallReturnLabel_97
          CFI (cfiCond55) R6 load(1, XDATA, add(CFA_XSP16, literal(-9)))
          CFI (cfiCond55) VB load(1, XDATA, add(CFA_XSP16, literal(-8)))
          CFI (cfiCond55) V0 load(1, XDATA, add(CFA_XSP16, literal(-7)))
          CFI (cfiCond55) R7 load(1, XDATA, add(CFA_XSP16, literal(-6)))
          CFI (cfiCond55) ?RET_LOW load(1, XDATA, add(CFA_XSP16, literal(-5)))
          CFI (cfiCond55) ?RET_HIGH load(1, XDATA, add(CFA_XSP16, literal(-4)))
          CFI (cfiCond55) ?BRET_EXT load(1, XDATA, add(CFA_XSP16, literal(-3)))
          CFI (cfiCond55) DPL0 load(1, XDATA, add(CFA_XSP16, literal(-2)))
          CFI (cfiCond55) DPH0 load(1, XDATA, add(CFA_XSP16, literal(-1)))
          CFI (cfiCond55) CFA_SP SP+-4
          CFI (cfiCond55) CFA_XSP16 add(XSP16, 18)
          CFI Block cfiCond56 Using cfiCommon0
          CFI (cfiCond56) Function bdb_ProcessRespondentList
          CFI (cfiCond56) Conditional ??CrossCallReturnLabel_103, ??CrossCallReturnLabel_98
          CFI (cfiCond56) R6 load(1, XDATA, add(CFA_XSP16, literal(-9)))
          CFI (cfiCond56) VB load(1, XDATA, add(CFA_XSP16, literal(-8)))
          CFI (cfiCond56) V0 load(1, XDATA, add(CFA_XSP16, literal(-7)))
          CFI (cfiCond56) R7 load(1, XDATA, add(CFA_XSP16, literal(-6)))
          CFI (cfiCond56) ?RET_LOW load(1, XDATA, add(CFA_XSP16, literal(-5)))
          CFI (cfiCond56) ?RET_HIGH load(1, XDATA, add(CFA_XSP16, literal(-4)))
          CFI (cfiCond56) ?BRET_EXT load(1, XDATA, add(CFA_XSP16, literal(-3)))
          CFI (cfiCond56) DPL0 load(1, XDATA, add(CFA_XSP16, literal(-2)))
          CFI (cfiCond56) DPH0 load(1, XDATA, add(CFA_XSP16, literal(-1)))
          CFI (cfiCond56) CFA_SP SP+-4
          CFI (cfiCond56) CFA_XSP16 add(XSP16, 18)
          CFI Block cfiCond57 Using cfiCommon0
          CFI (cfiCond57) Function bdb_ProcessSimpleDesc
          CFI (cfiCond57) Conditional ??CrossCallReturnLabel_103, ??CrossCallReturnLabel_99
          CFI (cfiCond57) R6 load(1, XDATA, add(CFA_XSP16, literal(-9)))
          CFI (cfiCond57) VB load(1, XDATA, add(CFA_XSP16, literal(-8)))
          CFI (cfiCond57) V0 load(1, XDATA, add(CFA_XSP16, literal(-7)))
          CFI (cfiCond57) R7 load(1, XDATA, add(CFA_XSP16, literal(-6)))
          CFI (cfiCond57) ?RET_LOW load(1, XDATA, add(CFA_XSP16, literal(-5)))
          CFI (cfiCond57) ?RET_HIGH load(1, XDATA, add(CFA_XSP16, literal(-4)))
          CFI (cfiCond57) ?BRET_EXT load(1, XDATA, add(CFA_XSP16, literal(-3)))
          CFI (cfiCond57) DPL0 load(1, XDATA, add(CFA_XSP16, literal(-2)))
          CFI (cfiCond57) DPH0 load(1, XDATA, add(CFA_XSP16, literal(-1)))
          CFI (cfiCond57) CFA_SP SP+-4
          CFI (cfiCond57) CFA_XSP16 add(XSP16, 28)
          CFI Block cfiCond58 Using cfiCommon0
          CFI (cfiCond58) Function bdb_ProcessRespondentList
          CFI (cfiCond58) Conditional ??CrossCallReturnLabel_103, ??CrossCallReturnLabel_100
          CFI (cfiCond58) R6 load(1, XDATA, add(CFA_XSP16, literal(-9)))
          CFI (cfiCond58) VB load(1, XDATA, add(CFA_XSP16, literal(-8)))
          CFI (cfiCond58) V0 load(1, XDATA, add(CFA_XSP16, literal(-7)))
          CFI (cfiCond58) R7 load(1, XDATA, add(CFA_XSP16, literal(-6)))
          CFI (cfiCond58) ?RET_LOW load(1, XDATA, add(CFA_XSP16, literal(-5)))
          CFI (cfiCond58) ?RET_HIGH load(1, XDATA, add(CFA_XSP16, literal(-4)))
          CFI (cfiCond58) ?BRET_EXT load(1, XDATA, add(CFA_XSP16, literal(-3)))
          CFI (cfiCond58) DPL0 load(1, XDATA, add(CFA_XSP16, literal(-2)))
          CFI (cfiCond58) DPH0 load(1, XDATA, add(CFA_XSP16, literal(-1)))
          CFI (cfiCond58) CFA_SP SP+-4
          CFI (cfiCond58) CFA_XSP16 add(XSP16, 18)
          CFI Block cfiPicker59 Using cfiCommon1
          CFI (cfiPicker59) NoFunction
          CFI (cfiPicker59) Picker
        LCALL     ?Subroutine38 & 0xFFFF
??CrossCallReturnLabel_123:
        XCH       A,R0
        ADD       A,#0xc
        MOV       DPL,A
        CLR       A
        ADDC      A,R0
        MOV       DPH,A
        RET
          CFI EndBlock cfiCond51
          CFI EndBlock cfiCond52
          CFI EndBlock cfiCond53
          CFI EndBlock cfiCond54
          CFI EndBlock cfiCond55
          CFI EndBlock cfiCond56
          CFI EndBlock cfiCond57
          CFI EndBlock cfiCond58
          CFI EndBlock cfiPicker59

        RSEG BANKED_CODE:HUGECODE:NOROOT(0)
?Subroutine17:
          CFI Block cfiCond60 Using cfiCommon0
          CFI Function bdb_checkMatchingEndpoints
          CFI Conditional ??CrossCallReturnLabel_20
          CFI R6 load(1, XDATA, add(CFA_XSP16, literal(-20)))
          CFI VB load(1, XDATA, add(CFA_XSP16, literal(-19)))
          CFI V0 load(1, XDATA, add(CFA_XSP16, literal(-18)))
          CFI V1 load(1, XDATA, add(CFA_XSP16, literal(-17)))
          CFI V2 load(1, XDATA, add(CFA_XSP16, literal(-16)))
          CFI V3 load(1, XDATA, add(CFA_XSP16, literal(-15)))
          CFI V4 load(1, XDATA, add(CFA_XSP16, literal(-14)))
          CFI V5 load(1, XDATA, add(CFA_XSP16, literal(-13)))
          CFI V6 load(1, XDATA, add(CFA_XSP16, literal(-12)))
          CFI V7 load(1, XDATA, add(CFA_XSP16, literal(-11)))
          CFI V8 load(1, XDATA, add(CFA_XSP16, literal(-10)))
          CFI V9 load(1, XDATA, add(CFA_XSP16, literal(-9)))
          CFI V10 load(1, XDATA, add(CFA_XSP16, literal(-8)))
          CFI V11 load(1, XDATA, add(CFA_XSP16, literal(-7)))
          CFI R7 load(1, XDATA, add(CFA_XSP16, literal(-6)))
          CFI ?RET_LOW load(1, XDATA, add(CFA_XSP16, literal(-5)))
          CFI ?RET_HIGH load(1, XDATA, add(CFA_XSP16, literal(-4)))
          CFI ?BRET_EXT load(1, XDATA, add(CFA_XSP16, literal(-3)))
          CFI DPL0 load(1, XDATA, add(CFA_XSP16, literal(-2)))
          CFI DPH0 load(1, XDATA, add(CFA_XSP16, literal(-1)))
          CFI CFA_SP SP+-2
          CFI CFA_XSP16 add(XSP16, 47)
          CFI Block cfiCond61 Using cfiCommon0
          CFI (cfiCond61) Function bdb_checkMatchingEndpoints
          CFI (cfiCond61) Conditional ??CrossCallReturnLabel_21
          CFI (cfiCond61) R6 load(1, XDATA, add(CFA_XSP16, literal(-20)))
          CFI (cfiCond61) VB load(1, XDATA, add(CFA_XSP16, literal(-19)))
          CFI (cfiCond61) V0 load(1, XDATA, add(CFA_XSP16, literal(-18)))
          CFI (cfiCond61) V1 load(1, XDATA, add(CFA_XSP16, literal(-17)))
          CFI (cfiCond61) V2 load(1, XDATA, add(CFA_XSP16, literal(-16)))
          CFI (cfiCond61) V3 load(1, XDATA, add(CFA_XSP16, literal(-15)))
          CFI (cfiCond61) V4 load(1, XDATA, add(CFA_XSP16, literal(-14)))
          CFI (cfiCond61) V5 load(1, XDATA, add(CFA_XSP16, literal(-13)))
          CFI (cfiCond61) V6 load(1, XDATA, add(CFA_XSP16, literal(-12)))
          CFI (cfiCond61) V7 load(1, XDATA, add(CFA_XSP16, literal(-11)))
          CFI (cfiCond61) V8 load(1, XDATA, add(CFA_XSP16, literal(-10)))
          CFI (cfiCond61) V9 load(1, XDATA, add(CFA_XSP16, literal(-9)))
          CFI (cfiCond61) V10 load(1, XDATA, add(CFA_XSP16, literal(-8)))
          CFI (cfiCond61) V11 load(1, XDATA, add(CFA_XSP16, literal(-7)))
          CFI (cfiCond61) R7 load(1, XDATA, add(CFA_XSP16, literal(-6)))
          CFI (cfiCond61) ?RET_LOW load(1, XDATA, add(CFA_XSP16, literal(-5)))
          CFI (cfiCond61) ?RET_HIGH load(1, XDATA, add(CFA_XSP16, literal(-4)))
          CFI (cfiCond61) ?BRET_EXT load(1, XDATA, add(CFA_XSP16, literal(-3)))
          CFI (cfiCond61) DPL0 load(1, XDATA, add(CFA_XSP16, literal(-2)))
          CFI (cfiCond61) DPH0 load(1, XDATA, add(CFA_XSP16, literal(-1)))
          CFI (cfiCond61) CFA_SP SP+-2
          CFI (cfiCond61) CFA_XSP16 add(XSP16, 47)
          CFI Block cfiPicker62 Using cfiCommon1
          CFI (cfiPicker62) NoFunction
          CFI (cfiPicker62) Picker
        MOVX      A,@DPTR
        MOV       R4,A
        MOV       R0,?V0
        MOV       A,R0
        ADD       A,R0
        MOV       R0,A
        CLR       A
        RLC       A
        MOV       R1,A
        MOV       DPL,R2
        MOV       DPH,R3
        RET
          CFI EndBlock cfiCond60
          CFI EndBlock cfiCond61
          CFI EndBlock cfiPicker62

        RSEG BANKED_CODE:HUGECODE:NOROOT(0)
?Subroutine15:
          CFI Block cfiCond63 Using cfiCommon0
          CFI Function bdb_checkMatchingEndpoints
          CFI Conditional ??CrossCallReturnLabel_18
          CFI R6 load(1, XDATA, add(CFA_XSP16, literal(-20)))
          CFI VB load(1, XDATA, add(CFA_XSP16, literal(-19)))
          CFI V0 load(1, XDATA, add(CFA_XSP16, literal(-18)))
          CFI V1 load(1, XDATA, add(CFA_XSP16, literal(-17)))
          CFI V2 load(1, XDATA, add(CFA_XSP16, literal(-16)))
          CFI V3 load(1, XDATA, add(CFA_XSP16, literal(-15)))
          CFI V4 load(1, XDATA, add(CFA_XSP16, literal(-14)))
          CFI V5 load(1, XDATA, add(CFA_XSP16, literal(-13)))
          CFI V6 load(1, XDATA, add(CFA_XSP16, literal(-12)))
          CFI V7 load(1, XDATA, add(CFA_XSP16, literal(-11)))
          CFI V8 load(1, XDATA, add(CFA_XSP16, literal(-10)))
          CFI V9 load(1, XDATA, add(CFA_XSP16, literal(-9)))
          CFI V10 load(1, XDATA, add(CFA_XSP16, literal(-8)))
          CFI V11 load(1, XDATA, add(CFA_XSP16, literal(-7)))
          CFI R7 load(1, XDATA, add(CFA_XSP16, literal(-6)))
          CFI ?RET_LOW load(1, XDATA, add(CFA_XSP16, literal(-5)))
          CFI ?RET_HIGH load(1, XDATA, add(CFA_XSP16, literal(-4)))
          CFI ?BRET_EXT load(1, XDATA, add(CFA_XSP16, literal(-3)))
          CFI DPL0 load(1, XDATA, add(CFA_XSP16, literal(-2)))
          CFI DPH0 load(1, XDATA, add(CFA_XSP16, literal(-1)))
          CFI CFA_SP SP+-2
          CFI CFA_XSP16 add(XSP16, 41)
          CFI Block cfiCond64 Using cfiCommon0
          CFI (cfiCond64) Function bdb_checkMatchingEndpoints
          CFI (cfiCond64) Conditional ??CrossCallReturnLabel_19
          CFI (cfiCond64) R6 load(1, XDATA, add(CFA_XSP16, literal(-20)))
          CFI (cfiCond64) VB load(1, XDATA, add(CFA_XSP16, literal(-19)))
          CFI (cfiCond64) V0 load(1, XDATA, add(CFA_XSP16, literal(-18)))
          CFI (cfiCond64) V1 load(1, XDATA, add(CFA_XSP16, literal(-17)))
          CFI (cfiCond64) V2 load(1, XDATA, add(CFA_XSP16, literal(-16)))
          CFI (cfiCond64) V3 load(1, XDATA, add(CFA_XSP16, literal(-15)))
          CFI (cfiCond64) V4 load(1, XDATA, add(CFA_XSP16, literal(-14)))
          CFI (cfiCond64) V5 load(1, XDATA, add(CFA_XSP16, literal(-13)))
          CFI (cfiCond64) V6 load(1, XDATA, add(CFA_XSP16, literal(-12)))
          CFI (cfiCond64) V7 load(1, XDATA, add(CFA_XSP16, literal(-11)))
          CFI (cfiCond64) V8 load(1, XDATA, add(CFA_XSP16, literal(-10)))
          CFI (cfiCond64) V9 load(1, XDATA, add(CFA_XSP16, literal(-9)))
          CFI (cfiCond64) V10 load(1, XDATA, add(CFA_XSP16, literal(-8)))
          CFI (cfiCond64) V11 load(1, XDATA, add(CFA_XSP16, literal(-7)))
          CFI (cfiCond64) R7 load(1, XDATA, add(CFA_XSP16, literal(-6)))
          CFI (cfiCond64) ?RET_LOW load(1, XDATA, add(CFA_XSP16, literal(-5)))
          CFI (cfiCond64) ?RET_HIGH load(1, XDATA, add(CFA_XSP16, literal(-4)))
          CFI (cfiCond64) ?BRET_EXT load(1, XDATA, add(CFA_XSP16, literal(-3)))
          CFI (cfiCond64) DPL0 load(1, XDATA, add(CFA_XSP16, literal(-2)))
          CFI (cfiCond64) DPH0 load(1, XDATA, add(CFA_XSP16, literal(-1)))
          CFI (cfiCond64) CFA_SP SP+-2
          CFI (cfiCond64) CFA_XSP16 add(XSP16, 41)
          CFI Block cfiPicker65 Using cfiCommon1
          CFI (cfiPicker65) NoFunction
          CFI (cfiPicker65) Picker
        MOV       DPL,?V4
        MOV       DPH,?V5
        LCALL     ?Subroutine33 & 0xFFFF
??CrossCallReturnLabel_78:
        MOV       DPL,R2
        MOV       DPH,A
        INC       DPTR
        INC       DPTR
        INC       DPTR
        INC       DPTR
        INC       DPTR
        INC       DPTR
        RET
          CFI EndBlock cfiCond63
          CFI EndBlock cfiCond64
          CFI EndBlock cfiPicker65

        RSEG BANKED_CODE:HUGECODE:NOROOT(0)
?Subroutine14:
          CFI Block cfiCond66 Using cfiCommon0
          CFI Function bdb_ProcessIEEEAddrRsp
          CFI Conditional ??CrossCallReturnLabel_16
          CFI R6 load(1, XDATA, add(CFA_XSP16, literal(-10)))
          CFI VB load(1, XDATA, add(CFA_XSP16, literal(-9)))
          CFI V0 load(1, XDATA, add(CFA_XSP16, literal(-8)))
          CFI V1 load(1, XDATA, add(CFA_XSP16, literal(-7)))
          CFI R7 load(1, XDATA, add(CFA_XSP16, literal(-6)))
          CFI ?RET_LOW load(1, XDATA, add(CFA_XSP16, literal(-5)))
          CFI ?RET_HIGH load(1, XDATA, add(CFA_XSP16, literal(-4)))
          CFI ?BRET_EXT load(1, XDATA, add(CFA_XSP16, literal(-3)))
          CFI DPL0 load(1, XDATA, add(CFA_XSP16, literal(-2)))
          CFI DPH0 load(1, XDATA, add(CFA_XSP16, literal(-1)))
          CFI CFA_SP SP+-2
          CFI CFA_XSP16 add(XSP16, 25)
          CFI Block cfiCond67 Using cfiCommon0
          CFI (cfiCond67) Function bdb_checkMatchingEndpoints
          CFI (cfiCond67) Conditional ??CrossCallReturnLabel_17
          CFI (cfiCond67) R6 load(1, XDATA, add(CFA_XSP16, literal(-20)))
          CFI (cfiCond67) VB load(1, XDATA, add(CFA_XSP16, literal(-19)))
          CFI (cfiCond67) V0 load(1, XDATA, add(CFA_XSP16, literal(-18)))
          CFI (cfiCond67) V1 load(1, XDATA, add(CFA_XSP16, literal(-17)))
          CFI (cfiCond67) V2 load(1, XDATA, add(CFA_XSP16, literal(-16)))
          CFI (cfiCond67) V3 load(1, XDATA, add(CFA_XSP16, literal(-15)))
          CFI (cfiCond67) V4 load(1, XDATA, add(CFA_XSP16, literal(-14)))
          CFI (cfiCond67) V5 load(1, XDATA, add(CFA_XSP16, literal(-13)))
          CFI (cfiCond67) V6 load(1, XDATA, add(CFA_XSP16, literal(-12)))
          CFI (cfiCond67) V7 load(1, XDATA, add(CFA_XSP16, literal(-11)))
          CFI (cfiCond67) V8 load(1, XDATA, add(CFA_XSP16, literal(-10)))
          CFI (cfiCond67) V9 load(1, XDATA, add(CFA_XSP16, literal(-9)))
          CFI (cfiCond67) V10 load(1, XDATA, add(CFA_XSP16, literal(-8)))
          CFI (cfiCond67) V11 load(1, XDATA, add(CFA_XSP16, literal(-7)))
          CFI (cfiCond67) R7 load(1, XDATA, add(CFA_XSP16, literal(-6)))
          CFI (cfiCond67) ?RET_LOW load(1, XDATA, add(CFA_XSP16, literal(-5)))
          CFI (cfiCond67) ?RET_HIGH load(1, XDATA, add(CFA_XSP16, literal(-4)))
          CFI (cfiCond67) ?BRET_EXT load(1, XDATA, add(CFA_XSP16, literal(-3)))
          CFI (cfiCond67) DPL0 load(1, XDATA, add(CFA_XSP16, literal(-2)))
          CFI (cfiCond67) DPH0 load(1, XDATA, add(CFA_XSP16, literal(-1)))
          CFI (cfiCond67) CFA_SP SP+-2
          CFI (cfiCond67) CFA_XSP16 add(XSP16, 41)
          CFI Block cfiPicker68 Using cfiCommon1
          CFI (cfiPicker68) NoFunction
          CFI (cfiPicker68) Picker
        LCALL     ?Subroutine28 & 0xFFFF
??CrossCallReturnLabel_101:
        MOV       A,#-0x1
        MOVX      @DPTR,A
        RET
          CFI EndBlock cfiCond66
          CFI EndBlock cfiCond67
          CFI EndBlock cfiPicker68

        RSEG BANKED_CODE:HUGECODE:NOROOT(0)
?Subroutine11:
          CFI Block cfiCond69 Using cfiCommon0
          CFI Function bdb_setEpDescListToActiveEndpoint
          CFI Conditional ??CrossCallReturnLabel_11
          CFI DPL0 Frame(CFA_SP, 4)
          CFI DPH0 Frame(CFA_SP, 5)
          CFI CFA_SP SP+-7
          CFI Block cfiCond70 Using cfiCommon0
          CFI (cfiCond70) Function bdb_checkMatchingEndpoints
          CFI (cfiCond70) Conditional ??CrossCallReturnLabel_12
          CFI (cfiCond70) R6 load(1, XDATA, add(CFA_XSP16, literal(-20)))
          CFI (cfiCond70) VB load(1, XDATA, add(CFA_XSP16, literal(-19)))
          CFI (cfiCond70) V0 load(1, XDATA, add(CFA_XSP16, literal(-18)))
          CFI (cfiCond70) V1 load(1, XDATA, add(CFA_XSP16, literal(-17)))
          CFI (cfiCond70) V2 load(1, XDATA, add(CFA_XSP16, literal(-16)))
          CFI (cfiCond70) V3 load(1, XDATA, add(CFA_XSP16, literal(-15)))
          CFI (cfiCond70) V4 load(1, XDATA, add(CFA_XSP16, literal(-14)))
          CFI (cfiCond70) V5 load(1, XDATA, add(CFA_XSP16, literal(-13)))
          CFI (cfiCond70) V6 load(1, XDATA, add(CFA_XSP16, literal(-12)))
          CFI (cfiCond70) V7 load(1, XDATA, add(CFA_XSP16, literal(-11)))
          CFI (cfiCond70) V8 load(1, XDATA, add(CFA_XSP16, literal(-10)))
          CFI (cfiCond70) V9 load(1, XDATA, add(CFA_XSP16, literal(-9)))
          CFI (cfiCond70) V10 load(1, XDATA, add(CFA_XSP16, literal(-8)))
          CFI (cfiCond70) V11 load(1, XDATA, add(CFA_XSP16, literal(-7)))
          CFI (cfiCond70) R7 load(1, XDATA, add(CFA_XSP16, literal(-6)))
          CFI (cfiCond70) ?RET_LOW load(1, XDATA, add(CFA_XSP16, literal(-5)))
          CFI (cfiCond70) ?RET_HIGH load(1, XDATA, add(CFA_XSP16, literal(-4)))
          CFI (cfiCond70) ?BRET_EXT load(1, XDATA, add(CFA_XSP16, literal(-3)))
          CFI (cfiCond70) DPL0 load(1, XDATA, add(CFA_XSP16, literal(-2)))
          CFI (cfiCond70) DPH0 load(1, XDATA, add(CFA_XSP16, literal(-1)))
          CFI (cfiCond70) CFA_SP SP+-2
          CFI (cfiCond70) CFA_XSP16 add(XSP16, 41)
          CFI Block cfiCond71 Using cfiCommon0
          CFI (cfiCond71) Function bdb_ProcessSimpleDesc
          CFI (cfiCond71) Conditional ??CrossCallReturnLabel_13
          CFI (cfiCond71) R6 load(1, XDATA, add(CFA_XSP16, literal(-9)))
          CFI (cfiCond71) VB load(1, XDATA, add(CFA_XSP16, literal(-8)))
          CFI (cfiCond71) V0 load(1, XDATA, add(CFA_XSP16, literal(-7)))
          CFI (cfiCond71) R7 load(1, XDATA, add(CFA_XSP16, literal(-6)))
          CFI (cfiCond71) ?RET_LOW load(1, XDATA, add(CFA_XSP16, literal(-5)))
          CFI (cfiCond71) ?RET_HIGH load(1, XDATA, add(CFA_XSP16, literal(-4)))
          CFI (cfiCond71) ?BRET_EXT load(1, XDATA, add(CFA_XSP16, literal(-3)))
          CFI (cfiCond71) DPL0 load(1, XDATA, add(CFA_XSP16, literal(-2)))
          CFI (cfiCond71) DPH0 load(1, XDATA, add(CFA_XSP16, literal(-1)))
          CFI (cfiCond71) CFA_SP SP+-2
          CFI (cfiCond71) CFA_XSP16 add(XSP16, 28)
          CFI Block cfiPicker72 Using cfiCommon1
          CFI (cfiPicker72) NoFunction
          CFI (cfiPicker72) Picker
        LCALL     ?Subroutine31 & 0xFFFF
??CrossCallReturnLabel_46:
        INC       DPTR
        INC       DPTR
        MOVX      A,@DPTR
        RET
          CFI EndBlock cfiCond69
          CFI EndBlock cfiCond70
          CFI EndBlock cfiCond71
          CFI EndBlock cfiPicker72

        RSEG BANKED_CODE:HUGECODE:NOROOT(0)
?Subroutine31:
          CFI Block cfiCond73 Using cfiCommon0
          CFI Function bdb_setEpDescListToActiveEndpoint
          CFI Conditional ??CrossCallReturnLabel_46, ??CrossCallReturnLabel_11
          CFI DPL0 Frame(CFA_SP, 4)
          CFI DPH0 Frame(CFA_SP, 5)
          CFI CFA_SP SP+-9
          CFI Block cfiCond74 Using cfiCommon0
          CFI (cfiCond74) Function bdb_checkMatchingEndpoints
          CFI (cfiCond74) Conditional ??CrossCallReturnLabel_46, ??CrossCallReturnLabel_12
          CFI (cfiCond74) R6 load(1, XDATA, add(CFA_XSP16, literal(-20)))
          CFI (cfiCond74) VB load(1, XDATA, add(CFA_XSP16, literal(-19)))
          CFI (cfiCond74) V0 load(1, XDATA, add(CFA_XSP16, literal(-18)))
          CFI (cfiCond74) V1 load(1, XDATA, add(CFA_XSP16, literal(-17)))
          CFI (cfiCond74) V2 load(1, XDATA, add(CFA_XSP16, literal(-16)))
          CFI (cfiCond74) V3 load(1, XDATA, add(CFA_XSP16, literal(-15)))
          CFI (cfiCond74) V4 load(1, XDATA, add(CFA_XSP16, literal(-14)))
          CFI (cfiCond74) V5 load(1, XDATA, add(CFA_XSP16, literal(-13)))
          CFI (cfiCond74) V6 load(1, XDATA, add(CFA_XSP16, literal(-12)))
          CFI (cfiCond74) V7 load(1, XDATA, add(CFA_XSP16, literal(-11)))
          CFI (cfiCond74) V8 load(1, XDATA, add(CFA_XSP16, literal(-10)))
          CFI (cfiCond74) V9 load(1, XDATA, add(CFA_XSP16, literal(-9)))
          CFI (cfiCond74) V10 load(1, XDATA, add(CFA_XSP16, literal(-8)))
          CFI (cfiCond74) V11 load(1, XDATA, add(CFA_XSP16, literal(-7)))
          CFI (cfiCond74) R7 load(1, XDATA, add(CFA_XSP16, literal(-6)))
          CFI (cfiCond74) ?RET_LOW load(1, XDATA, add(CFA_XSP16, literal(-5)))
          CFI (cfiCond74) ?RET_HIGH load(1, XDATA, add(CFA_XSP16, literal(-4)))
          CFI (cfiCond74) ?BRET_EXT load(1, XDATA, add(CFA_XSP16, literal(-3)))
          CFI (cfiCond74) DPL0 load(1, XDATA, add(CFA_XSP16, literal(-2)))
          CFI (cfiCond74) DPH0 load(1, XDATA, add(CFA_XSP16, literal(-1)))
          CFI (cfiCond74) CFA_SP SP+-4
          CFI (cfiCond74) CFA_XSP16 add(XSP16, 41)
          CFI Block cfiCond75 Using cfiCommon0
          CFI (cfiCond75) Function bdb_ProcessSimpleDesc
          CFI (cfiCond75) Conditional ??CrossCallReturnLabel_46, ??CrossCallReturnLabel_13
          CFI (cfiCond75) R6 load(1, XDATA, add(CFA_XSP16, literal(-9)))
          CFI (cfiCond75) VB load(1, XDATA, add(CFA_XSP16, literal(-8)))
          CFI (cfiCond75) V0 load(1, XDATA, add(CFA_XSP16, literal(-7)))
          CFI (cfiCond75) R7 load(1, XDATA, add(CFA_XSP16, literal(-6)))
          CFI (cfiCond75) ?RET_LOW load(1, XDATA, add(CFA_XSP16, literal(-5)))
          CFI (cfiCond75) ?RET_HIGH load(1, XDATA, add(CFA_XSP16, literal(-4)))
          CFI (cfiCond75) ?BRET_EXT load(1, XDATA, add(CFA_XSP16, literal(-3)))
          CFI (cfiCond75) DPL0 load(1, XDATA, add(CFA_XSP16, literal(-2)))
          CFI (cfiCond75) DPH0 load(1, XDATA, add(CFA_XSP16, literal(-1)))
          CFI (cfiCond75) CFA_SP SP+-4
          CFI (cfiCond75) CFA_XSP16 add(XSP16, 28)
          CFI Block cfiCond76 Using cfiCommon0
          CFI (cfiCond76) Function bdb_setEpDescListToActiveEndpoint
          CFI (cfiCond76) Conditional ??CrossCallReturnLabel_45, ??CrossCallReturnLabel_0
          CFI (cfiCond76) DPL0 Frame(CFA_SP, 4)
          CFI (cfiCond76) DPH0 Frame(CFA_SP, 5)
          CFI (cfiCond76) CFA_SP SP+-9
          CFI Block cfiCond77 Using cfiCommon0
          CFI (cfiCond77) Function bdb_setEpDescListToActiveEndpoint
          CFI (cfiCond77) Conditional ??CrossCallReturnLabel_45, ??CrossCallReturnLabel_1
          CFI (cfiCond77) DPL0 Frame(CFA_SP, 4)
          CFI (cfiCond77) DPH0 Frame(CFA_SP, 5)
          CFI (cfiCond77) CFA_SP SP+-9
          CFI Block cfiCond78 Using cfiCommon0
          CFI (cfiCond78) Function bdb_checkMatchingEndpoints
          CFI (cfiCond78) Conditional ??CrossCallReturnLabel_45, ??CrossCallReturnLabel_2
          CFI (cfiCond78) R6 load(1, XDATA, add(CFA_XSP16, literal(-20)))
          CFI (cfiCond78) VB load(1, XDATA, add(CFA_XSP16, literal(-19)))
          CFI (cfiCond78) V0 load(1, XDATA, add(CFA_XSP16, literal(-18)))
          CFI (cfiCond78) V1 load(1, XDATA, add(CFA_XSP16, literal(-17)))
          CFI (cfiCond78) V2 load(1, XDATA, add(CFA_XSP16, literal(-16)))
          CFI (cfiCond78) V3 load(1, XDATA, add(CFA_XSP16, literal(-15)))
          CFI (cfiCond78) V4 load(1, XDATA, add(CFA_XSP16, literal(-14)))
          CFI (cfiCond78) V5 load(1, XDATA, add(CFA_XSP16, literal(-13)))
          CFI (cfiCond78) V6 load(1, XDATA, add(CFA_XSP16, literal(-12)))
          CFI (cfiCond78) V7 load(1, XDATA, add(CFA_XSP16, literal(-11)))
          CFI (cfiCond78) V8 load(1, XDATA, add(CFA_XSP16, literal(-10)))
          CFI (cfiCond78) V9 load(1, XDATA, add(CFA_XSP16, literal(-9)))
          CFI (cfiCond78) V10 load(1, XDATA, add(CFA_XSP16, literal(-8)))
          CFI (cfiCond78) V11 load(1, XDATA, add(CFA_XSP16, literal(-7)))
          CFI (cfiCond78) R7 load(1, XDATA, add(CFA_XSP16, literal(-6)))
          CFI (cfiCond78) ?RET_LOW load(1, XDATA, add(CFA_XSP16, literal(-5)))
          CFI (cfiCond78) ?RET_HIGH load(1, XDATA, add(CFA_XSP16, literal(-4)))
          CFI (cfiCond78) ?BRET_EXT load(1, XDATA, add(CFA_XSP16, literal(-3)))
          CFI (cfiCond78) DPL0 load(1, XDATA, add(CFA_XSP16, literal(-2)))
          CFI (cfiCond78) DPH0 load(1, XDATA, add(CFA_XSP16, literal(-1)))
          CFI (cfiCond78) CFA_SP SP+-4
          CFI (cfiCond78) CFA_XSP16 add(XSP16, 41)
          CFI Block cfiPicker79 Using cfiCommon1
          CFI (cfiPicker79) NoFunction
          CFI (cfiPicker79) Picker
        MOV       DPTR,#bdb_CurrEpDescriptorList
          CFI EndBlock cfiCond73
          CFI EndBlock cfiCond74
          CFI EndBlock cfiCond75
          CFI EndBlock cfiCond76
          CFI EndBlock cfiCond77
          CFI EndBlock cfiCond78
          CFI EndBlock cfiPicker79
        REQUIRE ??Subroutine41_0
        ; // Fall through to label ??Subroutine41_0

        RSEG BANKED_CODE:HUGECODE:NOROOT(0)
??Subroutine41_0:
          CFI Block cfiCond80 Using cfiCommon0
          CFI Function bdb_setEpDescListToActiveEndpoint
          CFI Conditional ??CrossCallReturnLabel_47, ??CrossCallReturnLabel_43
          CFI DPL0 Frame(CFA_SP, 4)
          CFI DPH0 Frame(CFA_SP, 5)
          CFI CFA_SP SP+-9
          CFI Block cfiCond81 Using cfiCommon0
          CFI (cfiCond81) Function bdb_checkMatchingEndpoints
          CFI (cfiCond81) Conditional ??CrossCallReturnLabel_47, ??CrossCallReturnLabel_44
          CFI (cfiCond81) R6 load(1, XDATA, add(CFA_XSP16, literal(-20)))
          CFI (cfiCond81) VB load(1, XDATA, add(CFA_XSP16, literal(-19)))
          CFI (cfiCond81) V0 load(1, XDATA, add(CFA_XSP16, literal(-18)))
          CFI (cfiCond81) V1 load(1, XDATA, add(CFA_XSP16, literal(-17)))
          CFI (cfiCond81) V2 load(1, XDATA, add(CFA_XSP16, literal(-16)))
          CFI (cfiCond81) V3 load(1, XDATA, add(CFA_XSP16, literal(-15)))
          CFI (cfiCond81) V4 load(1, XDATA, add(CFA_XSP16, literal(-14)))
          CFI (cfiCond81) V5 load(1, XDATA, add(CFA_XSP16, literal(-13)))
          CFI (cfiCond81) V6 load(1, XDATA, add(CFA_XSP16, literal(-12)))
          CFI (cfiCond81) V7 load(1, XDATA, add(CFA_XSP16, literal(-11)))
          CFI (cfiCond81) V8 load(1, XDATA, add(CFA_XSP16, literal(-10)))
          CFI (cfiCond81) V9 load(1, XDATA, add(CFA_XSP16, literal(-9)))
          CFI (cfiCond81) V10 load(1, XDATA, add(CFA_XSP16, literal(-8)))
          CFI (cfiCond81) V11 load(1, XDATA, add(CFA_XSP16, literal(-7)))
          CFI (cfiCond81) R7 load(1, XDATA, add(CFA_XSP16, literal(-6)))
          CFI (cfiCond81) ?RET_LOW load(1, XDATA, add(CFA_XSP16, literal(-5)))
          CFI (cfiCond81) ?RET_HIGH load(1, XDATA, add(CFA_XSP16, literal(-4)))
          CFI (cfiCond81) ?BRET_EXT load(1, XDATA, add(CFA_XSP16, literal(-3)))
          CFI (cfiCond81) DPL0 load(1, XDATA, add(CFA_XSP16, literal(-2)))
          CFI (cfiCond81) DPH0 load(1, XDATA, add(CFA_XSP16, literal(-1)))
          CFI (cfiCond81) CFA_SP SP+-4
          CFI (cfiCond81) CFA_XSP16 add(XSP16, 41)
          CFI Block cfiCond82 Using cfiCommon0
          CFI (cfiCond82) Function bdb_ProcessRespondentList
          CFI (cfiCond82) Conditional ??CrossCallReturnLabel_47, ??CrossCallReturnLabel_41
          CFI (cfiCond82) R6 load(1, XDATA, add(CFA_XSP16, literal(-9)))
          CFI (cfiCond82) VB load(1, XDATA, add(CFA_XSP16, literal(-8)))
          CFI (cfiCond82) V0 load(1, XDATA, add(CFA_XSP16, literal(-7)))
          CFI (cfiCond82) R7 load(1, XDATA, add(CFA_XSP16, literal(-6)))
          CFI (cfiCond82) ?RET_LOW load(1, XDATA, add(CFA_XSP16, literal(-5)))
          CFI (cfiCond82) ?RET_HIGH load(1, XDATA, add(CFA_XSP16, literal(-4)))
          CFI (cfiCond82) ?BRET_EXT load(1, XDATA, add(CFA_XSP16, literal(-3)))
          CFI (cfiCond82) DPL0 load(1, XDATA, add(CFA_XSP16, literal(-2)))
          CFI (cfiCond82) DPH0 load(1, XDATA, add(CFA_XSP16, literal(-1)))
          CFI (cfiCond82) CFA_SP SP+-4
          CFI (cfiCond82) CFA_XSP16 add(XSP16, 18)
          CFI Block cfiCond83 Using cfiCommon0
          CFI (cfiCond83) Function bdb_ProcessRespondentList
          CFI (cfiCond83) Conditional ??CrossCallReturnLabel_47, ??CrossCallReturnLabel_42
          CFI (cfiCond83) R6 load(1, XDATA, add(CFA_XSP16, literal(-9)))
          CFI (cfiCond83) VB load(1, XDATA, add(CFA_XSP16, literal(-8)))
          CFI (cfiCond83) V0 load(1, XDATA, add(CFA_XSP16, literal(-7)))
          CFI (cfiCond83) R7 load(1, XDATA, add(CFA_XSP16, literal(-6)))
          CFI (cfiCond83) ?RET_LOW load(1, XDATA, add(CFA_XSP16, literal(-5)))
          CFI (cfiCond83) ?RET_HIGH load(1, XDATA, add(CFA_XSP16, literal(-4)))
          CFI (cfiCond83) ?BRET_EXT load(1, XDATA, add(CFA_XSP16, literal(-3)))
          CFI (cfiCond83) DPL0 load(1, XDATA, add(CFA_XSP16, literal(-2)))
          CFI (cfiCond83) DPH0 load(1, XDATA, add(CFA_XSP16, literal(-1)))
          CFI (cfiCond83) CFA_SP SP+-4
          CFI (cfiCond83) CFA_XSP16 add(XSP16, 19)
          CFI Block cfiCond84 Using cfiCommon0
          CFI (cfiCond84) Function bdb_setEpDescListToActiveEndpoint
          CFI (cfiCond84) Conditional ??CrossCallReturnLabel_46, ??CrossCallReturnLabel_11
          CFI (cfiCond84) DPL0 Frame(CFA_SP, 4)
          CFI (cfiCond84) DPH0 Frame(CFA_SP, 5)
          CFI (cfiCond84) CFA_SP SP+-9
          CFI Block cfiCond85 Using cfiCommon0
          CFI (cfiCond85) Function bdb_checkMatchingEndpoints
          CFI (cfiCond85) Conditional ??CrossCallReturnLabel_46, ??CrossCallReturnLabel_12
          CFI (cfiCond85) R6 load(1, XDATA, add(CFA_XSP16, literal(-20)))
          CFI (cfiCond85) VB load(1, XDATA, add(CFA_XSP16, literal(-19)))
          CFI (cfiCond85) V0 load(1, XDATA, add(CFA_XSP16, literal(-18)))
          CFI (cfiCond85) V1 load(1, XDATA, add(CFA_XSP16, literal(-17)))
          CFI (cfiCond85) V2 load(1, XDATA, add(CFA_XSP16, literal(-16)))
          CFI (cfiCond85) V3 load(1, XDATA, add(CFA_XSP16, literal(-15)))
          CFI (cfiCond85) V4 load(1, XDATA, add(CFA_XSP16, literal(-14)))
          CFI (cfiCond85) V5 load(1, XDATA, add(CFA_XSP16, literal(-13)))
          CFI (cfiCond85) V6 load(1, XDATA, add(CFA_XSP16, literal(-12)))
          CFI (cfiCond85) V7 load(1, XDATA, add(CFA_XSP16, literal(-11)))
          CFI (cfiCond85) V8 load(1, XDATA, add(CFA_XSP16, literal(-10)))
          CFI (cfiCond85) V9 load(1, XDATA, add(CFA_XSP16, literal(-9)))
          CFI (cfiCond85) V10 load(1, XDATA, add(CFA_XSP16, literal(-8)))
          CFI (cfiCond85) V11 load(1, XDATA, add(CFA_XSP16, literal(-7)))
          CFI (cfiCond85) R7 load(1, XDATA, add(CFA_XSP16, literal(-6)))
          CFI (cfiCond85) ?RET_LOW load(1, XDATA, add(CFA_XSP16, literal(-5)))
          CFI (cfiCond85) ?RET_HIGH load(1, XDATA, add(CFA_XSP16, literal(-4)))
          CFI (cfiCond85) ?BRET_EXT load(1, XDATA, add(CFA_XSP16, literal(-3)))
          CFI (cfiCond85) DPL0 load(1, XDATA, add(CFA_XSP16, literal(-2)))
          CFI (cfiCond85) DPH0 load(1, XDATA, add(CFA_XSP16, literal(-1)))
          CFI (cfiCond85) CFA_SP SP+-4
          CFI (cfiCond85) CFA_XSP16 add(XSP16, 41)
          CFI Block cfiCond86 Using cfiCommon0
          CFI (cfiCond86) Function bdb_ProcessSimpleDesc
          CFI (cfiCond86) Conditional ??CrossCallReturnLabel_46, ??CrossCallReturnLabel_13
          CFI (cfiCond86) R6 load(1, XDATA, add(CFA_XSP16, literal(-9)))
          CFI (cfiCond86) VB load(1, XDATA, add(CFA_XSP16, literal(-8)))
          CFI (cfiCond86) V0 load(1, XDATA, add(CFA_XSP16, literal(-7)))
          CFI (cfiCond86) R7 load(1, XDATA, add(CFA_XSP16, literal(-6)))
          CFI (cfiCond86) ?RET_LOW load(1, XDATA, add(CFA_XSP16, literal(-5)))
          CFI (cfiCond86) ?RET_HIGH load(1, XDATA, add(CFA_XSP16, literal(-4)))
          CFI (cfiCond86) ?BRET_EXT load(1, XDATA, add(CFA_XSP16, literal(-3)))
          CFI (cfiCond86) DPL0 load(1, XDATA, add(CFA_XSP16, literal(-2)))
          CFI (cfiCond86) DPH0 load(1, XDATA, add(CFA_XSP16, literal(-1)))
          CFI (cfiCond86) CFA_SP SP+-4
          CFI (cfiCond86) CFA_XSP16 add(XSP16, 28)
          CFI Block cfiCond87 Using cfiCommon0
          CFI (cfiCond87) Function bdb_setEpDescListToActiveEndpoint
          CFI (cfiCond87) Conditional ??CrossCallReturnLabel_45, ??CrossCallReturnLabel_0
          CFI (cfiCond87) DPL0 Frame(CFA_SP, 4)
          CFI (cfiCond87) DPH0 Frame(CFA_SP, 5)
          CFI (cfiCond87) CFA_SP SP+-9
          CFI Block cfiCond88 Using cfiCommon0
          CFI (cfiCond88) Function bdb_setEpDescListToActiveEndpoint
          CFI (cfiCond88) Conditional ??CrossCallReturnLabel_45, ??CrossCallReturnLabel_1
          CFI (cfiCond88) DPL0 Frame(CFA_SP, 4)
          CFI (cfiCond88) DPH0 Frame(CFA_SP, 5)
          CFI (cfiCond88) CFA_SP SP+-9
          CFI Block cfiCond89 Using cfiCommon0
          CFI (cfiCond89) Function bdb_checkMatchingEndpoints
          CFI (cfiCond89) Conditional ??CrossCallReturnLabel_45, ??CrossCallReturnLabel_2
          CFI (cfiCond89) R6 load(1, XDATA, add(CFA_XSP16, literal(-20)))
          CFI (cfiCond89) VB load(1, XDATA, add(CFA_XSP16, literal(-19)))
          CFI (cfiCond89) V0 load(1, XDATA, add(CFA_XSP16, literal(-18)))
          CFI (cfiCond89) V1 load(1, XDATA, add(CFA_XSP16, literal(-17)))
          CFI (cfiCond89) V2 load(1, XDATA, add(CFA_XSP16, literal(-16)))
          CFI (cfiCond89) V3 load(1, XDATA, add(CFA_XSP16, literal(-15)))
          CFI (cfiCond89) V4 load(1, XDATA, add(CFA_XSP16, literal(-14)))
          CFI (cfiCond89) V5 load(1, XDATA, add(CFA_XSP16, literal(-13)))
          CFI (cfiCond89) V6 load(1, XDATA, add(CFA_XSP16, literal(-12)))
          CFI (cfiCond89) V7 load(1, XDATA, add(CFA_XSP16, literal(-11)))
          CFI (cfiCond89) V8 load(1, XDATA, add(CFA_XSP16, literal(-10)))
          CFI (cfiCond89) V9 load(1, XDATA, add(CFA_XSP16, literal(-9)))
          CFI (cfiCond89) V10 load(1, XDATA, add(CFA_XSP16, literal(-8)))
          CFI (cfiCond89) V11 load(1, XDATA, add(CFA_XSP16, literal(-7)))
          CFI (cfiCond89) R7 load(1, XDATA, add(CFA_XSP16, literal(-6)))
          CFI (cfiCond89) ?RET_LOW load(1, XDATA, add(CFA_XSP16, literal(-5)))
          CFI (cfiCond89) ?RET_HIGH load(1, XDATA, add(CFA_XSP16, literal(-4)))
          CFI (cfiCond89) ?BRET_EXT load(1, XDATA, add(CFA_XSP16, literal(-3)))
          CFI (cfiCond89) DPL0 load(1, XDATA, add(CFA_XSP16, literal(-2)))
          CFI (cfiCond89) DPH0 load(1, XDATA, add(CFA_XSP16, literal(-1)))
          CFI (cfiCond89) CFA_SP SP+-4
          CFI (cfiCond89) CFA_XSP16 add(XSP16, 41)
          CFI Block cfiPicker90 Using cfiCommon1
          CFI (cfiPicker90) NoFunction
          CFI (cfiPicker90) Picker
        LCALL     ?Subroutine38 & 0xFFFF
??CrossCallReturnLabel_120:
        MOV       DPH,A
        MOV       DPL,R0
        RET
          CFI EndBlock cfiCond80
          CFI EndBlock cfiCond81
          CFI EndBlock cfiCond82
          CFI EndBlock cfiCond83
          CFI EndBlock cfiCond84
          CFI EndBlock cfiCond85
          CFI EndBlock cfiCond86
          CFI EndBlock cfiCond87
          CFI EndBlock cfiCond88
          CFI EndBlock cfiCond89
          CFI EndBlock cfiPicker90

        RSEG BANKED_CODE:HUGECODE:NOROOT(0)
?Subroutine38:
          CFI Block cfiCond91 Using cfiCommon0
          CFI Function bdb_SetIdentifyActiveEndpoint
          CFI Conditional ??CrossCallReturnLabel_119, ??CrossCallReturnLabel_33
          CFI DPL0 Frame(CFA_SP, 4)
          CFI DPH0 Frame(CFA_SP, 5)
          CFI CFA_SP SP+-9
          CFI Block cfiCond92 Using cfiCommon0
          CFI (cfiCond92) Function bdb_setEpDescListToActiveEndpoint
          CFI (cfiCond92) Conditional ??CrossCallReturnLabel_119, ??CrossCallReturnLabel_34
          CFI (cfiCond92) DPL0 Frame(CFA_SP, 4)
          CFI (cfiCond92) DPH0 Frame(CFA_SP, 5)
          CFI (cfiCond92) CFA_SP SP+-9
          CFI Block cfiCond93 Using cfiCommon0
          CFI (cfiCond93) Function bdb_SetIdentifyActiveEndpoint
          CFI (cfiCond93) Conditional ??CrossCallReturnLabel_124, ??CrossCallReturnLabel_117, ??CrossCallReturnLabel_28
          CFI (cfiCond93) DPL0 Frame(CFA_SP, 4)
          CFI (cfiCond93) DPH0 Frame(CFA_SP, 5)
          CFI (cfiCond93) CFA_SP SP+-11
          CFI Block cfiCond94 Using cfiCommon0
          CFI (cfiCond94) Function bdb_setEpDescListToActiveEndpoint
          CFI (cfiCond94) Conditional ??CrossCallReturnLabel_124, ??CrossCallReturnLabel_117, ??CrossCallReturnLabel_29
          CFI (cfiCond94) DPL0 Frame(CFA_SP, 4)
          CFI (cfiCond94) DPH0 Frame(CFA_SP, 5)
          CFI (cfiCond94) CFA_SP SP+-11
          CFI Block cfiCond95 Using cfiCommon0
          CFI (cfiCond95) Function bdb_ProcessIEEEAddrRsp
          CFI (cfiCond95) Conditional ??CrossCallReturnLabel_124, ??CrossCallReturnLabel_117, ??CrossCallReturnLabel_30
          CFI (cfiCond95) R6 load(1, XDATA, add(CFA_XSP16, literal(-10)))
          CFI (cfiCond95) VB load(1, XDATA, add(CFA_XSP16, literal(-9)))
          CFI (cfiCond95) V0 load(1, XDATA, add(CFA_XSP16, literal(-8)))
          CFI (cfiCond95) V1 load(1, XDATA, add(CFA_XSP16, literal(-7)))
          CFI (cfiCond95) R7 load(1, XDATA, add(CFA_XSP16, literal(-6)))
          CFI (cfiCond95) ?RET_LOW load(1, XDATA, add(CFA_XSP16, literal(-5)))
          CFI (cfiCond95) ?RET_HIGH load(1, XDATA, add(CFA_XSP16, literal(-4)))
          CFI (cfiCond95) ?BRET_EXT load(1, XDATA, add(CFA_XSP16, literal(-3)))
          CFI (cfiCond95) DPL0 load(1, XDATA, add(CFA_XSP16, literal(-2)))
          CFI (cfiCond95) DPH0 load(1, XDATA, add(CFA_XSP16, literal(-1)))
          CFI (cfiCond95) CFA_SP SP+-6
          CFI (cfiCond95) CFA_XSP16 add(XSP16, 25)
          CFI Block cfiCond96 Using cfiCommon0
          CFI (cfiCond96) Function bdb_zclFindingBindingEpType
          CFI (cfiCond96) Conditional ??CrossCallReturnLabel_124, ??CrossCallReturnLabel_117, ??CrossCallReturnLabel_31
          CFI (cfiCond96) R6 load(1, XDATA, add(CFA_XSP16, literal(-14)))
          CFI (cfiCond96) VB load(1, XDATA, add(CFA_XSP16, literal(-13)))
          CFI (cfiCond96) V0 load(1, XDATA, add(CFA_XSP16, literal(-12)))
          CFI (cfiCond96) V1 load(1, XDATA, add(CFA_XSP16, literal(-11)))
          CFI (cfiCond96) V2 load(1, XDATA, add(CFA_XSP16, literal(-10)))
          CFI (cfiCond96) V3 load(1, XDATA, add(CFA_XSP16, literal(-9)))
          CFI (cfiCond96) V4 load(1, XDATA, add(CFA_XSP16, literal(-8)))
          CFI (cfiCond96) V5 load(1, XDATA, add(CFA_XSP16, literal(-7)))
          CFI (cfiCond96) R7 load(1, XDATA, add(CFA_XSP16, literal(-6)))
          CFI (cfiCond96) ?RET_LOW load(1, XDATA, add(CFA_XSP16, literal(-5)))
          CFI (cfiCond96) ?RET_HIGH load(1, XDATA, add(CFA_XSP16, literal(-4)))
          CFI (cfiCond96) ?BRET_EXT load(1, XDATA, add(CFA_XSP16, literal(-3)))
          CFI (cfiCond96) DPL0 load(1, XDATA, add(CFA_XSP16, literal(-2)))
          CFI (cfiCond96) DPH0 load(1, XDATA, add(CFA_XSP16, literal(-1)))
          CFI (cfiCond96) CFA_SP SP+-6
          CFI (cfiCond96) CFA_XSP16 add(XSP16, 14)
          CFI Block cfiCond97 Using cfiCommon0
          CFI (cfiCond97) Function bdb_ZclIdentifyQueryCmdInd
          CFI (cfiCond97) Conditional ??CrossCallReturnLabel_124, ??CrossCallReturnLabel_117, ??CrossCallReturnLabel_32
          CFI (cfiCond97) R6 load(1, XDATA, add(CFA_XSP16, literal(-10)))
          CFI (cfiCond97) VB load(1, XDATA, add(CFA_XSP16, literal(-9)))
          CFI (cfiCond97) V0 load(1, XDATA, add(CFA_XSP16, literal(-8)))
          CFI (cfiCond97) V1 load(1, XDATA, add(CFA_XSP16, literal(-7)))
          CFI (cfiCond97) R7 load(1, XDATA, add(CFA_XSP16, literal(-6)))
          CFI (cfiCond97) ?RET_LOW load(1, XDATA, add(CFA_XSP16, literal(-5)))
          CFI (cfiCond97) ?RET_HIGH load(1, XDATA, add(CFA_XSP16, literal(-4)))
          CFI (cfiCond97) ?BRET_EXT load(1, XDATA, add(CFA_XSP16, literal(-3)))
          CFI (cfiCond97) DPL0 load(1, XDATA, add(CFA_XSP16, literal(-2)))
          CFI (cfiCond97) DPH0 load(1, XDATA, add(CFA_XSP16, literal(-1)))
          CFI (cfiCond97) CFA_SP SP+-6
          CFI (cfiCond97) CFA_XSP16 add(XSP16, 10)
          CFI Block cfiCond98 Using cfiCommon0
          CFI (cfiCond98) Function bdb_setEpDescListToActiveEndpoint
          CFI (cfiCond98) Conditional ??CrossCallReturnLabel_124, ??CrossCallReturnLabel_114, ??CrossCallReturnLabel_0
          CFI (cfiCond98) DPL0 Frame(CFA_SP, 4)
          CFI (cfiCond98) DPH0 Frame(CFA_SP, 5)
          CFI (cfiCond98) CFA_SP SP+-11
          CFI Block cfiCond99 Using cfiCommon0
          CFI (cfiCond99) Function bdb_setEpDescListToActiveEndpoint
          CFI (cfiCond99) Conditional ??CrossCallReturnLabel_124, ??CrossCallReturnLabel_114, ??CrossCallReturnLabel_1
          CFI (cfiCond99) DPL0 Frame(CFA_SP, 4)
          CFI (cfiCond99) DPH0 Frame(CFA_SP, 5)
          CFI (cfiCond99) CFA_SP SP+-11
          CFI Block cfiCond100 Using cfiCommon0
          CFI (cfiCond100) Function bdb_checkMatchingEndpoints
          CFI (cfiCond100) Conditional ??CrossCallReturnLabel_124, ??CrossCallReturnLabel_114, ??CrossCallReturnLabel_2
          CFI (cfiCond100) R6 load(1, XDATA, add(CFA_XSP16, literal(-20)))
          CFI (cfiCond100) VB load(1, XDATA, add(CFA_XSP16, literal(-19)))
          CFI (cfiCond100) V0 load(1, XDATA, add(CFA_XSP16, literal(-18)))
          CFI (cfiCond100) V1 load(1, XDATA, add(CFA_XSP16, literal(-17)))
          CFI (cfiCond100) V2 load(1, XDATA, add(CFA_XSP16, literal(-16)))
          CFI (cfiCond100) V3 load(1, XDATA, add(CFA_XSP16, literal(-15)))
          CFI (cfiCond100) V4 load(1, XDATA, add(CFA_XSP16, literal(-14)))
          CFI (cfiCond100) V5 load(1, XDATA, add(CFA_XSP16, literal(-13)))
          CFI (cfiCond100) V6 load(1, XDATA, add(CFA_XSP16, literal(-12)))
          CFI (cfiCond100) V7 load(1, XDATA, add(CFA_XSP16, literal(-11)))
          CFI (cfiCond100) V8 load(1, XDATA, add(CFA_XSP16, literal(-10)))
          CFI (cfiCond100) V9 load(1, XDATA, add(CFA_XSP16, literal(-9)))
          CFI (cfiCond100) V10 load(1, XDATA, add(CFA_XSP16, literal(-8)))
          CFI (cfiCond100) V11 load(1, XDATA, add(CFA_XSP16, literal(-7)))
          CFI (cfiCond100) R7 load(1, XDATA, add(CFA_XSP16, literal(-6)))
          CFI (cfiCond100) ?RET_LOW load(1, XDATA, add(CFA_XSP16, literal(-5)))
          CFI (cfiCond100) ?RET_HIGH load(1, XDATA, add(CFA_XSP16, literal(-4)))
          CFI (cfiCond100) ?BRET_EXT load(1, XDATA, add(CFA_XSP16, literal(-3)))
          CFI (cfiCond100) DPL0 load(1, XDATA, add(CFA_XSP16, literal(-2)))
          CFI (cfiCond100) DPH0 load(1, XDATA, add(CFA_XSP16, literal(-1)))
          CFI (cfiCond100) CFA_SP SP+-6
          CFI (cfiCond100) CFA_XSP16 add(XSP16, 41)
          CFI Block cfiCond101 Using cfiCommon0
          CFI (cfiCond101) Function bdb_ProcessSimpleDesc
          CFI (cfiCond101) Conditional ??CrossCallReturnLabel_124, ??CrossCallReturnLabel_116, ??CrossCallReturnLabel_26
          CFI (cfiCond101) R6 load(1, XDATA, add(CFA_XSP16, literal(-9)))
          CFI (cfiCond101) VB load(1, XDATA, add(CFA_XSP16, literal(-8)))
          CFI (cfiCond101) V0 load(1, XDATA, add(CFA_XSP16, literal(-7)))
          CFI (cfiCond101) R7 load(1, XDATA, add(CFA_XSP16, literal(-6)))
          CFI (cfiCond101) ?RET_LOW load(1, XDATA, add(CFA_XSP16, literal(-5)))
          CFI (cfiCond101) ?RET_HIGH load(1, XDATA, add(CFA_XSP16, literal(-4)))
          CFI (cfiCond101) ?BRET_EXT load(1, XDATA, add(CFA_XSP16, literal(-3)))
          CFI (cfiCond101) DPL0 load(1, XDATA, add(CFA_XSP16, literal(-2)))
          CFI (cfiCond101) DPH0 load(1, XDATA, add(CFA_XSP16, literal(-1)))
          CFI (cfiCond101) CFA_SP SP+-6
          CFI (cfiCond101) CFA_XSP16 add(XSP16, 28)
          CFI Block cfiCond102 Using cfiCommon0
          CFI (cfiCond102) Function bdb_ZclIdentifyQueryCmdInd
          CFI (cfiCond102) Conditional ??CrossCallReturnLabel_124, ??CrossCallReturnLabel_116, ??CrossCallReturnLabel_27
          CFI (cfiCond102) R6 load(1, XDATA, add(CFA_XSP16, literal(-10)))
          CFI (cfiCond102) VB load(1, XDATA, add(CFA_XSP16, literal(-9)))
          CFI (cfiCond102) V0 load(1, XDATA, add(CFA_XSP16, literal(-8)))
          CFI (cfiCond102) V1 load(1, XDATA, add(CFA_XSP16, literal(-7)))
          CFI (cfiCond102) R7 load(1, XDATA, add(CFA_XSP16, literal(-6)))
          CFI (cfiCond102) ?RET_LOW load(1, XDATA, add(CFA_XSP16, literal(-5)))
          CFI (cfiCond102) ?RET_HIGH load(1, XDATA, add(CFA_XSP16, literal(-4)))
          CFI (cfiCond102) ?BRET_EXT load(1, XDATA, add(CFA_XSP16, literal(-3)))
          CFI (cfiCond102) DPL0 load(1, XDATA, add(CFA_XSP16, literal(-2)))
          CFI (cfiCond102) DPH0 load(1, XDATA, add(CFA_XSP16, literal(-1)))
          CFI (cfiCond102) CFA_SP SP+-6
          CFI (cfiCond102) CFA_XSP16 add(XSP16, 10)
          CFI Block cfiCond103 Using cfiCommon0
          CFI (cfiCond103) Function bdb_checkMatchingEndpoints
          CFI (cfiCond103) Conditional ??CrossCallReturnLabel_124, ??CrossCallReturnLabel_115, ??CrossCallReturnLabel_14
          CFI (cfiCond103) R6 load(1, XDATA, add(CFA_XSP16, literal(-20)))
          CFI (cfiCond103) VB load(1, XDATA, add(CFA_XSP16, literal(-19)))
          CFI (cfiCond103) V0 load(1, XDATA, add(CFA_XSP16, literal(-18)))
          CFI (cfiCond103) V1 load(1, XDATA, add(CFA_XSP16, literal(-17)))
          CFI (cfiCond103) V2 load(1, XDATA, add(CFA_XSP16, literal(-16)))
          CFI (cfiCond103) V3 load(1, XDATA, add(CFA_XSP16, literal(-15)))
          CFI (cfiCond103) V4 load(1, XDATA, add(CFA_XSP16, literal(-14)))
          CFI (cfiCond103) V5 load(1, XDATA, add(CFA_XSP16, literal(-13)))
          CFI (cfiCond103) V6 load(1, XDATA, add(CFA_XSP16, literal(-12)))
          CFI (cfiCond103) V7 load(1, XDATA, add(CFA_XSP16, literal(-11)))
          CFI (cfiCond103) V8 load(1, XDATA, add(CFA_XSP16, literal(-10)))
          CFI (cfiCond103) V9 load(1, XDATA, add(CFA_XSP16, literal(-9)))
          CFI (cfiCond103) V10 load(1, XDATA, add(CFA_XSP16, literal(-8)))
          CFI (cfiCond103) V11 load(1, XDATA, add(CFA_XSP16, literal(-7)))
          CFI (cfiCond103) R7 load(1, XDATA, add(CFA_XSP16, literal(-6)))
          CFI (cfiCond103) ?RET_LOW load(1, XDATA, add(CFA_XSP16, literal(-5)))
          CFI (cfiCond103) ?RET_HIGH load(1, XDATA, add(CFA_XSP16, literal(-4)))
          CFI (cfiCond103) ?BRET_EXT load(1, XDATA, add(CFA_XSP16, literal(-3)))
          CFI (cfiCond103) DPL0 load(1, XDATA, add(CFA_XSP16, literal(-2)))
          CFI (cfiCond103) DPH0 load(1, XDATA, add(CFA_XSP16, literal(-1)))
          CFI (cfiCond103) CFA_SP SP+-6
          CFI (cfiCond103) CFA_XSP16 add(XSP16, 41)
          CFI Block cfiCond104 Using cfiCommon0
          CFI (cfiCond104) Function bdb_ProcessRespondentList
          CFI (cfiCond104) Conditional ??CrossCallReturnLabel_124, ??CrossCallReturnLabel_115, ??CrossCallReturnLabel_15
          CFI (cfiCond104) R6 load(1, XDATA, add(CFA_XSP16, literal(-9)))
          CFI (cfiCond104) VB load(1, XDATA, add(CFA_XSP16, literal(-8)))
          CFI (cfiCond104) V0 load(1, XDATA, add(CFA_XSP16, literal(-7)))
          CFI (cfiCond104) R7 load(1, XDATA, add(CFA_XSP16, literal(-6)))
          CFI (cfiCond104) ?RET_LOW load(1, XDATA, add(CFA_XSP16, literal(-5)))
          CFI (cfiCond104) ?RET_HIGH load(1, XDATA, add(CFA_XSP16, literal(-4)))
          CFI (cfiCond104) ?BRET_EXT load(1, XDATA, add(CFA_XSP16, literal(-3)))
          CFI (cfiCond104) DPL0 load(1, XDATA, add(CFA_XSP16, literal(-2)))
          CFI (cfiCond104) DPH0 load(1, XDATA, add(CFA_XSP16, literal(-1)))
          CFI (cfiCond104) CFA_SP SP+-6
          CFI (cfiCond104) CFA_XSP16 add(XSP16, 18)
          CFI Block cfiCond105 Using cfiCommon0
          CFI (cfiCond105) Function bdb_ProcessIEEEAddrRsp
          CFI (cfiCond105) Conditional ??CrossCallReturnLabel_124, ??CrossCallReturnLabel_118, ??CrossCallReturnLabel_104
          CFI (cfiCond105) R6 load(1, XDATA, add(CFA_XSP16, literal(-10)))
          CFI (cfiCond105) VB load(1, XDATA, add(CFA_XSP16, literal(-9)))
          CFI (cfiCond105) V0 load(1, XDATA, add(CFA_XSP16, literal(-8)))
          CFI (cfiCond105) V1 load(1, XDATA, add(CFA_XSP16, literal(-7)))
          CFI (cfiCond105) R7 load(1, XDATA, add(CFA_XSP16, literal(-6)))
          CFI (cfiCond105) ?RET_LOW load(1, XDATA, add(CFA_XSP16, literal(-5)))
          CFI (cfiCond105) ?RET_HIGH load(1, XDATA, add(CFA_XSP16, literal(-4)))
          CFI (cfiCond105) ?BRET_EXT load(1, XDATA, add(CFA_XSP16, literal(-3)))
          CFI (cfiCond105) DPL0 load(1, XDATA, add(CFA_XSP16, literal(-2)))
          CFI (cfiCond105) DPH0 load(1, XDATA, add(CFA_XSP16, literal(-1)))
          CFI (cfiCond105) CFA_SP SP+-6
          CFI (cfiCond105) CFA_XSP16 add(XSP16, 25)
          CFI Block cfiCond106 Using cfiCommon0
          CFI (cfiCond106) Function bdb_ProcessSimpleDesc
          CFI (cfiCond106) Conditional ??CrossCallReturnLabel_124, ??CrossCallReturnLabel_118, ??CrossCallReturnLabel_105
          CFI (cfiCond106) R6 load(1, XDATA, add(CFA_XSP16, literal(-9)))
          CFI (cfiCond106) VB load(1, XDATA, add(CFA_XSP16, literal(-8)))
          CFI (cfiCond106) V0 load(1, XDATA, add(CFA_XSP16, literal(-7)))
          CFI (cfiCond106) R7 load(1, XDATA, add(CFA_XSP16, literal(-6)))
          CFI (cfiCond106) ?RET_LOW load(1, XDATA, add(CFA_XSP16, literal(-5)))
          CFI (cfiCond106) ?RET_HIGH load(1, XDATA, add(CFA_XSP16, literal(-4)))
          CFI (cfiCond106) ?BRET_EXT load(1, XDATA, add(CFA_XSP16, literal(-3)))
          CFI (cfiCond106) DPL0 load(1, XDATA, add(CFA_XSP16, literal(-2)))
          CFI (cfiCond106) DPH0 load(1, XDATA, add(CFA_XSP16, literal(-1)))
          CFI (cfiCond106) CFA_SP SP+-6
          CFI (cfiCond106) CFA_XSP16 add(XSP16, 28)
          CFI Block cfiCond107 Using cfiCommon0
          CFI (cfiCond107) Function bdb_setEpDescListToActiveEndpoint
          CFI (cfiCond107) Conditional ??CrossCallReturnLabel_124, ??CrossCallReturnLabel_118, ??CrossCallReturnLabel_106
          CFI (cfiCond107) DPL0 Frame(CFA_SP, 4)
          CFI (cfiCond107) DPH0 Frame(CFA_SP, 5)
          CFI (cfiCond107) CFA_SP SP+-11
          CFI Block cfiCond108 Using cfiCommon0
          CFI (cfiCond108) Function bdb_setEpDescListToActiveEndpoint
          CFI (cfiCond108) Conditional ??CrossCallReturnLabel_124, ??CrossCallReturnLabel_118, ??CrossCallReturnLabel_107
          CFI (cfiCond108) DPL0 Frame(CFA_SP, 4)
          CFI (cfiCond108) DPH0 Frame(CFA_SP, 5)
          CFI (cfiCond108) CFA_SP SP+-11
          CFI Block cfiCond109 Using cfiCommon0
          CFI (cfiCond109) Function bdb_checkMatchingEndpoints
          CFI (cfiCond109) Conditional ??CrossCallReturnLabel_124, ??CrossCallReturnLabel_118, ??CrossCallReturnLabel_108
          CFI (cfiCond109) R6 load(1, XDATA, add(CFA_XSP16, literal(-20)))
          CFI (cfiCond109) VB load(1, XDATA, add(CFA_XSP16, literal(-19)))
          CFI (cfiCond109) V0 load(1, XDATA, add(CFA_XSP16, literal(-18)))
          CFI (cfiCond109) V1 load(1, XDATA, add(CFA_XSP16, literal(-17)))
          CFI (cfiCond109) V2 load(1, XDATA, add(CFA_XSP16, literal(-16)))
          CFI (cfiCond109) V3 load(1, XDATA, add(CFA_XSP16, literal(-15)))
          CFI (cfiCond109) V4 load(1, XDATA, add(CFA_XSP16, literal(-14)))
          CFI (cfiCond109) V5 load(1, XDATA, add(CFA_XSP16, literal(-13)))
          CFI (cfiCond109) V6 load(1, XDATA, add(CFA_XSP16, literal(-12)))
          CFI (cfiCond109) V7 load(1, XDATA, add(CFA_XSP16, literal(-11)))
          CFI (cfiCond109) V8 load(1, XDATA, add(CFA_XSP16, literal(-10)))
          CFI (cfiCond109) V9 load(1, XDATA, add(CFA_XSP16, literal(-9)))
          CFI (cfiCond109) V10 load(1, XDATA, add(CFA_XSP16, literal(-8)))
          CFI (cfiCond109) V11 load(1, XDATA, add(CFA_XSP16, literal(-7)))
          CFI (cfiCond109) R7 load(1, XDATA, add(CFA_XSP16, literal(-6)))
          CFI (cfiCond109) ?RET_LOW load(1, XDATA, add(CFA_XSP16, literal(-5)))
          CFI (cfiCond109) ?RET_HIGH load(1, XDATA, add(CFA_XSP16, literal(-4)))
          CFI (cfiCond109) ?BRET_EXT load(1, XDATA, add(CFA_XSP16, literal(-3)))
          CFI (cfiCond109) DPL0 load(1, XDATA, add(CFA_XSP16, literal(-2)))
          CFI (cfiCond109) DPH0 load(1, XDATA, add(CFA_XSP16, literal(-1)))
          CFI (cfiCond109) CFA_SP SP+-6
          CFI (cfiCond109) CFA_XSP16 add(XSP16, 41)
          CFI Block cfiCond110 Using cfiCommon0
          CFI (cfiCond110) Function bdb_checkMatchingEndpoints
          CFI (cfiCond110) Conditional ??CrossCallReturnLabel_124, ??CrossCallReturnLabel_118, ??CrossCallReturnLabel_109
          CFI (cfiCond110) R6 load(1, XDATA, add(CFA_XSP16, literal(-20)))
          CFI (cfiCond110) VB load(1, XDATA, add(CFA_XSP16, literal(-19)))
          CFI (cfiCond110) V0 load(1, XDATA, add(CFA_XSP16, literal(-18)))
          CFI (cfiCond110) V1 load(1, XDATA, add(CFA_XSP16, literal(-17)))
          CFI (cfiCond110) V2 load(1, XDATA, add(CFA_XSP16, literal(-16)))
          CFI (cfiCond110) V3 load(1, XDATA, add(CFA_XSP16, literal(-15)))
          CFI (cfiCond110) V4 load(1, XDATA, add(CFA_XSP16, literal(-14)))
          CFI (cfiCond110) V5 load(1, XDATA, add(CFA_XSP16, literal(-13)))
          CFI (cfiCond110) V6 load(1, XDATA, add(CFA_XSP16, literal(-12)))
          CFI (cfiCond110) V7 load(1, XDATA, add(CFA_XSP16, literal(-11)))
          CFI (cfiCond110) V8 load(1, XDATA, add(CFA_XSP16, literal(-10)))
          CFI (cfiCond110) V9 load(1, XDATA, add(CFA_XSP16, literal(-9)))
          CFI (cfiCond110) V10 load(1, XDATA, add(CFA_XSP16, literal(-8)))
          CFI (cfiCond110) V11 load(1, XDATA, add(CFA_XSP16, literal(-7)))
          CFI (cfiCond110) R7 load(1, XDATA, add(CFA_XSP16, literal(-6)))
          CFI (cfiCond110) ?RET_LOW load(1, XDATA, add(CFA_XSP16, literal(-5)))
          CFI (cfiCond110) ?RET_HIGH load(1, XDATA, add(CFA_XSP16, literal(-4)))
          CFI (cfiCond110) ?BRET_EXT load(1, XDATA, add(CFA_XSP16, literal(-3)))
          CFI (cfiCond110) DPL0 load(1, XDATA, add(CFA_XSP16, literal(-2)))
          CFI (cfiCond110) DPH0 load(1, XDATA, add(CFA_XSP16, literal(-1)))
          CFI (cfiCond110) CFA_SP SP+-6
          CFI (cfiCond110) CFA_XSP16 add(XSP16, 41)
          CFI Block cfiCond111 Using cfiCommon0
          CFI (cfiCond111) Function bdb_zclFindingBindingAddBindEntry
          CFI (cfiCond111) Conditional ??CrossCallReturnLabel_124, ??CrossCallReturnLabel_118, ??CrossCallReturnLabel_110
          CFI (cfiCond111) R6 load(1, XDATA, add(CFA_XSP16, literal(-12)))
          CFI (cfiCond111) VB load(1, XDATA, add(CFA_XSP16, literal(-11)))
          CFI (cfiCond111) V0 load(1, XDATA, add(CFA_XSP16, literal(-10)))
          CFI (cfiCond111) V1 load(1, XDATA, add(CFA_XSP16, literal(-9)))
          CFI (cfiCond111) V2 load(1, XDATA, add(CFA_XSP16, literal(-8)))
          CFI (cfiCond111) V3 load(1, XDATA, add(CFA_XSP16, literal(-7)))
          CFI (cfiCond111) R7 load(1, XDATA, add(CFA_XSP16, literal(-6)))
          CFI (cfiCond111) ?RET_LOW load(1, XDATA, add(CFA_XSP16, literal(-5)))
          CFI (cfiCond111) ?RET_HIGH load(1, XDATA, add(CFA_XSP16, literal(-4)))
          CFI (cfiCond111) ?BRET_EXT load(1, XDATA, add(CFA_XSP16, literal(-3)))
          CFI (cfiCond111) DPL0 load(1, XDATA, add(CFA_XSP16, literal(-2)))
          CFI (cfiCond111) DPH0 load(1, XDATA, add(CFA_XSP16, literal(-1)))
          CFI (cfiCond111) CFA_SP SP+-6
          CFI (cfiCond111) CFA_XSP16 add(XSP16, 14)
          CFI Block cfiCond112 Using cfiCommon0
          CFI (cfiCond112) Function bdb_ProcessRespondentList
          CFI (cfiCond112) Conditional ??CrossCallReturnLabel_124, ??CrossCallReturnLabel_118, ??CrossCallReturnLabel_111
          CFI (cfiCond112) R6 load(1, XDATA, add(CFA_XSP16, literal(-9)))
          CFI (cfiCond112) VB load(1, XDATA, add(CFA_XSP16, literal(-8)))
          CFI (cfiCond112) V0 load(1, XDATA, add(CFA_XSP16, literal(-7)))
          CFI (cfiCond112) R7 load(1, XDATA, add(CFA_XSP16, literal(-6)))
          CFI (cfiCond112) ?RET_LOW load(1, XDATA, add(CFA_XSP16, literal(-5)))
          CFI (cfiCond112) ?RET_HIGH load(1, XDATA, add(CFA_XSP16, literal(-4)))
          CFI (cfiCond112) ?BRET_EXT load(1, XDATA, add(CFA_XSP16, literal(-3)))
          CFI (cfiCond112) DPL0 load(1, XDATA, add(CFA_XSP16, literal(-2)))
          CFI (cfiCond112) DPH0 load(1, XDATA, add(CFA_XSP16, literal(-1)))
          CFI (cfiCond112) CFA_SP SP+-6
          CFI (cfiCond112) CFA_XSP16 add(XSP16, 18)
          CFI Block cfiCond113 Using cfiCommon0
          CFI (cfiCond113) Function bdb_ProcessRespondentList
          CFI (cfiCond113) Conditional ??CrossCallReturnLabel_124, ??CrossCallReturnLabel_118, ??CrossCallReturnLabel_112
          CFI (cfiCond113) R6 load(1, XDATA, add(CFA_XSP16, literal(-9)))
          CFI (cfiCond113) VB load(1, XDATA, add(CFA_XSP16, literal(-8)))
          CFI (cfiCond113) V0 load(1, XDATA, add(CFA_XSP16, literal(-7)))
          CFI (cfiCond113) R7 load(1, XDATA, add(CFA_XSP16, literal(-6)))
          CFI (cfiCond113) ?RET_LOW load(1, XDATA, add(CFA_XSP16, literal(-5)))
          CFI (cfiCond113) ?RET_HIGH load(1, XDATA, add(CFA_XSP16, literal(-4)))
          CFI (cfiCond113) ?BRET_EXT load(1, XDATA, add(CFA_XSP16, literal(-3)))
          CFI (cfiCond113) DPL0 load(1, XDATA, add(CFA_XSP16, literal(-2)))
          CFI (cfiCond113) DPH0 load(1, XDATA, add(CFA_XSP16, literal(-1)))
          CFI (cfiCond113) CFA_SP SP+-6
          CFI (cfiCond113) CFA_XSP16 add(XSP16, 18)
          CFI Block cfiCond114 Using cfiCommon0
          CFI (cfiCond114) Function bdb_ProcessRespondentList
          CFI (cfiCond114) Conditional ??CrossCallReturnLabel_124, ??CrossCallReturnLabel_118, ??CrossCallReturnLabel_113
          CFI (cfiCond114) R6 load(1, XDATA, add(CFA_XSP16, literal(-9)))
          CFI (cfiCond114) VB load(1, XDATA, add(CFA_XSP16, literal(-8)))
          CFI (cfiCond114) V0 load(1, XDATA, add(CFA_XSP16, literal(-7)))
          CFI (cfiCond114) R7 load(1, XDATA, add(CFA_XSP16, literal(-6)))
          CFI (cfiCond114) ?RET_LOW load(1, XDATA, add(CFA_XSP16, literal(-5)))
          CFI (cfiCond114) ?RET_HIGH load(1, XDATA, add(CFA_XSP16, literal(-4)))
          CFI (cfiCond114) ?BRET_EXT load(1, XDATA, add(CFA_XSP16, literal(-3)))
          CFI (cfiCond114) DPL0 load(1, XDATA, add(CFA_XSP16, literal(-2)))
          CFI (cfiCond114) DPH0 load(1, XDATA, add(CFA_XSP16, literal(-1)))
          CFI (cfiCond114) CFA_SP SP+-6
          CFI (cfiCond114) CFA_XSP16 add(XSP16, 18)
          CFI Block cfiCond115 Using cfiCommon0
          CFI (cfiCond115) Function bdb_checkMatchingEndpoints
          CFI (cfiCond115) Conditional ??CrossCallReturnLabel_123, ??CrossCallReturnLabel_102, ??CrossCallReturnLabel_22
          CFI (cfiCond115) R6 load(1, XDATA, add(CFA_XSP16, literal(-20)))
          CFI (cfiCond115) VB load(1, XDATA, add(CFA_XSP16, literal(-19)))
          CFI (cfiCond115) V0 load(1, XDATA, add(CFA_XSP16, literal(-18)))
          CFI (cfiCond115) V1 load(1, XDATA, add(CFA_XSP16, literal(-17)))
          CFI (cfiCond115) V2 load(1, XDATA, add(CFA_XSP16, literal(-16)))
          CFI (cfiCond115) V3 load(1, XDATA, add(CFA_XSP16, literal(-15)))
          CFI (cfiCond115) V4 load(1, XDATA, add(CFA_XSP16, literal(-14)))
          CFI (cfiCond115) V5 load(1, XDATA, add(CFA_XSP16, literal(-13)))
          CFI (cfiCond115) V6 load(1, XDATA, add(CFA_XSP16, literal(-12)))
          CFI (cfiCond115) V7 load(1, XDATA, add(CFA_XSP16, literal(-11)))
          CFI (cfiCond115) V8 load(1, XDATA, add(CFA_XSP16, literal(-10)))
          CFI (cfiCond115) V9 load(1, XDATA, add(CFA_XSP16, literal(-9)))
          CFI (cfiCond115) V10 load(1, XDATA, add(CFA_XSP16, literal(-8)))
          CFI (cfiCond115) V11 load(1, XDATA, add(CFA_XSP16, literal(-7)))
          CFI (cfiCond115) R7 load(1, XDATA, add(CFA_XSP16, literal(-6)))
          CFI (cfiCond115) ?RET_LOW load(1, XDATA, add(CFA_XSP16, literal(-5)))
          CFI (cfiCond115) ?RET_HIGH load(1, XDATA, add(CFA_XSP16, literal(-4)))
          CFI (cfiCond115) ?BRET_EXT load(1, XDATA, add(CFA_XSP16, literal(-3)))
          CFI (cfiCond115) DPL0 load(1, XDATA, add(CFA_XSP16, literal(-2)))
          CFI (cfiCond115) DPH0 load(1, XDATA, add(CFA_XSP16, literal(-1)))
          CFI (cfiCond115) CFA_SP SP+-6
          CFI (cfiCond115) CFA_XSP16 add(XSP16, 41)
          CFI Block cfiCond116 Using cfiCommon0
          CFI (cfiCond116) Function bdb_checkMatchingEndpoints
          CFI (cfiCond116) Conditional ??CrossCallReturnLabel_123, ??CrossCallReturnLabel_102, ??CrossCallReturnLabel_23
          CFI (cfiCond116) R6 load(1, XDATA, add(CFA_XSP16, literal(-20)))
          CFI (cfiCond116) VB load(1, XDATA, add(CFA_XSP16, literal(-19)))
          CFI (cfiCond116) V0 load(1, XDATA, add(CFA_XSP16, literal(-18)))
          CFI (cfiCond116) V1 load(1, XDATA, add(CFA_XSP16, literal(-17)))
          CFI (cfiCond116) V2 load(1, XDATA, add(CFA_XSP16, literal(-16)))
          CFI (cfiCond116) V3 load(1, XDATA, add(CFA_XSP16, literal(-15)))
          CFI (cfiCond116) V4 load(1, XDATA, add(CFA_XSP16, literal(-14)))
          CFI (cfiCond116) V5 load(1, XDATA, add(CFA_XSP16, literal(-13)))
          CFI (cfiCond116) V6 load(1, XDATA, add(CFA_XSP16, literal(-12)))
          CFI (cfiCond116) V7 load(1, XDATA, add(CFA_XSP16, literal(-11)))
          CFI (cfiCond116) V8 load(1, XDATA, add(CFA_XSP16, literal(-10)))
          CFI (cfiCond116) V9 load(1, XDATA, add(CFA_XSP16, literal(-9)))
          CFI (cfiCond116) V10 load(1, XDATA, add(CFA_XSP16, literal(-8)))
          CFI (cfiCond116) V11 load(1, XDATA, add(CFA_XSP16, literal(-7)))
          CFI (cfiCond116) R7 load(1, XDATA, add(CFA_XSP16, literal(-6)))
          CFI (cfiCond116) ?RET_LOW load(1, XDATA, add(CFA_XSP16, literal(-5)))
          CFI (cfiCond116) ?RET_HIGH load(1, XDATA, add(CFA_XSP16, literal(-4)))
          CFI (cfiCond116) ?BRET_EXT load(1, XDATA, add(CFA_XSP16, literal(-3)))
          CFI (cfiCond116) DPL0 load(1, XDATA, add(CFA_XSP16, literal(-2)))
          CFI (cfiCond116) DPH0 load(1, XDATA, add(CFA_XSP16, literal(-1)))
          CFI (cfiCond116) CFA_SP SP+-6
          CFI (cfiCond116) CFA_XSP16 add(XSP16, 41)
          CFI Block cfiCond117 Using cfiCommon0
          CFI (cfiCond117) Function bdb_ProcessIEEEAddrRsp
          CFI (cfiCond117) Conditional ??CrossCallReturnLabel_123, ??CrossCallReturnLabel_101, ??CrossCallReturnLabel_16
          CFI (cfiCond117) R6 load(1, XDATA, add(CFA_XSP16, literal(-10)))
          CFI (cfiCond117) VB load(1, XDATA, add(CFA_XSP16, literal(-9)))
          CFI (cfiCond117) V0 load(1, XDATA, add(CFA_XSP16, literal(-8)))
          CFI (cfiCond117) V1 load(1, XDATA, add(CFA_XSP16, literal(-7)))
          CFI (cfiCond117) R7 load(1, XDATA, add(CFA_XSP16, literal(-6)))
          CFI (cfiCond117) ?RET_LOW load(1, XDATA, add(CFA_XSP16, literal(-5)))
          CFI (cfiCond117) ?RET_HIGH load(1, XDATA, add(CFA_XSP16, literal(-4)))
          CFI (cfiCond117) ?BRET_EXT load(1, XDATA, add(CFA_XSP16, literal(-3)))
          CFI (cfiCond117) DPL0 load(1, XDATA, add(CFA_XSP16, literal(-2)))
          CFI (cfiCond117) DPH0 load(1, XDATA, add(CFA_XSP16, literal(-1)))
          CFI (cfiCond117) CFA_SP SP+-6
          CFI (cfiCond117) CFA_XSP16 add(XSP16, 25)
          CFI Block cfiCond118 Using cfiCommon0
          CFI (cfiCond118) Function bdb_checkMatchingEndpoints
          CFI (cfiCond118) Conditional ??CrossCallReturnLabel_123, ??CrossCallReturnLabel_101, ??CrossCallReturnLabel_17
          CFI (cfiCond118) R6 load(1, XDATA, add(CFA_XSP16, literal(-20)))
          CFI (cfiCond118) VB load(1, XDATA, add(CFA_XSP16, literal(-19)))
          CFI (cfiCond118) V0 load(1, XDATA, add(CFA_XSP16, literal(-18)))
          CFI (cfiCond118) V1 load(1, XDATA, add(CFA_XSP16, literal(-17)))
          CFI (cfiCond118) V2 load(1, XDATA, add(CFA_XSP16, literal(-16)))
          CFI (cfiCond118) V3 load(1, XDATA, add(CFA_XSP16, literal(-15)))
          CFI (cfiCond118) V4 load(1, XDATA, add(CFA_XSP16, literal(-14)))
          CFI (cfiCond118) V5 load(1, XDATA, add(CFA_XSP16, literal(-13)))
          CFI (cfiCond118) V6 load(1, XDATA, add(CFA_XSP16, literal(-12)))
          CFI (cfiCond118) V7 load(1, XDATA, add(CFA_XSP16, literal(-11)))
          CFI (cfiCond118) V8 load(1, XDATA, add(CFA_XSP16, literal(-10)))
          CFI (cfiCond118) V9 load(1, XDATA, add(CFA_XSP16, literal(-9)))
          CFI (cfiCond118) V10 load(1, XDATA, add(CFA_XSP16, literal(-8)))
          CFI (cfiCond118) V11 load(1, XDATA, add(CFA_XSP16, literal(-7)))
          CFI (cfiCond118) R7 load(1, XDATA, add(CFA_XSP16, literal(-6)))
          CFI (cfiCond118) ?RET_LOW load(1, XDATA, add(CFA_XSP16, literal(-5)))
          CFI (cfiCond118) ?RET_HIGH load(1, XDATA, add(CFA_XSP16, literal(-4)))
          CFI (cfiCond118) ?BRET_EXT load(1, XDATA, add(CFA_XSP16, literal(-3)))
          CFI (cfiCond118) DPL0 load(1, XDATA, add(CFA_XSP16, literal(-2)))
          CFI (cfiCond118) DPH0 load(1, XDATA, add(CFA_XSP16, literal(-1)))
          CFI (cfiCond118) CFA_SP SP+-6
          CFI (cfiCond118) CFA_XSP16 add(XSP16, 41)
          CFI Block cfiCond119 Using cfiCommon0
          CFI (cfiCond119) Function bdb_ProcessRespondentList
          CFI (cfiCond119) Conditional ??CrossCallReturnLabel_123, ??CrossCallReturnLabel_103, ??CrossCallReturnLabel_97
          CFI (cfiCond119) R6 load(1, XDATA, add(CFA_XSP16, literal(-9)))
          CFI (cfiCond119) VB load(1, XDATA, add(CFA_XSP16, literal(-8)))
          CFI (cfiCond119) V0 load(1, XDATA, add(CFA_XSP16, literal(-7)))
          CFI (cfiCond119) R7 load(1, XDATA, add(CFA_XSP16, literal(-6)))
          CFI (cfiCond119) ?RET_LOW load(1, XDATA, add(CFA_XSP16, literal(-5)))
          CFI (cfiCond119) ?RET_HIGH load(1, XDATA, add(CFA_XSP16, literal(-4)))
          CFI (cfiCond119) ?BRET_EXT load(1, XDATA, add(CFA_XSP16, literal(-3)))
          CFI (cfiCond119) DPL0 load(1, XDATA, add(CFA_XSP16, literal(-2)))
          CFI (cfiCond119) DPH0 load(1, XDATA, add(CFA_XSP16, literal(-1)))
          CFI (cfiCond119) CFA_SP SP+-6
          CFI (cfiCond119) CFA_XSP16 add(XSP16, 18)
          CFI Block cfiCond120 Using cfiCommon0
          CFI (cfiCond120) Function bdb_ProcessRespondentList
          CFI (cfiCond120) Conditional ??CrossCallReturnLabel_123, ??CrossCallReturnLabel_103, ??CrossCallReturnLabel_98
          CFI (cfiCond120) R6 load(1, XDATA, add(CFA_XSP16, literal(-9)))
          CFI (cfiCond120) VB load(1, XDATA, add(CFA_XSP16, literal(-8)))
          CFI (cfiCond120) V0 load(1, XDATA, add(CFA_XSP16, literal(-7)))
          CFI (cfiCond120) R7 load(1, XDATA, add(CFA_XSP16, literal(-6)))
          CFI (cfiCond120) ?RET_LOW load(1, XDATA, add(CFA_XSP16, literal(-5)))
          CFI (cfiCond120) ?RET_HIGH load(1, XDATA, add(CFA_XSP16, literal(-4)))
          CFI (cfiCond120) ?BRET_EXT load(1, XDATA, add(CFA_XSP16, literal(-3)))
          CFI (cfiCond120) DPL0 load(1, XDATA, add(CFA_XSP16, literal(-2)))
          CFI (cfiCond120) DPH0 load(1, XDATA, add(CFA_XSP16, literal(-1)))
          CFI (cfiCond120) CFA_SP SP+-6
          CFI (cfiCond120) CFA_XSP16 add(XSP16, 18)
          CFI Block cfiCond121 Using cfiCommon0
          CFI (cfiCond121) Function bdb_ProcessSimpleDesc
          CFI (cfiCond121) Conditional ??CrossCallReturnLabel_123, ??CrossCallReturnLabel_103, ??CrossCallReturnLabel_99
          CFI (cfiCond121) R6 load(1, XDATA, add(CFA_XSP16, literal(-9)))
          CFI (cfiCond121) VB load(1, XDATA, add(CFA_XSP16, literal(-8)))
          CFI (cfiCond121) V0 load(1, XDATA, add(CFA_XSP16, literal(-7)))
          CFI (cfiCond121) R7 load(1, XDATA, add(CFA_XSP16, literal(-6)))
          CFI (cfiCond121) ?RET_LOW load(1, XDATA, add(CFA_XSP16, literal(-5)))
          CFI (cfiCond121) ?RET_HIGH load(1, XDATA, add(CFA_XSP16, literal(-4)))
          CFI (cfiCond121) ?BRET_EXT load(1, XDATA, add(CFA_XSP16, literal(-3)))
          CFI (cfiCond121) DPL0 load(1, XDATA, add(CFA_XSP16, literal(-2)))
          CFI (cfiCond121) DPH0 load(1, XDATA, add(CFA_XSP16, literal(-1)))
          CFI (cfiCond121) CFA_SP SP+-6
          CFI (cfiCond121) CFA_XSP16 add(XSP16, 28)
          CFI Block cfiCond122 Using cfiCommon0
          CFI (cfiCond122) Function bdb_ProcessRespondentList
          CFI (cfiCond122) Conditional ??CrossCallReturnLabel_123, ??CrossCallReturnLabel_103, ??CrossCallReturnLabel_100
          CFI (cfiCond122) R6 load(1, XDATA, add(CFA_XSP16, literal(-9)))
          CFI (cfiCond122) VB load(1, XDATA, add(CFA_XSP16, literal(-8)))
          CFI (cfiCond122) V0 load(1, XDATA, add(CFA_XSP16, literal(-7)))
          CFI (cfiCond122) R7 load(1, XDATA, add(CFA_XSP16, literal(-6)))
          CFI (cfiCond122) ?RET_LOW load(1, XDATA, add(CFA_XSP16, literal(-5)))
          CFI (cfiCond122) ?RET_HIGH load(1, XDATA, add(CFA_XSP16, literal(-4)))
          CFI (cfiCond122) ?BRET_EXT load(1, XDATA, add(CFA_XSP16, literal(-3)))
          CFI (cfiCond122) DPL0 load(1, XDATA, add(CFA_XSP16, literal(-2)))
          CFI (cfiCond122) DPH0 load(1, XDATA, add(CFA_XSP16, literal(-1)))
          CFI (cfiCond122) CFA_SP SP+-6
          CFI (cfiCond122) CFA_XSP16 add(XSP16, 18)
          CFI Block cfiCond123 Using cfiCommon0
          CFI (cfiCond123) Function bdb_setEpDescListToActiveEndpoint
          CFI (cfiCond123) Conditional ??CrossCallReturnLabel_120, ??CrossCallReturnLabel_46, ??CrossCallReturnLabel_11
          CFI (cfiCond123) DPL0 Frame(CFA_SP, 4)
          CFI (cfiCond123) DPH0 Frame(CFA_SP, 5)
          CFI (cfiCond123) CFA_SP SP+-11
          CFI Block cfiCond124 Using cfiCommon0
          CFI (cfiCond124) Function bdb_checkMatchingEndpoints
          CFI (cfiCond124) Conditional ??CrossCallReturnLabel_120, ??CrossCallReturnLabel_46, ??CrossCallReturnLabel_12
          CFI (cfiCond124) R6 load(1, XDATA, add(CFA_XSP16, literal(-20)))
          CFI (cfiCond124) VB load(1, XDATA, add(CFA_XSP16, literal(-19)))
          CFI (cfiCond124) V0 load(1, XDATA, add(CFA_XSP16, literal(-18)))
          CFI (cfiCond124) V1 load(1, XDATA, add(CFA_XSP16, literal(-17)))
          CFI (cfiCond124) V2 load(1, XDATA, add(CFA_XSP16, literal(-16)))
          CFI (cfiCond124) V3 load(1, XDATA, add(CFA_XSP16, literal(-15)))
          CFI (cfiCond124) V4 load(1, XDATA, add(CFA_XSP16, literal(-14)))
          CFI (cfiCond124) V5 load(1, XDATA, add(CFA_XSP16, literal(-13)))
          CFI (cfiCond124) V6 load(1, XDATA, add(CFA_XSP16, literal(-12)))
          CFI (cfiCond124) V7 load(1, XDATA, add(CFA_XSP16, literal(-11)))
          CFI (cfiCond124) V8 load(1, XDATA, add(CFA_XSP16, literal(-10)))
          CFI (cfiCond124) V9 load(1, XDATA, add(CFA_XSP16, literal(-9)))
          CFI (cfiCond124) V10 load(1, XDATA, add(CFA_XSP16, literal(-8)))
          CFI (cfiCond124) V11 load(1, XDATA, add(CFA_XSP16, literal(-7)))
          CFI (cfiCond124) R7 load(1, XDATA, add(CFA_XSP16, literal(-6)))
          CFI (cfiCond124) ?RET_LOW load(1, XDATA, add(CFA_XSP16, literal(-5)))
          CFI (cfiCond124) ?RET_HIGH load(1, XDATA, add(CFA_XSP16, literal(-4)))
          CFI (cfiCond124) ?BRET_EXT load(1, XDATA, add(CFA_XSP16, literal(-3)))
          CFI (cfiCond124) DPL0 load(1, XDATA, add(CFA_XSP16, literal(-2)))
          CFI (cfiCond124) DPH0 load(1, XDATA, add(CFA_XSP16, literal(-1)))
          CFI (cfiCond124) CFA_SP SP+-6
          CFI (cfiCond124) CFA_XSP16 add(XSP16, 41)
          CFI Block cfiCond125 Using cfiCommon0
          CFI (cfiCond125) Function bdb_ProcessSimpleDesc
          CFI (cfiCond125) Conditional ??CrossCallReturnLabel_120, ??CrossCallReturnLabel_46, ??CrossCallReturnLabel_13
          CFI (cfiCond125) R6 load(1, XDATA, add(CFA_XSP16, literal(-9)))
          CFI (cfiCond125) VB load(1, XDATA, add(CFA_XSP16, literal(-8)))
          CFI (cfiCond125) V0 load(1, XDATA, add(CFA_XSP16, literal(-7)))
          CFI (cfiCond125) R7 load(1, XDATA, add(CFA_XSP16, literal(-6)))
          CFI (cfiCond125) ?RET_LOW load(1, XDATA, add(CFA_XSP16, literal(-5)))
          CFI (cfiCond125) ?RET_HIGH load(1, XDATA, add(CFA_XSP16, literal(-4)))
          CFI (cfiCond125) ?BRET_EXT load(1, XDATA, add(CFA_XSP16, literal(-3)))
          CFI (cfiCond125) DPL0 load(1, XDATA, add(CFA_XSP16, literal(-2)))
          CFI (cfiCond125) DPH0 load(1, XDATA, add(CFA_XSP16, literal(-1)))
          CFI (cfiCond125) CFA_SP SP+-6
          CFI (cfiCond125) CFA_XSP16 add(XSP16, 28)
          CFI Block cfiCond126 Using cfiCommon0
          CFI (cfiCond126) Function bdb_setEpDescListToActiveEndpoint
          CFI (cfiCond126) Conditional ??CrossCallReturnLabel_120, ??CrossCallReturnLabel_45, ??CrossCallReturnLabel_0
          CFI (cfiCond126) DPL0 Frame(CFA_SP, 4)
          CFI (cfiCond126) DPH0 Frame(CFA_SP, 5)
          CFI (cfiCond126) CFA_SP SP+-11
          CFI Block cfiCond127 Using cfiCommon0
          CFI (cfiCond127) Function bdb_setEpDescListToActiveEndpoint
          CFI (cfiCond127) Conditional ??CrossCallReturnLabel_120, ??CrossCallReturnLabel_45, ??CrossCallReturnLabel_1
          CFI (cfiCond127) DPL0 Frame(CFA_SP, 4)
          CFI (cfiCond127) DPH0 Frame(CFA_SP, 5)
          CFI (cfiCond127) CFA_SP SP+-11
          CFI Block cfiCond128 Using cfiCommon0
          CFI (cfiCond128) Function bdb_checkMatchingEndpoints
          CFI (cfiCond128) Conditional ??CrossCallReturnLabel_120, ??CrossCallReturnLabel_45, ??CrossCallReturnLabel_2
          CFI (cfiCond128) R6 load(1, XDATA, add(CFA_XSP16, literal(-20)))
          CFI (cfiCond128) VB load(1, XDATA, add(CFA_XSP16, literal(-19)))
          CFI (cfiCond128) V0 load(1, XDATA, add(CFA_XSP16, literal(-18)))
          CFI (cfiCond128) V1 load(1, XDATA, add(CFA_XSP16, literal(-17)))
          CFI (cfiCond128) V2 load(1, XDATA, add(CFA_XSP16, literal(-16)))
          CFI (cfiCond128) V3 load(1, XDATA, add(CFA_XSP16, literal(-15)))
          CFI (cfiCond128) V4 load(1, XDATA, add(CFA_XSP16, literal(-14)))
          CFI (cfiCond128) V5 load(1, XDATA, add(CFA_XSP16, literal(-13)))
          CFI (cfiCond128) V6 load(1, XDATA, add(CFA_XSP16, literal(-12)))
          CFI (cfiCond128) V7 load(1, XDATA, add(CFA_XSP16, literal(-11)))
          CFI (cfiCond128) V8 load(1, XDATA, add(CFA_XSP16, literal(-10)))
          CFI (cfiCond128) V9 load(1, XDATA, add(CFA_XSP16, literal(-9)))
          CFI (cfiCond128) V10 load(1, XDATA, add(CFA_XSP16, literal(-8)))
          CFI (cfiCond128) V11 load(1, XDATA, add(CFA_XSP16, literal(-7)))
          CFI (cfiCond128) R7 load(1, XDATA, add(CFA_XSP16, literal(-6)))
          CFI (cfiCond128) ?RET_LOW load(1, XDATA, add(CFA_XSP16, literal(-5)))
          CFI (cfiCond128) ?RET_HIGH load(1, XDATA, add(CFA_XSP16, literal(-4)))
          CFI (cfiCond128) ?BRET_EXT load(1, XDATA, add(CFA_XSP16, literal(-3)))
          CFI (cfiCond128) DPL0 load(1, XDATA, add(CFA_XSP16, literal(-2)))
          CFI (cfiCond128) DPH0 load(1, XDATA, add(CFA_XSP16, literal(-1)))
          CFI (cfiCond128) CFA_SP SP+-6
          CFI (cfiCond128) CFA_XSP16 add(XSP16, 41)
          CFI Block cfiCond129 Using cfiCommon0
          CFI (cfiCond129) Function bdb_setEpDescListToActiveEndpoint
          CFI (cfiCond129) Conditional ??CrossCallReturnLabel_120, ??CrossCallReturnLabel_47, ??CrossCallReturnLabel_43
          CFI (cfiCond129) DPL0 Frame(CFA_SP, 4)
          CFI (cfiCond129) DPH0 Frame(CFA_SP, 5)
          CFI (cfiCond129) CFA_SP SP+-11
          CFI Block cfiCond130 Using cfiCommon0
          CFI (cfiCond130) Function bdb_checkMatchingEndpoints
          CFI (cfiCond130) Conditional ??CrossCallReturnLabel_120, ??CrossCallReturnLabel_47, ??CrossCallReturnLabel_44
          CFI (cfiCond130) R6 load(1, XDATA, add(CFA_XSP16, literal(-20)))
          CFI (cfiCond130) VB load(1, XDATA, add(CFA_XSP16, literal(-19)))
          CFI (cfiCond130) V0 load(1, XDATA, add(CFA_XSP16, literal(-18)))
          CFI (cfiCond130) V1 load(1, XDATA, add(CFA_XSP16, literal(-17)))
          CFI (cfiCond130) V2 load(1, XDATA, add(CFA_XSP16, literal(-16)))
          CFI (cfiCond130) V3 load(1, XDATA, add(CFA_XSP16, literal(-15)))
          CFI (cfiCond130) V4 load(1, XDATA, add(CFA_XSP16, literal(-14)))
          CFI (cfiCond130) V5 load(1, XDATA, add(CFA_XSP16, literal(-13)))
          CFI (cfiCond130) V6 load(1, XDATA, add(CFA_XSP16, literal(-12)))
          CFI (cfiCond130) V7 load(1, XDATA, add(CFA_XSP16, literal(-11)))
          CFI (cfiCond130) V8 load(1, XDATA, add(CFA_XSP16, literal(-10)))
          CFI (cfiCond130) V9 load(1, XDATA, add(CFA_XSP16, literal(-9)))
          CFI (cfiCond130) V10 load(1, XDATA, add(CFA_XSP16, literal(-8)))
          CFI (cfiCond130) V11 load(1, XDATA, add(CFA_XSP16, literal(-7)))
          CFI (cfiCond130) R7 load(1, XDATA, add(CFA_XSP16, literal(-6)))
          CFI (cfiCond130) ?RET_LOW load(1, XDATA, add(CFA_XSP16, literal(-5)))
          CFI (cfiCond130) ?RET_HIGH load(1, XDATA, add(CFA_XSP16, literal(-4)))
          CFI (cfiCond130) ?BRET_EXT load(1, XDATA, add(CFA_XSP16, literal(-3)))
          CFI (cfiCond130) DPL0 load(1, XDATA, add(CFA_XSP16, literal(-2)))
          CFI (cfiCond130) DPH0 load(1, XDATA, add(CFA_XSP16, literal(-1)))
          CFI (cfiCond130) CFA_SP SP+-6
          CFI (cfiCond130) CFA_XSP16 add(XSP16, 41)
          CFI Block cfiCond131 Using cfiCommon0
          CFI (cfiCond131) Function bdb_ProcessRespondentList
          CFI (cfiCond131) Conditional ??CrossCallReturnLabel_120, ??CrossCallReturnLabel_47, ??CrossCallReturnLabel_41
          CFI (cfiCond131) R6 load(1, XDATA, add(CFA_XSP16, literal(-9)))
          CFI (cfiCond131) VB load(1, XDATA, add(CFA_XSP16, literal(-8)))
          CFI (cfiCond131) V0 load(1, XDATA, add(CFA_XSP16, literal(-7)))
          CFI (cfiCond131) R7 load(1, XDATA, add(CFA_XSP16, literal(-6)))
          CFI (cfiCond131) ?RET_LOW load(1, XDATA, add(CFA_XSP16, literal(-5)))
          CFI (cfiCond131) ?RET_HIGH load(1, XDATA, add(CFA_XSP16, literal(-4)))
          CFI (cfiCond131) ?BRET_EXT load(1, XDATA, add(CFA_XSP16, literal(-3)))
          CFI (cfiCond131) DPL0 load(1, XDATA, add(CFA_XSP16, literal(-2)))
          CFI (cfiCond131) DPH0 load(1, XDATA, add(CFA_XSP16, literal(-1)))
          CFI (cfiCond131) CFA_SP SP+-6
          CFI (cfiCond131) CFA_XSP16 add(XSP16, 18)
          CFI Block cfiCond132 Using cfiCommon0
          CFI (cfiCond132) Function bdb_ProcessRespondentList
          CFI (cfiCond132) Conditional ??CrossCallReturnLabel_120, ??CrossCallReturnLabel_47, ??CrossCallReturnLabel_42
          CFI (cfiCond132) R6 load(1, XDATA, add(CFA_XSP16, literal(-9)))
          CFI (cfiCond132) VB load(1, XDATA, add(CFA_XSP16, literal(-8)))
          CFI (cfiCond132) V0 load(1, XDATA, add(CFA_XSP16, literal(-7)))
          CFI (cfiCond132) R7 load(1, XDATA, add(CFA_XSP16, literal(-6)))
          CFI (cfiCond132) ?RET_LOW load(1, XDATA, add(CFA_XSP16, literal(-5)))
          CFI (cfiCond132) ?RET_HIGH load(1, XDATA, add(CFA_XSP16, literal(-4)))
          CFI (cfiCond132) ?BRET_EXT load(1, XDATA, add(CFA_XSP16, literal(-3)))
          CFI (cfiCond132) DPL0 load(1, XDATA, add(CFA_XSP16, literal(-2)))
          CFI (cfiCond132) DPH0 load(1, XDATA, add(CFA_XSP16, literal(-1)))
          CFI (cfiCond132) CFA_SP SP+-6
          CFI (cfiCond132) CFA_XSP16 add(XSP16, 19)
          CFI Block cfiCond133 Using cfiCommon0
          CFI (cfiCond133) Function bdb_zclFindingBindingEpType
          CFI (cfiCond133) Conditional ??CrossCallReturnLabel_121, ??CrossCallReturnLabel_58
          CFI (cfiCond133) R6 load(1, XDATA, add(CFA_XSP16, literal(-14)))
          CFI (cfiCond133) VB load(1, XDATA, add(CFA_XSP16, literal(-13)))
          CFI (cfiCond133) V0 load(1, XDATA, add(CFA_XSP16, literal(-12)))
          CFI (cfiCond133) V1 load(1, XDATA, add(CFA_XSP16, literal(-11)))
          CFI (cfiCond133) V2 load(1, XDATA, add(CFA_XSP16, literal(-10)))
          CFI (cfiCond133) V3 load(1, XDATA, add(CFA_XSP16, literal(-9)))
          CFI (cfiCond133) V4 load(1, XDATA, add(CFA_XSP16, literal(-8)))
          CFI (cfiCond133) V5 load(1, XDATA, add(CFA_XSP16, literal(-7)))
          CFI (cfiCond133) R7 load(1, XDATA, add(CFA_XSP16, literal(-6)))
          CFI (cfiCond133) ?RET_LOW load(1, XDATA, add(CFA_XSP16, literal(-5)))
          CFI (cfiCond133) ?RET_HIGH load(1, XDATA, add(CFA_XSP16, literal(-4)))
          CFI (cfiCond133) ?BRET_EXT load(1, XDATA, add(CFA_XSP16, literal(-3)))
          CFI (cfiCond133) DPL0 load(1, XDATA, add(CFA_XSP16, literal(-2)))
          CFI (cfiCond133) DPH0 load(1, XDATA, add(CFA_XSP16, literal(-1)))
          CFI (cfiCond133) CFA_SP SP+-4
          CFI (cfiCond133) CFA_XSP16 add(XSP16, 14)
          CFI Block cfiCond134 Using cfiCommon0
          CFI (cfiCond134) Function bdb_zclFindingBindingEpType
          CFI (cfiCond134) Conditional ??CrossCallReturnLabel_121, ??CrossCallReturnLabel_59
          CFI (cfiCond134) R6 load(1, XDATA, add(CFA_XSP16, literal(-14)))
          CFI (cfiCond134) VB load(1, XDATA, add(CFA_XSP16, literal(-13)))
          CFI (cfiCond134) V0 load(1, XDATA, add(CFA_XSP16, literal(-12)))
          CFI (cfiCond134) V1 load(1, XDATA, add(CFA_XSP16, literal(-11)))
          CFI (cfiCond134) V2 load(1, XDATA, add(CFA_XSP16, literal(-10)))
          CFI (cfiCond134) V3 load(1, XDATA, add(CFA_XSP16, literal(-9)))
          CFI (cfiCond134) V4 load(1, XDATA, add(CFA_XSP16, literal(-8)))
          CFI (cfiCond134) V5 load(1, XDATA, add(CFA_XSP16, literal(-7)))
          CFI (cfiCond134) R7 load(1, XDATA, add(CFA_XSP16, literal(-6)))
          CFI (cfiCond134) ?RET_LOW load(1, XDATA, add(CFA_XSP16, literal(-5)))
          CFI (cfiCond134) ?RET_HIGH load(1, XDATA, add(CFA_XSP16, literal(-4)))
          CFI (cfiCond134) ?BRET_EXT load(1, XDATA, add(CFA_XSP16, literal(-3)))
          CFI (cfiCond134) DPL0 load(1, XDATA, add(CFA_XSP16, literal(-2)))
          CFI (cfiCond134) DPH0 load(1, XDATA, add(CFA_XSP16, literal(-1)))
          CFI (cfiCond134) CFA_SP SP+-4
          CFI (cfiCond134) CFA_XSP16 add(XSP16, 14)
          CFI Block cfiCond135 Using cfiCommon0
          CFI (cfiCond135) Function bdb_zclFindingBindingEpType
          CFI (cfiCond135) Conditional ??CrossCallReturnLabel_121, ??CrossCallReturnLabel_57
          CFI (cfiCond135) R6 load(1, XDATA, add(CFA_XSP16, literal(-14)))
          CFI (cfiCond135) VB load(1, XDATA, add(CFA_XSP16, literal(-13)))
          CFI (cfiCond135) V0 load(1, XDATA, add(CFA_XSP16, literal(-12)))
          CFI (cfiCond135) V1 load(1, XDATA, add(CFA_XSP16, literal(-11)))
          CFI (cfiCond135) V2 load(1, XDATA, add(CFA_XSP16, literal(-10)))
          CFI (cfiCond135) V3 load(1, XDATA, add(CFA_XSP16, literal(-9)))
          CFI (cfiCond135) V4 load(1, XDATA, add(CFA_XSP16, literal(-8)))
          CFI (cfiCond135) V5 load(1, XDATA, add(CFA_XSP16, literal(-7)))
          CFI (cfiCond135) R7 load(1, XDATA, add(CFA_XSP16, literal(-6)))
          CFI (cfiCond135) ?RET_LOW load(1, XDATA, add(CFA_XSP16, literal(-5)))
          CFI (cfiCond135) ?RET_HIGH load(1, XDATA, add(CFA_XSP16, literal(-4)))
          CFI (cfiCond135) ?BRET_EXT load(1, XDATA, add(CFA_XSP16, literal(-3)))
          CFI (cfiCond135) DPL0 load(1, XDATA, add(CFA_XSP16, literal(-2)))
          CFI (cfiCond135) DPH0 load(1, XDATA, add(CFA_XSP16, literal(-1)))
          CFI (cfiCond135) CFA_SP SP+-4
          CFI (cfiCond135) CFA_XSP16 add(XSP16, 14)
          CFI Block cfiCond136 Using cfiCommon0
          CFI (cfiCond136) Function bdb_ProcessRespondentList
          CFI (cfiCond136) Conditional ??CrossCallReturnLabel_122, ??CrossCallReturnLabel_88
          CFI (cfiCond136) R6 load(1, XDATA, add(CFA_XSP16, literal(-9)))
          CFI (cfiCond136) VB load(1, XDATA, add(CFA_XSP16, literal(-8)))
          CFI (cfiCond136) V0 load(1, XDATA, add(CFA_XSP16, literal(-7)))
          CFI (cfiCond136) R7 load(1, XDATA, add(CFA_XSP16, literal(-6)))
          CFI (cfiCond136) ?RET_LOW load(1, XDATA, add(CFA_XSP16, literal(-5)))
          CFI (cfiCond136) ?RET_HIGH load(1, XDATA, add(CFA_XSP16, literal(-4)))
          CFI (cfiCond136) ?BRET_EXT load(1, XDATA, add(CFA_XSP16, literal(-3)))
          CFI (cfiCond136) DPL0 load(1, XDATA, add(CFA_XSP16, literal(-2)))
          CFI (cfiCond136) DPH0 load(1, XDATA, add(CFA_XSP16, literal(-1)))
          CFI (cfiCond136) CFA_SP SP+-4
          CFI (cfiCond136) CFA_XSP16 add(XSP16, 18)
          CFI Block cfiCond137 Using cfiCommon0
          CFI (cfiCond137) Function bdb_ProcessRespondentList
          CFI (cfiCond137) Conditional ??CrossCallReturnLabel_122, ??CrossCallReturnLabel_89
          CFI (cfiCond137) R6 load(1, XDATA, add(CFA_XSP16, literal(-9)))
          CFI (cfiCond137) VB load(1, XDATA, add(CFA_XSP16, literal(-8)))
          CFI (cfiCond137) V0 load(1, XDATA, add(CFA_XSP16, literal(-7)))
          CFI (cfiCond137) R7 load(1, XDATA, add(CFA_XSP16, literal(-6)))
          CFI (cfiCond137) ?RET_LOW load(1, XDATA, add(CFA_XSP16, literal(-5)))
          CFI (cfiCond137) ?RET_HIGH load(1, XDATA, add(CFA_XSP16, literal(-4)))
          CFI (cfiCond137) ?BRET_EXT load(1, XDATA, add(CFA_XSP16, literal(-3)))
          CFI (cfiCond137) DPL0 load(1, XDATA, add(CFA_XSP16, literal(-2)))
          CFI (cfiCond137) DPH0 load(1, XDATA, add(CFA_XSP16, literal(-1)))
          CFI (cfiCond137) CFA_SP SP+-4
          CFI (cfiCond137) CFA_XSP16 add(XSP16, 19)
          CFI Block cfiCond138 Using cfiCommon0
          CFI (cfiCond138) Function bdb_ProcessRespondentList
          CFI (cfiCond138) Conditional ??CrossCallReturnLabel_122, ??CrossCallReturnLabel_90
          CFI (cfiCond138) R6 load(1, XDATA, add(CFA_XSP16, literal(-9)))
          CFI (cfiCond138) VB load(1, XDATA, add(CFA_XSP16, literal(-8)))
          CFI (cfiCond138) V0 load(1, XDATA, add(CFA_XSP16, literal(-7)))
          CFI (cfiCond138) R7 load(1, XDATA, add(CFA_XSP16, literal(-6)))
          CFI (cfiCond138) ?RET_LOW load(1, XDATA, add(CFA_XSP16, literal(-5)))
          CFI (cfiCond138) ?RET_HIGH load(1, XDATA, add(CFA_XSP16, literal(-4)))
          CFI (cfiCond138) ?BRET_EXT load(1, XDATA, add(CFA_XSP16, literal(-3)))
          CFI (cfiCond138) DPL0 load(1, XDATA, add(CFA_XSP16, literal(-2)))
          CFI (cfiCond138) DPH0 load(1, XDATA, add(CFA_XSP16, literal(-1)))
          CFI (cfiCond138) CFA_SP SP+-4
          CFI (cfiCond138) CFA_XSP16 add(XSP16, 18)
          CFI Block cfiCond139 Using cfiCommon0
          CFI (cfiCond139) Function bdb_ProcessSimpleDesc
          CFI (cfiCond139) Conditional ??CrossCallReturnLabel_122, ??CrossCallReturnLabel_86
          CFI (cfiCond139) R6 load(1, XDATA, add(CFA_XSP16, literal(-9)))
          CFI (cfiCond139) VB load(1, XDATA, add(CFA_XSP16, literal(-8)))
          CFI (cfiCond139) V0 load(1, XDATA, add(CFA_XSP16, literal(-7)))
          CFI (cfiCond139) R7 load(1, XDATA, add(CFA_XSP16, literal(-6)))
          CFI (cfiCond139) ?RET_LOW load(1, XDATA, add(CFA_XSP16, literal(-5)))
          CFI (cfiCond139) ?RET_HIGH load(1, XDATA, add(CFA_XSP16, literal(-4)))
          CFI (cfiCond139) ?BRET_EXT load(1, XDATA, add(CFA_XSP16, literal(-3)))
          CFI (cfiCond139) DPL0 load(1, XDATA, add(CFA_XSP16, literal(-2)))
          CFI (cfiCond139) DPH0 load(1, XDATA, add(CFA_XSP16, literal(-1)))
          CFI (cfiCond139) CFA_SP SP+-4
          CFI (cfiCond139) CFA_XSP16 add(XSP16, 28)
          CFI Block cfiCond140 Using cfiCommon0
          CFI (cfiCond140) Function bdb_ZclIdentifyQueryCmdInd
          CFI (cfiCond140) Conditional ??CrossCallReturnLabel_122, ??CrossCallReturnLabel_87
          CFI (cfiCond140) R6 load(1, XDATA, add(CFA_XSP16, literal(-10)))
          CFI (cfiCond140) VB load(1, XDATA, add(CFA_XSP16, literal(-9)))
          CFI (cfiCond140) V0 load(1, XDATA, add(CFA_XSP16, literal(-8)))
          CFI (cfiCond140) V1 load(1, XDATA, add(CFA_XSP16, literal(-7)))
          CFI (cfiCond140) R7 load(1, XDATA, add(CFA_XSP16, literal(-6)))
          CFI (cfiCond140) ?RET_LOW load(1, XDATA, add(CFA_XSP16, literal(-5)))
          CFI (cfiCond140) ?RET_HIGH load(1, XDATA, add(CFA_XSP16, literal(-4)))
          CFI (cfiCond140) ?BRET_EXT load(1, XDATA, add(CFA_XSP16, literal(-3)))
          CFI (cfiCond140) DPL0 load(1, XDATA, add(CFA_XSP16, literal(-2)))
          CFI (cfiCond140) DPH0 load(1, XDATA, add(CFA_XSP16, literal(-1)))
          CFI (cfiCond140) CFA_SP SP+-4
          CFI (cfiCond140) CFA_XSP16 add(XSP16, 10)
          CFI Block cfiPicker141 Using cfiCommon1
          CFI (cfiPicker141) NoFunction
          CFI (cfiPicker141) Picker
        MOVX      A,@DPTR
        MOV       R0,A
        INC       DPTR
        MOVX      A,@DPTR
        RET
          CFI EndBlock cfiCond91
          CFI EndBlock cfiCond92
          CFI EndBlock cfiCond93
          CFI EndBlock cfiCond94
          CFI EndBlock cfiCond95
          CFI EndBlock cfiCond96
          CFI EndBlock cfiCond97
          CFI EndBlock cfiCond98
          CFI EndBlock cfiCond99
          CFI EndBlock cfiCond100
          CFI EndBlock cfiCond101
          CFI EndBlock cfiCond102
          CFI EndBlock cfiCond103
          CFI EndBlock cfiCond104
          CFI EndBlock cfiCond105
          CFI EndBlock cfiCond106
          CFI EndBlock cfiCond107
          CFI EndBlock cfiCond108
          CFI EndBlock cfiCond109
          CFI EndBlock cfiCond110
          CFI EndBlock cfiCond111
          CFI EndBlock cfiCond112
          CFI EndBlock cfiCond113
          CFI EndBlock cfiCond114
          CFI EndBlock cfiCond115
          CFI EndBlock cfiCond116
          CFI EndBlock cfiCond117
          CFI EndBlock cfiCond118
          CFI EndBlock cfiCond119
          CFI EndBlock cfiCond120
          CFI EndBlock cfiCond121
          CFI EndBlock cfiCond122
          CFI EndBlock cfiCond123
          CFI EndBlock cfiCond124
          CFI EndBlock cfiCond125
          CFI EndBlock cfiCond126
          CFI EndBlock cfiCond127
          CFI EndBlock cfiCond128
          CFI EndBlock cfiCond129
          CFI EndBlock cfiCond130
          CFI EndBlock cfiCond131
          CFI EndBlock cfiCond132
          CFI EndBlock cfiCond133
          CFI EndBlock cfiCond134
          CFI EndBlock cfiCond135
          CFI EndBlock cfiCond136
          CFI EndBlock cfiCond137
          CFI EndBlock cfiCond138
          CFI EndBlock cfiCond139
          CFI EndBlock cfiCond140
          CFI EndBlock cfiPicker141

        RSEG BANKED_CODE:HUGECODE:NOROOT(0)
?Subroutine8:
          CFI Block cfiCond142 Using cfiCommon0
          CFI Function bdb_checkMatchingEndpoints
          CFI Conditional ??CrossCallReturnLabel_5
          CFI R6 load(1, XDATA, add(CFA_XSP16, literal(-20)))
          CFI VB load(1, XDATA, add(CFA_XSP16, literal(-19)))
          CFI V0 load(1, XDATA, add(CFA_XSP16, literal(-18)))
          CFI V1 load(1, XDATA, add(CFA_XSP16, literal(-17)))
          CFI V2 load(1, XDATA, add(CFA_XSP16, literal(-16)))
          CFI V3 load(1, XDATA, add(CFA_XSP16, literal(-15)))
          CFI V4 load(1, XDATA, add(CFA_XSP16, literal(-14)))
          CFI V5 load(1, XDATA, add(CFA_XSP16, literal(-13)))
          CFI V6 load(1, XDATA, add(CFA_XSP16, literal(-12)))
          CFI V7 load(1, XDATA, add(CFA_XSP16, literal(-11)))
          CFI V8 load(1, XDATA, add(CFA_XSP16, literal(-10)))
          CFI V9 load(1, XDATA, add(CFA_XSP16, literal(-9)))
          CFI V10 load(1, XDATA, add(CFA_XSP16, literal(-8)))
          CFI V11 load(1, XDATA, add(CFA_XSP16, literal(-7)))
          CFI R7 load(1, XDATA, add(CFA_XSP16, literal(-6)))
          CFI ?RET_LOW load(1, XDATA, add(CFA_XSP16, literal(-5)))
          CFI ?RET_HIGH load(1, XDATA, add(CFA_XSP16, literal(-4)))
          CFI ?BRET_EXT load(1, XDATA, add(CFA_XSP16, literal(-3)))
          CFI DPL0 load(1, XDATA, add(CFA_XSP16, literal(-2)))
          CFI DPH0 load(1, XDATA, add(CFA_XSP16, literal(-1)))
          CFI CFA_SP SP+-2
          CFI CFA_XSP16 add(XSP16, 47)
          CFI Block cfiCond143 Using cfiCommon0
          CFI (cfiCond143) Function bdb_checkMatchingEndpoints
          CFI (cfiCond143) Conditional ??CrossCallReturnLabel_6
          CFI (cfiCond143) R6 load(1, XDATA, add(CFA_XSP16, literal(-20)))
          CFI (cfiCond143) VB load(1, XDATA, add(CFA_XSP16, literal(-19)))
          CFI (cfiCond143) V0 load(1, XDATA, add(CFA_XSP16, literal(-18)))
          CFI (cfiCond143) V1 load(1, XDATA, add(CFA_XSP16, literal(-17)))
          CFI (cfiCond143) V2 load(1, XDATA, add(CFA_XSP16, literal(-16)))
          CFI (cfiCond143) V3 load(1, XDATA, add(CFA_XSP16, literal(-15)))
          CFI (cfiCond143) V4 load(1, XDATA, add(CFA_XSP16, literal(-14)))
          CFI (cfiCond143) V5 load(1, XDATA, add(CFA_XSP16, literal(-13)))
          CFI (cfiCond143) V6 load(1, XDATA, add(CFA_XSP16, literal(-12)))
          CFI (cfiCond143) V7 load(1, XDATA, add(CFA_XSP16, literal(-11)))
          CFI (cfiCond143) V8 load(1, XDATA, add(CFA_XSP16, literal(-10)))
          CFI (cfiCond143) V9 load(1, XDATA, add(CFA_XSP16, literal(-9)))
          CFI (cfiCond143) V10 load(1, XDATA, add(CFA_XSP16, literal(-8)))
          CFI (cfiCond143) V11 load(1, XDATA, add(CFA_XSP16, literal(-7)))
          CFI (cfiCond143) R7 load(1, XDATA, add(CFA_XSP16, literal(-6)))
          CFI (cfiCond143) ?RET_LOW load(1, XDATA, add(CFA_XSP16, literal(-5)))
          CFI (cfiCond143) ?RET_HIGH load(1, XDATA, add(CFA_XSP16, literal(-4)))
          CFI (cfiCond143) ?BRET_EXT load(1, XDATA, add(CFA_XSP16, literal(-3)))
          CFI (cfiCond143) DPL0 load(1, XDATA, add(CFA_XSP16, literal(-2)))
          CFI (cfiCond143) DPH0 load(1, XDATA, add(CFA_XSP16, literal(-1)))
          CFI (cfiCond143) CFA_SP SP+-2
          CFI (cfiCond143) CFA_XSP16 add(XSP16, 47)
          CFI Block cfiPicker144 Using cfiCommon1
          CFI (cfiPicker144) NoFunction
          CFI (cfiPicker144) Picker
        INC       DPTR
        INC       DPTR
        INC       DPTR
        INC       DPTR
        INC       DPTR
        INC       DPTR
        INC       DPTR
        MOVX      A,@DPTR
        ADD       A,R0
        MOV       R2,A
        INC       DPTR
        MOVX      A,@DPTR
        ADDC      A,R1
        MOV       DPL,R2
        MOV       DPH,A
        LCALL     ?Subroutine29 & 0xFFFF
??CrossCallReturnLabel_37:
        MOVX      A,@DPTR
        MOV       R1,A
        LCALL     `??bdb_zclFindingBindingAddBindEntry::?relay`; Banked call to: bdb_zclFindingBindingAddBindEntry
        MOV       A,#0x6
        RET
          CFI EndBlock cfiCond142
          CFI EndBlock cfiCond143
          CFI EndBlock cfiPicker144

        RSEG BANKED_CODE:HUGECODE:NOROOT(0)
?Subroutine7:
          CFI Block cfiCond145 Using cfiCommon0
          CFI Function bdb_ProcessIEEEAddrRsp
          CFI Conditional ??CrossCallReturnLabel_3
          CFI R6 load(1, XDATA, add(CFA_XSP16, literal(-10)))
          CFI VB load(1, XDATA, add(CFA_XSP16, literal(-9)))
          CFI V0 load(1, XDATA, add(CFA_XSP16, literal(-8)))
          CFI V1 load(1, XDATA, add(CFA_XSP16, literal(-7)))
          CFI R7 load(1, XDATA, add(CFA_XSP16, literal(-6)))
          CFI ?RET_LOW load(1, XDATA, add(CFA_XSP16, literal(-5)))
          CFI ?RET_HIGH load(1, XDATA, add(CFA_XSP16, literal(-4)))
          CFI ?BRET_EXT load(1, XDATA, add(CFA_XSP16, literal(-3)))
          CFI DPL0 load(1, XDATA, add(CFA_XSP16, literal(-2)))
          CFI DPH0 load(1, XDATA, add(CFA_XSP16, literal(-1)))
          CFI CFA_SP SP+-2
          CFI CFA_XSP16 add(XSP16, 25)
          CFI Block cfiCond146 Using cfiCommon0
          CFI (cfiCond146) Function bdb_checkMatchingEndpoints
          CFI (cfiCond146) Conditional ??CrossCallReturnLabel_4
          CFI (cfiCond146) R6 load(1, XDATA, add(CFA_XSP16, literal(-20)))
          CFI (cfiCond146) VB load(1, XDATA, add(CFA_XSP16, literal(-19)))
          CFI (cfiCond146) V0 load(1, XDATA, add(CFA_XSP16, literal(-18)))
          CFI (cfiCond146) V1 load(1, XDATA, add(CFA_XSP16, literal(-17)))
          CFI (cfiCond146) V2 load(1, XDATA, add(CFA_XSP16, literal(-16)))
          CFI (cfiCond146) V3 load(1, XDATA, add(CFA_XSP16, literal(-15)))
          CFI (cfiCond146) V4 load(1, XDATA, add(CFA_XSP16, literal(-14)))
          CFI (cfiCond146) V5 load(1, XDATA, add(CFA_XSP16, literal(-13)))
          CFI (cfiCond146) V6 load(1, XDATA, add(CFA_XSP16, literal(-12)))
          CFI (cfiCond146) V7 load(1, XDATA, add(CFA_XSP16, literal(-11)))
          CFI (cfiCond146) V8 load(1, XDATA, add(CFA_XSP16, literal(-10)))
          CFI (cfiCond146) V9 load(1, XDATA, add(CFA_XSP16, literal(-9)))
          CFI (cfiCond146) V10 load(1, XDATA, add(CFA_XSP16, literal(-8)))
          CFI (cfiCond146) V11 load(1, XDATA, add(CFA_XSP16, literal(-7)))
          CFI (cfiCond146) R7 load(1, XDATA, add(CFA_XSP16, literal(-6)))
          CFI (cfiCond146) ?RET_LOW load(1, XDATA, add(CFA_XSP16, literal(-5)))
          CFI (cfiCond146) ?RET_HIGH load(1, XDATA, add(CFA_XSP16, literal(-4)))
          CFI (cfiCond146) ?BRET_EXT load(1, XDATA, add(CFA_XSP16, literal(-3)))
          CFI (cfiCond146) DPL0 load(1, XDATA, add(CFA_XSP16, literal(-2)))
          CFI (cfiCond146) DPH0 load(1, XDATA, add(CFA_XSP16, literal(-1)))
          CFI (cfiCond146) CFA_SP SP+-2
          CFI (cfiCond146) CFA_XSP16 add(XSP16, 41)
          CFI Block cfiPicker147 Using cfiCommon1
          CFI (cfiPicker147) NoFunction
          CFI (cfiPicker147) Picker
        MOV       DPTR,#bdb_FB_InitiatorCurrentCyclesNumber
        CLR       A
        MOVX      @DPTR,A
        ; Setup parameters for call to function osal_stop_timerEx
        ; Setup parameters for call to function osal_stop_timerEx
        MOV       R2,#0x40
        MOV       R3,A
        LCALL     ?Subroutine34 & 0xFFFF
??CrossCallReturnLabel_83:
        ; Setup parameters for call to function bdb_zclSimpleDescClusterListClean
        ; Setup parameters for call to function bdb_zclSimpleDescClusterListClean
        MOV       R2,#bdb_FindingBindingTargetSimpleDesc & 0xff
        MOV       R3,#(bdb_FindingBindingTargetSimpleDesc >> 8) & 0xff
        LCALL     `??bdb_zclSimpleDescClusterListClean::?relay`; Banked call to: bdb_zclSimpleDescClusterListClean
        ; Setup parameters for call to function osal_stop_timerEx
        ; Setup parameters for call to function osal_stop_timerEx
        MOV       R2,#0x0
        MOV       R3,#0x40
        LCALL     ?Subroutine34 & 0xFFFF
??CrossCallReturnLabel_84:
        ; Setup parameters for call to function bdb_exitFindingBindingWStatus
        ; Setup parameters for call to function bdb_exitFindingBindingWStatus
        MOV       R1,#0xc
        LCALL     `??bdb_exitFindingBindingWStatus::?relay`; Banked call to: bdb_exitFindingBindingWStatus
        RET
          CFI EndBlock cfiCond145
          CFI EndBlock cfiCond146
          CFI EndBlock cfiPicker147

        RSEG BANKED_CODE:HUGECODE:NOROOT(0)
?Subroutine5:
          CFI Block cfiCond148 Using cfiCommon0
          CFI Function bdb_setEpDescListToActiveEndpoint
          CFI Conditional ??CrossCallReturnLabel_0
          CFI DPL0 Frame(CFA_SP, 4)
          CFI DPH0 Frame(CFA_SP, 5)
          CFI CFA_SP SP+-7
          CFI Block cfiCond149 Using cfiCommon0
          CFI (cfiCond149) Function bdb_setEpDescListToActiveEndpoint
          CFI (cfiCond149) Conditional ??CrossCallReturnLabel_1
          CFI (cfiCond149) DPL0 Frame(CFA_SP, 4)
          CFI (cfiCond149) DPH0 Frame(CFA_SP, 5)
          CFI (cfiCond149) CFA_SP SP+-7
          CFI Block cfiCond150 Using cfiCommon0
          CFI (cfiCond150) Function bdb_checkMatchingEndpoints
          CFI (cfiCond150) Conditional ??CrossCallReturnLabel_2
          CFI (cfiCond150) R6 load(1, XDATA, add(CFA_XSP16, literal(-20)))
          CFI (cfiCond150) VB load(1, XDATA, add(CFA_XSP16, literal(-19)))
          CFI (cfiCond150) V0 load(1, XDATA, add(CFA_XSP16, literal(-18)))
          CFI (cfiCond150) V1 load(1, XDATA, add(CFA_XSP16, literal(-17)))
          CFI (cfiCond150) V2 load(1, XDATA, add(CFA_XSP16, literal(-16)))
          CFI (cfiCond150) V3 load(1, XDATA, add(CFA_XSP16, literal(-15)))
          CFI (cfiCond150) V4 load(1, XDATA, add(CFA_XSP16, literal(-14)))
          CFI (cfiCond150) V5 load(1, XDATA, add(CFA_XSP16, literal(-13)))
          CFI (cfiCond150) V6 load(1, XDATA, add(CFA_XSP16, literal(-12)))
          CFI (cfiCond150) V7 load(1, XDATA, add(CFA_XSP16, literal(-11)))
          CFI (cfiCond150) V8 load(1, XDATA, add(CFA_XSP16, literal(-10)))
          CFI (cfiCond150) V9 load(1, XDATA, add(CFA_XSP16, literal(-9)))
          CFI (cfiCond150) V10 load(1, XDATA, add(CFA_XSP16, literal(-8)))
          CFI (cfiCond150) V11 load(1, XDATA, add(CFA_XSP16, literal(-7)))
          CFI (cfiCond150) R7 load(1, XDATA, add(CFA_XSP16, literal(-6)))
          CFI (cfiCond150) ?RET_LOW load(1, XDATA, add(CFA_XSP16, literal(-5)))
          CFI (cfiCond150) ?RET_HIGH load(1, XDATA, add(CFA_XSP16, literal(-4)))
          CFI (cfiCond150) ?BRET_EXT load(1, XDATA, add(CFA_XSP16, literal(-3)))
          CFI (cfiCond150) DPL0 load(1, XDATA, add(CFA_XSP16, literal(-2)))
          CFI (cfiCond150) DPH0 load(1, XDATA, add(CFA_XSP16, literal(-1)))
          CFI (cfiCond150) CFA_SP SP+-2
          CFI (cfiCond150) CFA_XSP16 add(XSP16, 41)
          CFI Block cfiPicker151 Using cfiCommon1
          CFI (cfiPicker151) NoFunction
          CFI (cfiPicker151) Picker
        LCALL     ?Subroutine31 & 0xFFFF
??CrossCallReturnLabel_45:
        LCALL     ?Subroutine30 & 0xFFFF
??CrossCallReturnLabel_114:
        LCALL     ?Subroutine35 & 0xFFFF
??CrossCallReturnLabel_53:
        RET
          CFI EndBlock cfiCond148
          CFI EndBlock cfiCond149
          CFI EndBlock cfiCond150
          CFI EndBlock cfiPicker151

        RSEG BANKED_CODE:HUGECODE:NOROOT(0)
?Subroutine35:
          CFI Block cfiCond152 Using cfiCommon0
          CFI Function bdb_setEpDescListToActiveEndpoint
          CFI Conditional ??CrossCallReturnLabel_52
          CFI DPL0 Frame(CFA_SP, 4)
          CFI DPH0 Frame(CFA_SP, 5)
          CFI CFA_SP SP+-7
          CFI Block cfiCond153 Using cfiCommon0
          CFI (cfiCond153) Function bdb_setEpDescListToActiveEndpoint
          CFI (cfiCond153) Conditional ??CrossCallReturnLabel_53, ??CrossCallReturnLabel_0
          CFI (cfiCond153) DPL0 Frame(CFA_SP, 4)
          CFI (cfiCond153) DPH0 Frame(CFA_SP, 5)
          CFI (cfiCond153) CFA_SP SP+-9
          CFI Block cfiCond154 Using cfiCommon0
          CFI (cfiCond154) Function bdb_setEpDescListToActiveEndpoint
          CFI (cfiCond154) Conditional ??CrossCallReturnLabel_53, ??CrossCallReturnLabel_1
          CFI (cfiCond154) DPL0 Frame(CFA_SP, 4)
          CFI (cfiCond154) DPH0 Frame(CFA_SP, 5)
          CFI (cfiCond154) CFA_SP SP+-9
          CFI Block cfiCond155 Using cfiCommon0
          CFI (cfiCond155) Function bdb_checkMatchingEndpoints
          CFI (cfiCond155) Conditional ??CrossCallReturnLabel_53, ??CrossCallReturnLabel_2
          CFI (cfiCond155) R6 load(1, XDATA, add(CFA_XSP16, literal(-20)))
          CFI (cfiCond155) VB load(1, XDATA, add(CFA_XSP16, literal(-19)))
          CFI (cfiCond155) V0 load(1, XDATA, add(CFA_XSP16, literal(-18)))
          CFI (cfiCond155) V1 load(1, XDATA, add(CFA_XSP16, literal(-17)))
          CFI (cfiCond155) V2 load(1, XDATA, add(CFA_XSP16, literal(-16)))
          CFI (cfiCond155) V3 load(1, XDATA, add(CFA_XSP16, literal(-15)))
          CFI (cfiCond155) V4 load(1, XDATA, add(CFA_XSP16, literal(-14)))
          CFI (cfiCond155) V5 load(1, XDATA, add(CFA_XSP16, literal(-13)))
          CFI (cfiCond155) V6 load(1, XDATA, add(CFA_XSP16, literal(-12)))
          CFI (cfiCond155) V7 load(1, XDATA, add(CFA_XSP16, literal(-11)))
          CFI (cfiCond155) V8 load(1, XDATA, add(CFA_XSP16, literal(-10)))
          CFI (cfiCond155) V9 load(1, XDATA, add(CFA_XSP16, literal(-9)))
          CFI (cfiCond155) V10 load(1, XDATA, add(CFA_XSP16, literal(-8)))
          CFI (cfiCond155) V11 load(1, XDATA, add(CFA_XSP16, literal(-7)))
          CFI (cfiCond155) R7 load(1, XDATA, add(CFA_XSP16, literal(-6)))
          CFI (cfiCond155) ?RET_LOW load(1, XDATA, add(CFA_XSP16, literal(-5)))
          CFI (cfiCond155) ?RET_HIGH load(1, XDATA, add(CFA_XSP16, literal(-4)))
          CFI (cfiCond155) ?BRET_EXT load(1, XDATA, add(CFA_XSP16, literal(-3)))
          CFI (cfiCond155) DPL0 load(1, XDATA, add(CFA_XSP16, literal(-2)))
          CFI (cfiCond155) DPH0 load(1, XDATA, add(CFA_XSP16, literal(-1)))
          CFI (cfiCond155) CFA_SP SP+-4
          CFI (cfiCond155) CFA_XSP16 add(XSP16, 41)
          CFI Block cfiPicker156 Using cfiCommon1
          CFI (cfiPicker156) NoFunction
          CFI (cfiPicker156) Picker
        MOV       DPTR,#bdb_CurrEpDescriptorList
          CFI EndBlock cfiCond152
          CFI EndBlock cfiCond153
          CFI EndBlock cfiCond154
          CFI EndBlock cfiCond155
          CFI EndBlock cfiPicker156
        REQUIRE ??Subroutine42_0
        ; // Fall through to label ??Subroutine42_0

        RSEG BANKED_CODE:HUGECODE:NOROOT(0)
??Subroutine42_0:
          CFI Block cfiCond157 Using cfiCommon0
          CFI Function bdb_ProcessIEEEAddrRsp
          CFI Conditional ??CrossCallReturnLabel_48
          CFI R6 load(1, XDATA, add(CFA_XSP16, literal(-10)))
          CFI VB load(1, XDATA, add(CFA_XSP16, literal(-9)))
          CFI V0 load(1, XDATA, add(CFA_XSP16, literal(-8)))
          CFI V1 load(1, XDATA, add(CFA_XSP16, literal(-7)))
          CFI R7 load(1, XDATA, add(CFA_XSP16, literal(-6)))
          CFI ?RET_LOW load(1, XDATA, add(CFA_XSP16, literal(-5)))
          CFI ?RET_HIGH load(1, XDATA, add(CFA_XSP16, literal(-4)))
          CFI ?BRET_EXT load(1, XDATA, add(CFA_XSP16, literal(-3)))
          CFI DPL0 load(1, XDATA, add(CFA_XSP16, literal(-2)))
          CFI DPH0 load(1, XDATA, add(CFA_XSP16, literal(-1)))
          CFI CFA_SP SP+-2
          CFI CFA_XSP16 add(XSP16, 25)
          CFI Block cfiCond158 Using cfiCommon0
          CFI (cfiCond158) Function bdb_ZclIdentifyQueryCmdInd
          CFI (cfiCond158) Conditional ??CrossCallReturnLabel_49
          CFI (cfiCond158) R6 load(1, XDATA, add(CFA_XSP16, literal(-10)))
          CFI (cfiCond158) VB load(1, XDATA, add(CFA_XSP16, literal(-9)))
          CFI (cfiCond158) V0 load(1, XDATA, add(CFA_XSP16, literal(-8)))
          CFI (cfiCond158) V1 load(1, XDATA, add(CFA_XSP16, literal(-7)))
          CFI (cfiCond158) R7 load(1, XDATA, add(CFA_XSP16, literal(-6)))
          CFI (cfiCond158) ?RET_LOW load(1, XDATA, add(CFA_XSP16, literal(-5)))
          CFI (cfiCond158) ?RET_HIGH load(1, XDATA, add(CFA_XSP16, literal(-4)))
          CFI (cfiCond158) ?BRET_EXT load(1, XDATA, add(CFA_XSP16, literal(-3)))
          CFI (cfiCond158) DPL0 load(1, XDATA, add(CFA_XSP16, literal(-2)))
          CFI (cfiCond158) DPH0 load(1, XDATA, add(CFA_XSP16, literal(-1)))
          CFI (cfiCond158) CFA_SP SP+-2
          CFI (cfiCond158) CFA_XSP16 add(XSP16, 10)
          CFI Block cfiCond159 Using cfiCommon0
          CFI (cfiCond159) Function bdb_ProcessRespondentList
          CFI (cfiCond159) Conditional ??CrossCallReturnLabel_50
          CFI (cfiCond159) R6 load(1, XDATA, add(CFA_XSP16, literal(-9)))
          CFI (cfiCond159) VB load(1, XDATA, add(CFA_XSP16, literal(-8)))
          CFI (cfiCond159) V0 load(1, XDATA, add(CFA_XSP16, literal(-7)))
          CFI (cfiCond159) R7 load(1, XDATA, add(CFA_XSP16, literal(-6)))
          CFI (cfiCond159) ?RET_LOW load(1, XDATA, add(CFA_XSP16, literal(-5)))
          CFI (cfiCond159) ?RET_HIGH load(1, XDATA, add(CFA_XSP16, literal(-4)))
          CFI (cfiCond159) ?BRET_EXT load(1, XDATA, add(CFA_XSP16, literal(-3)))
          CFI (cfiCond159) DPL0 load(1, XDATA, add(CFA_XSP16, literal(-2)))
          CFI (cfiCond159) DPH0 load(1, XDATA, add(CFA_XSP16, literal(-1)))
          CFI (cfiCond159) CFA_SP SP+-2
          CFI (cfiCond159) CFA_XSP16 add(XSP16, 18)
          CFI Block cfiCond160 Using cfiCommon0
