###############################################################################
#
# IAR C/C++ Compiler V10.30.1.6000 for 8051               05/May/2021  18:21:27
# Copyright 2004-2018 IAR Systems AB.
# Evaluation license - IAR Embedded Workbench for 8051, Evaluation edition 10.40
#
#    Core               =  plain
#    Code model         =  banked
#    Data model         =  large
#    Calling convention =  xdata reentrant
#    Constant location  =  data_rom
#    Dptr setup         =  1,16
#                          
#    Source file        =  
#        C:\Texas Instruments\2. main recover\Z-Stack 3.0.2\Z-Stack
#        3.0.2\Components\hal\target\CC2530EB\hal_lcd.c
#    Command line       =  
#        -f C:\users\slavko\Temp\EW220c.tmp ("C:\Texas Instruments\2. main
#        recover\Z-Stack 3.0.2\Z-Stack
#        3.0.2\Components\hal\target\CC2530EB\hal_lcd.c" -D BDB_REPORTING -D
#        SECURE=1 -D TC_LINKKEY_JOIN -D NV_INIT -D NV_RESTORE -D xZTOOL_P1 -D
#        xMT_TASK -D xMT_APP_FUNC -D xMT_SYS_FUNC -D xMT_ZDO_FUNC -D
#        xMT_ZDO_MGMT -D xMT_APP_CNF_FUNC -D LCD_SUPPORTED=DEBUG -D
#        MULTICAST_ENABLED=FALSE -D ZCL_READ -D ZCL_DISCOVER -D ZCL_WRITE -D
#        ZCL_BASIC -D ZCL_IDENTIFY -D ZCL_ON_OFF -D ZCL_SCENES -D ZCL_GROUPS -D
#        ZCL_LEVEL_CTRL -D HAL_LED=TRUE -D HAL_KEY=TRUE -D BLINK_LEDS -lC
#        "C:\Texas Instruments\2. main recover\Z-Stack 3.0.2\Z-Stack
#        3.0.2\Projects\zstack\HomeAutomation\SampleLight\CC2530DB\RouterEB\List"
#        -lA "C:\Texas Instruments\2. main recover\Z-Stack 3.0.2\Z-Stack
#        3.0.2\Projects\zstack\HomeAutomation\SampleLight\CC2530DB\RouterEB\List"
#        --diag_suppress Pe001,Pa010 -o "C:\Texas Instruments\2. main
#        recover\Z-Stack 3.0.2\Z-Stack
#        3.0.2\Projects\zstack\HomeAutomation\SampleLight\CC2530DB\RouterEB\Obj"
#        -e --debug --core=plain --dptr=16,1 --data_model=large
#        --code_model=banked --calling_convention=xdata_reentrant
#        --place_constants=data_rom --nr_virtual_regs 16 -f "C:\Texas
#        Instruments\2. main recover\Z-Stack 3.0.2\Z-Stack
#        3.0.2\Projects\zstack\HomeAutomation\SampleLight\CC2530DB\..\..\..\Tools\CC2530DB\f8wRouter.cfg"
#        (-DCPU32MHZ -DROOT=__near_func -DMAC_CFG_APP_PENDING_QUEUE=TRUE
#        -DMAC_CFG_TX_DATA_MAX=5 -DMAC_CFG_TX_MAX=8 -DMAC_CFG_RX_MAX=5
#        -DRTR_NWK) -f "C:\Texas Instruments\2. main recover\Z-Stack
#        3.0.2\Z-Stack
#        3.0.2\Projects\zstack\HomeAutomation\SampleLight\CC2530DB\..\..\..\Tools\CC2530DB\f8wConfig.cfg"
#        (-DZIGBEEPRO -DSECURE=1 -DZG_SECURE_DYNAMIC=0 -DREFLECTOR
#        -DDEFAULT_CHANLIST=0x00000800 -DZDAPP_CONFIG_PAN_ID=0xFFFF
#        -DNWK_START_DELAY=100 -DEXTENDED_JOINING_RANDOM_MASK=0x007F
#        -DBEACON_REQUEST_DELAY=100 -DBEACON_REQ_DELAY_MASK=0x00FF
#        -DLINK_STATUS_JITTER_MASK=0x007F -DROUTE_EXPIRY_TIME=30
#        -DAPSC_ACK_WAIT_DURATION_POLLED=3000 -DNWK_INDIRECT_MSG_TIMEOUT=7
#        -DMAX_RREQ_ENTRIES=8 -DAPSC_MAX_FRAME_RETRIES=3
#        -DNWK_MAX_DATA_RETRIES=2 -DMAX_POLL_FAILURE_RETRIES=2 -DMAX_BCAST=9
#        -DAPS_MAX_GROUPS=16 -DMAX_RTG_ENTRIES=40 -DNWK_MAX_BINDING_ENTRIES=4
#        -DMAX_BINDING_CLUSTER_IDS=4 -DDEFAULT_KEY={0} -DMAC_MAX_FRAME_SIZE=116
#        -DZDNWKMGR_MIN_TRANSMISSIONS=20 "-DCONST=const __code"
#        -DGENERIC=__generic -DRFD_RCVC_ALWAYS_ON=FALSE -DPOLL_RATE=1000
#        -DQUEUED_POLL_RATE=100 -DRESPONSE_POLL_RATE=100 -DREJOIN_POLL_RATE=440
#        -DREJOIN_BACKOFF=900000 -DREJOIN_SCAN=900000 -DENABLE_LED4_DISABLE_S1)
#        -f "C:\Texas Instruments\2. main recover\Z-Stack 3.0.2\Z-Stack
#        3.0.2\Projects\zstack\HomeAutomation\SampleLight\CC2530DB\..\..\..\Tools\CC2530DB\f8wZCL.cfg"
#        -I "C:\Texas Instruments\2. main recover\Z-Stack 3.0.2\Z-Stack
#        3.0.2\Projects\zstack\HomeAutomation\SampleLight\CC2530DB\" -I
#        "C:\Texas Instruments\2. main recover\Z-Stack 3.0.2\Z-Stack
#        3.0.2\Projects\zstack\HomeAutomation\SampleLight\CC2530DB\..\Source\"
#        -I "C:\Texas Instruments\2. main recover\Z-Stack 3.0.2\Z-Stack
#        3.0.2\Projects\zstack\HomeAutomation\SampleLight\CC2530DB\..\..\Source\"
#        -I "C:\Texas Instruments\2. main recover\Z-Stack 3.0.2\Z-Stack
#        3.0.2\Projects\zstack\HomeAutomation\SampleLight\CC2530DB\..\..\..\ZMain\TI2530DB\"
#        -I "C:\Texas Instruments\2. main recover\Z-Stack 3.0.2\Z-Stack
#        3.0.2\Projects\zstack\HomeAutomation\SampleLight\CC2530DB\..\..\..\..\..\Components\hal\include\"
#        -I "C:\Texas Instruments\2. main recover\Z-Stack 3.0.2\Z-Stack
#        3.0.2\Projects\zstack\HomeAutomation\SampleLight\CC2530DB\..\..\..\..\..\Components\hal\target\CC2530EB\"
#        -I "C:\Texas Instruments\2. main recover\Z-Stack 3.0.2\Z-Stack
#        3.0.2\Projects\zstack\HomeAutomation\SampleLight\CC2530DB\..\..\..\..\..\Components\mac\include\"
#        -I "C:\Texas Instruments\2. main recover\Z-Stack 3.0.2\Z-Stack
#        3.0.2\Projects\zstack\HomeAutomation\SampleLight\CC2530DB\..\..\..\..\..\Components\mac\high_level\"
#        -I "C:\Texas Instruments\2. main recover\Z-Stack 3.0.2\Z-Stack
#        3.0.2\Projects\zstack\HomeAutomation\SampleLight\CC2530DB\..\..\..\..\..\Components\mac\low_level\srf04\"
#        -I "C:\Texas Instruments\2. main recover\Z-Stack 3.0.2\Z-Stack
#        3.0.2\Projects\zstack\HomeAutomation\SampleLight\CC2530DB\..\..\..\..\..\Components\mac\low_level\srf04\single_chip\"
#        -I "C:\Texas Instruments\2. main recover\Z-Stack 3.0.2\Z-Stack
#        3.0.2\Projects\zstack\HomeAutomation\SampleLight\CC2530DB\..\..\..\..\..\Components\mt\"
#        -I "C:\Texas Instruments\2. main recover\Z-Stack 3.0.2\Z-Stack
#        3.0.2\Projects\zstack\HomeAutomation\SampleLight\CC2530DB\..\..\..\..\..\Components\osal\include\"
#        -I "C:\Texas Instruments\2. main recover\Z-Stack 3.0.2\Z-Stack
#        3.0.2\Projects\zstack\HomeAutomation\SampleLight\CC2530DB\..\..\..\..\..\Components\services\saddr\"
#        -I "C:\Texas Instruments\2. main recover\Z-Stack 3.0.2\Z-Stack
#        3.0.2\Projects\zstack\HomeAutomation\SampleLight\CC2530DB\..\..\..\..\..\Components\services\sdata\"
#        -I "C:\Texas Instruments\2. main recover\Z-Stack 3.0.2\Z-Stack
#        3.0.2\Projects\zstack\HomeAutomation\SampleLight\CC2530DB\..\..\..\..\..\Components\stack\af\"
#        -I "C:\Texas Instruments\2. main recover\Z-Stack 3.0.2\Z-Stack
#        3.0.2\Projects\zstack\HomeAutomation\SampleLight\CC2530DB\..\..\..\..\..\Components\stack\bdb\"
#        -I "C:\Texas Instruments\2. main recover\Z-Stack 3.0.2\Z-Stack
#        3.0.2\Projects\zstack\HomeAutomation\SampleLight\CC2530DB\..\..\..\..\..\Components\stack\nwk\"
#        -I "C:\Texas Instruments\2. main recover\Z-Stack 3.0.2\Z-Stack
#        3.0.2\Projects\zstack\HomeAutomation\SampleLight\CC2530DB\..\..\..\..\..\Components\stack\bdb\"
#        -I "C:\Texas Instruments\2. main recover\Z-Stack 3.0.2\Z-Stack
#        3.0.2\Projects\zstack\HomeAutomation\SampleLight\CC2530DB\..\..\..\..\..\Components\stack\gp\"
#        -I "C:\Texas Instruments\2. main recover\Z-Stack 3.0.2\Z-Stack
#        3.0.2\Projects\zstack\HomeAutomation\SampleLight\CC2530DB\..\..\..\..\..\Components\stack\sapi\"
#        -I "C:\Texas Instruments\2. main recover\Z-Stack 3.0.2\Z-Stack
#        3.0.2\Projects\zstack\HomeAutomation\SampleLight\CC2530DB\..\..\..\..\..\Components\stack\sec\"
#        -I "C:\Texas Instruments\2. main recover\Z-Stack 3.0.2\Z-Stack
#        3.0.2\Projects\zstack\HomeAutomation\SampleLight\CC2530DB\..\..\..\..\..\Components\stack\sys\"
#        -I "C:\Texas Instruments\2. main recover\Z-Stack 3.0.2\Z-Stack
#        3.0.2\Projects\zstack\HomeAutomation\SampleLight\CC2530DB\..\..\..\..\..\Components\stack\zcl\"
#        -I "C:\Texas Instruments\2. main recover\Z-Stack 3.0.2\Z-Stack
#        3.0.2\Projects\zstack\HomeAutomation\SampleLight\CC2530DB\..\..\..\..\..\Components\stack\zdo\"
#        -I "C:\Texas Instruments\2. main recover\Z-Stack 3.0.2\Z-Stack
#        3.0.2\Projects\zstack\HomeAutomation\SampleLight\CC2530DB\..\..\..\..\..\Components\zmac\"
#        -I "C:\Texas Instruments\2. main recover\Z-Stack 3.0.2\Z-Stack
#        3.0.2\Projects\zstack\HomeAutomation\SampleLight\CC2530DB\..\..\..\..\..\Components\zmac\f8w\"
#        -Ohz --require_prototypes)
#    Locale             =  English_USA.1252
#    List file          =  
#        C:\Texas Instruments\2. main recover\Z-Stack 3.0.2\Z-Stack
#        3.0.2\Projects\zstack\HomeAutomation\SampleLight\CC2530DB\RouterEB\List\hal_lcd.lst
#    Object file        =  
#        C:\Texas Instruments\2. main recover\Z-Stack 3.0.2\Z-Stack
#        3.0.2\Projects\zstack\HomeAutomation\SampleLight\CC2530DB\RouterEB\Obj\hal_lcd.r51
#
###############################################################################

C:\Texas Instruments\2. main recover\Z-Stack 3.0.2\Z-Stack 3.0.2\Components\hal\target\CC2530EB\hal_lcd.c
      1          /**************************************************************************************************
      2            Filename:       hal_lcd.c
      3            Revised:        $Date: 2012-09-30 16:36:36 -0700 (Sun, 30 Sep 2012) $
      4            Revision:       $Revision: 31658 $
      5          
      6            Description:    This file contains the interface to the HAL LCD Service.
      7          
      8          
      9            Copyright 2007-2012 Texas Instruments Incorporated. All rights reserved.
     10          
     11            IMPORTANT: Your use of this Software is limited to those specific rights
     12            granted under the terms of a software license agreement between the user
     13            who downloaded the software, his/her employer (which must be your employer)
     14            and Texas Instruments Incorporated (the "License"). You may not use this
     15            Software unless you agree to abide by the terms of the License. The License
     16            limits your use, and you acknowledge, that the Software may not be modified,
     17            copied or distributed unless embedded on a Texas Instruments microcontroller
     18            or used solely and exclusively in conjunction with a Texas Instruments radio
     19            frequency transceiver, which is integrated into your product. Other than for
     20            the foregoing purpose, you may not use, reproduce, copy, prepare derivative
     21            works of, modify, distribute, perform, display or sell this Software and/or
     22            its documentation for any purpose.
     23          
     24            YOU FURTHER ACKNOWLEDGE AND AGREE THAT THE SOFTWARE AND DOCUMENTATION ARE
     25            PROVIDED “AS IS” WITHOUT WARRANTY OF ANY KIND, EITHER EXPRESS OR IMPLIED,
     26            INCLUDING WITHOUT LIMITATION, ANY WARRANTY OF MERCHANTABILITY, TITLE,
     27            NON-INFRINGEMENT AND FITNESS FOR A PARTICULAR PURPOSE. IN NO EVENT SHALL
     28            TEXAS INSTRUMENTS OR ITS LICENSORS BE LIABLE OR OBLIGATED UNDER CONTRACT,
     29            NEGLIGENCE, STRICT LIABILITY, CONTRIBUTION, BREACH OF WARRANTY, OR OTHER
     30            LEGAL EQUITABLE THEORY ANY DIRECT OR INDIRECT DAMAGES OR EXPENSES
     31            INCLUDING BUT NOT LIMITED TO ANY INCIDENTAL, SPECIAL, INDIRECT, PUNITIVE
     32            OR CONSEQUENTIAL DAMAGES, LOST PROFITS OR LOST DATA, COST OF PROCUREMENT
     33            OF SUBSTITUTE GOODS, TECHNOLOGY, SERVICES, OR ANY CLAIMS BY THIRD PARTIES
     34            (INCLUDING BUT NOT LIMITED TO ANY DEFENSE THEREOF), OR OTHER SIMILAR COSTS.
     35          
     36            Should you have any questions regarding your right to use this Software,
     37            contact Texas Instruments Incorporated at www.TI.com.
     38          **************************************************************************************************/
     39          
     40          /**************************************************************************************************
     41           *                                           INCLUDES
     42           **************************************************************************************************/
     43          #include "hal_types.h"
     44          #include "hal_lcd.h"

   \                                 In  segment SFR_AN, at 0x80
   \   union <unnamed> volatile __sfr _A_P0
   \                     _A_P0:
   \   000000                DS 1

   \                                 In  segment SFR_AN, at 0x90
   \   union <unnamed> volatile __sfr _A_P1
   \                     _A_P1:
   \   000000                DS 1

   \                                 In  segment SFR_AN, at 0xf1
   \   unsigned char volatile __sfr PERCFG
   \                     PERCFG:
   \   000000                DS 1

   \                                 In  segment SFR_AN, at 0xf3
   \   unsigned char volatile __sfr P0SEL
   \                     P0SEL:
   \   000000                DS 1

   \                                 In  segment SFR_AN, at 0xf4
   \   unsigned char volatile __sfr P1SEL
   \                     P1SEL:
   \   000000                DS 1

   \                                 In  segment SFR_AN, at 0xf8
   \   union <unnamed> volatile __sfr _A_U1CSR
   \                     _A_U1CSR:
   \   000000                DS 1

   \                                 In  segment SFR_AN, at 0xf9
   \   unsigned char volatile __sfr U1DBUF
   \                     U1DBUF:
   \   000000                DS 1

   \                                 In  segment SFR_AN, at 0xfa
   \   unsigned char volatile __sfr U1BAUD
   \                     U1BAUD:
   \   000000                DS 1

   \                                 In  segment SFR_AN, at 0xfb
   \   unsigned char volatile __sfr U1UCR
   \                     U1UCR:
   \   000000                DS 1

   \                                 In  segment SFR_AN, at 0xfc
   \   unsigned char volatile __sfr U1GCR
   \                     U1GCR:
   \   000000                DS 1

   \                                 In  segment SFR_AN, at 0xfd
   \   unsigned char volatile __sfr P0DIR
   \                     P0DIR:
   \   000000                DS 1

   \                                 In  segment SFR_AN, at 0xfe
   \   unsigned char volatile __sfr P1DIR
   \                     P1DIR:
   \   000000                DS 1
     45          #include "OSAL.h"
     46          #include "OnBoard.h"
     47          #include "hal_assert.h"
     48          
     49          #if defined (ZTOOL_P1) || defined (ZTOOL_P2)
     50            #include "DebugTrace.h"
     51          #endif
     52          
     53          /**************************************************************************************************
     54           *                                          CONSTANTS
     55           **************************************************************************************************/
     56          /*
     57            LCD pins
     58          
     59            //control
     60            P0.0 - LCD_MODE
     61            P1.1 - LCD_FLASH_RESET
     62            P1.2 - LCD_CS
     63          
     64            //spi
     65            P1.5 - CLK
     66            P1.6 - MOSI
     67            P1.7 - MISO
     68          */
     69          
     70          /* LCD Control lines */
     71          #define HAL_LCD_MODE_PORT 0
     72          #define HAL_LCD_MODE_PIN  0
     73          
     74          #define HAL_LCD_RESET_PORT 1
     75          #define HAL_LCD_RESET_PIN  1
     76          
     77          #define HAL_LCD_CS_PORT 1
     78          #define HAL_LCD_CS_PIN  2
     79          
     80          /* LCD SPI lines */
     81          #define HAL_LCD_CLK_PORT 1
     82          #define HAL_LCD_CLK_PIN  5
     83          
     84          #define HAL_LCD_MOSI_PORT 1
     85          #define HAL_LCD_MOSI_PIN  6
     86          
     87          #define HAL_LCD_MISO_PORT 1
     88          #define HAL_LCD_MISO_PIN  7
     89          
     90          /* SPI settings */
     91          #define HAL_SPI_CLOCK_POL_LO       0x00
     92          #define HAL_SPI_CLOCK_PHA_0        0x00
     93          #define HAL_SPI_TRANSFER_MSB_FIRST 0x20
     94          
     95          /* LCD lines */
     96          #define LCD_MAX_LINE_COUNT              3
     97          
     98          /* Defines for HW LCD */
     99          
    100          /* Set power save mode */
    101          #define OSC_OFF                         0x00
    102          #define OSC_ON                          0x01
    103          #define POWER_SAVE_OFF                  0x00
    104          #define POWER_SAVE_ON                   0x02
    105          #define SET_POWER_SAVE_MODE(options)    HalLcd_HW_Control(0x0C | (options))
    106          
    107          /* Function Set */
    108          #define CGROM                           0x00
    109          #define CGRAM                           0x01
    110          #define COM_FORWARD                     0x00
    111          #define COM_BACKWARD                    0x02
    112          #define TWO_LINE                        0x00
    113          #define THREE_LINE                      0x04
    114          #define FUNCTION_SET(options)           HalLcd_HW_Control(0x10 | (options))
    115          
    116          /* Set Display Start Line */
    117          #define LINE1                           0x00
    118          #define LINE2                           0x01
    119          #define LINE3                           0x02
    120          #define LINE4                           0x03
    121          #define SET_DISPLAY_START_LINE(line)    HalLcd_HW_Control(0x18 | (line))
    122          
    123          /* Bias control */
    124          #define BIAS_1_5                        0x00
    125          #define BIAS_1_4                        0x01
    126          #define SET_BIAS_CTRL(bias)             HalLcd_HW_Control(0x1C | (bias))
    127          
    128          /* Power control */
    129          #define VOLTAGE_DIVIDER_OFF             0x00
    130          #define VOLTAGE_DIVIDER_ON              0x01
    131          #define CONVERTER_AND_REG_OFF           0x00
    132          #define CONVERTER_AND_REG_ON            0x04
    133          #define SET_POWER_CTRL(options)         HalLcd_HW_Control(0x20 | (options))
    134          
    135          // Set display control
    136          #define DISPLAY_CTRL_ON                 0x01
    137          #define DISPLAY_CTRL_OFF                0x00
    138          #define DISPLAY_CTRL_BLINK_ON           0x02
    139          #define DISPLAY_CTRL_BLINK_OFF          0x00
    140          #define DISPLAY_CTRL_CURSOR_ON          0x04
    141          #define DISPLAY_CTRL_CURSOR_OFF         0x00
    142          #define SET_DISPLAY_CTRL(options)       HalLcd_HW_Control(0x28 | (options))
    143          
    144          /* Set DD/ CGRAM address */
    145          #define SET_DDRAM_ADDR(charIndex)       HalLcd_HW_Control(0x80 | (charIndex))
    146          #define SET_GCRAM_CHAR(specIndex)       HalLcd_HW_Control(0xC0 | (specIndex))
    147          
    148          /* Set ICONRAM address */
    149          #define CONTRAST_CTRL_REGISTER          0x10
    150          #define SET_ICONRAM_ADDR(addr)          HalLcd_HW_Control(0x40 | (addr))
    151          
    152          /* Set double height */
    153          #define LINE_1_AND_2                    0x01
    154          #define LINE_2_AND_3                    0x02
    155          #define NORMAL_DISPLAY                  0x00
    156          #define SET_DOUBLE_HEIGHT(options)      HalLcd_HW_Control(0x08 | (options))
    157          
    158          /**************************************************************************************************
    159           *                                           MACROS
    160           **************************************************************************************************/
    161          
    162          #define HAL_IO_SET(port, pin, val)        HAL_IO_SET_PREP(port, pin, val)
    163          #define HAL_IO_SET_PREP(port, pin, val)   st( P##port##_##pin = val; )
    164          
    165          #define HAL_CONFIG_IO_OUTPUT(port, pin, val)      HAL_CONFIG_IO_OUTPUT_PREP(port, pin, val)
    166          #define HAL_CONFIG_IO_OUTPUT_PREP(port, pin, val) st( P##port##SEL &= ~BV(pin); \
    167                                                                P##port##_##pin = val; \
    168                                                                P##port##DIR |= BV(pin); )
    169          
    170          #define HAL_CONFIG_IO_PERIPHERAL(port, pin)      HAL_CONFIG_IO_PERIPHERAL_PREP(port, pin)
    171          #define HAL_CONFIG_IO_PERIPHERAL_PREP(port, pin) st( P##port##SEL |= BV(pin); )
    172          
    173          
    174          
    175          /* SPI interface control */
    176          #define LCD_SPI_BEGIN()     HAL_IO_SET(HAL_LCD_CS_PORT,  HAL_LCD_CS_PIN,  0); /* chip select */
    177          #define LCD_SPI_END()                                                         \
    178          {                                                                             \
    179            asm("NOP");                                                                 \
    180            asm("NOP");                                                                 \
    181            asm("NOP");                                                                 \
    182            asm("NOP");                                                                 \
    183            HAL_IO_SET(HAL_LCD_CS_PORT,  HAL_LCD_CS_PIN,  1); /* chip select */         \
    184          }
    185          /* clear the received and transmit byte status, write tx data to buffer, wait till transmit done */
    186          #define LCD_SPI_TX(x)                   { U1CSR &= ~(BV(2) | BV(1)); U1DBUF = x; while( !(U1CSR & BV(1)) ); }
    187          #define LCD_SPI_WAIT_RXRDY()            { while(!(U1CSR & BV(1))); }
    188          
    189          
    190          /* Control macros */
    191          #define LCD_DO_WRITE()        HAL_IO_SET(HAL_LCD_MODE_PORT,  HAL_LCD_MODE_PIN,  1);
    192          #define LCD_DO_CONTROL()      HAL_IO_SET(HAL_LCD_MODE_PORT,  HAL_LCD_MODE_PIN,  0);
    193          
    194          #define LCD_ACTIVATE_RESET()  HAL_IO_SET(HAL_LCD_RESET_PORT, HAL_LCD_RESET_PIN, 0);
    195          #define LCD_RELEASE_RESET()   HAL_IO_SET(HAL_LCD_RESET_PORT, HAL_LCD_RESET_PIN, 1);
    196          
    197          #if (HAL_LCD == TRUE)
    198          /**************************************************************************************************
    199           *                                       LOCAL VARIABLES
    200           **************************************************************************************************/
    201          

   \                                 In  segment XDATA_Z, align 1, keep-with-next
    202          static uint8 *Lcd_Line1;
   \                     Lcd_Line1:
   \   000000                DS 2
   \   000002                REQUIRE __INIT_XDATA_Z
    203          
    204          /**************************************************************************************************
    205           *                                       FUNCTIONS - API
    206           **************************************************************************************************/
    207          
    208          void HalLcd_HW_Init(void);
    209          void HalLcd_HW_WaitUs(uint16 i);
    210          void HalLcd_HW_ClearAllSpecChars(void);
    211          void HalLcd_HW_Control(uint8 cmd);
    212          void HalLcd_HW_Write(uint8 data);
    213          void HalLcd_HW_SetContrast(uint8 value);
    214          void HalLcd_HW_WriteChar(uint8 line, uint8 col, char text);
    215          void HalLcd_HW_WriteLine(uint8 line, const char *pText);
    216          #endif //LCD
    217          
    218          /**************************************************************************************************
    219           * @fn      HalLcdInit
    220           *
    221           * @brief   Initilize LCD Service
    222           *
    223           * @param   init - pointer to void that contains the initialized value
    224           *
    225           * @return  None
    226           **************************************************************************************************/

   \                                 In  segment BANKED_CODE, align 1, keep-with-next
    227          void HalLcdInit(void)
   \                     HalLcdInit:
    228          {
   \   000000   C082         PUSH      DPL
   \   000002   C083         PUSH      DPH
   \   000004                ; Saved register size: 2
   \   000004                ; Auto size: 0
    229          #if (HAL_LCD == TRUE)
    230            Lcd_Line1 = NULL;
   \   000004   90....       MOV       DPTR,#Lcd_Line1
   \   000007   E4           CLR       A
   \   000008   F0           MOVX      @DPTR,A
   \   000009   A3           INC       DPTR
   \   00000A   F0           MOVX      @DPTR,A
    231            HalLcd_HW_Init();
   \   00000B                ; Setup parameters for call to function HalLcd_HW_Init
   \   00000B   12....       LCALL     `??HalLcd_HW_Init::?relay`; Banked call to: HalLcd_HW_Init
    232          #endif
    233          }
   \   00000E                REQUIRE ?Subroutine0
   \   00000E                ; // Fall through to label ?Subroutine0

   \                                 In  segment BANKED_CODE, align 1, keep-with-next
   \                     ?Subroutine0:
   \   000000   D083         POP       DPH
   \   000002   D082         POP       DPL
   \   000004   02....       LJMP      ?BRET
    234          
    235          /*************************************************************************************************
    236           *                    LCD EMULATION FUNCTIONS
    237           *
    238           * Some evaluation boards are equipped with Liquid Crystal Displays
    239           * (LCD) which may be used to display diagnostic information. These
    240           * functions provide LCD emulation, sending the diagnostic strings
    241           * to Z-Tool via the RS232 serial port. These functions are enabled
    242           * when the "LCD_SUPPORTED" compiler flag is placed in the makefile.
    243           *
    244           * Most applications update both lines (1 and 2) of the LCD whenever
    245           * text is posted to the device. This emulator assumes that line 1 is
    246           * updated first (saved locally) and the formatting and send operation
    247           * is triggered by receipt of line 2. Nothing will be transmitted if
    248           * only line 1 is updated.
    249           *
    250           *************************************************************************************************/
    251          
    252          
    253          /**************************************************************************************************
    254           * @fn      HalLcdWriteString
    255           *
    256           * @brief   Write a string to the LCD
    257           *
    258           * @param   str    - pointer to the string that will be displayed
    259           *          option - display options
    260           *
    261           * @return  None
    262           **************************************************************************************************/

   \                                 In  segment BANKED_CODE, align 1, keep-with-next
    263          void HalLcdWriteString ( char *str, uint8 option)
   \                     HalLcdWriteString:
    264          {
   \   000000                REQUIRE ?V0
   \   000000                REQUIRE ?V1
   \   000000                REQUIRE ?V2
   \   000000                REQUIRE ?V3
   \   000000                REQUIRE ?V4
   \   000000                REQUIRE ?V5
   \   000000                REQUIRE ?V6
   \   000000                REQUIRE ?V7
   \   000000                REQUIRE ?V8
   \   000000                REQUIRE ?V9
   \   000000                REQUIRE ?V10
   \   000000                REQUIRE ?V12
   \   000000                REQUIRE ?V13
   \   000000                REQUIRE ?V14
   \   000000                REQUIRE ?V15
   \   000000   74E8         MOV       A,#-0x18
   \   000002   12....       LCALL     ?BANKED_ENTER_XDATA
   \   000005                ; Saved register size: 24
   \   000005                ; Auto size: 0
   \   000005   8A..         MOV       ?V14,R2
   \   000007   8B..         MOV       ?V15,R3
   \   000009   89..         MOV       ?V7,R1
    265          #if (HAL_LCD == TRUE)
    266          
    267            uint8 strLen = 0;
    268            uint8 totalLen = 0;
    269            uint8 *buf;
    270            uint8 tmpLen;
    271          
    272            if ( Lcd_Line1 == NULL )
   \   00000B   90....       MOV       DPTR,#Lcd_Line1
   \   00000E   E0           MOVX      A,@DPTR
   \   00000F   F8           MOV       R0,A
   \   000010   A3           INC       DPTR
   \   000011   E0           MOVX      A,@DPTR
   \   000012   F9           MOV       R1,A
   \   000013   E8           MOV       A,R0
   \   000014   49           ORL       A,R1
   \   000015   7018         JNZ       ??HalLcdWriteString_0
    273            {
    274              Lcd_Line1 = osal_mem_alloc( HAL_LCD_MAX_CHARS+1 );
   \   000017                ; Setup parameters for call to function osal_mem_alloc
   \   000017   7A11         MOV       R2,#0x11
   \   000019   7B00         MOV       R3,#0x0
   \   00001B   12....       LCALL     `??osal_mem_alloc::?relay`; Banked call to: osal_mem_alloc
   \   00001E   90....       MOV       DPTR,#Lcd_Line1
   \   000021   EA           MOV       A,R2
   \   000022   F0           MOVX      @DPTR,A
   \   000023   A3           INC       DPTR
   \   000024   EB           MOV       A,R3
   \   000025   F0           MOVX      @DPTR,A
    275              HalLcdWriteString( "TexasInstruments", 1 );
   \   000026                ; Setup parameters for call to function HalLcdWriteString
   \   000026   7901         MOV       R1,#0x1
   \   000028   7A..         MOV       R2,#`?<Constant "TexasInstruments">` & 0xff
   \   00002A   7B..         MOV       R3,#(`?<Constant "TexasInstruments">` >> 8) & 0xff
   \   00002C   12....       LCALL     `??HalLcdWriteString::?relay`; Banked call to: HalLcdWriteString
    276            }
    277          
    278            strLen = (uint8)osal_strlen( (char*)str );
   \                     ??HalLcdWriteString_0:
   \   00002F                ; Setup parameters for call to function osal_strlen
   \   00002F   AA..         MOV       R2,?V14
   \   000031   AB..         MOV       R3,?V15
   \   000033   12....       LCALL     ?Subroutine8 & 0xFFFF
   \                     ??CrossCallReturnLabel_6:
   \   000036   F5..         MOV       ?V3,A
    279          
    280            /* Check boundries */
    281            if ( strLen > HAL_LCD_MAX_CHARS )
   \   000038   C3           CLR       C
   \   000039   9411         SUBB      A,#0x11
   \   00003B   4003         JC        ??HalLcdWriteString_1
    282              strLen = HAL_LCD_MAX_CHARS;
   \   00003D   75..10       MOV       ?V3,#0x10
    283          
    284            if ( option == HAL_LCD_LINE_1 )
   \                     ??HalLcdWriteString_1:
   \   000040   85....       MOV       ?V4,?V14
   \   000043   85....       MOV       ?V5,?V15
   \   000046   75..00       MOV       ?V6,#0x0
   \   000049   AE..         MOV       R6,?V3
   \   00004B   7401         MOV       A,#0x1
   \   00004D   65..         XRL       A,?V7
   \   00004F   7029         JNZ       ??HalLcdWriteString_2
    285            {
    286              /* Line 1 gets saved for later */
    287              osal_memcpy( Lcd_Line1, str, strLen );
   \   000051                ; Setup parameters for call to function osal_memcpy
   \   000051   78..         MOV       R0,#?V4
   \   000053   12....       LCALL     ?PUSH_XSTACK_I_THREE
   \   000056   EE           MOV       A,R6
   \   000057   FC           MOV       R4,A
   \   000058   7D00         MOV       R5,#0x0
   \   00005A   90....       MOV       DPTR,#Lcd_Line1
   \   00005D   E0           MOVX      A,@DPTR
   \   00005E   FA           MOV       R2,A
   \   00005F   A3           INC       DPTR
   \   000060   E0           MOVX      A,@DPTR
   \   000061   12....       LCALL     ?Subroutine6 & 0xFFFF
   \                     ??CrossCallReturnLabel_21:
   \   000064   12....       LCALL     ?DEALLOC_XSTACK8
    288              Lcd_Line1[strLen] = '\0';
   \   000067   90....       MOV       DPTR,#Lcd_Line1
   \   00006A   E0           MOVX      A,@DPTR
   \   00006B   2E           ADD       A,R6
   \   00006C   F8           MOV       R0,A
   \   00006D   A3           INC       DPTR
   \   00006E   E0           MOVX      A,@DPTR
   \   00006F   3400         ADDC      A,#0x0
   \   000071   8882         MOV       DPL,R0
   \   000073   F583         MOV       DPH,A
   \   000075   E4           CLR       A
   \   000076   F0           MOVX      @DPTR,A
   \   000077   02....       LJMP      ??HalLcdWriteString_3 & 0xFFFF
    289            }
    290            else
    291            {
    292              /* Line 2 triggers action */
    293              tmpLen = (uint8)osal_strlen( (char*)Lcd_Line1 );
   \                     ??HalLcdWriteString_2:
   \   00007A                ; Setup parameters for call to function osal_strlen
   \   00007A   90....       MOV       DPTR,#Lcd_Line1
   \   00007D   E0           MOVX      A,@DPTR
   \   00007E   FA           MOV       R2,A
   \   00007F   A3           INC       DPTR
   \   000080   E0           MOVX      A,@DPTR
   \   000081   FB           MOV       R3,A
   \   000082   12....       LCALL     ?Subroutine8 & 0xFFFF
   \                     ??CrossCallReturnLabel_7:
   \   000085   F5..         MOV       ?V2,A
    294              totalLen =  tmpLen + 1 + strLen + 1;
    295              buf = osal_mem_alloc( totalLen );
   \   000087                ; Setup parameters for call to function osal_mem_alloc
   \   000087   2E           ADD       A,R6
   \   000088   2402         ADD       A,#0x2
   \   00008A   FA           MOV       R2,A
   \   00008B   7B00         MOV       R3,#0x0
   \   00008D   12....       LCALL     `??osal_mem_alloc::?relay`; Banked call to: osal_mem_alloc
   \   000090   8A..         MOV       ?V12,R2
   \   000092   8B..         MOV       ?V13,R3
    296              if ( buf != NULL )
   \   000094   EA           MOV       A,R2
   \   000095   4B           ORL       A,R3
   \   000096   605F         JZ        ??HalLcdWriteString_4
    297              {
    298                /* Concatenate strings */
    299                osal_memcpy( buf, Lcd_Line1, tmpLen );
   \   000098                ; Setup parameters for call to function osal_memcpy
   \   000098   90....       MOV       DPTR,#Lcd_Line1
   \   00009B   E0           MOVX      A,@DPTR
   \   00009C   F5..         MOV       ?V8,A
   \   00009E   A3           INC       DPTR
   \   00009F   E0           MOVX      A,@DPTR
   \   0000A0   F5..         MOV       ?V9,A
   \   0000A2   75..00       MOV       ?V10,#0x0
   \   0000A5   78..         MOV       R0,#?V8
   \   0000A7   12....       LCALL     ?PUSH_XSTACK_I_THREE
   \   0000AA   AC..         MOV       R4,?V2
   \   0000AC   7D00         MOV       R5,#0x0
   \   0000AE   12....       LCALL     ??Subroutine13_0 & 0xFFFF
   \                     ??CrossCallReturnLabel_23:
   \   0000B1   12....       LCALL     ?DEALLOC_XSTACK8
    300                buf[tmpLen++] = ' ';
   \   0000B4   A8..         MOV       R0,?V2
   \   0000B6   E5..         MOV       A,?V12
   \   0000B8   28           ADD       A,R0
   \   0000B9   F582         MOV       DPL,A
   \   0000BB   E4           CLR       A
   \   0000BC   35..         ADDC      A,?V13
   \   0000BE   F583         MOV       DPH,A
   \   0000C0   7420         MOV       A,#0x20
   \   0000C2   F0           MOVX      @DPTR,A
   \   0000C3   05..         INC       ?V2
    301                osal_memcpy( &buf[tmpLen], str, strLen );
   \   0000C5                ; Setup parameters for call to function osal_memcpy
   \   0000C5   78..         MOV       R0,#?V4
   \   0000C7   12....       LCALL     ?PUSH_XSTACK_I_THREE
   \   0000CA   EE           MOV       A,R6
   \   0000CB   FC           MOV       R4,A
   \   0000CC   7D00         MOV       R5,#0x0
   \   0000CE   E5..         MOV       A,?V12
   \   0000D0   25..         ADD       A,?V2
   \   0000D2   FA           MOV       R2,A
   \   0000D3   E4           CLR       A
   \   0000D4   35..         ADDC      A,?V13
   \   0000D6   12....       LCALL     ?Subroutine6 & 0xFFFF
   \                     ??CrossCallReturnLabel_22:
   \   0000D9   12....       LCALL     ?DEALLOC_XSTACK8
    302                buf[tmpLen+strLen] = '\0';
   \   0000DC   E5..         MOV       A,?V2
   \   0000DE   2E           ADD       A,R6
   \   0000DF   F8           MOV       R0,A
   \   0000E0   E4           CLR       A
   \   0000E1   3400         ADDC      A,#0x0
   \   0000E3   F9           MOV       R1,A
   \   0000E4   E5..         MOV       A,?V12
   \   0000E6   28           ADD       A,R0
   \   0000E7   F582         MOV       DPL,A
   \   0000E9   E5..         MOV       A,?V13
   \   0000EB   39           ADDC      A,R1
   \   0000EC   F583         MOV       DPH,A
   \   0000EE   E4           CLR       A
   \   0000EF   F0           MOVX      @DPTR,A
    303          
    304                /* Send it out */
    305          #if defined (ZTOOL_P1) || defined (ZTOOL_P2)
    306          
    307          #if defined(SERIAL_DEBUG_SUPPORTED)
    308                debug_str( (uint8*)buf );
    309          #endif //LCD_SUPPORTED
    310          
    311          #endif //ZTOOL_P1
    312          
    313                /* Free mem */
    314                osal_mem_free( buf );
   \   0000F0                ; Setup parameters for call to function osal_mem_free
   \   0000F0   AA..         MOV       R2,?V12
   \   0000F2   AB..         MOV       R3,?V13
   \   0000F4   12....       LCALL     `??osal_mem_free::?relay`; Banked call to: osal_mem_free
    315              }
    316            }
    317          
    318            if (option != HAL_LCD_SERIAL_DEBUG_ONLY)
   \                     ??HalLcdWriteString_4:
   \   0000F7   74FF         MOV       A,#-0x1
   \   0000F9   65..         XRL       A,?V7
   \   0000FB   6009         JZ        ??HalLcdWriteString_5
    319            {
    320              /* Display the string */
    321              HalLcd_HW_WriteLine (option, str);
   \                     ??HalLcdWriteString_3:
   \   0000FD                ; Setup parameters for call to function HalLcd_HW_WriteLine
   \   0000FD   AA..         MOV       R2,?V14
   \   0000FF   AB..         MOV       R3,?V15
   \   000101   A9..         MOV       R1,?V7
   \   000103   12....       LCALL     `??HalLcd_HW_WriteLine::?relay`; Banked call to: HalLcd_HW_WriteLine
    322            }
    323          
    324          #endif //HAL_LCD
    325          
    326          }
   \                     ??HalLcdWriteString_5:
   \   000106   7F10         MOV       R7,#0x10
   \   000108   02....       LJMP      ?BANKED_LEAVE_XDATA

   \                                 In  segment BANKED_CODE, align 1, keep-with-next
   \                     ?Subroutine8:
   \   000000   12....       LCALL     `??osal_strlen::?relay`; Banked call to: osal_strlen
   \   000003   EA           MOV       A,R2
   \   000004   22           RET

   \                                 In  segment BANKED_CODE, align 1, keep-with-next
   \                     ?Subroutine6:
   \   000000   FB           MOV       R3,A
   \   000001                REQUIRE ??Subroutine13_0
   \   000001                ; // Fall through to label ??Subroutine13_0

   \                                 In  segment BANKED_CODE, align 1, keep-with-next
   \                     ??Subroutine13_0:
   \   000000   12....       LCALL     `??osal_memcpy::?relay`; Banked call to: osal_memcpy
   \   000003   7403         MOV       A,#0x3
   \   000005   22           RET
    327          
    328          /**************************************************************************************************
    329           * @fn      HalLcdWriteValue
    330           *
    331           * @brief   Write a value to the LCD
    332           *
    333           * @param   value  - value that will be displayed
    334           *          radix  - 8, 10, 16
    335           *          option - display options
    336           *
    337           * @return  None
    338           **************************************************************************************************/

   \                                 In  segment BANKED_CODE, align 1, keep-with-next
    339          void HalLcdWriteValue ( uint32 value, const uint8 radix, uint8 option)
   \                     HalLcdWriteValue:
    340          {
   \   000000                REQUIRE ?V0
   \   000000                REQUIRE ?V1
   \   000000                REQUIRE ?V2
   \   000000                REQUIRE ?V3
   \   000000                REQUIRE ?V4
   \   000000                REQUIRE ?V5
   \   000000   74F2         MOV       A,#-0xe
   \   000002   12....       LCALL     ?BANKED_ENTER_XDATA
   \   000005                ; Saved register size: 14
   \   000005                ; Auto size: 25
   \   000005   74E7         MOV       A,#-0x19
   \   000007   12....       LCALL     ?ALLOC_XSTACK8
   \   00000A   E9           MOV       A,R1
   \   00000B   FE           MOV       R6,A
    341          #if (HAL_LCD == TRUE)
    342            uint8 buf[HAL_LCD_MAX_BUFF];
    343          
    344            _ltoa( value, &buf[0], radix );
   \   00000C                ; Setup parameters for call to function _ltoa
   \   00000C   A8..         MOV       R0,?XSP + 0
   \   00000E   A9..         MOV       R1,?XSP + 1
   \   000010   88..         MOV       ?V4,R0
   \   000012   89..         MOV       ?V5,R1
   \   000014   78..         MOV       R0,#?V4
   \   000016   12....       LCALL     ?PUSH_XSTACK_I_TWO
   \   000019   EE           MOV       A,R6
   \   00001A   F9           MOV       R1,A
   \   00001B   12....       LCALL     ??Subroutine12_0 & 0xFFFF
   \                     ??CrossCallReturnLabel_20:
   \   00001E   12....       LCALL     ?DEALLOC_XSTACK8
    345            HalLcdWriteString( (char*)buf, option );
   \   000021                ; Setup parameters for call to function HalLcdWriteString
   \   000021   7427         MOV       A,#0x27
   \   000023   12....       LCALL     ?XSTACK_DISP0_8
   \   000026   12....       LCALL     ?Subroutine4 & 0xFFFF
    346          #endif
    347          }
   \                     ??CrossCallReturnLabel_0:
   \   000029   12....       LCALL     ?DEALLOC_XSTACK8
   \   00002C   7F06         MOV       R7,#0x6
   \   00002E   02....       LJMP      ?BANKED_LEAVE_XDATA

   \                                 In  segment BANKED_CODE, align 1, keep-with-next
   \                     ??Subroutine12_0:
   \   000000   12....       LCALL     `??_ltoa::?relay`; Banked call to: _ltoa
   \   000003   7402         MOV       A,#0x2
   \   000005   22           RET

   \                                 In  segment BANKED_CODE, align 1, keep-with-next
   \                     ?Subroutine4:
   \   000000   E0           MOVX      A,@DPTR
   \   000001   F9           MOV       R1,A
   \   000002   AA..         MOV       R2,?XSP + 0
   \   000004   AB..         MOV       R3,?XSP + 1
   \   000006   12....       LCALL     `??HalLcdWriteString::?relay`; Banked call to: HalLcdWriteString
   \   000009   7419         MOV       A,#0x19
   \   00000B   22           RET
    348          
    349          /**************************************************************************************************
    350           * @fn      HalLcdWriteScreen
    351           *
    352           * @brief   Write a value to the LCD
    353           *
    354           * @param   line1  - string that will be displayed on line 1
    355           *          line2  - string that will be displayed on line 2
    356           *
    357           * @return  None
    358           **************************************************************************************************/

   \                                 In  segment BANKED_CODE, align 1, keep-with-next
    359          void HalLcdWriteScreen( char *line1, char *line2 )
   \                     HalLcdWriteScreen:
    360          {
   \   000000   74F7         MOV       A,#-0x9
   \   000002   12....       LCALL     ?BANKED_ENTER_XDATA
   \   000005                ; Saved register size: 9
   \   000005                ; Auto size: 0
   \   000005   EC           MOV       A,R4
   \   000006   FE           MOV       R6,A
   \   000007   ED           MOV       A,R5
   \   000008   FF           MOV       R7,A
    361          #if (HAL_LCD == TRUE)
    362            HalLcdWriteString( line1, HAL_LCD_DEBUG_LINE_1 );
   \   000009                ; Setup parameters for call to function HalLcdWriteString
   \   000009   79FF         MOV       R1,#-0x1
   \   00000B   12....       LCALL     `??HalLcdWriteString::?relay`; Banked call to: HalLcdWriteString
    363            HalLcdWriteString( line2, HAL_LCD_DEBUG_LINE_2 );
   \   00000E                ; Setup parameters for call to function HalLcdWriteString
   \   00000E   79FF         MOV       R1,#-0x1
   \   000010   EE           MOV       A,R6
   \   000011   FA           MOV       R2,A
   \   000012   EF           MOV       A,R7
   \   000013   FB           MOV       R3,A
   \   000014   12....       LCALL     `??HalLcdWriteString::?relay`; Banked call to: HalLcdWriteString
    364          #endif
    365          }
   \   000017   02....       LJMP      ?Subroutine2 & 0xFFFF

   \                                 In  segment BANKED_CODE, align 1, keep-with-next
   \                     ?Subroutine2:
   \   000000   7F01         MOV       R7,#0x1
   \   000002   02....       LJMP      ?BANKED_LEAVE_XDATA
    366          
    367          /**************************************************************************************************
    368           * @fn      HalLcdWriteStringValue
    369           *
    370           * @brief   Write a string followed by a value to the LCD
    371           *
    372           * @param   title  - Title that will be displayed before the value
    373           *          value  - value
    374           *          format - redix
    375           *          line   - line number
    376           *
    377           * @return  None
    378           **************************************************************************************************/

   \                                 In  segment BANKED_CODE, align 1, keep-with-next
    379          void HalLcdWriteStringValue( char *title, uint16 value, uint8 format, uint8 line )
   \                     HalLcdWriteStringValue:
    380          {
   \   000000                REQUIRE ?V0
   \   000000                REQUIRE ?V1
   \   000000                REQUIRE ?V2
   \   000000                REQUIRE ?V3
   \   000000                REQUIRE ?V4
   \   000000                REQUIRE ?V5
   \   000000                REQUIRE ?V6
   \   000000                REQUIRE ?V8
   \   000000                REQUIRE ?V9
   \   000000   74EE         MOV       A,#-0x12
   \   000002   12....       LCALL     ?BANKED_ENTER_XDATA
   \   000005                ; Saved register size: 18
   \   000005                ; Auto size: 25
   \   000005   74E7         MOV       A,#-0x19
   \   000007   12....       LCALL     ?ALLOC_XSTACK8
   \   00000A   EA           MOV       A,R2
   \   00000B   FE           MOV       R6,A
   \   00000C   EB           MOV       A,R3
   \   00000D   FF           MOV       R7,A
   \   00000E   8C..         MOV       ?V8,R4
   \   000010   8D..         MOV       ?V9,R5
   \   000012   89..         MOV       ?V0,R1
    381          #if (HAL_LCD == TRUE)
    382            uint8 tmpLen;
    383            uint8 buf[HAL_LCD_MAX_BUFF];
    384            uint32 err;
    385          
    386            tmpLen = (uint8)osal_strlen( (char*)title );
   \   000014                ; Setup parameters for call to function osal_strlen
   \   000014   12....       LCALL     ?Subroutine8 & 0xFFFF
   \                     ??CrossCallReturnLabel_8:
   \   000017   F5..         MOV       ?V1,A
    387            osal_memcpy( buf, title, tmpLen );
   \   000019                ; Setup parameters for call to function osal_memcpy
   \   000019   8E..         MOV       ?V4,R6
   \   00001B   8F..         MOV       ?V5,R7
   \   00001D   75..00       MOV       ?V6,#0x0
   \   000020   78..         MOV       R0,#?V4
   \   000022   12....       LCALL     ?PUSH_XSTACK_I_THREE
   \   000025   AC..         MOV       R4,?V1
   \   000027   7D00         MOV       R5,#0x0
   \   000029   7403         MOV       A,#0x3
   \   00002B   12....       LCALL     ?XSTACK_DISP101_8
   \   00002E   12....       LCALL     ??Subroutine13_0 & 0xFFFF
   \                     ??CrossCallReturnLabel_24:
   \   000031   12....       LCALL     ?DEALLOC_XSTACK8
    388            buf[tmpLen] = ' ';
   \   000034   A8..         MOV       R0,?V1
   \   000036   12....       LCALL     ?Subroutine5 & 0xFFFF
    389            err = (uint32)(value);
    390            _ltoa( err, &buf[tmpLen+1], format );
   \                     ??CrossCallReturnLabel_3:
   \   000039                ; Setup parameters for call to function _ltoa
   \   000039   A3           INC       DPTR
   \   00003A   8582..       MOV       ?V2,DPL
   \   00003D   8583..       MOV       ?V3,DPH
   \   000040   78..         MOV       R0,#?V2
   \   000042   12....       LCALL     ?PUSH_XSTACK_I_TWO
   \   000045   A9..         MOV       R1,?V0
   \   000047   AA..         MOV       R2,?V8
   \   000049   AB..         MOV       R3,?V9
   \   00004B   12....       LCALL     ?Subroutine7 & 0xFFFF
   \                     ??CrossCallReturnLabel_16:
   \   00004E   12....       LCALL     ?DEALLOC_XSTACK8
    391            HalLcdWriteString( (char*)buf, line );		
   \   000051                ; Setup parameters for call to function HalLcdWriteString
   \   000051   742B         MOV       A,#0x2b
   \   000053   12....       LCALL     ?XSTACK_DISP0_8
   \   000056   12....       LCALL     ?Subroutine4 & 0xFFFF
    392          #endif
    393          }
   \                     ??CrossCallReturnLabel_1:
   \   000059   12....       LCALL     ?DEALLOC_XSTACK8
   \   00005C   7F0A         MOV       R7,#0xa
   \   00005E   02....       LJMP      ?BANKED_LEAVE_XDATA

   \                                 In  segment BANKED_CODE, align 1, keep-with-next
   \                     ?Subroutine7:
   \   000000   E4           CLR       A
   \   000001                REQUIRE ??Subroutine11_0
   \   000001                ; // Fall through to label ??Subroutine11_0

   \                                 In  segment BANKED_CODE, align 1, keep-with-next
   \                     ??Subroutine11_0:
   \   000000   FC           MOV       R4,A
   \   000001   FD           MOV       R5,A
   \   000002                REQUIRE ??Subroutine12_0
   \   000002                ; // Fall through to label ??Subroutine12_0

   \                                 In  segment BANKED_CODE, align 1, keep-with-next
   \                     ?Subroutine5:
   \   000000   12....       LCALL     ?Subroutine10 & 0xFFFF
   \                     ??CrossCallReturnLabel_15:
   \   000003   7420         MOV       A,#0x20
   \   000005   F0           MOVX      @DPTR,A
   \   000006   22           RET

   \                                 In  segment BANKED_CODE, align 1, keep-with-next
   \                     ?Subroutine10:
   \   000000   85..82       MOV       DPL,?XSP + 0
   \   000003   85..83       MOV       DPH,?XSP + 1
   \   000006   E582         MOV       A,DPL
   \   000008   28           ADD       A,R0
   \   000009   F582         MOV       DPL,A
   \   00000B   E4           CLR       A
   \   00000C   3583         ADDC      A,DPH
   \   00000E   F583         MOV       DPH,A
   \   000010   22           RET
    394          
    395          /**************************************************************************************************
    396           * @fn      HalLcdWriteStringValue
    397           *
    398           * @brief   Write a string followed by a value to the LCD
    399           *
    400           * @param   title   - Title that will be displayed before the value
    401           *          value1  - value #1
    402           *          format1 - redix of value #1
    403           *          value2  - value #2
    404           *          format2 - redix of value #2
    405           *          line    - line number
    406           *
    407           * @return  None
    408           **************************************************************************************************/

   \                                 In  segment BANKED_CODE, align 1, keep-with-next
    409          void HalLcdWriteStringValueValue( char *title, uint16 value1, uint8 format1,
   \                     HalLcdWriteStringValueValue:
    410                                            uint16 value2, uint8 format2, uint8 line )
    411          {
   \   000000                REQUIRE ?V0
   \   000000                REQUIRE ?V1
   \   000000                REQUIRE ?V2
   \   000000                REQUIRE ?V3
   \   000000                REQUIRE ?V4
   \   000000                REQUIRE ?V5
   \   000000                REQUIRE ?V6
   \   000000   74F1         MOV       A,#-0xf
   \   000002   12....       LCALL     ?BANKED_ENTER_XDATA
   \   000005                ; Saved register size: 15
   \   000005                ; Auto size: 25
   \   000005   74E7         MOV       A,#-0x19
   \   000007   12....       LCALL     ?ALLOC_XSTACK8
   \   00000A   EA           MOV       A,R2
   \   00000B   FE           MOV       R6,A
   \   00000C   EB           MOV       A,R3
   \   00000D   FF           MOV       R7,A
   \   00000E   8C..         MOV       ?V2,R4
   \   000010   8D..         MOV       ?V3,R5
   \   000012   89..         MOV       ?V1,R1
    412          
    413          #if (HAL_LCD == TRUE)
    414          
    415            uint8 tmpLen;
    416            uint8 buf[HAL_LCD_MAX_BUFF];
    417            uint32 err;
    418          
    419            tmpLen = (uint8)osal_strlen( (char*)title );
   \   000014                ; Setup parameters for call to function osal_strlen
   \   000014   12....       LCALL     ?Subroutine8 & 0xFFFF
   \                     ??CrossCallReturnLabel_9:
   \   000017   F5..         MOV       ?V0,A
    420            if ( tmpLen )
   \   000019   6022         JZ        ??HalLcdWriteStringValueValue_0
    421            {
    422              osal_memcpy( buf, title, tmpLen );
   \   00001B                ; Setup parameters for call to function osal_memcpy
   \   00001B   8E..         MOV       ?V4,R6
   \   00001D   8F..         MOV       ?V5,R7
   \   00001F   75..00       MOV       ?V6,#0x0
   \   000022   78..         MOV       R0,#?V4
   \   000024   12....       LCALL     ?PUSH_XSTACK_I_THREE
   \   000027   AC..         MOV       R4,?V0
   \   000029   7D00         MOV       R5,#0x0
   \   00002B   7403         MOV       A,#0x3
   \   00002D   12....       LCALL     ?XSTACK_DISP101_8
   \   000030   12....       LCALL     ??Subroutine13_0 & 0xFFFF
   \                     ??CrossCallReturnLabel_25:
   \   000033   12....       LCALL     ?DEALLOC_XSTACK8
    423              buf[tmpLen++] = ' ';
   \   000036   A8..         MOV       R0,?V0
   \   000038   12....       LCALL     ?Subroutine5 & 0xFFFF
    424            }
   \                     ??CrossCallReturnLabel_4:
   \   00003B   05..         INC       ?V0
    425          
    426            err = (uint32)(value1);
    427            _ltoa( err, &buf[tmpLen], format1 );
   \                     ??HalLcdWriteStringValueValue_0:
   \   00003D                ; Setup parameters for call to function _ltoa
   \   00003D   A8..         MOV       R0,?V0
   \   00003F   85..82       MOV       DPL,?XSP + 0
   \   000042   85..83       MOV       DPH,?XSP + 1
   \   000045   E582         MOV       A,DPL
   \   000047   28           ADD       A,R0
   \   000048   F5..         MOV       ?V4,A
   \   00004A   E4           CLR       A
   \   00004B   3583         ADDC      A,DPH
   \   00004D   F5..         MOV       ?V5,A
   \   00004F   78..         MOV       R0,#?V4
   \   000051   12....       LCALL     ?PUSH_XSTACK_I_TWO
   \   000054   A9..         MOV       R1,?V1
   \   000056   AA..         MOV       R2,?V2
   \   000058   AB..         MOV       R3,?V3
   \   00005A   12....       LCALL     ?Subroutine7 & 0xFFFF
   \                     ??CrossCallReturnLabel_17:
   \   00005D   12....       LCALL     ?DEALLOC_XSTACK8
    428            tmpLen = (uint8)osal_strlen( (char*)buf );
   \   000060                ; Setup parameters for call to function osal_strlen
   \   000060   AA..         MOV       R2,?XSP + 0
   \   000062   AB..         MOV       R3,?XSP + 1
   \   000064   12....       LCALL     ?Subroutine8 & 0xFFFF
   \                     ??CrossCallReturnLabel_10:
   \   000067   F5..         MOV       ?V0,A
    429          
    430            buf[tmpLen++] = ',';
   \   000069   F8           MOV       R0,A
   \   00006A   85..82       MOV       DPL,?XSP + 0
   \   00006D   85..83       MOV       DPH,?XSP + 1
   \   000070   E582         MOV       A,DPL
   \   000072   2A           ADD       A,R2
   \   000073   F582         MOV       DPL,A
   \   000075   E4           CLR       A
   \   000076   3583         ADDC      A,DPH
   \   000078   F583         MOV       DPH,A
   \   00007A   742C         MOV       A,#0x2c
   \   00007C   F0           MOVX      @DPTR,A
    431            buf[tmpLen++] = ' ';
   \   00007D   08           INC       R0
   \   00007E   12....       LCALL     ?Subroutine5 & 0xFFFF
    432            err = (uint32)(value2);
    433            _ltoa( err, &buf[tmpLen], format2 );
   \                     ??CrossCallReturnLabel_5:
   \   000081                ; Setup parameters for call to function _ltoa
   \   000081   08           INC       R0
   \   000082   85..82       MOV       DPL,?XSP + 0
   \   000085   85..83       MOV       DPH,?XSP + 1
   \   000088   E582         MOV       A,DPL
   \   00008A   28           ADD       A,R0
   \   00008B   F5..         MOV       ?V2,A
   \   00008D   E4           CLR       A
   \   00008E   3583         ADDC      A,DPH
   \   000090   F5..         MOV       ?V3,A
   \   000092   78..         MOV       R0,#?V2
   \   000094   12....       LCALL     ?PUSH_XSTACK_I_TWO
   \   000097   742C         MOV       A,#0x2c
   \   000099   12....       LCALL     ?XSTACK_DISP0_8
   \   00009C   E0           MOVX      A,@DPTR
   \   00009D   F9           MOV       R1,A
   \   00009E   742A         MOV       A,#0x2a
   \   0000A0   12....       LCALL     ?XSTACK_DISP0_8
   \   0000A3   E0           MOVX      A,@DPTR
   \   0000A4   F5..         MOV       ?V2,A
   \   0000A6   A3           INC       DPTR
   \   0000A7   E0           MOVX      A,@DPTR
   \   0000A8   AA..         MOV       R2,?V2
   \   0000AA   FB           MOV       R3,A
   \   0000AB   12....       LCALL     ?Subroutine7 & 0xFFFF
   \                     ??CrossCallReturnLabel_18:
   \   0000AE   12....       LCALL     ?DEALLOC_XSTACK8
    434          
    435            HalLcdWriteString( (char *)buf, line );		
   \   0000B1                ; Setup parameters for call to function HalLcdWriteString
   \   0000B1   742B         MOV       A,#0x2b
   \   0000B3   12....       LCALL     ?XSTACK_DISP0_8
   \   0000B6   12....       LCALL     ?Subroutine4 & 0xFFFF
    436          
    437          #endif
    438          }
   \                     ??CrossCallReturnLabel_2:
   \   0000B9                REQUIRE ?Subroutine3
   \   0000B9                ; // Fall through to label ?Subroutine3

   \                                 In  segment BANKED_CODE, align 1, keep-with-next
   \                     ?Subroutine3:
   \   000000   12....       LCALL     ?DEALLOC_XSTACK8
   \   000003   7F07         MOV       R7,#0x7
   \   000005   02....       LJMP      ?BANKED_LEAVE_XDATA
    439          
    440          /**************************************************************************************************
    441           * @fn      HalLcdDisplayPercentBar
    442           *
    443           * @brief   Display percentage bar on the LCD
    444           *
    445           * @param   title   -
    446           *          value   -
    447           *
    448           * @return  None
    449           **************************************************************************************************/

   \                                 In  segment BANKED_CODE, align 1, keep-with-next
    450          void HalLcdDisplayPercentBar( char *title, uint8 value )
   \                     HalLcdDisplayPercentBar:
    451          {
   \   000000                REQUIRE ?V0
   \   000000                REQUIRE ?V1
   \   000000                REQUIRE ?V4
   \   000000                REQUIRE ?V5
   \   000000                REQUIRE ?V6
   \   000000   74F1         MOV       A,#-0xf
   \   000002   12....       LCALL     ?BANKED_ENTER_XDATA
   \   000005                ; Saved register size: 15
   \   000005                ; Auto size: 17
   \   000005   74EF         MOV       A,#-0x11
   \   000007   12....       LCALL     ?ALLOC_XSTACK8
   \   00000A   E9           MOV       A,R1
   \   00000B   FE           MOV       R6,A
    452          #if (HAL_LCD == TRUE)
    453          
    454            uint8 percent;
    455            uint8 leftOver;
    456            uint8 buf[17];
    457            uint32 err;
    458            uint8 x;
    459          
    460            /* Write the title: */
    461            HalLcdWriteString( title, HAL_LCD_LINE_1 );
   \   00000C                ; Setup parameters for call to function HalLcdWriteString
   \   00000C   7901         MOV       R1,#0x1
   \   00000E   12....       LCALL     `??HalLcdWriteString::?relay`; Banked call to: HalLcdWriteString
    462          
    463            if ( value > 100 )
   \   000011   EE           MOV       A,R6
   \   000012   C3           CLR       C
   \   000013   9465         SUBB      A,#0x65
   \   000015   4002         JC        ??HalLcdDisplayPercentBar_0
    464              value = 100;
   \   000017   7E64         MOV       R6,#0x64
    465          
    466            /* convert to blocks */
    467            percent = (uint8)(value / 10);
   \                     ??HalLcdDisplayPercentBar_0:
   \   000019   75F00A       MOV       B,#0xa
   \   00001C   EE           MOV       A,R6
   \   00001D   84           DIV       AB
   \   00001E   F5..         MOV       ?V1,A
    468            leftOver = (uint8)(value % 10);
   \   000020   EE           MOV       A,R6
   \   000021   75F00A       MOV       B,#0xa
   \   000024   84           DIV       AB
   \   000025   E5F0         MOV       A,B
   \   000027   F5..         MOV       ?V0,A
    469          
    470            /* Make window */
    471            osal_memcpy( buf, "[          ]  ", 15 );
   \   000029                ; Setup parameters for call to function osal_memcpy
   \   000029   75....       MOV       ?V4,#`?<Constant "[          ]  ">` & 0xff
   \   00002C   75....       MOV       ?V5,#(`?<Constant "[          ]  ">` >> 8) & 0xff
   \   00002F   75..00       MOV       ?V6,#0x0
   \   000032   78..         MOV       R0,#?V4
   \   000034   12....       LCALL     ?PUSH_XSTACK_I_THREE
   \   000037   7C0F         MOV       R4,#0xf
   \   000039   7D00         MOV       R5,#0x0
   \   00003B   7403         MOV       A,#0x3
   \   00003D   12....       LCALL     ?XSTACK_DISP101_8
   \   000040   12....       LCALL     ??Subroutine13_0 & 0xFFFF
   \                     ??CrossCallReturnLabel_26:
   \   000043   12....       LCALL     ?DEALLOC_XSTACK8
    472          
    473            for ( x = 0; x < percent; x ++ )
   \   000046   7F00         MOV       R7,#0x0
   \   000048   E5..         MOV       A,?V1
   \   00004A   601A         JZ        ??HalLcdDisplayPercentBar_1
    474            {
    475              buf[1+x] = '>';
   \   00004C   F8           MOV       R0,A
   \   00004D   7900         MOV       R1,#0x0
   \   00004F   7A3E         MOV       R2,#0x3e
   \   000051   7401         MOV       A,#0x1
   \   000053   12....       LCALL     ?XSTACK_DISP0_8
   \                     ??HalLcdDisplayPercentBar_2:
   \   000056   EA           MOV       A,R2
   \   000057   F0           MOVX      @DPTR,A
   \   000058   A3           INC       DPTR
   \   000059   E8           MOV       A,R0
   \   00005A   24FF         ADD       A,#-0x1
   \   00005C   18           DEC       R0
   \   00005D   E9           MOV       A,R1
   \   00005E   34FF         ADDC      A,#-0x1
   \   000060   F9           MOV       R1,A
   \   000061   48           ORL       A,R0
   \   000062   70F2         JNZ       ??HalLcdDisplayPercentBar_2
    476            }
   \   000064   AF..         MOV       R7,?V1
    477          
    478            if ( leftOver >= 5 )
   \                     ??HalLcdDisplayPercentBar_1:
   \   000066   E5..         MOV       A,?V0
   \   000068   C3           CLR       C
   \   000069   9405         SUBB      A,#0x5
   \   00006B   4009         JC        ??HalLcdDisplayPercentBar_3
    479              buf[1+x] = '+';
   \   00006D   EF           MOV       A,R7
   \   00006E   F8           MOV       R0,A
   \   00006F   12....       LCALL     ?Subroutine10 & 0xFFFF
   \                     ??CrossCallReturnLabel_14:
   \   000072   A3           INC       DPTR
   \   000073   742B         MOV       A,#0x2b
   \   000075   F0           MOVX      @DPTR,A
    480          
    481            err = (uint32)value;
    482            _ltoa( err, (uint8*)&buf[13], 10 );
   \                     ??HalLcdDisplayPercentBar_3:
   \   000076                ; Setup parameters for call to function _ltoa
   \   000076   740D         MOV       A,#0xd
   \   000078   12....       LCALL     ?XSTACK_DISP0_8
   \   00007B   8582..       MOV       ?V0,DPL
   \   00007E   8583..       MOV       ?V1,DPH
   \   000081   78..         MOV       R0,#?V0
   \   000083   12....       LCALL     ?PUSH_XSTACK_I_TWO
   \   000086   790A         MOV       R1,#0xa
   \   000088   EE           MOV       A,R6
   \   000089   FA           MOV       R2,A
   \   00008A   E4           CLR       A
   \   00008B   FB           MOV       R3,A
   \   00008C   12....       LCALL     ??Subroutine11_0 & 0xFFFF
   \                     ??CrossCallReturnLabel_19:
   \   00008F   12....       LCALL     ?DEALLOC_XSTACK8
    483          
    484            HalLcdWriteString( (char*)buf, HAL_LCD_LINE_2 );
   \   000092                ; Setup parameters for call to function HalLcdWriteString
   \   000092   7902         MOV       R1,#0x2
   \   000094   AA..         MOV       R2,?XSP + 0
   \   000096   AB..         MOV       R3,?XSP + 1
   \   000098   12....       LCALL     `??HalLcdWriteString::?relay`; Banked call to: HalLcdWriteString
    485          
    486          #endif
    487          
    488          }
   \   00009B   7411         MOV       A,#0x11
   \   00009D   02....       LJMP      ?Subroutine3 & 0xFFFF
    489          
    490          #if (HAL_LCD == TRUE)
    491          /**************************************************************************************************
    492           *                                    HARDWARE LCD
    493           **************************************************************************************************/
    494          
    495          /**************************************************************************************************
    496           * @fn      halLcd_ConfigIO
    497           *
    498           * @brief   Configure IO lines needed for LCD control.
    499           *
    500           * @param   None
    501           *
    502           * @return  None
    503           **************************************************************************************************/
    504          static void halLcd_ConfigIO(void)
    505          {
    506            /* GPIO configuration */
    507            HAL_CONFIG_IO_OUTPUT(HAL_LCD_MODE_PORT,  HAL_LCD_MODE_PIN,  1);
    508            HAL_CONFIG_IO_OUTPUT(HAL_LCD_RESET_PORT, HAL_LCD_RESET_PIN, 1);
    509            HAL_CONFIG_IO_OUTPUT(HAL_LCD_CS_PORT,    HAL_LCD_CS_PIN,    1);
    510          }
    511          
    512          /**************************************************************************************************
    513           * @fn      halLcd_ConfigSPI
    514           *
    515           * @brief   Configure SPI lines needed for talking to LCD.
    516           *
    517           * @param   None
    518           *
    519           * @return  None
    520           **************************************************************************************************/
    521          static void halLcd_ConfigSPI(void)
    522          {
    523            /* UART/SPI Peripheral configuration */
    524          
    525             uint8 baud_exponent;
    526             uint8 baud_mantissa;
    527          
    528            /* Set SPI on UART 1 alternative 2 */
    529            PERCFG |= 0x02;
    530          
    531            /* Configure clk, master out and master in lines */
    532            HAL_CONFIG_IO_PERIPHERAL(HAL_LCD_CLK_PORT,  HAL_LCD_CLK_PIN);
    533            HAL_CONFIG_IO_PERIPHERAL(HAL_LCD_MOSI_PORT, HAL_LCD_MOSI_PIN);
    534            HAL_CONFIG_IO_PERIPHERAL(HAL_LCD_MISO_PORT, HAL_LCD_MISO_PIN);
    535          
    536          
    537            /* Set SPI speed to 1 MHz (the values assume system clk of 32MHz)
    538             * Confirm on board that this results in 1MHz spi clk.
    539             */
    540            baud_exponent = 15;
    541            baud_mantissa =  0;
    542          
    543            /* Configure SPI */
    544            U1UCR  = 0x80;      /* Flush and goto IDLE state. 8-N-1. */
    545            U1CSR  = 0x00;      /* SPI mode, master. */
    546            U1GCR  = HAL_SPI_TRANSFER_MSB_FIRST | HAL_SPI_CLOCK_PHA_0 | HAL_SPI_CLOCK_POL_LO | baud_exponent;
    547            U1BAUD = baud_mantissa;
    548          }
    549          
    550          /**************************************************************************************************
    551           * @fn      HalLcd_HW_Init
    552           *
    553           * @brief   Initilize HW LCD Driver.
    554           *
    555           * @param   None
    556           *
    557           * @return  None
    558           **************************************************************************************************/

   \                                 In  segment BANKED_CODE, align 1, keep-with-next
    559          void HalLcd_HW_Init(void)
   \                     HalLcd_HW_Init:
    560          {
   \   000000   C082         PUSH      DPL
   \   000002   C083         PUSH      DPH
   \   000004                ; Saved register size: 2
   \   000004                ; Auto size: 0
    561            /* Initialize LCD IO lines */
    562            halLcd_ConfigIO();
   \   000004   53F3FE       ANL       0xf3,#0xfe
   \   000007   D280         SETB      0x80.0
   \   000009   43FD01       ORL       0xfd,#0x1
   \   00000C   53F4FD       ANL       0xf4,#0xfd
   \   00000F   D291         SETB      0x90.1
   \   000011   43FE02       ORL       0xfe,#0x2
   \   000014   53F4FB       ANL       0xf4,#0xfb
   \   000017   D292         SETB      0x90.2
   \   000019   43FE04       ORL       0xfe,#0x4
    563          
    564            /* Initialize SPI */
    565            halLcd_ConfigSPI();
   \   00001C   43F102       ORL       0xf1,#0x2
   \   00001F   43F420       ORL       0xf4,#0x20
   \   000022   43F440       ORL       0xf4,#0x40
   \   000025   43F480       ORL       0xf4,#0x80
   \   000028   75FB80       MOV       0xfb,#-0x80
   \   00002B   75F800       MOV       0xf8,#0x0
   \   00002E   75FC2F       MOV       0xfc,#0x2f
   \   000031   75FA00       MOV       0xfa,#0x0
    566          
    567            /* Perform reset */
    568            LCD_ACTIVATE_RESET();
   \   000034   C291         CLR       0x90.1
    569            HalLcd_HW_WaitUs(15000); // 15 ms
   \   000036                ; Setup parameters for call to function HalLcd_HW_WaitUs
   \   000036   7A98         MOV       R2,#-0x68
   \   000038   7B3A         MOV       R3,#0x3a
   \   00003A   12....       LCALL     `??HalLcd_HW_WaitUs::?relay`; Banked call to: HalLcd_HW_WaitUs
    570            LCD_RELEASE_RESET();
   \   00003D   D291         SETB      0x90.1
    571            HalLcd_HW_WaitUs(15); // 15 us
   \   00003F                ; Setup parameters for call to function HalLcd_HW_WaitUs
   \   00003F   7A0F         MOV       R2,#0xf
   \   000041   7B00         MOV       R3,#0x0
   \   000043   12....       LCALL     `??HalLcd_HW_WaitUs::?relay`; Banked call to: HalLcd_HW_WaitUs
    572          
    573            /* Perform the initialization sequence */
    574            FUNCTION_SET(CGRAM | COM_FORWARD | THREE_LINE);
   \   000046                ; Setup parameters for call to function HalLcd_HW_Control
   \   000046   7915         MOV       R1,#0x15
   \   000048   12....       LCALL     `??HalLcd_HW_Control::?relay`; Banked call to: HalLcd_HW_Control
    575          
    576            /* Set contrast */
    577            HalLcd_HW_SetContrast(15);
   \   00004B                ; Setup parameters for call to function HalLcd_HW_SetContrast
   \   00004B   790F         MOV       R1,#0xf
   \   00004D   12....       LCALL     `??HalLcd_HW_SetContrast::?relay`; Banked call to: HalLcd_HW_SetContrast
    578          
    579            /* Set power */
    580            SET_POWER_SAVE_MODE(OSC_OFF | POWER_SAVE_ON);
   \   000050                ; Setup parameters for call to function HalLcd_HW_Control
   \   000050   790E         MOV       R1,#0xe
   \   000052   12....       LCALL     `??HalLcd_HW_Control::?relay`; Banked call to: HalLcd_HW_Control
    581            SET_POWER_CTRL(VOLTAGE_DIVIDER_ON | CONVERTER_AND_REG_ON);
   \   000055                ; Setup parameters for call to function HalLcd_HW_Control
   \   000055   7925         MOV       R1,#0x25
   \   000057   12....       LCALL     `??HalLcd_HW_Control::?relay`; Banked call to: HalLcd_HW_Control
    582            SET_BIAS_CTRL(BIAS_1_5);
   \   00005A                ; Setup parameters for call to function HalLcd_HW_Control
   \   00005A   791C         MOV       R1,#0x1c
   \   00005C   12....       LCALL     `??HalLcd_HW_Control::?relay`; Banked call to: HalLcd_HW_Control
    583            HalLcd_HW_WaitUs(21000);// 21 ms
   \   00005F                ; Setup parameters for call to function HalLcd_HW_WaitUs
   \   00005F   7A08         MOV       R2,#0x8
   \   000061   7B52         MOV       R3,#0x52
   \   000063   12....       LCALL     `??HalLcd_HW_WaitUs::?relay`; Banked call to: HalLcd_HW_WaitUs
    584          
    585            /* Clear the display */
    586            HalLcd_HW_Clear();
   \   000066                ; Setup parameters for call to function HalLcd_HW_Clear
   \   000066   12....       LCALL     `??HalLcd_HW_Clear::?relay`; Banked call to: HalLcd_HW_Clear
    587            HalLcd_HW_ClearAllSpecChars();
   \   000069                ; Setup parameters for call to function HalLcd_HW_ClearAllSpecChars
   \   000069   12....       LCALL     `??HalLcd_HW_ClearAllSpecChars::?relay`; Banked call to: HalLcd_HW_ClearAllSpecChars
    588            SET_DISPLAY_CTRL(DISPLAY_CTRL_ON | DISPLAY_CTRL_BLINK_OFF | DISPLAY_CTRL_CURSOR_OFF);
   \   00006C                ; Setup parameters for call to function HalLcd_HW_Control
   \   00006C   7929         MOV       R1,#0x29
   \   00006E   12....       LCALL     `??HalLcd_HW_Control::?relay`; Banked call to: HalLcd_HW_Control
    589          }
   \   000071   02....       LJMP      ?Subroutine0 & 0xFFFF
   \   000074                REQUIRE _A_P1
   \   000074                REQUIRE PERCFG
   \   000074                REQUIRE P1SEL
   \   000074                REQUIRE U1UCR
   \   000074                REQUIRE _A_U1CSR
   \   000074                REQUIRE U1GCR
   \   000074                REQUIRE U1BAUD
   \   000074                REQUIRE P0SEL
   \   000074                REQUIRE _A_P0
   \   000074                REQUIRE P0DIR
   \   000074                REQUIRE P1DIR
    590          
    591          /**************************************************************************************************
    592           * @fn      HalLcd_HW_Control
    593           *
    594           * @brief   Write 1 command to the LCD
    595           *
    596           * @param   uint8 cmd - command to be written to the LCD
    597           *
    598           * @return  None
    599           **************************************************************************************************/

   \                                 In  segment BANKED_CODE, align 1, keep-with-next
    600          void HalLcd_HW_Control(uint8 cmd)
   \                     HalLcd_HW_Control:
    601          {
   \   000000                ; Saved register size: 0
   \   000000                ; Auto size: 0
    602            LCD_SPI_BEGIN();
   \   000000   C292         CLR       0x90.2
    603            LCD_DO_CONTROL();
   \   000002   C280         CLR       0x80.0
    604            LCD_SPI_TX(cmd);
   \   000004   53F8F9       ANL       0xf8,#0xf9
   \   000007   89F9         MOV       0xf9,R1
   \                     ??HalLcd_HW_Control_0:
   \   000009   A2F9         MOV       C,0xf8.1
   \   00000B   50FC         JNC       ??HalLcd_HW_Control_0
    605            LCD_SPI_WAIT_RXRDY();
   \                     ??HalLcd_HW_Control_1:
   \   00000D   A2F9         MOV       C,0xf8.1
   \   00000F   50FC         JNC       ??HalLcd_HW_Control_1
    606            LCD_SPI_END();
   \   000011   00           NOP
   \   000012   00           NOP
   \   000013   00           NOP
   \   000014   00           NOP
   \   000015                REQUIRE ?Subroutine1
   \   000015                REQUIRE _A_P1
   \   000015                REQUIRE _A_P0
   \   000015                REQUIRE _A_U1CSR
   \   000015                REQUIRE U1DBUF
   \   000015                ; // Fall through to label ?Subroutine1
    607          }

   \                                 In  segment BANKED_CODE, align 1, keep-with-next
   \                     ?Subroutine1:
   \   000000   D292         SETB      0x90.2
   \   000002   02....       LJMP      ?BRET
    608          
    609          /**************************************************************************************************
    610           * @fn      HalLcd_HW_Write
    611           *
    612           * @brief   Write 1 byte to the LCD
    613           *
    614           * @param   uint8 data - data to be written to the LCD
    615           *
    616           * @return  None
    617           **************************************************************************************************/

   \                                 In  segment BANKED_CODE, align 1, keep-with-next
    618          void HalLcd_HW_Write(uint8 data)
   \                     HalLcd_HW_Write:
    619          {
   \   000000                ; Saved register size: 0
   \   000000                ; Auto size: 0
    620            LCD_SPI_BEGIN();
   \   000000   C292         CLR       0x90.2
    621            LCD_DO_WRITE();
   \   000002   D280         SETB      0x80.0
    622            LCD_SPI_TX(data);
   \   000004   53F8F9       ANL       0xf8,#0xf9
   \   000007   89F9         MOV       0xf9,R1
   \                     ??HalLcd_HW_Write_0:
   \   000009   A2F9         MOV       C,0xf8.1
   \   00000B   50FC         JNC       ??HalLcd_HW_Write_0
    623            LCD_SPI_WAIT_RXRDY();
   \                     ??HalLcd_HW_Write_1:
   \   00000D   A2F9         MOV       C,0xf8.1
   \   00000F   50FC         JNC       ??HalLcd_HW_Write_1
    624            LCD_SPI_END();
   \   000011   00           NOP
   \   000012   00           NOP
   \   000013   00           NOP
   \   000014   00           NOP
   \   000015   80..         SJMP      ?Subroutine1
   \   000017                REQUIRE _A_P1
   \   000017                REQUIRE _A_P0
   \   000017                REQUIRE _A_U1CSR
   \   000017                REQUIRE U1DBUF
    625          }
    626          
    627          /**************************************************************************************************
    628           * @fn          HalLcd_HW_SetContrast
    629           *
    630           * @brief       Set display contrast
    631           *
    632           * @param       uint8 value - contrast value
    633           *
    634           * @return      none
    635           **************************************************************************************************/

   \                                 In  segment BANKED_CODE, align 1, keep-with-next
    636          void HalLcd_HW_SetContrast(uint8 value)
   \                     HalLcd_HW_SetContrast:
    637          {
   \   000000   74F7         MOV       A,#-0x9
   \   000002   12....       LCALL     ?BANKED_ENTER_XDATA
   \   000005                ; Saved register size: 9
   \   000005                ; Auto size: 0
   \   000005   E9           MOV       A,R1
   \   000006   FE           MOV       R6,A
    638            SET_ICONRAM_ADDR(CONTRAST_CTRL_REGISTER);
   \   000007                ; Setup parameters for call to function HalLcd_HW_Control
   \   000007   7950         MOV       R1,#0x50
   \   000009   12....       LCALL     ?Subroutine9 & 0xFFFF
    639            HalLcd_HW_Write(value);
    640          }
   \                     ??CrossCallReturnLabel_12:
   \   00000C   80..         SJMP      ?Subroutine2

   \                                 In  segment BANKED_CODE, align 1, keep-with-next
   \                     ?Subroutine9:
   \   000000   12....       LCALL     `??HalLcd_HW_Control::?relay`; Banked call to: HalLcd_HW_Control
   \   000003                ; Setup parameters for call to function HalLcd_HW_Write
   \   000003                ; Setup parameters for call to function HalLcd_HW_Write
   \   000003   EE           MOV       A,R6
   \   000004   F9           MOV       R1,A
   \   000005   12....       LCALL     `??HalLcd_HW_Write::?relay`; Banked call to: HalLcd_HW_Write
   \   000008   22           RET
    641          
    642          /**************************************************************************************************
    643           * @fn      HalLcd_HW_Clear
    644           *
    645           * @brief   Clear the HW LCD
    646           *
    647           * @param   None
    648           *
    649           * @return  None
    650           **************************************************************************************************/

   \                                 In  segment BANKED_CODE, align 1, keep-with-next
    651          void HalLcd_HW_Clear(void)
   \                     HalLcd_HW_Clear:
    652          {
   \   000000   74F7         MOV       A,#-0x9
   \   000002   12....       LCALL     ?BANKED_ENTER_XDATA
   \   000005                ; Saved register size: 9
   \   000005                ; Auto size: 0
    653            uint8 n;
    654          
    655            SET_DDRAM_ADDR(0x00);
   \   000005                ; Setup parameters for call to function HalLcd_HW_Control
   \   000005   7980         MOV       R1,#-0x80
   \   000007   12....       LCALL     `??HalLcd_HW_Control::?relay`; Banked call to: HalLcd_HW_Control
    656            for (n = 0; n < (LCD_MAX_LINE_COUNT * HAL_LCD_MAX_CHARS); n++)
   \   00000A   7E30         MOV       R6,#0x30
    657            {
    658              HalLcd_HW_Write(' ');
   \                     ??HalLcd_HW_Clear_0:
   \   00000C                ; Setup parameters for call to function HalLcd_HW_Write
   \   00000C   7920         MOV       R1,#0x20
   \   00000E   12....       LCALL     `??HalLcd_HW_Write::?relay`; Banked call to: HalLcd_HW_Write
    659            }
   \   000011   DEF9         DJNZ      R6,??HalLcd_HW_Clear_0
    660          }
   \   000013                REQUIRE ?Subroutine2
   \   000013                ; // Fall through to label ?Subroutine2
    661          
    662          /**************************************************************************************************
    663           * @fn      HalLcd_HW_ClearAllSpecChars
    664           *
    665           * @brief   Clear all special chars
    666           *
    667           * @param   None
    668           *
    669           * @return  None
    670           **************************************************************************************************/

   \                                 In  segment BANKED_CODE, align 1, keep-with-next
    671          void HalLcd_HW_ClearAllSpecChars(void)
   \                     HalLcd_HW_ClearAllSpecChars:
    672          {
   \   000000   74F7         MOV       A,#-0x9
   \   000002   12....       LCALL     ?BANKED_ENTER_XDATA
   \   000005                ; Saved register size: 9
   \   000005                ; Auto size: 0
    673            uint8 n = 0;
    674          
    675            SET_GCRAM_CHAR(0);
   \   000005                ; Setup parameters for call to function HalLcd_HW_Control
   \   000005   79C0         MOV       R1,#-0x40
   \   000007   12....       LCALL     `??HalLcd_HW_Control::?relay`; Banked call to: HalLcd_HW_Control
    676            for (n = 0; n < (8 * 8); n++)
   \   00000A   7E40         MOV       R6,#0x40
    677            {
    678              HalLcd_HW_Write(0x00);
   \                     ??HalLcd_HW_ClearAllSpecChars_0:
   \   00000C                ; Setup parameters for call to function HalLcd_HW_Write
   \   00000C   7900         MOV       R1,#0x0
   \   00000E   12....       LCALL     `??HalLcd_HW_Write::?relay`; Banked call to: HalLcd_HW_Write
    679            }
   \   000011   DEF9         DJNZ      R6,??HalLcd_HW_ClearAllSpecChars_0
    680          }
   \   000013   80..         SJMP      ?Subroutine2
    681          
    682          /**************************************************************************************************
    683           * @fn      HalLcd_HW_WriteChar
    684           *
    685           * @brief   Write one char to the display
    686           *
    687           * @param   uint8 line - line number that the char will be displayed
    688           *          uint8 col - colum where the char will be displayed
    689           *
    690           * @return  None
    691           **************************************************************************************************/

   \                                 In  segment BANKED_CODE, align 1, keep-with-next
    692          void HalLcd_HW_WriteChar(uint8 line, uint8 col, char text)
   \                     HalLcd_HW_WriteChar:
    693          {
   \   000000                REQUIRE ?V0
   \   000000   74F7         MOV       A,#-0x9
   \   000002   12....       LCALL     ?BANKED_ENTER_XDATA
   \   000005                ; Saved register size: 9
   \   000005                ; Auto size: 0
   \   000005   EB           MOV       A,R3
   \   000006   FE           MOV       R6,A
    694            if (col < HAL_LCD_MAX_CHARS)
   \   000007   EA           MOV       A,R2
   \   000008   C3           CLR       C
   \   000009   9410         SUBB      A,#0x10
   \   00000B   500D         JNC       ??CrossCallReturnLabel_13
    695            {
    696              SET_DDRAM_ADDR((line - 1) * HAL_LCD_MAX_CHARS + col);
   \   00000D                ; Setup parameters for call to function HalLcd_HW_Control
   \   00000D   74FF         MOV       A,#-0x1
   \   00000F   29           ADD       A,R1
   \   000010   C4           SWAP      A
   \   000011   54F0         ANL       A,#0xf0
   \   000013   2A           ADD       A,R2
   \   000014   4480         ORL       A,#0x80
   \   000016   F9           MOV       R1,A
   \   000017   12....       LCALL     ?Subroutine9 & 0xFFFF
    697              HalLcd_HW_Write(text);
    698            }
    699            else
    700            {
    701              return;
    702            }
    703          }
   \                     ??CrossCallReturnLabel_13:
   \   00001A   80..         SJMP      ?Subroutine2
    704          
    705          /**************************************************************************************************
    706           * @fn          halLcdWriteLine
    707           *
    708           * @brief       Write one line on display
    709           *
    710           * @param       uint8 line - display line
    711           *              char *pText - text buffer to write
    712           *
    713           * @return      none
    714           **************************************************************************************************/

   \                                 In  segment BANKED_CODE, align 1, keep-with-next
    715          void HalLcd_HW_WriteLine(uint8 line, const char *pText)
   \                     HalLcd_HW_WriteLine:
    716          {
   \   000000                REQUIRE ?V0
   \   000000                REQUIRE ?V1
   \   000000                REQUIRE ?V2
   \   000000   74F5         MOV       A,#-0xb
   \   000002   12....       LCALL     ?BANKED_ENTER_XDATA
   \   000005                ; Saved register size: 11
   \   000005                ; Auto size: 0
   \   000005   89..         MOV       ?V1,R1
   \   000007   EA           MOV       A,R2
   \   000008   FE           MOV       R6,A
   \   000009   EB           MOV       A,R3
   \   00000A   FF           MOV       R7,A
    717            uint8 count;
    718            uint8 totalLength = (uint8)osal_strlen( (char *)pText );
   \   00000B                ; Setup parameters for call to function osal_strlen
   \   00000B   12....       LCALL     ?Subroutine8 & 0xFFFF
   \                     ??CrossCallReturnLabel_11:
   \   00000E   F5..         MOV       ?V2,A
    719          
    720            /* Write the content first */
    721            for (count=0; count<totalLength; count++)
   \   000010   75..00       MOV       ?V0,#0x0
   \   000013   8018         SJMP      ??HalLcd_HW_WriteLine_0
    722            {
    723              HalLcd_HW_WriteChar(line, count, (*(pText++)));
   \                     ??HalLcd_HW_WriteLine_1:
   \   000015                ; Setup parameters for call to function HalLcd_HW_WriteChar
   \   000015   8E82         MOV       DPL,R6
   \   000017   8F83         MOV       DPH,R7
   \   000019   E0           MOVX      A,@DPTR
   \   00001A   FB           MOV       R3,A
   \   00001B   AA..         MOV       R2,?V0
   \   00001D   A9..         MOV       R1,?V1
   \   00001F   12....       LCALL     `??HalLcd_HW_WriteChar::?relay`; Banked call to: HalLcd_HW_WriteChar
   \   000022   8E82         MOV       DPL,R6
   \   000024   8F83         MOV       DPH,R7
   \   000026   A3           INC       DPTR
   \   000027   AE82         MOV       R6,DPL
   \   000029   AF83         MOV       R7,DPH
    724            }
   \   00002B   05..         INC       ?V0
   \                     ??HalLcd_HW_WriteLine_0:
   \   00002D   E5..         MOV       A,?V0
   \   00002F   C3           CLR       C
   \   000030   95..         SUBB      A,?V2
   \   000032   40E1         JC        ??HalLcd_HW_WriteLine_1
    725          
    726            /* Write blank spaces to rest of the line */
    727            for(count=totalLength; count<HAL_LCD_MAX_CHARS;count++)
   \   000034   85....       MOV       ?V0,?V2
   \   000037   800B         SJMP      ??HalLcd_HW_WriteLine_2
    728            {
    729              HalLcd_HW_WriteChar(line, count, ' ');
   \                     ??HalLcd_HW_WriteLine_3:
   \   000039                ; Setup parameters for call to function HalLcd_HW_WriteChar
   \   000039   7B20         MOV       R3,#0x20
   \   00003B   AA..         MOV       R2,?V0
   \   00003D   A9..         MOV       R1,?V1
   \   00003F   12....       LCALL     `??HalLcd_HW_WriteChar::?relay`; Banked call to: HalLcd_HW_WriteChar
    730            }
   \   000042   05..         INC       ?V0
   \                     ??HalLcd_HW_WriteLine_2:
   \   000044   E5..         MOV       A,?V0
   \   000046   C3           CLR       C
   \   000047   9410         SUBB      A,#0x10
   \   000049   40EE         JC        ??HalLcd_HW_WriteLine_3
    731          }
   \   00004B   7F03         MOV       R7,#0x3
   \   00004D   02....       LJMP      ?BANKED_LEAVE_XDATA
    732          
    733          /**************************************************************************************************
    734           * @fn      HalLcd_HW_WaitUs
    735           *
    736           * @brief   wait for x us. @ 32MHz MCU clock it takes 32 "nop"s for 1 us delay.
    737           *
    738           * @param   x us. range[0-65536]
    739           *
    740           * @return  None
    741           **************************************************************************************************/

   \                                 In  segment BANKED_CODE, align 1, keep-with-next
    742          void HalLcd_HW_WaitUs(uint16 microSecs)
   \                     HalLcd_HW_WaitUs:
    743          {
   \   000000                ; Saved register size: 0
   \   000000                ; Auto size: 0
   \   000000   8020         SJMP      ??HalLcd_HW_WaitUs_0
    744            while(microSecs--)
    745            {
    746              /* 32 NOPs == 1 usecs */
    747              asm("nop"); asm("nop"); asm("nop"); asm("nop"); asm("nop");
   \                     ??HalLcd_HW_WaitUs_1:
   \   000002   00           nop
   \   000003   00           nop
   \   000004   00           nop
   \   000005   00           nop
   \   000006   00           nop
    748              asm("nop"); asm("nop"); asm("nop"); asm("nop"); asm("nop");
   \   000007   00           nop
   \   000008   00           nop
   \   000009   00           nop
   \   00000A   00           nop
   \   00000B   00           nop
    749              asm("nop"); asm("nop"); asm("nop"); asm("nop"); asm("nop");
   \   00000C   00           nop
   \   00000D   00           nop
   \   00000E   00           nop
   \   00000F   00           nop
   \   000010   00           nop
    750              asm("nop"); asm("nop"); asm("nop"); asm("nop"); asm("nop");
   \   000011   00           nop
   \   000012   00           nop
   \   000013   00           nop
   \   000014   00           nop
   \   000015   00           nop
    751              asm("nop"); asm("nop"); asm("nop"); asm("nop"); asm("nop");
   \   000016   00           nop
   \   000017   00           nop
   \   000018   00           nop
   \   000019   00           nop
   \   00001A   00           nop
    752              asm("nop"); asm("nop"); asm("nop"); asm("nop"); asm("nop");
   \   00001B   00           nop
   \   00001C   00           nop
   \   00001D   00           nop
   \   00001E   00           nop
   \   00001F   00           nop
    753              asm("nop"); asm("nop");
   \   000020   00           nop
   \   000021   00           nop
    754            }
   \                     ??HalLcd_HW_WaitUs_0:
   \   000022   EA           MOV       A,R2
   \   000023   F8           MOV       R0,A
   \   000024   EB           MOV       A,R3
   \   000025   F9           MOV       R1,A
   \   000026   E8           MOV       A,R0
   \   000027   24FF         ADD       A,#-0x1
   \   000029   1A           DEC       R2
   \   00002A   E9           MOV       A,R1
   \   00002B   34FF         ADDC      A,#-0x1
   \   00002D   FB           MOV       R3,A
   \   00002E   E8           MOV       A,R0
   \   00002F   49           ORL       A,R1
   \   000030   70D0         JNZ       ??HalLcd_HW_WaitUs_1
    755          }
   \   000032   02....       LJMP      ?BRET

   \                                 In  segment XDATA_ROM_C, align 1
   \                     `?<Constant "TexasInstruments">`:
   \   000000   54657861     DB "TexasInstruments"
   \            73496E73
   \            7472756D
   \            656E7473
   \            00      

   \                                 In  segment XDATA_ROM_C, align 1
   \                     `?<Constant "[          ]  ">`:
   \   000000   5B202020     DB "[          ]  "
   \            20202020
   \            2020205D
   \            202000  
    756          #endif
    757          
    758          
    759          /**************************************************************************************************
    760          **************************************************************************************************/
    761          
    762          
    763          

   Maximum stack usage in bytes:

   ISTACK XSTACK Function
   ------ ------ --------
      0     35   HalLcdDisplayPercentBar
        0     32   -> HalLcdWriteString
        0     34   -> _ltoa
        0     35   -> osal_memcpy
      2      0   HalLcdInit
        2      0   -> HalLcd_HW_Init
      0      9   HalLcdWriteScreen
        0      9   -> HalLcdWriteString
      0     70   HalLcdWriteString
        0     24   -> HalLcdWriteString
        0     24   -> HalLcd_HW_WriteLine
        0     24   -> osal_mem_alloc
        0     24   -> osal_mem_free
        0     27   -> osal_memcpy
        0     24   -> osal_strlen
      0     47   HalLcdWriteStringValue
        0     43   -> HalLcdWriteString
        0     45   -> _ltoa
        0     46   -> osal_memcpy
        0     43   -> osal_strlen
      0     47   HalLcdWriteStringValueValue
        0     40   -> HalLcdWriteString
        0     42   -> _ltoa
        0     43   -> osal_memcpy
        0     40   -> osal_strlen
      0     42   HalLcdWriteValue
        0     39   -> HalLcdWriteString
        0     41   -> _ltoa
      0      9   HalLcd_HW_Clear
        0      9   -> HalLcd_HW_Control
        0      9   -> HalLcd_HW_Write
      0      9   HalLcd_HW_ClearAllSpecChars
        0      9   -> HalLcd_HW_Control
        0      9   -> HalLcd_HW_Write
      0      9   HalLcd_HW_Control
      2      0   HalLcd_HW_Init
        2      0   -> HalLcd_HW_Clear
        2      0   -> HalLcd_HW_ClearAllSpecChars
        2      0   -> HalLcd_HW_Control
        2      0   -> HalLcd_HW_SetContrast
        2      0   -> HalLcd_HW_WaitUs
      0      9   HalLcd_HW_SetContrast
        0      9   -> HalLcd_HW_Control
        0      9   -> HalLcd_HW_Write
      0      0   HalLcd_HW_WaitUs
      0      9   HalLcd_HW_Write
      0     20   HalLcd_HW_WriteChar
        0      9   -> HalLcd_HW_Control
        0      9   -> HalLcd_HW_Write
      0     35   HalLcd_HW_WriteLine
        0     11   -> HalLcd_HW_WriteChar
        0     11   -> osal_strlen


   Segment part sizes:

   Bytes  Function/Label
   -----  --------------
      17  ?<Constant "TexasInstruments">
      15  ?<Constant "[          ]  ">
       2  ??Subroutine11_0
       6  ??Subroutine12_0
       6  ??Subroutine13_0
       7  ?Subroutine0
       5  ?Subroutine1
      17  ?Subroutine10
       5  ?Subroutine2
       8  ?Subroutine3
      12  ?Subroutine4
       7  ?Subroutine5
       1  ?Subroutine6
       1  ?Subroutine7
       5  ?Subroutine8
       9  ?Subroutine9
     160  HalLcdDisplayPercentBar
      14  HalLcdInit
      26  HalLcdWriteScreen
     267  HalLcdWriteString
      97  HalLcdWriteStringValue
     185  HalLcdWriteStringValueValue
      49  HalLcdWriteValue
      19  HalLcd_HW_Clear
      21  HalLcd_HW_ClearAllSpecChars
      21  HalLcd_HW_Control
     116  HalLcd_HW_Init
      14  HalLcd_HW_SetContrast
      53  HalLcd_HW_WaitUs
      23  HalLcd_HW_Write
      28  HalLcd_HW_WriteChar
      80  HalLcd_HW_WriteLine
       2  Lcd_Line1
       1  P0DIR
       1  P0SEL
       1  P1DIR
       1  P1SEL
       1  PERCFG
       1  U1BAUD
       1  U1DBUF
       1  U1GCR
       1  U1UCR
       1  _A_P0
       1  _A_P1
       1  _A_U1CSR
      96  -- Other

 
 1 264 bytes in segment BANKED_CODE
    96 bytes in segment BANK_RELAYS
    12 bytes in segment SFR_AN
    32 bytes in segment XDATA_ROM_C
     2 bytes in segment XDATA_Z
 
    96 bytes of CODE     memory
    32 bytes of CONST    memory
     0 bytes of DATA     memory (+ 12 bytes shared)
 1 264 bytes of HUGECODE memory
     2 bytes of XDATA    memory

Errors: none
Warnings: none
