///////////////////////////////////////////////////////////////////////////////
//
// IAR C/C++ Compiler V10.30.1.6000 for 8051              05/May/2021  18:21:35
// Copyright 2004-2018 IAR Systems AB.
// Evaluation license - IAR Embedded Workbench for 8051, Evaluation edition 10.40
//
//    Core               =  plain
//    Code model         =  banked
//    Data model         =  large
//    Calling convention =  xdata reentrant
//    Constant location  =  data_rom
//    Dptr setup         =  1,16
//                          
//    Source file        =  
//        C:\Texas Instruments\2. main recover\Z-Stack 3.0.2\Z-Stack
//        3.0.2\Projects\zstack\HomeAutomation\SampleLight\Source\zcl_samplelight.c
//    Command line       =  
//        -f C:\users\slavko\Temp\EW437e.tmp ("C:\Texas Instruments\2. main
//        recover\Z-Stack 3.0.2\Z-Stack
//        3.0.2\Projects\zstack\HomeAutomation\SampleLight\Source\zcl_samplelight.c"
//        -D BDB_REPORTING -D SECURE=1 -D TC_LINKKEY_JOIN -D NV_INIT -D
//        NV_RESTORE -D xZTOOL_P1 -D xMT_TASK -D xMT_APP_FUNC -D xMT_SYS_FUNC
//        -D xMT_ZDO_FUNC -D xMT_ZDO_MGMT -D xMT_APP_CNF_FUNC -D
//        LCD_SUPPORTED=DEBUG -D MULTICAST_ENABLED=FALSE -D ZCL_READ -D
//        ZCL_DISCOVER -D ZCL_WRITE -D ZCL_BASIC -D ZCL_IDENTIFY -D ZCL_ON_OFF
//        -D ZCL_SCENES -D ZCL_GROUPS -D ZCL_LEVEL_CTRL -D HAL_LED=TRUE -D
//        HAL_KEY=TRUE -D BLINK_LEDS -lC "C:\Texas Instruments\2. main
//        recover\Z-Stack 3.0.2\Z-Stack
//        3.0.2\Projects\zstack\HomeAutomation\SampleLight\CC2530DB\RouterEB\List"
//        -lA "C:\Texas Instruments\2. main recover\Z-Stack 3.0.2\Z-Stack
//        3.0.2\Projects\zstack\HomeAutomation\SampleLight\CC2530DB\RouterEB\List"
//        --diag_suppress Pe001,Pa010 -o "C:\Texas Instruments\2. main
//        recover\Z-Stack 3.0.2\Z-Stack
//        3.0.2\Projects\zstack\HomeAutomation\SampleLight\CC2530DB\RouterEB\Obj"
//        -e --debug --core=plain --dptr=16,1 --data_model=large
//        --code_model=banked --calling_convention=xdata_reentrant
//        --place_constants=data_rom --nr_virtual_regs 16 -f "C:\Texas
//        Instruments\2. main recover\Z-Stack 3.0.2\Z-Stack
//        3.0.2\Projects\zstack\HomeAutomation\SampleLight\CC2530DB\..\..\..\Tools\CC2530DB\f8wRouter.cfg"
//        (-DCPU32MHZ -DROOT=__near_func -DMAC_CFG_APP_PENDING_QUEUE=TRUE
//        -DMAC_CFG_TX_DATA_MAX=5 -DMAC_CFG_TX_MAX=8 -DMAC_CFG_RX_MAX=5
//        -DRTR_NWK) -f "C:\Texas Instruments\2. main recover\Z-Stack
//        3.0.2\Z-Stack
//        3.0.2\Projects\zstack\HomeAutomation\SampleLight\CC2530DB\..\..\..\Tools\CC2530DB\f8wConfig.cfg"
//        (-DZIGBEEPRO -DSECURE=1 -DZG_SECURE_DYNAMIC=0 -DREFLECTOR
//        -DDEFAULT_CHANLIST=0x00000800 -DZDAPP_CONFIG_PAN_ID=0xFFFF
//        -DNWK_START_DELAY=100 -DEXTENDED_JOINING_RANDOM_MASK=0x007F
//        -DBEACON_REQUEST_DELAY=100 -DBEACON_REQ_DELAY_MASK=0x00FF
//        -DLINK_STATUS_JITTER_MASK=0x007F -DROUTE_EXPIRY_TIME=30
//        -DAPSC_ACK_WAIT_DURATION_POLLED=3000 -DNWK_INDIRECT_MSG_TIMEOUT=7
//        -DMAX_RREQ_ENTRIES=8 -DAPSC_MAX_FRAME_RETRIES=3
//        -DNWK_MAX_DATA_RETRIES=2 -DMAX_POLL_FAILURE_RETRIES=2 -DMAX_BCAST=9
//        -DAPS_MAX_GROUPS=16 -DMAX_RTG_ENTRIES=40 -DNWK_MAX_BINDING_ENTRIES=4
//        -DMAX_BINDING_CLUSTER_IDS=4 -DDEFAULT_KEY={0}
//        -DMAC_MAX_FRAME_SIZE=116 -DZDNWKMGR_MIN_TRANSMISSIONS=20
//        "-DCONST=const __code" -DGENERIC=__generic -DRFD_RCVC_ALWAYS_ON=FALSE
//        -DPOLL_RATE=1000 -DQUEUED_POLL_RATE=100 -DRESPONSE_POLL_RATE=100
//        -DREJOIN_POLL_RATE=440 -DREJOIN_BACKOFF=900000 -DREJOIN_SCAN=900000
//        -DENABLE_LED4_DISABLE_S1) -f "C:\Texas Instruments\2. main
//        recover\Z-Stack 3.0.2\Z-Stack
//        3.0.2\Projects\zstack\HomeAutomation\SampleLight\CC2530DB\..\..\..\Tools\CC2530DB\f8wZCL.cfg"
//        -I "C:\Texas Instruments\2. main recover\Z-Stack 3.0.2\Z-Stack
//        3.0.2\Projects\zstack\HomeAutomation\SampleLight\CC2530DB\" -I
//        "C:\Texas Instruments\2. main recover\Z-Stack 3.0.2\Z-Stack
//        3.0.2\Projects\zstack\HomeAutomation\SampleLight\CC2530DB\..\Source\"
//        -I "C:\Texas Instruments\2. main recover\Z-Stack 3.0.2\Z-Stack
//        3.0.2\Projects\zstack\HomeAutomation\SampleLight\CC2530DB\..\..\Source\"
//        -I "C:\Texas Instruments\2. main recover\Z-Stack 3.0.2\Z-Stack
//        3.0.2\Projects\zstack\HomeAutomation\SampleLight\CC2530DB\..\..\..\ZMain\TI2530DB\"
//        -I "C:\Texas Instruments\2. main recover\Z-Stack 3.0.2\Z-Stack
//        3.0.2\Projects\zstack\HomeAutomation\SampleLight\CC2530DB\..\..\..\..\..\Components\hal\include\"
//        -I "C:\Texas Instruments\2. main recover\Z-Stack 3.0.2\Z-Stack
//        3.0.2\Projects\zstack\HomeAutomation\SampleLight\CC2530DB\..\..\..\..\..\Components\hal\target\CC2530EB\"
//        -I "C:\Texas Instruments\2. main recover\Z-Stack 3.0.2\Z-Stack
//        3.0.2\Projects\zstack\HomeAutomation\SampleLight\CC2530DB\..\..\..\..\..\Components\mac\include\"
//        -I "C:\Texas Instruments\2. main recover\Z-Stack 3.0.2\Z-Stack
//        3.0.2\Projects\zstack\HomeAutomation\SampleLight\CC2530DB\..\..\..\..\..\Components\mac\high_level\"
//        -I "C:\Texas Instruments\2. main recover\Z-Stack 3.0.2\Z-Stack
//        3.0.2\Projects\zstack\HomeAutomation\SampleLight\CC2530DB\..\..\..\..\..\Components\mac\low_level\srf04\"
//        -I "C:\Texas Instruments\2. main recover\Z-Stack 3.0.2\Z-Stack
//        3.0.2\Projects\zstack\HomeAutomation\SampleLight\CC2530DB\..\..\..\..\..\Components\mac\low_level\srf04\single_chip\"
//        -I "C:\Texas Instruments\2. main recover\Z-Stack 3.0.2\Z-Stack
//        3.0.2\Projects\zstack\HomeAutomation\SampleLight\CC2530DB\..\..\..\..\..\Components\mt\"
//        -I "C:\Texas Instruments\2. main recover\Z-Stack 3.0.2\Z-Stack
//        3.0.2\Projects\zstack\HomeAutomation\SampleLight\CC2530DB\..\..\..\..\..\Components\osal\include\"
//        -I "C:\Texas Instruments\2. main recover\Z-Stack 3.0.2\Z-Stack
//        3.0.2\Projects\zstack\HomeAutomation\SampleLight\CC2530DB\..\..\..\..\..\Components\services\saddr\"
//        -I "C:\Texas Instruments\2. main recover\Z-Stack 3.0.2\Z-Stack
//        3.0.2\Projects\zstack\HomeAutomation\SampleLight\CC2530DB\..\..\..\..\..\Components\services\sdata\"
//        -I "C:\Texas Instruments\2. main recover\Z-Stack 3.0.2\Z-Stack
//        3.0.2\Projects\zstack\HomeAutomation\SampleLight\CC2530DB\..\..\..\..\..\Components\stack\af\"
//        -I "C:\Texas Instruments\2. main recover\Z-Stack 3.0.2\Z-Stack
//        3.0.2\Projects\zstack\HomeAutomation\SampleLight\CC2530DB\..\..\..\..\..\Components\stack\bdb\"
//        -I "C:\Texas Instruments\2. main recover\Z-Stack 3.0.2\Z-Stack
//        3.0.2\Projects\zstack\HomeAutomation\SampleLight\CC2530DB\..\..\..\..\..\Components\stack\nwk\"
//        -I "C:\Texas Instruments\2. main recover\Z-Stack 3.0.2\Z-Stack
//        3.0.2\Projects\zstack\HomeAutomation\SampleLight\CC2530DB\..\..\..\..\..\Components\stack\bdb\"
//        -I "C:\Texas Instruments\2. main recover\Z-Stack 3.0.2\Z-Stack
//        3.0.2\Projects\zstack\HomeAutomation\SampleLight\CC2530DB\..\..\..\..\..\Components\stack\gp\"
//        -I "C:\Texas Instruments\2. main recover\Z-Stack 3.0.2\Z-Stack
//        3.0.2\Projects\zstack\HomeAutomation\SampleLight\CC2530DB\..\..\..\..\..\Components\stack\sapi\"
//        -I "C:\Texas Instruments\2. main recover\Z-Stack 3.0.2\Z-Stack
//        3.0.2\Projects\zstack\HomeAutomation\SampleLight\CC2530DB\..\..\..\..\..\Components\stack\sec\"
//        -I "C:\Texas Instruments\2. main recover\Z-Stack 3.0.2\Z-Stack
//        3.0.2\Projects\zstack\HomeAutomation\SampleLight\CC2530DB\..\..\..\..\..\Components\stack\sys\"
//        -I "C:\Texas Instruments\2. main recover\Z-Stack 3.0.2\Z-Stack
//        3.0.2\Projects\zstack\HomeAutomation\SampleLight\CC2530DB\..\..\..\..\..\Components\stack\zcl\"
//        -I "C:\Texas Instruments\2. main recover\Z-Stack 3.0.2\Z-Stack
//        3.0.2\Projects\zstack\HomeAutomation\SampleLight\CC2530DB\..\..\..\..\..\Components\stack\zdo\"
//        -I "C:\Texas Instruments\2. main recover\Z-Stack 3.0.2\Z-Stack
//        3.0.2\Projects\zstack\HomeAutomation\SampleLight\CC2530DB\..\..\..\..\..\Components\zmac\"
//        -I "C:\Texas Instruments\2. main recover\Z-Stack 3.0.2\Z-Stack
//        3.0.2\Projects\zstack\HomeAutomation\SampleLight\CC2530DB\..\..\..\..\..\Components\zmac\f8w\"
//        -Ohz --require_prototypes)
//    Locale             =  English_USA.1252
//    List file          =  
//        C:\Texas Instruments\2. main recover\Z-Stack 3.0.2\Z-Stack
//        3.0.2\Projects\zstack\HomeAutomation\SampleLight\CC2530DB\RouterEB\List\zcl_samplelight.s51
//
///////////////////////////////////////////////////////////////////////////////

        NAME zcl_samplelight

        RTMODEL "__SystemLibrary", "CLib"
        RTMODEL "__calling_convention", "xdata_reentrant"
        RTMODEL "__code_model", "banked"
        RTMODEL "__core", "plain"
        RTMODEL "__data_model", "large"
        RTMODEL "__dptr_size", "16"
        RTMODEL "__extended_stack", "disabled"
        RTMODEL "__location_for_constants", "data"
        RTMODEL "__number_of_dptrs", "1"
        RTMODEL "__register_banks", "*"
        RTMODEL "__rt_version", "1"

        RSEG DOVERLAY:DATA:NOROOT(0)
        RSEG IOVERLAY:IDATA:NOROOT(0)
        RSEG ISTACK:IDATA:NOROOT(0)
        RSEG PSTACK:XDATA:NOROOT(0)
        RSEG XSTACK:XDATA:NOROOT(0)

        EXTERN ?V0
        EXTERN ?V1
        EXTERN ?V2
        EXTERN ?V3
        EXTERN ?BANKED_ENTER_XDATA
        EXTERN ?BANKED_LEAVE_XDATA
        EXTERN ?BDISPATCH
        EXTERN ?BRET
        EXTERN ?DEALLOC_XSTACK8
        EXTERN ?PUSH_XSTACK8_X_FOUR
        EXTERN ?PUSH_XSTACK_I_ONE
        EXTERN ?PUSH_XSTACK_I_TWO
        EXTERN __INIT_XDATA_I
        EXTERN __INIT_XDATA_Z

        FUNCTION `??zclSampleLight_BasicResetCB::?relay`,0203H
        FUNCTION `??zclSampleLight_IdentifyCB::?relay`,0203H
        FUNCTION `??zclSampleLight_IdentifyQueryRspCB::?relay`,0203H
        PUBLIC `??zclSampleLight_Init::?relay`
        FUNCTION `??zclSampleLight_Init::?relay`,0203H
        FUNCTION `??zclSampleLight_OnOffCB::?relay`,0203H
        FUNCTION `??zclSampleLight_ProcessIdentifyTimeChange::?re`,0203H
        FUNCTION `??zclSampleLight_ProcessInDiscCmdsRspCmd::?rela`,0203H
        FUNCTION `??zclSampleLight_ProcessIncomingMsg::?relay`,0203H
        PUBLIC `??zclSampleLight_ReportOnOff::?relay`
        FUNCTION `??zclSampleLight_ReportOnOff::?relay`,0203H
        PUBLIC `??zclSampleLight_ReportTemp::?relay`
        FUNCTION `??zclSampleLight_ReportTemp::?relay`,0203H
        PUBLIC `??zclSampleLight_event_loop::?relay`
        FUNCTION `??zclSampleLight_event_loop::?relay`,0203H
        PUBLIC RELAY_STATE
        PUBLIC SeqNum
        PUBWEAK __Constant_3e8
        PUBWEAK __Constant_64
        PUBWEAK __Constant_7d0
        FUNCTION zclSampleLight_BasicResetCB,021603H
        ARGFRAME XSTACK, 0, STACK
        LOCFRAME ISTACK, 2, STACK
        PUBLIC zclSampleLight_DstAddr
        FUNCTION zclSampleLight_IdentifyCB,021603H
        ARGFRAME XSTACK, 0, STACK
        LOCFRAME ISTACK, 2, STACK
        FUNCTION zclSampleLight_IdentifyQueryRspCB,0603H
        ARGFRAME XSTACK, 0, STACK
        PUBLIC zclSampleLight_Init
        FUNCTION zclSampleLight_Init,021203H
        ARGFRAME XSTACK, 0, STACK
        LOCFRAME XSTACK, 13, STACK
        PUBLIC zclSampleLight_MeasuredValue
        PUBLIC zclSampleLight_NwkState
        FUNCTION zclSampleLight_OnOffCB,0603H
        ARGFRAME XSTACK, 0, STACK
        LOCFRAME ISTACK, 2, STACK
        FUNCTION zclSampleLight_ProcessIdentifyTimeChange,021203H
        ARGFRAME XSTACK, 0, STACK
        ARGFRAME IOVERLAY, 0, STATIC
        ARGFRAME DOVERLAY, 0, STATIC
        LOCFRAME ISTACK, 2, STACK
        LOCFRAME XSTACK, 4, STACK
        FUNCTION zclSampleLight_ProcessInDiscCmdsRspCmd,0203H
        ARGFRAME XSTACK, 9, STACK
        ARGFRAME IOVERLAY, 0, STATIC
        ARGFRAME DOVERLAY, 0, STATIC
        LOCFRAME ISTACK, 2, STACK
        FUNCTION zclSampleLight_ProcessIncomingMsg,021203H
        ARGFRAME XSTACK, 12, STACK
        ARGFRAME IOVERLAY, 0, STATIC
        ARGFRAME DOVERLAY, 0, STATIC
        LOCFRAME XSTACK, 9, STACK
        PUBLIC zclSampleLight_ReportOnOff
        FUNCTION zclSampleLight_ReportOnOff,0a1203H
        ARGFRAME XSTACK, 12, STACK
        ARGFRAME IOVERLAY, 0, STATIC
        ARGFRAME DOVERLAY, 0, STATIC
        LOCFRAME XSTACK, 17, STACK
        PUBLIC zclSampleLight_ReportTemp
        FUNCTION zclSampleLight_ReportTemp,021203H
        ARGFRAME XSTACK, 12, STACK
        ARGFRAME IOVERLAY, 0, STATIC
        ARGFRAME DOVERLAY, 0, STATIC
        LOCFRAME ISTACK, 2, STACK
        PUBLIC zclSampleLight_TaskID
        PUBLIC zclSampleLight_event_loop
        FUNCTION zclSampleLight_event_loop,0a1203H
        ARGFRAME XSTACK, 0, STACK
        LOCFRAME XSTACK, 21, STACK
        PUBLIC zclSampleLight_on
        PUBLIC zcl_dstAddr
        
          CFI Names cfiNames0
          CFI StackFrame CFA_SP SP IDATA
          CFI StackFrame CFA_PSP16 PSP16 XDATA
          CFI StackFrame CFA_XSP16 XSP16 XDATA
          CFI StaticOverlayFrame CFA_IOVERLAY IOVERLAY
          CFI StaticOverlayFrame CFA_DOVERLAY DOVERLAY
          CFI Resource `PSW.CY`:1, `B.BR0`:1, `B.BR1`:1, `B.BR2`:1, `B.BR3`:1
          CFI Resource `B.BR4`:1, `B.BR5`:1, `B.BR6`:1, `B.BR7`:1, `VB.BR8`:1
          CFI Resource `VB.BR9`:1, `VB.BR10`:1, `VB.BR11`:1, `VB.BR12`:1
          CFI Resource `VB.BR13`:1, `VB.BR14`:1, `VB.BR15`:1, VB:8, B:8, A:8
          CFI Resource PSW:8, DPL0:8, DPH0:8, R0:8, R1:8, R2:8, R3:8, R4:8, R5:8
          CFI Resource R6:8, R7:8, V0:8, V1:8, V2:8, V3:8, V4:8, V5:8, V6:8, V7:8
          CFI Resource V8:8, V9:8, V10:8, V11:8, V12:8, V13:8, V14:8, V15:8, SP:8
          CFI Resource PSPH:8, PSPL:8, PSP16:16, XSPH:8, XSPL:8, XSP16:16
          CFI VirtualResource ?RET:24
          CFI Resource ?BRET_EXT:8
          CFI VirtualResource ?RET_HIGH:8, ?RET_LOW:8
          CFI ResourceParts PSP16 PSPH, PSPL
          CFI ResourceParts XSP16 XSPH, XSPL
          CFI ResourceParts ?RET ?BRET_EXT, ?RET_HIGH, ?RET_LOW
          CFI EndNames cfiNames0
        
          CFI Common cfiCommon0 Using cfiNames0
          CFI CodeAlign 1
          CFI DataAlign -1
          CFI ReturnAddress ?RET CODE
          CFI CFA_DOVERLAY Used
          CFI CFA_IOVERLAY Used
          CFI CFA_SP SP+-3
          CFI CFA_PSP16 PSP16+0
          CFI CFA_XSP16 XSP16+0
          CFI `PSW.CY` SameValue
          CFI `B.BR0` SameValue
          CFI `B.BR1` SameValue
          CFI `B.BR2` SameValue
          CFI `B.BR3` SameValue
          CFI `B.BR4` SameValue
          CFI `B.BR5` SameValue
          CFI `B.BR6` SameValue
          CFI `B.BR7` SameValue
          CFI `VB.BR8` SameValue
          CFI `VB.BR9` SameValue
          CFI `VB.BR10` SameValue
          CFI `VB.BR11` SameValue
          CFI `VB.BR12` SameValue
          CFI `VB.BR13` SameValue
          CFI `VB.BR14` SameValue
          CFI `VB.BR15` SameValue
          CFI VB SameValue
          CFI B Undefined
          CFI A Undefined
          CFI PSW SameValue
          CFI DPL0 SameValue
          CFI DPH0 SameValue
          CFI R0 Undefined
          CFI R1 Undefined
          CFI R2 Undefined
          CFI R3 Undefined
          CFI R4 Undefined
          CFI R5 Undefined
          CFI R6 SameValue
          CFI R7 SameValue
          CFI V0 SameValue
          CFI V1 SameValue
          CFI V2 SameValue
          CFI V3 SameValue
          CFI V4 SameValue
          CFI V5 SameValue
          CFI V6 SameValue
          CFI V7 SameValue
          CFI V8 SameValue
          CFI V9 SameValue
          CFI V10 SameValue
          CFI V11 SameValue
          CFI V12 SameValue
          CFI V13 SameValue
          CFI V14 SameValue
          CFI V15 SameValue
          CFI PSPH Undefined
          CFI PSPL Undefined
          CFI XSPH Undefined
          CFI XSPL Undefined
          CFI ?RET Concat
          CFI ?BRET_EXT Frame(CFA_SP, 3)
          CFI ?RET_HIGH Frame(CFA_SP, 2)
          CFI ?RET_LOW Frame(CFA_SP, 1)
          CFI EndCommon cfiCommon0
        
        
          CFI Common cfiCommon1 Using cfiNames0
          CFI CodeAlign 1
          CFI DataAlign -1
          CFI ReturnAddress ?RET CODE
          CFI CFA_DOVERLAY Used
          CFI CFA_IOVERLAY Used
          CFI CFA_SP SP+-2
          CFI CFA_PSP16 PSP16+0
          CFI CFA_XSP16 XSP16+0
          CFI `PSW.CY` SameValue
          CFI `B.BR0` SameValue
          CFI `B.BR1` SameValue
          CFI `B.BR2` SameValue
          CFI `B.BR3` SameValue
          CFI `B.BR4` SameValue
          CFI `B.BR5` SameValue
          CFI `B.BR6` SameValue
          CFI `B.BR7` SameValue
          CFI `VB.BR8` SameValue
          CFI `VB.BR9` SameValue
          CFI `VB.BR10` SameValue
          CFI `VB.BR11` SameValue
          CFI `VB.BR12` SameValue
          CFI `VB.BR13` SameValue
          CFI `VB.BR14` SameValue
          CFI `VB.BR15` SameValue
          CFI VB SameValue
          CFI B SameValue
          CFI A SameValue
          CFI PSW SameValue
          CFI DPL0 SameValue
          CFI DPH0 SameValue
          CFI R0 SameValue
          CFI R1 SameValue
          CFI R2 SameValue
          CFI R3 SameValue
          CFI R4 SameValue
          CFI R5 SameValue
          CFI R6 SameValue
          CFI R7 SameValue
          CFI V0 SameValue
          CFI V1 SameValue
          CFI V2 SameValue
          CFI V3 SameValue
          CFI V4 SameValue
          CFI V5 SameValue
          CFI V6 SameValue
          CFI V7 SameValue
          CFI V8 SameValue
          CFI V9 SameValue
          CFI V10 SameValue
          CFI V11 SameValue
          CFI V12 SameValue
          CFI V13 SameValue
          CFI V14 SameValue
          CFI V15 SameValue
          CFI PSPH Undefined
          CFI PSPL Undefined
          CFI XSPH Undefined
          CFI XSPL Undefined
          CFI ?RET Concat
          CFI ?BRET_EXT SameValue
          CFI ?RET_HIGH Frame(CFA_SP, 2)
          CFI ?RET_LOW Frame(CFA_SP, 1)
          CFI EndCommon cfiCommon1
        
HalLedSet           SYMBOL "HalLedSet"
`??HalLedSet::?relay` SYMBOL "?relay", HalLedSet
LED                 SYMBOL "LED"
`??LED::?relay`     SYMBOL "?relay", LED
NLME_GetShortAddr   SYMBOL "NLME_GetShortAddr"
`??NLME_GetShortAddr::?relay` SYMBOL "?relay", NLME_GetShortAddr
RegisterForKeys     SYMBOL "RegisterForKeys"
`??RegisterForKeys::?relay` SYMBOL "?relay", RegisterForKeys
ZDP_EndDeviceBindReq SYMBOL "ZDP_EndDeviceBindReq"
`??ZDP_EndDeviceBindReq::?relay` SYMBOL "?relay", ZDP_EndDeviceBindReq
afRegister          SYMBOL "afRegister"
`??afRegister::?relay` SYMBOL "?relay", afRegister
bdb_StartCommissioning SYMBOL "bdb_StartCommissioning"
`??bdb_StartCommissioning::?relay` SYMBOL "?relay", bdb_StartCommissioning
osal_mem_alloc      SYMBOL "osal_mem_alloc"
`??osal_mem_alloc::?relay` SYMBOL "?relay", osal_mem_alloc
osal_mem_free       SYMBOL "osal_mem_free"
`??osal_mem_free::?relay` SYMBOL "?relay", osal_mem_free
osal_msg_deallocate SYMBOL "osal_msg_deallocate"
`??osal_msg_deallocate::?relay` SYMBOL "?relay", osal_msg_deallocate
osal_msg_receive    SYMBOL "osal_msg_receive"
`??osal_msg_receive::?relay` SYMBOL "?relay", osal_msg_receive
osal_start_reload_timer SYMBOL "osal_start_reload_timer"
`??osal_start_reload_timer::?relay` SYMBOL "?relay", osal_start_reload_timer
osal_start_timerEx  SYMBOL "osal_start_timerEx"
`??osal_start_timerEx::?relay` SYMBOL "?relay", osal_start_timerEx
osal_stop_timerEx   SYMBOL "osal_stop_timerEx"
`??osal_stop_timerEx::?relay` SYMBOL "?relay", osal_stop_timerEx
readTemperature     SYMBOL "readTemperature"
`??readTemperature::?relay` SYMBOL "?relay", readTemperature
zclGeneral_RegisterCmdCallbacks SYMBOL "zclGeneral_RegisterCmdCallbacks"
`??zclGeneral_RegisterCmdCallbacks::?relay` SYMBOL "?relay", zclGeneral_RegisterCmdCallbacks
zclHA_Init          SYMBOL "zclHA_Init"
`??zclHA_Init::?relay` SYMBOL "?relay", zclHA_Init
zclSampleLight_ResetAttributesToDefaultValues SYMBOL "zclSampleLight_ResetAttributesToDefaultValues"
??zclSampleLight_ResetAttributesToDefaultValues SYMBOL "?relay", zclSampleLight_ResetAttributesToDefaultValues
zcl_SendReportCmd   SYMBOL "zcl_SendReportCmd"
`??zcl_SendReportCmd::?relay` SYMBOL "?relay", zcl_SendReportCmd
zcl_registerAttrList SYMBOL "zcl_registerAttrList"
`??zcl_registerAttrList::?relay` SYMBOL "?relay", zcl_registerAttrList
zcl_registerCmdList SYMBOL "zcl_registerCmdList"
`??zcl_registerCmdList::?relay` SYMBOL "?relay", zcl_registerCmdList
zcl_registerForMsg  SYMBOL "zcl_registerForMsg"
`??zcl_registerForMsg::?relay` SYMBOL "?relay", zcl_registerForMsg
zclSampleLight_Init SYMBOL "zclSampleLight_Init"
`??zclSampleLight_Init::?relay` SYMBOL "?relay", zclSampleLight_Init
zclSampleLight_ReportOnOff SYMBOL "zclSampleLight_ReportOnOff"
`??zclSampleLight_ReportOnOff::?relay` SYMBOL "?relay", zclSampleLight_ReportOnOff
zclSampleLight_ReportTemp SYMBOL "zclSampleLight_ReportTemp"
`??zclSampleLight_ReportTemp::?relay` SYMBOL "?relay", zclSampleLight_ReportTemp
zclSampleLight_event_loop SYMBOL "zclSampleLight_event_loop"
`??zclSampleLight_event_loop::?relay` SYMBOL "?relay", zclSampleLight_event_loop

        EXTERN `??HalLedSet::?relay`
        FUNCTION `??HalLedSet::?relay`,00H
        EXTERN `??LED::?relay`
        FUNCTION `??LED::?relay`,00H
        EXTERN `??NLME_GetShortAddr::?relay`
        FUNCTION `??NLME_GetShortAddr::?relay`,00H
        EXTERN `??RegisterForKeys::?relay`
        FUNCTION `??RegisterForKeys::?relay`,00H
        EXTERN `??ZDP_EndDeviceBindReq::?relay`
        FUNCTION `??ZDP_EndDeviceBindReq::?relay`,00H
        EXTERN `??afRegister::?relay`
        FUNCTION `??afRegister::?relay`,00H
        EXTERN `??bdb_StartCommissioning::?relay`
        FUNCTION `??bdb_StartCommissioning::?relay`,00H
        EXTERN `??osal_mem_alloc::?relay`
        FUNCTION `??osal_mem_alloc::?relay`,00H
        EXTERN `??osal_mem_free::?relay`
        FUNCTION `??osal_mem_free::?relay`,00H
        EXTERN `??osal_msg_deallocate::?relay`
        FUNCTION `??osal_msg_deallocate::?relay`,00H
        EXTERN `??osal_msg_receive::?relay`
        FUNCTION `??osal_msg_receive::?relay`,00H
        EXTERN `??osal_start_reload_timer::?relay`
        FUNCTION `??osal_start_reload_timer::?relay`,00H
        EXTERN `??osal_start_timerEx::?relay`
        FUNCTION `??osal_start_timerEx::?relay`,00H
        EXTERN `??osal_stop_timerEx::?relay`
        FUNCTION `??osal_stop_timerEx::?relay`,00H
        EXTERN `??readTemperature::?relay`
        FUNCTION `??readTemperature::?relay`,00H
        EXTERN `??zclGeneral_RegisterCmdCallbacks::?relay`
        FUNCTION `??zclGeneral_RegisterCmdCallbacks::?relay`,00H
        EXTERN `??zclHA_Init::?relay`
        FUNCTION `??zclHA_Init::?relay`,00H
        EXTERN ??zclSampleLight_ResetAttributesToDefaultValues
        FUNCTION ??zclSampleLight_ResetAttributesToDefaultValues,00H
        EXTERN `??zcl_SendReportCmd::?relay`
        FUNCTION `??zcl_SendReportCmd::?relay`,00H
        EXTERN `??zcl_registerAttrList::?relay`
        FUNCTION `??zcl_registerAttrList::?relay`,00H
        EXTERN `??zcl_registerCmdList::?relay`
        FUNCTION `??zcl_registerCmdList::?relay`,00H
        EXTERN `??zcl_registerForMsg::?relay`
        FUNCTION `??zcl_registerForMsg::?relay`,00H
        EXTERN HalLedSet
        FUNCTION HalLedSet,0202H
        ARGFRAME ISTACK, 2, STACK
        ARGFRAME PSTACK, 0, STACK
        ARGFRAME XSTACK, 12, STACK
        ARGFRAME IOVERLAY, 0, STATIC
        ARGFRAME DOVERLAY, 0, STATIC
        EXTERN LED
        FUNCTION LED,0202H
        ARGFRAME ISTACK, 0, STACK
        ARGFRAME PSTACK, 0, STACK
        ARGFRAME XSTACK, 12, STACK
        ARGFRAME IOVERLAY, 0, STATIC
        ARGFRAME DOVERLAY, 0, STATIC
        EXTERN NLME_GetShortAddr
        FUNCTION NLME_GetShortAddr,0202H
        ARGFRAME ISTACK, 0, STACK
        ARGFRAME PSTACK, 0, STACK
        ARGFRAME XSTACK, 12, STACK
        ARGFRAME IOVERLAY, 0, STATIC
        ARGFRAME DOVERLAY, 0, STATIC
        EXTERN RegisterForKeys
        FUNCTION RegisterForKeys,0202H
        ARGFRAME ISTACK, 0, STACK
        ARGFRAME PSTACK, 0, STACK
        ARGFRAME XSTACK, 9, STACK
        ARGFRAME IOVERLAY, 0, STATIC
        ARGFRAME DOVERLAY, 0, STATIC
        EXTERN ZDP_EndDeviceBindReq
        FUNCTION ZDP_EndDeviceBindReq,0202H
        ARGFRAME ISTACK, 0, STACK
        ARGFRAME PSTACK, 0, STACK
        ARGFRAME XSTACK, 21, STACK
        ARGFRAME IOVERLAY, 0, STATIC
        ARGFRAME DOVERLAY, 0, STATIC
        EXTERN afRegister
        FUNCTION afRegister,0202H
        ARGFRAME ISTACK, 0, STACK
        ARGFRAME PSTACK, 0, STACK
        ARGFRAME XSTACK, 9, STACK
        ARGFRAME IOVERLAY, 0, STATIC
        ARGFRAME DOVERLAY, 0, STATIC
        EXTERN bdb_StartCommissioning
        FUNCTION bdb_StartCommissioning,0202H
        ARGFRAME ISTACK, 0, STACK
        ARGFRAME PSTACK, 0, STACK
        ARGFRAME XSTACK, 12, STACK
        ARGFRAME IOVERLAY, 0, STATIC
        ARGFRAME DOVERLAY, 0, STATIC
        EXTERN osal_mem_alloc
        FUNCTION osal_mem_alloc,0202H
        ARGFRAME ISTACK, 0, STACK
        ARGFRAME PSTACK, 0, STACK
        ARGFRAME XSTACK, 12, STACK
        ARGFRAME IOVERLAY, 0, STATIC
        ARGFRAME DOVERLAY, 0, STATIC
        EXTERN osal_mem_free
        FUNCTION osal_mem_free,0202H
        ARGFRAME ISTACK, 0, STACK
        ARGFRAME PSTACK, 0, STACK
        ARGFRAME XSTACK, 12, STACK
        ARGFRAME IOVERLAY, 0, STATIC
        ARGFRAME DOVERLAY, 0, STATIC
        EXTERN osal_msg_deallocate
        FUNCTION osal_msg_deallocate,0202H
        ARGFRAME ISTACK, 0, STACK
        ARGFRAME PSTACK, 0, STACK
        ARGFRAME XSTACK, 12, STACK
        ARGFRAME IOVERLAY, 0, STATIC
        ARGFRAME DOVERLAY, 0, STATIC
        EXTERN osal_msg_receive
        FUNCTION osal_msg_receive,0202H
        ARGFRAME ISTACK, 0, STACK
        ARGFRAME PSTACK, 0, STACK
        ARGFRAME XSTACK, 12, STACK
        ARGFRAME IOVERLAY, 0, STATIC
        ARGFRAME DOVERLAY, 0, STATIC
        EXTERN osal_start_reload_timer
        FUNCTION osal_start_reload_timer,0202H
        ARGFRAME ISTACK, 0, STACK
        ARGFRAME PSTACK, 0, STACK
        ARGFRAME XSTACK, 13, STACK
        ARGFRAME IOVERLAY, 0, STATIC
        ARGFRAME DOVERLAY, 0, STATIC
        EXTERN osal_start_timerEx
        FUNCTION osal_start_timerEx,0202H
        ARGFRAME ISTACK, 2, STACK
        ARGFRAME PSTACK, 0, STACK
        ARGFRAME XSTACK, 16, STACK
        ARGFRAME IOVERLAY, 0, STATIC
        ARGFRAME DOVERLAY, 0, STATIC
        EXTERN osal_stop_timerEx
        FUNCTION osal_stop_timerEx,0202H
        ARGFRAME ISTACK, 2, STACK
        ARGFRAME PSTACK, 0, STACK
        ARGFRAME XSTACK, 12, STACK
        ARGFRAME IOVERLAY, 0, STATIC
        ARGFRAME DOVERLAY, 0, STATIC
        EXTERN readTemperature
        FUNCTION readTemperature,0202H
        ARGFRAME ISTACK, 2, STACK
        ARGFRAME PSTACK, 0, STACK
        ARGFRAME XSTACK, 0, STACK
        ARGFRAME IOVERLAY, 0, STATIC
        ARGFRAME DOVERLAY, 0, STATIC
        EXTERN zclCmdsArraySize
        EXTERN zclGeneral_RegisterCmdCallbacks
        FUNCTION zclGeneral_RegisterCmdCallbacks,0202H
        ARGFRAME ISTACK, 0, STACK
        ARGFRAME PSTACK, 0, STACK
        ARGFRAME XSTACK, 9, STACK
        ARGFRAME IOVERLAY, 0, STATIC
        ARGFRAME DOVERLAY, 0, STATIC
        EXTERN zclHA_Init
        FUNCTION zclHA_Init,0202H
        ARGFRAME ISTACK, 0, STACK
        ARGFRAME PSTACK, 0, STACK
        ARGFRAME XSTACK, 9, STACK
        ARGFRAME IOVERLAY, 0, STATIC
        ARGFRAME DOVERLAY, 0, STATIC
        EXTERN zclSampleLight_Attrs
        EXTERN zclSampleLight_Cmds
        EXTERN zclSampleLight_IdentifyTime
        EXTERN zclSampleLight_OnOff
        EXTERN zclSampleLight_ResetAttributesToDefaultValues
        FUNCTION zclSampleLight_ResetAttributesToDefaultValues,0202H
        ARGFRAME ISTACK, 2, STACK
        ARGFRAME PSTACK, 0, STACK
        ARGFRAME XSTACK, 0, STACK
        ARGFRAME IOVERLAY, 0, STATIC
        ARGFRAME DOVERLAY, 0, STATIC
        EXTERN zclSampleLight_SimpleDesc
        EXTERN zcl_SendReportCmd
        FUNCTION zcl_SendReportCmd,0202H
        ARGFRAME ISTACK, 0, STACK
        ARGFRAME PSTACK, 0, STACK
        ARGFRAME XSTACK, 17, STACK
        ARGFRAME IOVERLAY, 0, STATIC
        ARGFRAME DOVERLAY, 0, STATIC
        EXTERN zcl_registerAttrList
        FUNCTION zcl_registerAttrList,0202H
        ARGFRAME ISTACK, 0, STACK
        ARGFRAME PSTACK, 0, STACK
        ARGFRAME XSTACK, 9, STACK
        ARGFRAME IOVERLAY, 0, STATIC
        ARGFRAME DOVERLAY, 0, STATIC
        EXTERN zcl_registerCmdList
        FUNCTION zcl_registerCmdList,0202H
        ARGFRAME ISTACK, 0, STACK
        ARGFRAME PSTACK, 0, STACK
        ARGFRAME XSTACK, 9, STACK
        ARGFRAME IOVERLAY, 0, STATIC
        ARGFRAME DOVERLAY, 0, STATIC
        EXTERN zcl_registerForMsg
        FUNCTION zcl_registerForMsg,0202H
        ARGFRAME ISTACK, 0, STACK
        ARGFRAME PSTACK, 0, STACK
        ARGFRAME XSTACK, 9, STACK
        ARGFRAME IOVERLAY, 0, STATIC
        ARGFRAME DOVERLAY, 0, STATIC

// C:\Texas Instruments\2. main recover\Z-Stack 3.0.2\Z-Stack 3.0.2\Projects\zstack\HomeAutomation\SampleLight\Source\zcl_samplelight.c
//    1 /**************************************************************************************************
//    2   Filename:       zcl_sampleLight.c
//    3   Revised:        $Date: 2014-10-24 16:04:46 -0700 (Fri, 24 Oct 2014) $
//    4   Revision:       $Revision: 40796 $
//    5 
//    6 
//    7   Description:    Zigbee Cluster Library - sample light application.
//    8 
//    9 
//   10   Copyright 2006-2014 Texas Instruments Incorporated. All rights reserved.
//   11 
//   12   IMPORTANT: Your use of this Software is limited to those specific rights
//   13   granted under the terms of a software license agreement between the user
//   14   who downloaded the software, his/her employer (which must be your employer)
//   15   and Texas Instruments Incorporated (the "License").  You may not use this
//   16   Software unless you agree to abide by the terms of the License. The License
//   17   limits your use, and you acknowledge, that the Software may not be modified,
//   18   copied or distributed unless embedded on a Texas Instruments microcontroller
//   19   or used solely and exclusively in conjunction with a Texas Instruments radio
//   20   frequency transceiver, which is integrated into your product.  Other than for
//   21   the foregoing purpose, you may not use, reproduce, copy, prepare derivative
//   22   works of, modify, distribute, perform, display or sell this Software and/or
//   23   its documentation for any purpose.
//   24 
//   25   YOU FURTHER ACKNOWLEDGE AND AGREE THAT THE SOFTWARE AND DOCUMENTATION ARE
//   26   PROVIDED "AS IS" WITHOUT WARRANTY OF ANY KIND, EITHER EXPRESS OR IMPLIED,
//   27   INCLUDING WITHOUT LIMITATION, ANY WARRANTY OF MERCHANTABILITY, TITLE,
//   28   NON-INFRINGEMENT AND FITNESS FOR A PARTICULAR PURPOSE. IN NO EVENT SHALL
//   29   TEXAS INSTRUMENTS OR ITS LICENSORS BE LIABLE OR OBLIGATED UNDER CONTRACT,
//   30   NEGLIGENCE, STRICT LIABILITY, CONTRIBUTION, BREACH OF WARRANTY, OR OTHER
//   31   LEGAL EQUITABLE THEORY ANY DIRECT OR INDIRECT DAMAGES OR EXPENSES
//   32   INCLUDING BUT NOT LIMITED TO ANY INCIDENTAL, SPECIAL, INDIRECT, PUNITIVE
//   33   OR CONSEQUENTIAL DAMAGES, LOST PROFITS OR LOST DATA, COST OF PROCUREMENT
//   34   OF SUBSTITUTE GOODS, TECHNOLOGY, SERVICES, OR ANY CLAIMS BY THIRD PARTIES
//   35   (INCLUDING BUT NOT LIMITED TO ANY DEFENSE THEREOF), OR OTHER SIMILAR COSTS.
//   36 
//   37   Should you have any questions regarding your right to use this Software,
//   38   contact Texas Instruments Incorporated at www.TI.com.
//   39 **************************************************************************************************/
//   40 
//   41 /*********************************************************************
//   42   This application implements a ZigBee Light, based on Z-Stack 3.0. It can be configured as an
//   43   On/Off light or as a dimmable light, by undefining or defining ZCL_LEVEL_CTRL, respectively.
//   44 
//   45   This application is based on the common sample-application user interface. Please see the main
//   46   comment in zcl_sampleapp_ui.c. The rest of this comment describes only the content specific for
//   47   this sample applicetion.
//   48   
//   49   Application-specific UI peripherals being used:
//   50 
//   51   - LEDs:
//   52     LED1 reflect the current light state (On / Off accordingly).
//   53 
//   54   Application-specific menu system:
//   55 
//   56     <TOGGLE LIGHT> Toggle the local light and display its status and level
//   57       Press OK to toggle the local light on and off.
//   58       This screen shows the following information
//   59         Line1: (only populated if ZCL_LEVEL_CTRL is defined)
//   60           LEVEL XXX - xxx is the current level of the light if the light state is ON, or the target level
//   61             of the light when the light state is off. The target level is the level that the light will be
//   62             set to when it is switched from off to on using the on or the toggle commands.
//   63         Line2:
//   64           LIGHT OFF / ON: shows the current state of the light.
//   65       Note when ZCL_LEVEL_CTRL is enabled:
//   66         - If the light state is ON and the light level is X, and then the light receives the OFF or TOGGLE 
//   67           commands: The level will decrease gradually until it reaches 1, and only then the light state will
//   68           be changed to OFF. The level then will be restored to X, with the state staying OFF. At this stage
//   69           the light is not lighting, and the level represent the target level for the next ON or TOGGLE 
//   70           commands.
//   71         - If the light state is OFF and the light level is X, and then the light receives the ON or TOGGLE
//   72           commands; The level will be set to 1, the light state will be set to ON, and then the level will
//   73           increase gradually until it reaches level X.
//   74         - Any level-setting command will affect the level directly, and may also affect the on/off state,
//   75           depending on the command's arguments.       
//   76 
//   77 *********************************************************************/
//   78 
//   79 /*********************************************************************
//   80  * INCLUDES
//   81  */
//   82 #include "ZComDef.h"
//   83 #include "OSAL.h"
//   84 #include "AF.h"
//   85 #include "ZDApp.h"
//   86 #include "ZDObject.h"
//   87 #include "MT_SYS.h"
//   88 
//   89 #include "nwk_util.h"
//   90 
//   91 #include "zcl.h"
//   92 #include "zcl_ms.h"
//   93 #include "zcl_general.h"
//   94 #include "zcl_ha.h"
//   95 #include "zcl_diagnostic.h"
//   96 
//   97 #include "zcl_samplelight.h"
//   98    
//   99 #include "bdb.h"
//  100 #include "bdb_interface.h"
//  101 
//  102  //GP_UPDATE
//  103 #include "gp_interface.h"
//  104    
//  105 #include "onboard.h"
//  106 
//  107 /* HAL */
//  108 #include "hal_lcd.h"
//  109 #include "hal_led.h"
//  110 #include "hal_key.h"
//  111 
//  112 #include "NLMEDE.h"
//  113 
//  114 
//  115 #include "temperature_sensor.h"
//  116 
//  117 // Added to include TouchLink initiator functionality 
//  118 #if defined ( BDB_TL_INITIATOR )
//  119   #include "bdb_touchlink_initiator.h"
//  120 #endif // BDB_TL_INITIATOR
//  121 
//  122 #if defined ( BDB_TL_TARGET )
//  123   #include "bdb_touchlink_target.h"
//  124 #endif // BDB_TL_TARGET
//  125 
//  126 #if defined ( BDB_TL_INITIATOR ) || defined ( BDB_TL_TARGET )
//  127   #include "bdb_touchlink.h"
//  128 #endif
//  129 
//  130 #include "zcl_sampleapps_ui.h"
//  131 
//  132 /*********************************************************************
//  133  * MACROS
//  134  */
//  135 //#define UI_STATE_TOGGLE_LIGHT 1 //UI_STATE_BACK_FROM_APP_MENU is item #0, so app item numbers should start from 1
//  136 //
//  137 //#define APP_TITLE "TI Sample Light"
//  138 
//  139 /*********************************************************************
//  140  * TYPEDEFS
//  141  */
//  142 
//  143 /*********************************************************************
//  144  * GLOBAL VARIABLES
//  145  */

        RSEG XDATA_Z:XDATA:NOROOT(0)
        DATA8
//  146 byte zclSampleLight_TaskID;
zclSampleLight_TaskID:
        DS 1
        REQUIRE __INIT_XDATA_Z
//  147 //uint8 zclSampleLightSeqNum;
//  148 
//  149 /*********************************************************************
//  150  * GLOBAL FUNCTIONS
//  151  */
//  152 
//  153 /*********************************************************************
//  154  * LOCAL VARIABLES
//  155  */

        RSEG XDATA_Z:XDATA:NOROOT(0)
        DATA8
//  156 afAddrType_t zclSampleLight_DstAddr;
zclSampleLight_DstAddr:
        DS 12
        REQUIRE __INIT_XDATA_Z

        RSEG XDATA_Z:XDATA:NOROOT(0)
        DATA8
//  157 zAddrType_t zcl_dstAddr;
zcl_dstAddr:
        DS 9
        REQUIRE __INIT_XDATA_Z

        RSEG XDATA_Z:XDATA:NOROOT(0)
        DATA16
//  158 uint16 zclSampleLight_MeasuredValue;
zclSampleLight_MeasuredValue:
        DS 2
        REQUIRE __INIT_XDATA_Z

        RSEG XDATA_Z:XDATA:NOROOT(0)
        DATA8
//  159 uint8 zclSampleLight_on;
zclSampleLight_on:
        DS 1
        REQUIRE __INIT_XDATA_Z

        RSEG XDATA_Z:XDATA:NOROOT(0)
        DATA8
//  160 uint8 RELAY_STATE = 0;
RELAY_STATE:
        DS 1
        REQUIRE __INIT_XDATA_Z

        RSEG XDATA_Z:XDATA:NOROOT(0)
        DATA8
//  161 uint8 SeqNum = 0;
SeqNum:
        DS 1
        REQUIRE __INIT_XDATA_Z
//  162 
//  163 
//  164 #define ZCLSAMPLELIGHT_BINDINGLIST       2

        RSEG XDATA_I:XDATA:NOROOT(0)
//  165 static cId_t bindingInClusters[ZCLSAMPLELIGHT_BINDINGLIST] =
bindingInClusters:
        DATA32
        DS 4
        REQUIRE `?<Initializer for bindingInClusters>`
        REQUIRE __INIT_XDATA_I
//  166 {
//  167   ZCL_CLUSTER_ID_GEN_ON_OFF,
//  168   ZCL_CLUSTER_ID_GEN_LEVEL_CONTROL
//  169 };
//  170 
//  171 // Test Endpoint to allow SYS_APP_MSGs

        RSEG XDATA_I:XDATA:NOROOT(0)
//  172 static endPointDesc_t sampleLight_TestEp =
sampleLight_TestEp:
        DATA8
        DS 7
        REQUIRE `?<Initializer for sampleLight_TestEp>`
        REQUIRE __INIT_XDATA_I
//  173 {
//  174   SAMPLELIGHT_ENDPOINT,                                 // Test endpoint
//  175   0,
//  176   &zclSampleLight_TaskID,
//  177   (SimpleDescriptionFormat_t *)NULL,  // No Simple description for this test endpoint
//  178   (afNetworkLatencyReq_t)0            // No Network Latency req
//  179 };
//  180 

        RSEG XDATA_I:XDATA:NOROOT(0)
//  181 devStates_t zclSampleLight_NwkState = DEV_INIT;
zclSampleLight_NwkState:
        DATA8
        DS 1
        REQUIRE `?<Initializer for zclSampleLight_NwkState>`
        REQUIRE __INIT_XDATA_I
//  182 
//  183 //#ifdef ZCL_LEVEL_CTRL
//  184 //uint8 zclSampleLight_WithOnOff;       // set to TRUE if state machine should set light on/off
//  185 //uint8 zclSampleLight_NewLevel;        // new level when done moving
//  186 //uint8 zclSampleLight_LevelChangeCmd; // current level change was triggered by an on/off command
//  187 //bool  zclSampleLight_NewLevelUp;      // is direction to new level up or down?
//  188 //int32 zclSampleLight_CurrentLevel32;  // current level, fixed point (e.g. 192.456)
//  189 //int32 zclSampleLight_Rate32;          // rate in units, fixed point (e.g. 16.123)
//  190 //uint8 zclSampleLight_LevelLastLevel;  // to save the Current Level before the light was turned OFF
//  191 //#endif
//  192 
//  193 /*********************************************************************
//  194  * LOCAL FUNCTIONS
//  195  */
//  196 static void zclSampleLight_HandleKeys( byte shift, byte keys );
//  197 static void zclSampleLight_BasicResetCB( void );
//  198 static void zclSampleLight_OnOffCB( uint8 cmd );
//  199 
//  200 static void zclSampleLight_IdentifyCB( zclIdentify_t *pCmd );
//  201 static void zclSampleLight_IdentifyQueryRspCB( zclIdentifyQueryRsp_t *pRsp );
//  202 static void zclSampleLight_ProcessIdentifyTimeChange( void );
//  203 
//  204 ////GP_UPDATE
//  205 //#if (ZG_BUILD_RTR_TYPE)
//  206 //static void gp_CommissioningMode(bool isEntering);
//  207 //static uint8 gp_ChangeChannelReq(void);
//  208 //#endif
//  209 
//  210 
//  211 //static void zclSampleLight_ProcessCommissioningStatus(bdbCommissioningModeMsg_t *bdbCommissioningModeMsg);
//  212 
//  213 
//  214 //#ifdef ZCL_LEVEL_CTRL
//  215 //static void zclSampleLight_LevelControlMoveToLevelCB( zclLCMoveToLevel_t *pCmd );
//  216 //static void zclSampleLight_LevelControlMoveCB( zclLCMove_t *pCmd );
//  217 //static void zclSampleLight_LevelControlStepCB( zclLCStep_t *pCmd );
//  218 //static void zclSampleLight_LevelControlStopCB( void );
//  219 //static void zclSampleLight_DefaultMove( uint8 OnOff );
//  220 //static uint32 zclSampleLight_TimeRateHelper( uint8 newLevel );
//  221 //static uint16 zclSampleLight_GetTime ( uint8 level, uint16 time );
//  222 //static void zclSampleLight_MoveBasedOnRate( uint8 newLevel, uint32 rate );
//  223 //static void zclSampleLight_MoveBasedOnTime( uint8 newLevel, uint16 time );
//  224 //static void zclSampleLight_AdjustLightLevel( void );
//  225 //#endif
//  226 
//  227 // Functions to process ZCL Foundation incoming Command/Response messages
//  228 static void zclSampleLight_ProcessIncomingMsg( zclIncomingMsg_t *msg );
//  229 #ifdef ZCL_READ
//  230 static uint8 zclSampleLight_ProcessInReadRspCmd( zclIncomingMsg_t *pInMsg );
//  231 #endif
//  232 #ifdef ZCL_WRITE
//  233 static uint8 zclSampleLight_ProcessInWriteRspCmd( zclIncomingMsg_t *pInMsg );
//  234 #endif
//  235 static uint8 zclSampleLight_ProcessInDefaultRspCmd( zclIncomingMsg_t *pInMsg );
//  236 #ifdef ZCL_DISCOVER
//  237 static uint8 zclSampleLight_ProcessInDiscCmdsRspCmd( zclIncomingMsg_t *pInMsg );
//  238 static uint8 zclSampleLight_ProcessInDiscAttrsRspCmd( zclIncomingMsg_t *pInMsg );
//  239 static uint8 zclSampleLight_ProcessInDiscAttrsExtRspCmd( zclIncomingMsg_t *pInMsg );
//  240 #endif
//  241 
//  242 //static void zclSampleApp_BatteryWarningCB( uint8 voltLevel);
//  243 //
//  244 //void zclSampleLight_UiActionToggleLight(uint16 keys);
//  245 //void zclSampleLight_UiUpdateLcd(uint8 uiCurrentState, char * line[3]);
//  246 //void zclSampleLight_UpdateLedState(void);
//  247 
//  248 
//  249 
//  250 
//  251 void zclSampleLight_ReportOnOff( void );
//  252 void zclSampleLight_ReportTemp( void );
//  253 
//  254 
//  255 /*********************************************************************
//  256  * CONSTANTS
//  257  */
//  258 //const uiState_t zclSampleLight_UiStatesMain[] = 
//  259 //{
//  260 //  /*  UI_STATE_BACK_FROM_APP_MENU  */   {UI_STATE_DEFAULT_MOVE,       UI_STATE_TOGGLE_LIGHT,  UI_KEY_SW_5_PRESSED, &UI_ActionBackFromAppMenu}, //do not change this line, except for the second item, which should point to the last entry in this menu
//  261 //  /*  UI_STATE_TOGGLE_LIGHT        */   {UI_STATE_BACK_FROM_APP_MENU, UI_STATE_DEFAULT_MOVE,  UI_KEY_SW_5_PRESSED, &zclSampleLight_UiActionToggleLight},
//  262 //};
//  263 //
//  264 //#define LEVEL_CHANGED_BY_LEVEL_CMD  0
//  265 //#define LEVEL_CHANGED_BY_ON_CMD     1
//  266 //#define LEVEL_CHANGED_BY_OFF_CMD    2
//  267 
//  268 /*********************************************************************
//  269  * STATUS STRINGS
//  270  */
//  271 //#ifdef LCD_SUPPORTED
//  272 //  const char sLightOn[]      = "   LIGHT ON     ";
//  273 //  const char sLightOff[]     = "   LIGHT OFF    ";
//  274 //  #ifdef ZCL_LEVEL_CTRL
//  275 //    char sLightLevel[]        = "   LEVEL ###    "; // displays level 1-254
//  276 //  #endif
//  277 //#endif
//  278 
//  279 /*********************************************************************
//  280  * REFERENCED EXTERNALS
//  281  */
//  282 //extern int16 zdpExternalStateTaskID;
//  283 
//  284 /*********************************************************************
//  285  * ZCL General Profile Callback table
//  286  */

        RSEG XDATA_I:XDATA:NOROOT(0)
//  287 static zclGeneral_AppCallbacks_t zclSampleLight_CmdCallbacks =
zclSampleLight_CmdCallbacks:
        DATA8
        DS 32
        REQUIRE `?<Initializer for zclSampleLight_CmdCallbacks>`
        REQUIRE __INIT_XDATA_I
//  288 {
//  289   zclSampleLight_BasicResetCB,         		   	// Basic Cluster Reset command
//  290   zclSampleLight_IdentifyCB,                                  	// Identify Trigger Effect command
//  291   zclSampleLight_IdentifyQueryRspCB,			// Identify Query Response command
//  292   zclSampleLight_OnOffCB,                 			// On/Off cluster commands
//  293   NULL,                                   					// On/Off cluster enhanced command On with Recall Global Scene
//  294   NULL,                                   					// On/Off cluster enhanced command On with Timed Off
//  295 #ifdef ZCL_LEVEL_CTRL
//  296   NULL, 		// Level Control Move to Level command
//  297   NULL,      		// Level Control Move command
//  298   NULL,        		// Level Control Step command
//  299   NULL,        		// Level Control Stop command
//  300 #endif
//  301 #ifdef ZCL_GROUPS
//  302   NULL,                                   // Group Response commands
//  303 #endif
//  304 #ifdef ZCL_SCENES
//  305   NULL,                                  // Scene Store Request command
//  306   NULL,                                  // Scene Recall Request command
//  307   NULL,                                  // Scene Response command
//  308 #endif
//  309 #ifdef ZCL_ALARMS
//  310   NULL,                                  // Alarm (Response) commands
//  311 #endif
//  312 #ifdef SE_UK_EXT
//  313   NULL,                                  // Get Event Log command
//  314   NULL,                                  // Publish Event Log command
//  315 #endif
//  316   NULL,                                  // RSSI Location command
//  317   NULL                                   // RSSI Location Response command
//  318 };
//  319 
//  320 /*********************************************************************
//  321  * @fn          zclSampleLight_Init
//  322  *
//  323  * @brief       Initialization function for the zclGeneral layer.
//  324  *
//  325  * @param       none
//  326  *
//  327  * @return      none
//  328  */

        RSEG BANKED_CODE:HUGECODE:NOROOT(0)
//  329 void zclSampleLight_Init( byte task_id )
zclSampleLight_Init:
          CFI Block cfiBlock0 Using cfiCommon0
          CFI Function zclSampleLight_Init
        CODE
//  330 {
        FUNCALL zclSampleLight_Init, zclHA_Init
        LOCFRAME ISTACK, 0, STACK
        LOCFRAME PSTACK, 0, STACK
        LOCFRAME XSTACK, 9, STACK
        LOCFRAME IOVERLAY, 0, STATIC
        LOCFRAME DOVERLAY, 0, STATIC
        ARGFRAME ISTACK, 0, STACK
        ARGFRAME PSTACK, 0, STACK
        ARGFRAME XSTACK, 9, STACK
        ARGFRAME IOVERLAY, 0, STATIC
        ARGFRAME DOVERLAY, 0, STATIC
        FUNCALL zclSampleLight_Init, zclGeneral_RegisterCmdCallbacks
        LOCFRAME ISTACK, 0, STACK
        LOCFRAME PSTACK, 0, STACK
        LOCFRAME XSTACK, 9, STACK
        LOCFRAME IOVERLAY, 0, STATIC
        LOCFRAME DOVERLAY, 0, STATIC
        ARGFRAME ISTACK, 0, STACK
        ARGFRAME PSTACK, 0, STACK
        ARGFRAME XSTACK, 9, STACK
        ARGFRAME IOVERLAY, 0, STATIC
        ARGFRAME DOVERLAY, 0, STATIC
        FUNCALL zclSampleLight_Init, zcl_registerAttrList
        LOCFRAME ISTACK, 0, STACK
        LOCFRAME PSTACK, 0, STACK
        LOCFRAME XSTACK, 9, STACK
        LOCFRAME IOVERLAY, 0, STATIC
        LOCFRAME DOVERLAY, 0, STATIC
        ARGFRAME ISTACK, 0, STACK
        ARGFRAME PSTACK, 0, STACK
        ARGFRAME XSTACK, 9, STACK
        ARGFRAME IOVERLAY, 0, STATIC
        ARGFRAME DOVERLAY, 0, STATIC
        FUNCALL zclSampleLight_Init, zcl_registerForMsg
        LOCFRAME ISTACK, 0, STACK
        LOCFRAME PSTACK, 0, STACK
        LOCFRAME XSTACK, 9, STACK
        LOCFRAME IOVERLAY, 0, STATIC
        LOCFRAME DOVERLAY, 0, STATIC
        ARGFRAME ISTACK, 0, STACK
        ARGFRAME PSTACK, 0, STACK
        ARGFRAME XSTACK, 9, STACK
        ARGFRAME IOVERLAY, 0, STATIC
        ARGFRAME DOVERLAY, 0, STATIC
        FUNCALL zclSampleLight_Init, zcl_registerCmdList
        LOCFRAME ISTACK, 0, STACK
        LOCFRAME PSTACK, 0, STACK
        LOCFRAME XSTACK, 9, STACK
        LOCFRAME IOVERLAY, 0, STATIC
        LOCFRAME DOVERLAY, 0, STATIC
        ARGFRAME ISTACK, 0, STACK
        ARGFRAME PSTACK, 0, STACK
        ARGFRAME XSTACK, 9, STACK
        ARGFRAME IOVERLAY, 0, STATIC
        ARGFRAME DOVERLAY, 0, STATIC
        FUNCALL zclSampleLight_Init, RegisterForKeys
        LOCFRAME ISTACK, 0, STACK
        LOCFRAME PSTACK, 0, STACK
        LOCFRAME XSTACK, 9, STACK
        LOCFRAME IOVERLAY, 0, STATIC
        LOCFRAME DOVERLAY, 0, STATIC
        ARGFRAME ISTACK, 0, STACK
        ARGFRAME PSTACK, 0, STACK
        ARGFRAME XSTACK, 9, STACK
        ARGFRAME IOVERLAY, 0, STATIC
        ARGFRAME DOVERLAY, 0, STATIC
        FUNCALL zclSampleLight_Init, afRegister
        LOCFRAME ISTACK, 0, STACK
        LOCFRAME PSTACK, 0, STACK
        LOCFRAME XSTACK, 9, STACK
        LOCFRAME IOVERLAY, 0, STATIC
        LOCFRAME DOVERLAY, 0, STATIC
        ARGFRAME ISTACK, 0, STACK
        ARGFRAME PSTACK, 0, STACK
        ARGFRAME XSTACK, 9, STACK
        ARGFRAME IOVERLAY, 0, STATIC
        ARGFRAME DOVERLAY, 0, STATIC
        FUNCALL zclSampleLight_Init, osal_start_reload_timer
        LOCFRAME ISTACK, 0, STACK
        LOCFRAME PSTACK, 0, STACK
        LOCFRAME XSTACK, 13, STACK
        LOCFRAME IOVERLAY, 0, STATIC
        LOCFRAME DOVERLAY, 0, STATIC
        ARGFRAME ISTACK, 0, STACK
        ARGFRAME PSTACK, 0, STACK
        ARGFRAME XSTACK, 13, STACK
        ARGFRAME IOVERLAY, 0, STATIC
        ARGFRAME DOVERLAY, 0, STATIC
        FUNCALL zclSampleLight_Init, HalLedSet
        LOCFRAME ISTACK, 0, STACK
        LOCFRAME PSTACK, 0, STACK
        LOCFRAME XSTACK, 9, STACK
        LOCFRAME IOVERLAY, 0, STATIC
        LOCFRAME DOVERLAY, 0, STATIC
        ARGFRAME ISTACK, 0, STACK
        ARGFRAME PSTACK, 0, STACK
        ARGFRAME XSTACK, 9, STACK
        ARGFRAME IOVERLAY, 0, STATIC
        ARGFRAME DOVERLAY, 0, STATIC
        FUNCALL zclSampleLight_Init, bdb_StartCommissioning
        LOCFRAME ISTACK, 0, STACK
        LOCFRAME PSTACK, 0, STACK
        LOCFRAME XSTACK, 9, STACK
        LOCFRAME IOVERLAY, 0, STATIC
        LOCFRAME DOVERLAY, 0, STATIC
        ARGFRAME ISTACK, 0, STACK
        ARGFRAME PSTACK, 0, STACK
        ARGFRAME XSTACK, 9, STACK
        ARGFRAME IOVERLAY, 0, STATIC
        ARGFRAME DOVERLAY, 0, STATIC
        MOV       A,#-0x9
        LCALL     ?BANKED_ENTER_XDATA
          CFI DPH0 load(1, XDATA, add(CFA_XSP16, literal(-1)))
          CFI DPL0 load(1, XDATA, add(CFA_XSP16, literal(-2)))
          CFI ?BRET_EXT load(1, XDATA, add(CFA_XSP16, literal(-3)))
          CFI ?RET_HIGH load(1, XDATA, add(CFA_XSP16, literal(-4)))
          CFI ?RET_LOW load(1, XDATA, add(CFA_XSP16, literal(-5)))
          CFI R7 load(1, XDATA, add(CFA_XSP16, literal(-6)))
          CFI V0 load(1, XDATA, add(CFA_XSP16, literal(-7)))
          CFI VB load(1, XDATA, add(CFA_XSP16, literal(-8)))
          CFI R6 load(1, XDATA, add(CFA_XSP16, literal(-9)))
          CFI CFA_SP SP+0
          CFI CFA_XSP16 add(XSP16, 9)
        ; Saved register size: 9
        ; Auto size: 0
        MOV       A,R1
//  331   zclSampleLight_TaskID = task_id;
        MOV       DPTR,#zclSampleLight_TaskID
        MOVX      @DPTR,A
//  332 
//  333   // Set destination address to indirect
//  334   zclSampleLight_DstAddr.addrMode = (afAddrMode_t)AddrNotPresent;
        MOV       DPTR,#zclSampleLight_DstAddr + 8
        CLR       A
        MOVX      @DPTR,A
//  335   zclSampleLight_DstAddr.endPoint = 0;
        INC       DPTR
        MOVX      @DPTR,A
//  336   zclSampleLight_DstAddr.addr.shortAddr = 0;
        MOV       DPTR,#zclSampleLight_DstAddr
        MOVX      @DPTR,A
        INC       DPTR
        MOVX      @DPTR,A
//  337 
//  338   // Register the Simple Descriptor for this application
//  339 //  bdb_RegisterSimpleDescriptor( &zclSampleLight_SimpleDesc );
//  340 
//  341   
//  342    // This app is part of the Home Automation Profile
//  343   zclHA_Init( &zclSampleLight_SimpleDesc );
        ; Setup parameters for call to function zclHA_Init
        MOV       R2,#zclSampleLight_SimpleDesc & 0xff
        MOV       R3,#(zclSampleLight_SimpleDesc >> 8) & 0xff
        LCALL     `??zclHA_Init::?relay`; Banked call to: zclHA_Init
//  344   // Register the ZCL General Cluster Library callback functions
//  345   zclGeneral_RegisterCmdCallbacks( SAMPLELIGHT_ENDPOINT, &zclSampleLight_CmdCallbacks );
        ; Setup parameters for call to function zclGeneral_RegisterCmdCallbacks
        MOV       R2,#zclSampleLight_CmdCallbacks & 0xff
        MOV       R3,#(zclSampleLight_CmdCallbacks >> 8) & 0xff
        MOV       R1,#0x8
        LCALL     `??zclGeneral_RegisterCmdCallbacks::?relay`; Banked call to: zclGeneral_RegisterCmdCallbacks
//  346 
//  347   // Register the application's attribute list
//  348 //  zclSampleLight_ResetAttributesToDefaultValues();
//  349   zcl_registerAttrList( SAMPLELIGHT_ENDPOINT, SAMPLELIGHT_MAX_ATTRIBUTES, zclSampleLight_Attrs );
        ; Setup parameters for call to function zcl_registerAttrList
        MOV       R4,#zclSampleLight_Attrs & 0xff
        MOV       R5,#(zclSampleLight_Attrs >> 8) & 0xff
        MOV       R2,#0xc
        MOV       R1,#0x8
        LCALL     `??zcl_registerAttrList::?relay`; Banked call to: zcl_registerAttrList
//  350 
//  351 //#ifdef ZCL_LEVEL_CTRL
//  352 //  zclSampleLight_LevelLastLevel = zclSampleLight_LevelCurrentLevel;
//  353 //#endif
//  354 
//  355   // Register the Application to receive the unprocessed Foundation command/response messages
//  356   zcl_registerForMsg( zclSampleLight_TaskID );
        ; Setup parameters for call to function zcl_registerForMsg
        MOV       DPTR,#zclSampleLight_TaskID
        MOVX      A,@DPTR
        MOV       R1,A
        LCALL     `??zcl_registerForMsg::?relay`; Banked call to: zcl_registerForMsg
//  357 
//  358 #ifdef ZCL_DISCOVER
//  359   // Register the application's command list
//  360   zcl_registerCmdList( SAMPLELIGHT_ENDPOINT, zclCmdsArraySize, zclSampleLight_Cmds );
        ; Setup parameters for call to function zcl_registerCmdList
        MOV       R4,#zclSampleLight_Cmds & 0xff
        MOV       R5,#(zclSampleLight_Cmds >> 8) & 0xff
        MOV       DPTR,#zclCmdsArraySize
        CLR       A
        MOVC      A,@A+DPTR
        MOV       R2,A
        MOV       R1,#0x8
        LCALL     `??zcl_registerCmdList::?relay`; Banked call to: zcl_registerCmdList
//  361 #endif
//  362 
//  363   // Register low voltage NV memory protection application callback
//  364 //  RegisterVoltageWarningCB( zclSampleApp_BatteryWarningCB );
//  365 
//  366   // Register for all key events - This app will handle all key events
//  367   RegisterForKeys( zclSampleLight_TaskID );
        ; Setup parameters for call to function RegisterForKeys
        MOV       DPTR,#zclSampleLight_TaskID
        MOVX      A,@DPTR
        MOV       R1,A
        LCALL     `??RegisterForKeys::?relay`; Banked call to: RegisterForKeys
//  368   
//  369 //  bdb_RegisterCommissioningStatusCB( zclSampleLight_ProcessCommissioningStatus );
//  370 
//  371 
//  372   // Register for a test endpoint
//  373   afRegister( &sampleLight_TestEp );
        ; Setup parameters for call to function afRegister
        MOV       R2,#sampleLight_TestEp & 0xff
        MOV       R3,#(sampleLight_TestEp >> 8) & 0xff
        LCALL     `??afRegister::?relay`; Banked call to: afRegister
//  374  
//  375   osal_start_reload_timer( zclSampleLight_TaskID, SAMPLELIGHT_REPORTING_EVT,  1000);
        ; Setup parameters for call to function osal_start_reload_timer
        MOV       DPTR,#__Constant_3e8
        LCALL     ?PUSH_XSTACK8_X_FOUR
          CFI CFA_XSP16 add(XSP16, 13)
        MOV       R2,#0x8
        MOV       R3,#0x0
        MOV       DPTR,#zclSampleLight_TaskID
        MOVX      A,@DPTR
        MOV       R1,A
        LCALL     `??osal_start_reload_timer::?relay`; Banked call to: osal_start_reload_timer
        MOV       A,#0x4
        LCALL     ?DEALLOC_XSTACK8
          CFI CFA_XSP16 add(XSP16, 9)
//  376 
//  377 #ifdef ZCL_DIAGNOSTIC
//  378   // Register the application's callback function to read/write attribute data.
//  379   // This is only required when the attribute data format is unknown to ZCL.
//  380   zcl_registerReadWriteCB( SAMPLELIGHT_ENDPOINT, zclDiagnostic_ReadWriteAttrCB, NULL );
//  381 
//  382   if ( zclDiagnostic_InitStats() == ZSuccess )
//  383   {
//  384     // Here the user could start the timer to save Diagnostics to NV
//  385   }
//  386 #endif
//  387 //  
//  388 ////GP_UPDATE  
//  389 //#if (ZG_BUILD_RTR_TYPE)  
//  390 //  gp_RegisterCommissioningModeCB(gp_CommissioningMode);
//  391 //  gp_RegisterGPChangeChannelReqCB(gp_ChangeChannelReq);
//  392 //#endif
//  393 //  
//  394 //  zdpExternalStateTaskID = zclSampleLight_TaskID;
//  395 //
//  396 //  UI_Init(zclSampleLight_TaskID, SAMPLEAPP_LCD_AUTO_UPDATE_EVT, SAMPLEAPP_KEY_AUTO_REPEAT_EVT, &zclSampleLight_IdentifyTime, APP_TITLE, &zclSampleLight_UiUpdateLcd, zclSampleLight_UiStatesMain);
//  397 //
//  398 //  UI_UpdateLcd();
//  399   
//  400 
//  401   zclSampleLight_MeasuredValue = 0;
        MOV       DPTR,#zclSampleLight_MeasuredValue
        CLR       A
        MOVX      @DPTR,A
        INC       DPTR
        MOVX      @DPTR,A
//  402 //  zclSampleLight_on = 1;
//  403   
//  404   
//  405   HalLedSet ( HAL_LED_ALL, HAL_LED_MODE_ON );
        ; Setup parameters for call to function HalLedSet
        MOV       R2,#0x1
        MOV       R1,#0xf
        LCALL     `??HalLedSet::?relay`; Banked call to: HalLedSet
//  406   bdb_StartCommissioning(BDB_COMMISSIONING_MODE_NWK_STEERING | BDB_COMMISSIONING_MODE_FINDING_BINDING);
        ; Setup parameters for call to function bdb_StartCommissioning
        MOV       R1,#0xa
        LCALL     `??bdb_StartCommissioning::?relay`; Banked call to: bdb_StartCommissioning
//  407 
//  408 }
          CFI EndBlock cfiBlock0
        REQUIRE ?Subroutine0
        ; // Fall through to label ?Subroutine0

        RSEG BANKED_CODE:HUGECODE:NOROOT(0)
?Subroutine0:
          CFI Block cfiBlock1 Using cfiCommon0
          CFI NoFunction
          CFI CFA_SP SP+0
          CFI CFA_XSP16 add(XSP16, 9)
          CFI VB load(1, XDATA, add(CFA_XSP16, literal(-8)))
          CFI DPL0 load(1, XDATA, add(CFA_XSP16, literal(-2)))
          CFI DPH0 load(1, XDATA, add(CFA_XSP16, literal(-1)))
          CFI R6 load(1, XDATA, add(CFA_XSP16, literal(-9)))
          CFI R7 load(1, XDATA, add(CFA_XSP16, literal(-6)))
          CFI V0 load(1, XDATA, add(CFA_XSP16, literal(-7)))
          CFI ?BRET_EXT load(1, XDATA, add(CFA_XSP16, literal(-3)))
          CFI ?RET_HIGH load(1, XDATA, add(CFA_XSP16, literal(-4)))
          CFI ?RET_LOW load(1, XDATA, add(CFA_XSP16, literal(-5)))
        MOV       R7,#0x1
        LJMP      ?BANKED_LEAVE_XDATA
          CFI EndBlock cfiBlock1
//  409 
//  410 
//  411 
//  412 
//  413 
//  414 /*********************************************************************
//  415  * @fn          zclSample_event_loop
//  416  *
//  417  * @brief       Event Loop Processor for zclGeneral.
//  418  *
//  419  * @param       none
//  420  *
//  421  * @return      none
//  422  */

        RSEG BANKED_CODE:HUGECODE:NOROOT(0)
//  423 uint16 zclSampleLight_event_loop( uint8 task_id, uint16 events )
zclSampleLight_event_loop:
          CFI Block cfiBlock2 Using cfiCommon0
          CFI Function zclSampleLight_event_loop
        CODE
//  424 {
        FUNCALL zclSampleLight_event_loop, zclSampleLight_ReportTemp
        LOCFRAME ISTACK, 0, STACK
        LOCFRAME PSTACK, 0, STACK
        LOCFRAME XSTACK, 12, STACK
        LOCFRAME IOVERLAY, 0, STATIC
        LOCFRAME DOVERLAY, 0, STATIC
        ARGFRAME ISTACK, 0, STACK
        ARGFRAME PSTACK, 0, STACK
        ARGFRAME XSTACK, 12, STACK
        ARGFRAME IOVERLAY, 0, STATIC
        ARGFRAME DOVERLAY, 0, STATIC
        FUNCALL zclSampleLight_event_loop, zclSampleLight_ReportTemp
        LOCFRAME ISTACK, 0, STACK
        LOCFRAME PSTACK, 0, STACK
        LOCFRAME XSTACK, 12, STACK
        LOCFRAME IOVERLAY, 0, STATIC
        LOCFRAME DOVERLAY, 0, STATIC
        ARGFRAME ISTACK, 0, STACK
        ARGFRAME PSTACK, 0, STACK
        ARGFRAME XSTACK, 12, STACK
        ARGFRAME IOVERLAY, 0, STATIC
        ARGFRAME DOVERLAY, 0, STATIC
        FUNCALL zclSampleLight_event_loop, LED
        LOCFRAME ISTACK, 0, STACK
        LOCFRAME PSTACK, 0, STACK
        LOCFRAME XSTACK, 12, STACK
        LOCFRAME IOVERLAY, 0, STATIC
        LOCFRAME DOVERLAY, 0, STATIC
        ARGFRAME ISTACK, 0, STACK
        ARGFRAME PSTACK, 0, STACK
        ARGFRAME XSTACK, 12, STACK
        ARGFRAME IOVERLAY, 0, STATIC
        ARGFRAME DOVERLAY, 0, STATIC
        FUNCALL zclSampleLight_event_loop, LED
        LOCFRAME ISTACK, 0, STACK
        LOCFRAME PSTACK, 0, STACK
        LOCFRAME XSTACK, 12, STACK
        LOCFRAME IOVERLAY, 0, STATIC
        LOCFRAME DOVERLAY, 0, STATIC
        ARGFRAME ISTACK, 0, STACK
        ARGFRAME PSTACK, 0, STACK
        ARGFRAME XSTACK, 12, STACK
        ARGFRAME IOVERLAY, 0, STATIC
        ARGFRAME DOVERLAY, 0, STATIC
        FUNCALL zclSampleLight_event_loop, osal_stop_timerEx
        LOCFRAME ISTACK, 0, STACK
        LOCFRAME PSTACK, 0, STACK
        LOCFRAME XSTACK, 12, STACK
        LOCFRAME IOVERLAY, 0, STATIC
        LOCFRAME DOVERLAY, 0, STATIC
        ARGFRAME ISTACK, 0, STACK
        ARGFRAME PSTACK, 0, STACK
        ARGFRAME XSTACK, 12, STACK
        ARGFRAME IOVERLAY, 0, STATIC
        ARGFRAME DOVERLAY, 0, STATIC
        FUNCALL zclSampleLight_event_loop, HalLedSet
        LOCFRAME ISTACK, 0, STACK
        LOCFRAME PSTACK, 0, STACK
        LOCFRAME XSTACK, 12, STACK
        LOCFRAME IOVERLAY, 0, STATIC
        LOCFRAME DOVERLAY, 0, STATIC
        ARGFRAME ISTACK, 0, STACK
        ARGFRAME PSTACK, 0, STACK
        ARGFRAME XSTACK, 12, STACK
        ARGFRAME IOVERLAY, 0, STATIC
        ARGFRAME DOVERLAY, 0, STATIC
        FUNCALL zclSampleLight_event_loop, zclSampleLight_ReportOnOff
        LOCFRAME ISTACK, 0, STACK
        LOCFRAME PSTACK, 0, STACK
        LOCFRAME XSTACK, 12, STACK
        LOCFRAME IOVERLAY, 0, STATIC
        LOCFRAME DOVERLAY, 0, STATIC
        ARGFRAME ISTACK, 0, STACK
        ARGFRAME PSTACK, 0, STACK
        ARGFRAME XSTACK, 12, STACK
        ARGFRAME IOVERLAY, 0, STATIC
        ARGFRAME DOVERLAY, 0, STATIC
        FUNCALL zclSampleLight_event_loop, osal_msg_deallocate
        LOCFRAME ISTACK, 0, STACK
        LOCFRAME PSTACK, 0, STACK
        LOCFRAME XSTACK, 12, STACK
        LOCFRAME IOVERLAY, 0, STATIC
        LOCFRAME DOVERLAY, 0, STATIC
        ARGFRAME ISTACK, 0, STACK
        ARGFRAME PSTACK, 0, STACK
        ARGFRAME XSTACK, 12, STACK
        ARGFRAME IOVERLAY, 0, STATIC
        ARGFRAME DOVERLAY, 0, STATIC
        FUNCALL zclSampleLight_event_loop, osal_msg_receive
        LOCFRAME ISTACK, 0, STACK
        LOCFRAME PSTACK, 0, STACK
        LOCFRAME XSTACK, 12, STACK
        LOCFRAME IOVERLAY, 0, STATIC
        LOCFRAME DOVERLAY, 0, STATIC
        ARGFRAME ISTACK, 0, STACK
        ARGFRAME PSTACK, 0, STACK
        ARGFRAME XSTACK, 12, STACK
        ARGFRAME IOVERLAY, 0, STATIC
        ARGFRAME DOVERLAY, 0, STATIC
        FUNCALL zclSampleLight_event_loop, zclSampleLight_ProcessIncomingMsg
        LOCFRAME ISTACK, 0, STACK
        LOCFRAME PSTACK, 0, STACK
        LOCFRAME XSTACK, 12, STACK
        LOCFRAME IOVERLAY, 0, STATIC
        LOCFRAME DOVERLAY, 0, STATIC
        ARGFRAME ISTACK, 0, STACK
        ARGFRAME PSTACK, 0, STACK
        ARGFRAME XSTACK, 12, STACK
        ARGFRAME IOVERLAY, 0, STATIC
        ARGFRAME DOVERLAY, 0, STATIC
        FUNCALL zclSampleLight_event_loop, osal_start_timerEx
        LOCFRAME ISTACK, 0, STACK
        LOCFRAME PSTACK, 0, STACK
        LOCFRAME XSTACK, 16, STACK
        LOCFRAME IOVERLAY, 0, STATIC
        LOCFRAME DOVERLAY, 0, STATIC
        ARGFRAME ISTACK, 0, STACK
        ARGFRAME PSTACK, 0, STACK
        ARGFRAME XSTACK, 16, STACK
        ARGFRAME IOVERLAY, 0, STATIC
        ARGFRAME DOVERLAY, 0, STATIC
        FUNCALL zclSampleLight_event_loop, osal_stop_timerEx
        LOCFRAME ISTACK, 0, STACK
        LOCFRAME PSTACK, 0, STACK
        LOCFRAME XSTACK, 12, STACK
        LOCFRAME IOVERLAY, 0, STATIC
        LOCFRAME DOVERLAY, 0, STATIC
        ARGFRAME ISTACK, 0, STACK
        ARGFRAME PSTACK, 0, STACK
        ARGFRAME XSTACK, 12, STACK
        ARGFRAME IOVERLAY, 0, STATIC
        ARGFRAME DOVERLAY, 0, STATIC
        FUNCALL zclSampleLight_event_loop, HalLedSet
        LOCFRAME ISTACK, 0, STACK
        LOCFRAME PSTACK, 0, STACK
        LOCFRAME XSTACK, 12, STACK
        LOCFRAME IOVERLAY, 0, STATIC
        LOCFRAME DOVERLAY, 0, STATIC
        ARGFRAME ISTACK, 0, STACK
        ARGFRAME PSTACK, 0, STACK
        ARGFRAME XSTACK, 12, STACK
        ARGFRAME IOVERLAY, 0, STATIC
        ARGFRAME DOVERLAY, 0, STATIC
        FUNCALL zclSampleLight_event_loop, osal_start_timerEx
        LOCFRAME ISTACK, 0, STACK
        LOCFRAME PSTACK, 0, STACK
        LOCFRAME XSTACK, 16, STACK
        LOCFRAME IOVERLAY, 0, STATIC
        LOCFRAME DOVERLAY, 0, STATIC
        ARGFRAME ISTACK, 0, STACK
        ARGFRAME PSTACK, 0, STACK
        ARGFRAME XSTACK, 16, STACK
        ARGFRAME IOVERLAY, 0, STATIC
        ARGFRAME DOVERLAY, 0, STATIC
        FUNCALL zclSampleLight_event_loop, NLME_GetShortAddr
        LOCFRAME ISTACK, 0, STACK
        LOCFRAME PSTACK, 0, STACK
        LOCFRAME XSTACK, 12, STACK
        LOCFRAME IOVERLAY, 0, STATIC
        LOCFRAME DOVERLAY, 0, STATIC
        ARGFRAME ISTACK, 0, STACK
        ARGFRAME PSTACK, 0, STACK
        ARGFRAME XSTACK, 12, STACK
        ARGFRAME IOVERLAY, 0, STATIC
        ARGFRAME DOVERLAY, 0, STATIC
        FUNCALL zclSampleLight_event_loop, ZDP_EndDeviceBindReq
        LOCFRAME ISTACK, 0, STACK
        LOCFRAME PSTACK, 0, STACK
        LOCFRAME XSTACK, 21, STACK
        LOCFRAME IOVERLAY, 0, STATIC
        LOCFRAME DOVERLAY, 0, STATIC
        ARGFRAME ISTACK, 0, STACK
        ARGFRAME PSTACK, 0, STACK
        ARGFRAME XSTACK, 21, STACK
        ARGFRAME IOVERLAY, 0, STATIC
        ARGFRAME DOVERLAY, 0, STATIC
        FUNCALL zclSampleLight_event_loop, bdb_StartCommissioning
        LOCFRAME ISTACK, 0, STACK
        LOCFRAME PSTACK, 0, STACK
        LOCFRAME XSTACK, 12, STACK
        LOCFRAME IOVERLAY, 0, STATIC
        LOCFRAME DOVERLAY, 0, STATIC
        ARGFRAME ISTACK, 0, STACK
        ARGFRAME PSTACK, 0, STACK
        ARGFRAME XSTACK, 12, STACK
        ARGFRAME IOVERLAY, 0, STATIC
        ARGFRAME DOVERLAY, 0, STATIC
        REQUIRE ?V0
        REQUIRE ?V1
        REQUIRE ?V2
        REQUIRE ?V3
        MOV       A,#-0xc
        LCALL     ?BANKED_ENTER_XDATA
          CFI DPH0 load(1, XDATA, add(CFA_XSP16, literal(-1)))
          CFI DPL0 load(1, XDATA, add(CFA_XSP16, literal(-2)))
          CFI ?BRET_EXT load(1, XDATA, add(CFA_XSP16, literal(-3)))
          CFI ?RET_HIGH load(1, XDATA, add(CFA_XSP16, literal(-4)))
          CFI ?RET_LOW load(1, XDATA, add(CFA_XSP16, literal(-5)))
          CFI R7 load(1, XDATA, add(CFA_XSP16, literal(-6)))
          CFI V3 load(1, XDATA, add(CFA_XSP16, literal(-7)))
          CFI V2 load(1, XDATA, add(CFA_XSP16, literal(-8)))
          CFI V1 load(1, XDATA, add(CFA_XSP16, literal(-9)))
          CFI V0 load(1, XDATA, add(CFA_XSP16, literal(-10)))
          CFI VB load(1, XDATA, add(CFA_XSP16, literal(-11)))
          CFI R6 load(1, XDATA, add(CFA_XSP16, literal(-12)))
          CFI CFA_SP SP+0
          CFI CFA_XSP16 add(XSP16, 12)
        ; Saved register size: 12
        ; Auto size: 0
        MOV       A,R2
        MOV       R6,A
        MOV       A,R3
        MOV       R7,A
//  425   afIncomingMSGPacket_t *MSGpkt;
//  426 
//  427   (void)task_id;  // Intentionally unreferenced parameter
//  428   
//  429   
//  430   
//  431   // Report temperature
//  432   // Event SAMPLELIGHT_REPORTING_EVT
//  433   //Send toggle every 1000ms
//  434   if (events & SAMPLELIGHT_REPORTING_EVT) 
        MOV       A,R2
        ANL       A,#0x8
        JZ        ??zclSampleLight_event_loop_0
//  435   {
//  436 //	  LED(1, 5);
//  437 //	  osal_start_timerEx(zclSampleLight_TaskID, SAMPLELIGHT_REPORTING_EVT, 1000);
//  438 	  zclSampleLight_ReportTemp();
        ; Setup parameters for call to function zclSampleLight_ReportTemp
        LCALL     `??zclSampleLight_ReportTemp::?relay`; Banked call to: zclSampleLight_ReportTemp
//  439 	  // LED_01(0);
//  440 	  return (events ^ SAMPLELIGHT_REPORTING_EVT);
        MOV       A,R6
        XRL       A,#0x8
        LJMP      ??zclSampleLight_event_loop_1 & 0xFFFF
//  441   }
//  442   
//  443   
//  444   zclSampleLight_ReportTemp();
??zclSampleLight_event_loop_0:
        ; Setup parameters for call to function zclSampleLight_ReportTemp
        LCALL     `??zclSampleLight_ReportTemp::?relay`; Banked call to: zclSampleLight_ReportTemp
//  445   
//  446   
//  447   if (zclSampleLight_on == 1) {
        MOV       DPTR,#zclSampleLight_on
        MOVX      A,@DPTR
        XRL       A,#0x1
        JNZ       ??zclSampleLight_event_loop_2
//  448 	  LED(1);
        ; Setup parameters for call to function LED
        MOV       R1,#0x1
        SJMP      ??zclSampleLight_event_loop_3
//  449   } else {
//  450 	  LED(0);
??zclSampleLight_event_loop_2:
        ; Setup parameters for call to function LED
        MOV       R1,#0x0
??zclSampleLight_event_loop_3:
        LCALL     `??LED::?relay`  ; Banked call to: LED
//  451   }
//  452   
//  453   
//  454   
//  455 
//  456   if ( events & SYS_EVENT_MSG )
        MOV       A,R7
        ANL       A,#0x80
        JNZ       ??zclSampleLight_event_loop_4
//  457   {
//  458     while ( (MSGpkt = (afIncomingMSGPacket_t *)osal_msg_receive( zclSampleLight_TaskID )) )
//  459     {
//  460       switch ( MSGpkt->hdr.event )
//  461       {
//  462         case ZCL_INCOMING_MSG:
//  463           // Incoming ZCL Foundation command/response messages
//  464           zclSampleLight_ProcessIncomingMsg( (zclIncomingMsg_t *)MSGpkt );
//  465           break;
//  466 
//  467         case KEY_CHANGE:
//  468           zclSampleLight_HandleKeys( ((keyChange_t *)MSGpkt)->state, ((keyChange_t *)MSGpkt)->keys );
//  469           break;
//  470 
//  471         case ZDO_STATE_CHANGE:
//  472 //          UI_DeviceStateUpdated((devStates_t)(MSGpkt->hdr.status));
//  473 	  zclSampleLight_NwkState = (devStates_t)(MSGpkt->hdr.status);
//  474 	  // now on the network
//  475           if ( (zclSampleLight_NwkState == DEV_ZB_COORD) || (zclSampleLight_NwkState == DEV_ROUTER) || (zclSampleLight_NwkState == DEV_END_DEVICE) )
//  476           {
//  477            	// now on network		  
//  478 		  osal_stop_timerEx(zclSampleLight_TaskID, SAMPLEAPP_EVT_BLINK);
//  479 		  HalLedSet( HAL_LED_ALL, HAL_LED_MODE_ON ); 		// stop blinking
//  480 //		  HalLedSet( HAL_LED_2, HAL_LED_MODE_OFF ); 		// stop blinking
//  481 		  zclSampleLight_ReportOnOff();
//  482           } 
//  483 	  else 
//  484 	  {
//  485 		  // not no the network
//  486 	  }
//  487           break;
//  488           break;
//  489 
//  490         default:
//  491           break;
//  492       }
//  493 
//  494       // Release the memory
//  495       osal_msg_deallocate( (uint8 *)MSGpkt );
//  496     }
//  497 
//  498     // return unprocessed events
//  499     return (events ^ SYS_EVENT_MSG);
//  500   }
//  501   
//  502   
//  503   
//  504   
//  505   if ( events & SAMPLEAPP_EVT_BLINK )
        MOV       A,R6
        MOV       C,0xE0 /* A   */.0
        JNC       ??zclSampleLight_event_loop_5
//  506   {
//  507 	  return ( events ^ SAMPLEAPP_EVT_BLINK );
        XRL       A,#0x1
        LJMP      ??zclSampleLight_event_loop_1 & 0xFFFF
//  508   }
??zclSampleLight_event_loop_6:
        INC       DPTR
        MOVX      A,@DPTR
        MOV       DPTR,#zclSampleLight_NwkState
        MOVX      @DPTR,A
        XRL       A,#0x9
        JZ        ??zclSampleLight_event_loop_7
        MOVX      A,@DPTR
        XRL       A,#0x7
        JZ        ??zclSampleLight_event_loop_7
        MOVX      A,@DPTR
        XRL       A,#0x6
        JNZ       ??zclSampleLight_event_loop_8
??zclSampleLight_event_loop_7:
        ; Setup parameters for call to function osal_stop_timerEx
        LCALL     ?Subroutine7 & 0xFFFF
??CrossCallReturnLabel_4:
        ; Setup parameters for call to function HalLedSet
        MOV       R2,#0x1
        MOV       R1,#0xf
        LCALL     `??HalLedSet::?relay`; Banked call to: HalLedSet
        ; Setup parameters for call to function zclSampleLight_ReportOnOff
        LCALL     `??zclSampleLight_ReportOnOff::?relay`; Banked call to: zclSampleLight_ReportOnOff
??zclSampleLight_event_loop_8:
        ; Setup parameters for call to function osal_msg_deallocate
        MOV       R2,?V0
        MOV       R3,?V1
        LCALL     `??osal_msg_deallocate::?relay`; Banked call to: osal_msg_deallocate
??zclSampleLight_event_loop_4:
        ; Setup parameters for call to function osal_msg_receive
        MOV       DPTR,#zclSampleLight_TaskID
        MOVX      A,@DPTR
        MOV       R1,A
        LCALL     `??osal_msg_receive::?relay`; Banked call to: osal_msg_receive
        MOV       ?V0,R2
        MOV       ?V1,R3
        MOV       A,R2
        ORL       A,R3
        JZ        ??zclSampleLight_event_loop_9
        MOV       DPL,R2
        MOV       DPH,R3
        MOVX      A,@DPTR
        ADD       A,#-0x34
        JZ        ??zclSampleLight_event_loop_10
        ADD       A,#0x74
        JZ        ??zclSampleLight_event_loop_11
        ADD       A,#-0x11
        JZ        ??zclSampleLight_event_loop_6
        SJMP      ??zclSampleLight_event_loop_8
??zclSampleLight_event_loop_10:
        ; Setup parameters for call to function zclSampleLight_ProcessIncomingMsg
        LCALL     `??zclSampleLight_ProcessIncomingMsg::?relay`; Banked call to: zclSampleLight_ProcessIncomingMsg
        SJMP      ??zclSampleLight_event_loop_8
??zclSampleLight_event_loop_11:
        INC       DPTR
        INC       DPTR
        INC       DPTR
        MOVX      A,@DPTR
        MOV       C,0xE0 /* A   */.5
        JNC       ??zclSampleLight_event_loop_12
        ; Setup parameters for call to function osal_start_timerEx
        MOV       DPTR,#__Constant_7d0
        LCALL     ?PUSH_XSTACK8_X_FOUR
          CFI CFA_XSP16 add(XSP16, 16)
        MOV       R2,#0x2
        LCALL     ??Subroutine9_0 & 0xFFFF
??CrossCallReturnLabel_9:
        LCALL     ?DEALLOC_XSTACK8
          CFI CFA_XSP16 add(XSP16, 12)
        SJMP      ??zclSampleLight_event_loop_8
??zclSampleLight_event_loop_12:
        ; Setup parameters for call to function osal_stop_timerEx
        MOV       R2,#0x2
        LCALL     ??Subroutine8_0 & 0xFFFF
??CrossCallReturnLabel_6:
        SJMP      ??zclSampleLight_event_loop_8
??zclSampleLight_event_loop_9:
        MOV       A,R6
        MOV       R2,A
        MOV       A,R7
        XRL       A,#0x80
        SJMP      ??zclSampleLight_event_loop_13
//  509   
//  510   if ( events & SAMPLEAPP_EVT_LONG )
??zclSampleLight_event_loop_5:
        ANL       A,#0x2
        JZ        ??zclSampleLight_event_loop_14
//  511   {
//  512 	  HalLedSet( HAL_LED_ALL, HAL_LED_MODE_TOGGLE );
        ; Setup parameters for call to function HalLedSet
        MOV       R2,#0x8
        MOV       R1,#0xf
        LCALL     `??HalLedSet::?relay`; Banked call to: HalLedSet
//  513 	  osal_start_timerEx(zclSampleLight_TaskID, SAMPLEAPP_EVT_BLINK , 100);
        ; Setup parameters for call to function osal_start_timerEx
        MOV       DPTR,#__Constant_64
        LCALL     ?PUSH_XSTACK8_X_FOUR
          CFI CFA_XSP16 add(XSP16, 16)
        LCALL     ?Subroutine3 & 0xFFFF
??CrossCallReturnLabel_7:
        LCALL     ?DEALLOC_XSTACK8
          CFI CFA_XSP16 add(XSP16, 12)
//  514 	  
//  515 	  
//  516 	   
//  517 	  // Initiate an End Device Bind Request, this bind request will
//  518 	  // only use a cluster list that is important to binding.
//  519 	  zcl_dstAddr.addrMode = afAddr16Bit;
        MOV       DPTR,#zcl_dstAddr + 8
        MOV       A,#0x2
        MOVX      @DPTR,A
//  520 	  zcl_dstAddr.addr.shortAddr = 0;   // Coordinator makes the match
        MOV       DPTR,#zcl_dstAddr
        CLR       A
        MOVX      @DPTR,A
        INC       DPTR
        MOVX      @DPTR,A
//  521 	  ZDP_EndDeviceBindReq( &zcl_dstAddr, NLME_GetShortAddr(),
//  522 			       SAMPLELIGHT_ENDPOINT,
//  523 				ZCL_HA_PROFILE_ID,
//  524 				ZCLSAMPLELIGHT_BINDINGLIST, bindingInClusters,
//  525 				0, NULL,   // No Outgoing clusters to bind
//  526 				TRUE );
        ; Setup parameters for call to function NLME_GetShortAddr
        LCALL     `??NLME_GetShortAddr::?relay`; Banked call to: NLME_GetShortAddr
        MOV       ?V0,R2
        MOV       ?V1,R3
        MOV       R4,?V0
        MOV       R5,?V1
        ; Setup parameters for call to function ZDP_EndDeviceBindReq
        MOV       ?V0,#0x1
        MOV       R0,#?V0
        LCALL     ?PUSH_XSTACK_I_ONE
          CFI CFA_XSP16 add(XSP16, 13)
        CLR       A
        MOV       ?V0,A
        MOV       ?V1,A
        MOV       R0,#?V0
        LCALL     ?PUSH_XSTACK_I_TWO
          CFI CFA_XSP16 add(XSP16, 15)
        MOV       R0,#?V0
        LCALL     ?PUSH_XSTACK_I_ONE
          CFI CFA_XSP16 add(XSP16, 16)
        MOV       ?V0,#bindingInClusters & 0xff
        MOV       ?V1,#(bindingInClusters >> 8) & 0xff
        MOV       R0,#?V0
        LCALL     ?PUSH_XSTACK_I_TWO
          CFI CFA_XSP16 add(XSP16, 18)
        MOV       ?V0,#0x2
        MOV       R0,#?V0
        LCALL     ?PUSH_XSTACK_I_ONE
          CFI CFA_XSP16 add(XSP16, 19)
        MOV       ?V0,#0x4
        MOV       ?V1,#0x1
        MOV       R0,#?V0
        LCALL     ?PUSH_XSTACK_I_TWO
          CFI CFA_XSP16 add(XSP16, 21)
        MOV       R1,#0x8
        MOV       R2,#zcl_dstAddr & 0xff
        MOV       R3,#(zcl_dstAddr >> 8) & 0xff
        LCALL     `??ZDP_EndDeviceBindReq::?relay`; Banked call to: ZDP_EndDeviceBindReq
        MOV       A,#0x9
        LCALL     ?DEALLOC_XSTACK8
          CFI CFA_XSP16 add(XSP16, 12)
//  527 	  
//  528 //	  HalLedSet( HAL_LED_ALL, HAL_LED_MODE_TOGGLE);
//  529 //	  osal_start_timerEx( zclSampleLight_TaskID, DIYRuZRT_EVT_1, 500 );
//  530 		    
//  531 		    
//  532 		  
//  533 	  bdb_StartCommissioning(
//  534 				 BDB_COMMISSIONING_MODE_NWK_FORMATION | 
//  535 					 BDB_COMMISSIONING_MODE_NWK_STEERING | 
//  536 						 BDB_COMMISSIONING_MODE_FINDING_BINDING | 
//  537 							 BDB_COMMISSIONING_MODE_INITIATOR_TL
//  538 								 );
        ; Setup parameters for call to function bdb_StartCommissioning
        MOV       R1,#0xf
        LCALL     `??bdb_StartCommissioning::?relay`; Banked call to: bdb_StartCommissioning
//  539 	  
//  540     
//  541     return ( events ^ SAMPLEAPP_EVT_LONG );
        MOV       A,R6
        XRL       A,#0x2
??zclSampleLight_event_loop_1:
        MOV       R2,A
        MOV       A,R7
??zclSampleLight_event_loop_13:
        MOV       R3,A
        SJMP      ??zclSampleLight_event_loop_15
//  542   }
//  543   
//  544 
//  545   
//  546   
//  547     
//  548   if ( events & SAMPLELIGHT_IDENTIFY_TIMEOUT_EVT )
//  549   {
//  550 	  if ( zclSampleLight_IdentifyTime > 0 ) 
//  551 	  {
//  552 		  zclSampleLight_IdentifyTime--;
//  553 	  }
//  554 	  zclSampleLight_ProcessIdentifyTimeChange();
//  555 	  return ( events ^ SAMPLELIGHT_IDENTIFY_TIMEOUT_EVT );
//  556   }
//  557   
//  558 
//  559 //#ifdef ZCL_LEVEL_CTRL
//  560 //  if ( events & SAMPLELIGHT_LEVEL_CTRL_EVT )
//  561 //  {
//  562 //    zclSampleLight_AdjustLightLevel();
//  563 //    return ( events ^ SAMPLELIGHT_LEVEL_CTRL_EVT );
//  564 //  }
//  565 //#endif
//  566 //
//  567 #if ZG_BUILD_ENDDEVICE_TYPE    
//  568   if ( events & SAMPLEAPP_END_DEVICE_REJOIN_EVT )
//  569   {
//  570     bdb_ZedAttemptRecoverNwk();
//  571     return ( events ^ SAMPLEAPP_END_DEVICE_REJOIN_EVT );
//  572   }
//  573 #endif
//  574 //
//  575 //  if ( events & SAMPLEAPP_LCD_AUTO_UPDATE_EVT )
//  576 //  {
//  577 //    UI_UpdateLcd();
//  578 //    return ( events ^ SAMPLEAPP_LCD_AUTO_UPDATE_EVT );
//  579 //  }
//  580 //
//  581 //  if ( events & SAMPLEAPP_KEY_AUTO_REPEAT_EVT )
//  582 //  {
//  583 //    UI_MainStateMachine(UI_KEY_AUTO_PRESSED);
//  584 //    return ( events ^ SAMPLEAPP_KEY_AUTO_REPEAT_EVT );
//  585 //  }
//  586 
//  587   // Discard unknown events
//  588   return 0;
??zclSampleLight_event_loop_14:
        MOV       R2,#0x0
        MOV       R3,#0x0
??zclSampleLight_event_loop_15:
          CFI EndBlock cfiBlock2
        REQUIRE ?Subroutine1
        ; // Fall through to label ?Subroutine1
//  589 }

        RSEG BANKED_CODE:HUGECODE:NOROOT(0)
?Subroutine1:
          CFI Block cfiBlock3 Using cfiCommon0
          CFI NoFunction
          CFI CFA_SP SP+0
          CFI CFA_XSP16 add(XSP16, 12)
          CFI VB load(1, XDATA, add(CFA_XSP16, literal(-11)))
          CFI DPL0 load(1, XDATA, add(CFA_XSP16, literal(-2)))
          CFI DPH0 load(1, XDATA, add(CFA_XSP16, literal(-1)))
          CFI R6 load(1, XDATA, add(CFA_XSP16, literal(-12)))
          CFI R7 load(1, XDATA, add(CFA_XSP16, literal(-6)))
          CFI V0 load(1, XDATA, add(CFA_XSP16, literal(-10)))
          CFI V1 load(1, XDATA, add(CFA_XSP16, literal(-9)))
          CFI V2 load(1, XDATA, add(CFA_XSP16, literal(-8)))
          CFI V3 load(1, XDATA, add(CFA_XSP16, literal(-7)))
          CFI ?BRET_EXT load(1, XDATA, add(CFA_XSP16, literal(-3)))
          CFI ?RET_HIGH load(1, XDATA, add(CFA_XSP16, literal(-4)))
          CFI ?RET_LOW load(1, XDATA, add(CFA_XSP16, literal(-5)))
        MOV       R7,#0x4
        LJMP      ?BANKED_LEAVE_XDATA
          CFI EndBlock cfiBlock3
//  590 
//  591 
//  592 /*********************************************************************
//  593  * @fn      zclSampleLight_HandleKeys
//  594  *
//  595  * @brief   Handles all key events for this device.
//  596  *
//  597  * @param   shift - true if in shift/alt.
//  598  * @param   keys - bit field for key events. Valid entries:
//  599  *                 HAL_KEY_SW_5
//  600  *                 HAL_KEY_SW_4
//  601  *                 HAL_KEY_SW_2
//  602  *                 HAL_KEY_SW_1
//  603  *		   HAL_KEY_SW_6 -- Button S1 if available
//  604 *		   HAL_KEY_SW_7 -- Button S2 if available
//  605  *
//  606  * @return  none
//  607  */
//  608 static void zclSampleLight_HandleKeys( byte shift, byte keys )
//  609 {
//  610 //  UI_MainStateMachine(keys);
//  611 	
//  612 //  HalLedSet( HAL_LED_ALL, HAL_LED_MODE_BLINK);
//  613   
//  614   (void)shift;  // Intentionally unreferenced parameter
//  615 
//  616   if ( keys & HAL_KEY_SW_6 )
//  617   {
//  618 //	  LED(1, 7);
//  619 	  osal_start_timerEx(zclSampleLight_TaskID, SAMPLEAPP_EVT_LONG, 2000);
//  620   }
//  621   else 
//  622   {
//  623 //	  LED(0, 7);
//  624 	  osal_stop_timerEx(zclSampleLight_TaskID, SAMPLEAPP_EVT_LONG);
//  625   }
//  626 
//  627 //  if ( keys & HAL_KEY_SW_6 )
//  628 //  {
//  629 //	  HalLedSet ( HAL_LED_2, HAL_LED_MODE_OFF );
//  630 //	  LED(1);
//  631 //  }
//  632 
//  633 //  if ( keys & !HAL_KEY_SW_7 )
//  634 //  {
//  635 //	  HalLedSet ( HAL_LED_2, HAL_LED_MODE_OFF );
//  636 ////	  LED(1);
//  637 //  }
//  638 }
//  639 
//  640 
//  641 
//  642 

        RSEG BANKED_CODE:HUGECODE:NOROOT(0)
//  643 void zclSampleLight_ReportOnOff(void) {
zclSampleLight_ReportOnOff:
          CFI Block cfiBlock4 Using cfiCommon0
          CFI Function zclSampleLight_ReportOnOff
        CODE
        FUNCALL zclSampleLight_ReportOnOff, osal_mem_alloc
        LOCFRAME ISTACK, 0, STACK
        LOCFRAME PSTACK, 0, STACK
        LOCFRAME XSTACK, 12, STACK
        LOCFRAME IOVERLAY, 0, STATIC
        LOCFRAME DOVERLAY, 0, STATIC
        ARGFRAME ISTACK, 0, STACK
        ARGFRAME PSTACK, 0, STACK
        ARGFRAME XSTACK, 12, STACK
        ARGFRAME IOVERLAY, 0, STATIC
        ARGFRAME DOVERLAY, 0, STATIC
        FUNCALL zclSampleLight_ReportOnOff, zcl_SendReportCmd
        LOCFRAME ISTACK, 0, STACK
        LOCFRAME PSTACK, 0, STACK
        LOCFRAME XSTACK, 17, STACK
        LOCFRAME IOVERLAY, 0, STATIC
        LOCFRAME DOVERLAY, 0, STATIC
        ARGFRAME ISTACK, 0, STACK
        ARGFRAME PSTACK, 0, STACK
        ARGFRAME XSTACK, 17, STACK
        ARGFRAME IOVERLAY, 0, STATIC
        ARGFRAME DOVERLAY, 0, STATIC
        FUNCALL zclSampleLight_ReportOnOff, osal_mem_free
        LOCFRAME ISTACK, 0, STACK
        LOCFRAME PSTACK, 0, STACK
        LOCFRAME XSTACK, 12, STACK
        LOCFRAME IOVERLAY, 0, STATIC
        LOCFRAME DOVERLAY, 0, STATIC
        ARGFRAME ISTACK, 0, STACK
        ARGFRAME PSTACK, 0, STACK
        ARGFRAME XSTACK, 12, STACK
        ARGFRAME IOVERLAY, 0, STATIC
        ARGFRAME DOVERLAY, 0, STATIC
        REQUIRE ?V0
        REQUIRE ?V1
        REQUIRE ?V2
        REQUIRE ?V3
        MOV       A,#-0xc
        LCALL     ?BANKED_ENTER_XDATA
          CFI DPH0 load(1, XDATA, add(CFA_XSP16, literal(-1)))
          CFI DPL0 load(1, XDATA, add(CFA_XSP16, literal(-2)))
          CFI ?BRET_EXT load(1, XDATA, add(CFA_XSP16, literal(-3)))
          CFI ?RET_HIGH load(1, XDATA, add(CFA_XSP16, literal(-4)))
          CFI ?RET_LOW load(1, XDATA, add(CFA_XSP16, literal(-5)))
          CFI R7 load(1, XDATA, add(CFA_XSP16, literal(-6)))
          CFI V3 load(1, XDATA, add(CFA_XSP16, literal(-7)))
          CFI V2 load(1, XDATA, add(CFA_XSP16, literal(-8)))
          CFI V1 load(1, XDATA, add(CFA_XSP16, literal(-9)))
          CFI V0 load(1, XDATA, add(CFA_XSP16, literal(-10)))
          CFI VB load(1, XDATA, add(CFA_XSP16, literal(-11)))
          CFI R6 load(1, XDATA, add(CFA_XSP16, literal(-12)))
          CFI CFA_SP SP+0
          CFI CFA_XSP16 add(XSP16, 12)
        ; Saved register size: 12
        ; Auto size: 0
//  644   const uint8 NUM_ATTRIBUTES = 1;
//  645 
//  646   zclReportCmd_t *pReportCmd;
//  647 
//  648   pReportCmd = osal_mem_alloc(sizeof(zclReportCmd_t) +
//  649                               (NUM_ATTRIBUTES * sizeof(zclReport_t)));
        ; Setup parameters for call to function osal_mem_alloc
        MOV       R2,#0x6
        MOV       R3,#0x0
        LCALL     `??osal_mem_alloc::?relay`; Banked call to: osal_mem_alloc
        MOV       ?V0,R2
        MOV       ?V1,R3
//  650   if (pReportCmd != NULL) {
        MOV       A,R2
        ORL       A,R3
        JZ        ??zclSampleLight_ReportOnOff_0
//  651     pReportCmd->numAttr = NUM_ATTRIBUTES;
        MOV       DPL,R2
        MOV       DPH,R3
        MOV       A,#0x1
        MOVX      @DPTR,A
//  652 
//  653     pReportCmd->attrList[0].attrID = ATTRID_ON_OFF;
        INC       DPTR
        CLR       A
        MOVX      @DPTR,A
        INC       DPTR
        LCALL     ?Subroutine6 & 0xFFFF
//  654     pReportCmd->attrList[0].dataType = ZCL_DATATYPE_BOOLEAN;
??CrossCallReturnLabel_2:
        MOV       A,#0x10
        LCALL     ?Subroutine6 & 0xFFFF
//  655     pReportCmd->attrList[0].attrData = (void *)(&RELAY_STATE);
??CrossCallReturnLabel_3:
        INC       DPTR
        MOV       A,#RELAY_STATE & 0xff
        MOVX      @DPTR,A
        INC       DPTR
        MOV       A,#(RELAY_STATE >> 8) & 0xff
        MOVX      @DPTR,A
//  656 
//  657     zclSampleLight_DstAddr.addrMode = (afAddrMode_t)Addr16Bit;
        MOV       DPTR,#zclSampleLight_DstAddr + 8
        MOV       A,#0x2
        MOVX      @DPTR,A
//  658     zclSampleLight_DstAddr.addr.shortAddr = 0;
        MOV       DPTR,#zclSampleLight_DstAddr
        CLR       A
        MOVX      @DPTR,A
        INC       DPTR
        MOVX      @DPTR,A
//  659     zclSampleLight_DstAddr.endPoint = 1;
        MOV       DPTR,#zclSampleLight_DstAddr + 9
        INC       A
        MOVX      @DPTR,A
//  660 
//  661     zcl_SendReportCmd(SAMPLELIGHT_ENDPOINT, &zclSampleLight_DstAddr,
//  662                       ZCL_CLUSTER_ID_GEN_ON_OFF, pReportCmd,
//  663                       ZCL_FRAME_CLIENT_SERVER_DIR, false, SeqNum++);
        MOV       DPTR,#SeqNum
        MOVX      A,@DPTR
        MOV       R0,A
        MOV       A,#0x1
        ADD       A,R0
        MOVX      @DPTR,A
        ; Setup parameters for call to function zcl_SendReportCmd
        MOV       A,R0
        MOV       ?V2,A
        MOV       R0,#?V2
        LCALL     ?PUSH_XSTACK_I_ONE
          CFI CFA_XSP16 add(XSP16, 13)
        MOV       ?V2,#0x0
        MOV       R0,#?V2
        LCALL     ?PUSH_XSTACK_I_ONE
          CFI CFA_XSP16 add(XSP16, 14)
        MOV       R0,#?V2
        LCALL     ?PUSH_XSTACK_I_ONE
          CFI CFA_XSP16 add(XSP16, 15)
        MOV       R0,#?V0
        LCALL     ?PUSH_XSTACK_I_TWO
          CFI CFA_XSP16 add(XSP16, 17)
        MOV       R4,#0x6
        MOV       R5,#0x0
        MOV       R2,#zclSampleLight_DstAddr & 0xff
        MOV       R3,#(zclSampleLight_DstAddr >> 8) & 0xff
        MOV       R1,#0x8
        LCALL     `??zcl_SendReportCmd::?relay`; Banked call to: zcl_SendReportCmd
        MOV       A,#0x5
        LCALL     ?DEALLOC_XSTACK8
          CFI CFA_XSP16 add(XSP16, 12)
//  664   }
//  665 
//  666   osal_mem_free(pReportCmd);
??zclSampleLight_ReportOnOff_0:
        ; Setup parameters for call to function osal_mem_free
        MOV       R2,?V0
        MOV       R3,?V1
        LCALL     `??osal_mem_free::?relay`; Banked call to: osal_mem_free
//  667 }
        LJMP      ?Subroutine1 & 0xFFFF
          CFI EndBlock cfiBlock4

        RSEG BANKED_CODE:HUGECODE:NOROOT(0)
?Subroutine6:
          CFI Block cfiCond5 Using cfiCommon0
          CFI Function zclSampleLight_ReportOnOff
          CFI Conditional ??CrossCallReturnLabel_2
          CFI R6 load(1, XDATA, add(CFA_XSP16, literal(-12)))
          CFI VB load(1, XDATA, add(CFA_XSP16, literal(-11)))
          CFI V0 load(1, XDATA, add(CFA_XSP16, literal(-10)))
          CFI V1 load(1, XDATA, add(CFA_XSP16, literal(-9)))
          CFI V2 load(1, XDATA, add(CFA_XSP16, literal(-8)))
          CFI V3 load(1, XDATA, add(CFA_XSP16, literal(-7)))
          CFI R7 load(1, XDATA, add(CFA_XSP16, literal(-6)))
          CFI ?RET_LOW load(1, XDATA, add(CFA_XSP16, literal(-5)))
          CFI ?RET_HIGH load(1, XDATA, add(CFA_XSP16, literal(-4)))
          CFI ?BRET_EXT load(1, XDATA, add(CFA_XSP16, literal(-3)))
          CFI DPL0 load(1, XDATA, add(CFA_XSP16, literal(-2)))
          CFI DPH0 load(1, XDATA, add(CFA_XSP16, literal(-1)))
          CFI CFA_SP SP+-2
          CFI CFA_XSP16 add(XSP16, 12)
          CFI Block cfiCond6 Using cfiCommon0
          CFI (cfiCond6) Function zclSampleLight_ReportOnOff
          CFI (cfiCond6) Conditional ??CrossCallReturnLabel_3
          CFI (cfiCond6) R6 load(1, XDATA, add(CFA_XSP16, literal(-12)))
          CFI (cfiCond6) VB load(1, XDATA, add(CFA_XSP16, literal(-11)))
          CFI (cfiCond6) V0 load(1, XDATA, add(CFA_XSP16, literal(-10)))
          CFI (cfiCond6) V1 load(1, XDATA, add(CFA_XSP16, literal(-9)))
          CFI (cfiCond6) V2 load(1, XDATA, add(CFA_XSP16, literal(-8)))
          CFI (cfiCond6) V3 load(1, XDATA, add(CFA_XSP16, literal(-7)))
          CFI (cfiCond6) R7 load(1, XDATA, add(CFA_XSP16, literal(-6)))
          CFI (cfiCond6) ?RET_LOW load(1, XDATA, add(CFA_XSP16, literal(-5)))
          CFI (cfiCond6) ?RET_HIGH load(1, XDATA, add(CFA_XSP16, literal(-4)))
          CFI (cfiCond6) ?BRET_EXT load(1, XDATA, add(CFA_XSP16, literal(-3)))
          CFI (cfiCond6) DPL0 load(1, XDATA, add(CFA_XSP16, literal(-2)))
          CFI (cfiCond6) DPH0 load(1, XDATA, add(CFA_XSP16, literal(-1)))
          CFI (cfiCond6) CFA_SP SP+-2
          CFI (cfiCond6) CFA_XSP16 add(XSP16, 12)
          CFI Block cfiPicker7 Using cfiCommon1
          CFI (cfiPicker7) NoFunction
          CFI (cfiPicker7) Picker
        MOVX      @DPTR,A
        MOV       DPL,R2
        MOV       DPH,R3
        INC       DPTR
        INC       DPTR
        INC       DPTR
        RET
          CFI EndBlock cfiCond5
          CFI EndBlock cfiCond6
          CFI EndBlock cfiPicker7
//  668 
//  669 
//  670 

        RSEG BANKED_CODE:HUGECODE:NOROOT(0)
//  671 void zclSampleLight_ReportTemp( void )
zclSampleLight_ReportTemp:
          CFI Block cfiBlock8 Using cfiCommon0
          CFI Function zclSampleLight_ReportTemp
        CODE
//  672 {
        FUNCALL zclSampleLight_ReportTemp, readTemperature
        LOCFRAME ISTACK, 2, STACK
        LOCFRAME PSTACK, 0, STACK
        LOCFRAME XSTACK, 0, STACK
        LOCFRAME IOVERLAY, 0, STATIC
        LOCFRAME DOVERLAY, 0, STATIC
        ARGFRAME ISTACK, 2, STACK
        ARGFRAME PSTACK, 0, STACK
        ARGFRAME XSTACK, 0, STACK
        ARGFRAME IOVERLAY, 0, STATIC
        ARGFRAME DOVERLAY, 0, STATIC
        PUSH      DPL
          CFI DPL0 Frame(CFA_SP, 4)
          CFI CFA_SP SP+-4
        PUSH      DPH
          CFI DPH0 Frame(CFA_SP, 5)
          CFI CFA_SP SP+-5
        ; Saved register size: 2
        ; Auto size: 0
//  673 	
//  674 //	LED(1, 5);
//  675 //	HalLedSet( HAL_LED_2, HAL_LED_MODE_OFF );
//  676 	
//  677 	zclSampleLight_MeasuredValue = 16;
        MOV       DPTR,#zclSampleLight_MeasuredValue
        MOV       A,#0x10
        MOVX      @DPTR,A
        INC       DPTR
        CLR       A
        MOVX      @DPTR,A
//  678 	zclSampleLight_MeasuredValue = (uint16)readTemperature();
        ; Setup parameters for call to function readTemperature
        LCALL     `??readTemperature::?relay`; Banked call to: readTemperature
        MOV       DPTR,#zclSampleLight_MeasuredValue
        MOV       A,R2
        MOVX      @DPTR,A
        INC       DPTR
        MOV       A,R3
        SJMP      ?Subroutine2
//  679   
//  680 //  const uint8 NUM_ATTRIBUTES = 1;
//  681 //
//  682 //  zclReportCmd_t *pReportCmd;
//  683 //
//  684 //  pReportCmd = osal_mem_alloc(sizeof(zclReportCmd_t) +
//  685 //                              (NUM_ATTRIBUTES * sizeof(zclReport_t)));
//  686 //  
//  687 //  if (pReportCmd != NULL) {
//  688 ////	LED(0, 5);
//  689 //	pReportCmd->numAttr = NUM_ATTRIBUTES;
//  690 //
//  691 //	pReportCmd->attrList[0].attrID = ATTRID_BASIC_ZCL_VERSION;
//  692 //	pReportCmd->attrList[0].dataType = ZCL_DATATYPE_UINT16;
//  693 //	pReportCmd->attrList[0].attrData = (void *)(&zclSampleLight_MeasuredValue);
//  694 //
//  695 //	zclSampleLight_DstAddr.addrMode = (afAddrMode_t)Addr16Bit;
//  696 //	zclSampleLight_DstAddr.addr.shortAddr = 0;
//  697 //	zclSampleLight_DstAddr.endPoint = 1;
//  698 //
//  699 //	zcl_SendReportCmd(SAMPLELIGHT_ENDPOINT, &zclSampleLight_DstAddr,
//  700 //				      ZCL_CLUSTER_ID_GEN_BASIC, pReportCmd,
//  701 //				      ZCL_FRAME_CLIENT_SERVER_DIR, true, SeqNum++);
//  702 //	   
//  703 //	    
//  704 //	    
//  705 //  }
//  706 //
//  707 //  osal_mem_free(pReportCmd);
//  708 }
          CFI EndBlock cfiBlock8
//  709 
//  710 
//  711 
//  712 /*********************************************************************
//  713  * @fn      zclSampleLight_ProcessIdentifyTimeChange
//  714  *
//  715  * @brief   Called to process any change to the IdentifyTime attribute.
//  716  *
//  717  * @param   none
//  718  *
//  719  * @return  none
//  720  */

        RSEG BANKED_CODE:HUGECODE:NOROOT(0)
//  721 static void zclSampleLight_ProcessIdentifyTimeChange( void )
zclSampleLight_ProcessIdentifyTimeChange:
          CFI Block cfiBlock9 Using cfiCommon0
          CFI Function zclSampleLight_ProcessIdentifyTimeChange
        CODE
//  722 {
        FUNCALL zclSampleLight_ProcessIdentifyTimeChange, osal_start_timerEx
        LOCFRAME ISTACK, 2, STACK
        LOCFRAME PSTACK, 0, STACK
        LOCFRAME XSTACK, 4, STACK
        LOCFRAME IOVERLAY, 0, STATIC
        LOCFRAME DOVERLAY, 0, STATIC
        ARGFRAME ISTACK, 2, STACK
        ARGFRAME PSTACK, 0, STACK
        ARGFRAME XSTACK, 4, STACK
        ARGFRAME IOVERLAY, 0, STATIC
        ARGFRAME DOVERLAY, 0, STATIC
        FUNCALL zclSampleLight_ProcessIdentifyTimeChange, HalLedSet
        LOCFRAME ISTACK, 2, STACK
        LOCFRAME PSTACK, 0, STACK
        LOCFRAME XSTACK, 0, STACK
        LOCFRAME IOVERLAY, 0, STATIC
        LOCFRAME DOVERLAY, 0, STATIC
        ARGFRAME ISTACK, 2, STACK
        ARGFRAME PSTACK, 0, STACK
        ARGFRAME XSTACK, 0, STACK
        ARGFRAME IOVERLAY, 0, STATIC
        ARGFRAME DOVERLAY, 0, STATIC
        FUNCALL zclSampleLight_ProcessIdentifyTimeChange, osal_stop_timerEx
        LOCFRAME ISTACK, 2, STACK
        LOCFRAME PSTACK, 0, STACK
        LOCFRAME XSTACK, 0, STACK
        LOCFRAME IOVERLAY, 0, STATIC
        LOCFRAME DOVERLAY, 0, STATIC
        ARGFRAME ISTACK, 2, STACK
        ARGFRAME PSTACK, 0, STACK
        ARGFRAME XSTACK, 0, STACK
        ARGFRAME IOVERLAY, 0, STATIC
        ARGFRAME DOVERLAY, 0, STATIC
        PUSH      DPL
          CFI DPL0 Frame(CFA_SP, 4)
          CFI CFA_SP SP+-4
        PUSH      DPH
          CFI DPH0 Frame(CFA_SP, 5)
          CFI CFA_SP SP+-5
        ; Saved register size: 2
        ; Auto size: 0
//  723   if ( zclSampleLight_IdentifyTime > 0 )
        MOV       DPTR,#zclSampleLight_IdentifyTime
        MOVX      A,@DPTR
        MOV       R0,A
        INC       DPTR
        MOVX      A,@DPTR
        MOV       R1,A
        MOV       A,R0
        ORL       A,R1
        JZ        ??zclSampleLight_ProcessIdentifyTimeChange_0
//  724   {
//  725     osal_start_timerEx( zclSampleLight_TaskID, SAMPLELIGHT_IDENTIFY_TIMEOUT_EVT, 1000 );
        ; Setup parameters for call to function osal_start_timerEx
        MOV       DPTR,#__Constant_3e8
        LCALL     ?PUSH_XSTACK8_X_FOUR
          CFI CFA_XSP16 add(XSP16, 4)
        LCALL     ?Subroutine3 & 0xFFFF
??CrossCallReturnLabel_8:
        LCALL     ?DEALLOC_XSTACK8
          CFI CFA_XSP16 XSP16+0
//  726     HalLedSet(HAL_LED_ALL, HAL_LED_MODE_BLINK);
        ; Setup parameters for call to function HalLedSet
        MOV       R2,#0x2
        MOV       R1,#0xf
        LCALL     `??HalLedSet::?relay`; Banked call to: HalLedSet
        SJMP      ??CrossCallReturnLabel_5
//  727 //    HalLedBlink ( HAL_LED_2, 0xFF, HAL_LED_DEFAULT_DUTY_CYCLE, HAL_LED_DEFAULT_FLASH_TIME );
//  728   }
//  729   else
//  730   {
//  731     if ( zclSampleLight_OnOff ) {
//  732 //	    HalLedSet ( HAL_LED_3, HAL_LED_MODE_ON );
//  733 //	    LED(1);
//  734     }
//  735     else {
//  736 //	    HalLedSet ( HAL_LED_3, HAL_LED_MODE_OFF );
//  737 //	    LED(0);
//  738     }
//  739     osal_stop_timerEx( zclSampleLight_TaskID, SAMPLELIGHT_IDENTIFY_TIMEOUT_EVT );
??zclSampleLight_ProcessIdentifyTimeChange_0:
        ; Setup parameters for call to function osal_stop_timerEx
        LCALL     ?Subroutine7 & 0xFFFF
//  740   }
//  741 }
??CrossCallReturnLabel_5:
        SJMP      ??Subroutine10_0
          CFI EndBlock cfiBlock9

        RSEG BANKED_CODE:HUGECODE:NOROOT(0)
?Subroutine7:
          CFI Block cfiCond10 Using cfiCommon0
          CFI Function zclSampleLight_event_loop
          CFI Conditional ??CrossCallReturnLabel_4
          CFI R6 load(1, XDATA, add(CFA_XSP16, literal(-12)))
          CFI VB load(1, XDATA, add(CFA_XSP16, literal(-11)))
          CFI V0 load(1, XDATA, add(CFA_XSP16, literal(-10)))
          CFI V1 load(1, XDATA, add(CFA_XSP16, literal(-9)))
          CFI V2 load(1, XDATA, add(CFA_XSP16, literal(-8)))
          CFI V3 load(1, XDATA, add(CFA_XSP16, literal(-7)))
          CFI R7 load(1, XDATA, add(CFA_XSP16, literal(-6)))
          CFI ?RET_LOW load(1, XDATA, add(CFA_XSP16, literal(-5)))
          CFI ?RET_HIGH load(1, XDATA, add(CFA_XSP16, literal(-4)))
          CFI ?BRET_EXT load(1, XDATA, add(CFA_XSP16, literal(-3)))
          CFI DPL0 load(1, XDATA, add(CFA_XSP16, literal(-2)))
          CFI DPH0 load(1, XDATA, add(CFA_XSP16, literal(-1)))
          CFI CFA_SP SP+-2
          CFI CFA_XSP16 add(XSP16, 12)
          CFI Block cfiCond11 Using cfiCommon0
          CFI (cfiCond11) Function zclSampleLight_ProcessIdentifyTimeChange
          CFI (cfiCond11) Conditional ??CrossCallReturnLabel_5
          CFI (cfiCond11) DPL0 Frame(CFA_SP, 4)
          CFI (cfiCond11) DPH0 Frame(CFA_SP, 5)
          CFI (cfiCond11) CFA_SP SP+-7
          CFI Block cfiPicker12 Using cfiCommon1
          CFI (cfiPicker12) NoFunction
          CFI (cfiPicker12) Picker
        MOV       R2,#0x1
          CFI EndBlock cfiCond10
          CFI EndBlock cfiCond11
          CFI EndBlock cfiPicker12
        REQUIRE ??Subroutine8_0
        ; // Fall through to label ??Subroutine8_0

        RSEG BANKED_CODE:HUGECODE:NOROOT(0)
??Subroutine8_0:
          CFI Block cfiCond13 Using cfiCommon0
          CFI Function zclSampleLight_event_loop
          CFI Conditional ??CrossCallReturnLabel_6
          CFI R6 load(1, XDATA, add(CFA_XSP16, literal(-12)))
          CFI VB load(1, XDATA, add(CFA_XSP16, literal(-11)))
          CFI V0 load(1, XDATA, add(CFA_XSP16, literal(-10)))
          CFI V1 load(1, XDATA, add(CFA_XSP16, literal(-9)))
          CFI V2 load(1, XDATA, add(CFA_XSP16, literal(-8)))
          CFI V3 load(1, XDATA, add(CFA_XSP16, literal(-7)))
          CFI R7 load(1, XDATA, add(CFA_XSP16, literal(-6)))
          CFI ?RET_LOW load(1, XDATA, add(CFA_XSP16, literal(-5)))
          CFI ?RET_HIGH load(1, XDATA, add(CFA_XSP16, literal(-4)))
          CFI ?BRET_EXT load(1, XDATA, add(CFA_XSP16, literal(-3)))
          CFI DPL0 load(1, XDATA, add(CFA_XSP16, literal(-2)))
          CFI DPH0 load(1, XDATA, add(CFA_XSP16, literal(-1)))
          CFI CFA_SP SP+-2
          CFI CFA_XSP16 add(XSP16, 12)
          CFI Block cfiCond14 Using cfiCommon0
          CFI (cfiCond14) Function zclSampleLight_event_loop
          CFI (cfiCond14) Conditional ??CrossCallReturnLabel_4
          CFI (cfiCond14) R6 load(1, XDATA, add(CFA_XSP16, literal(-12)))
          CFI (cfiCond14) VB load(1, XDATA, add(CFA_XSP16, literal(-11)))
          CFI (cfiCond14) V0 load(1, XDATA, add(CFA_XSP16, literal(-10)))
          CFI (cfiCond14) V1 load(1, XDATA, add(CFA_XSP16, literal(-9)))
          CFI (cfiCond14) V2 load(1, XDATA, add(CFA_XSP16, literal(-8)))
          CFI (cfiCond14) V3 load(1, XDATA, add(CFA_XSP16, literal(-7)))
          CFI (cfiCond14) R7 load(1, XDATA, add(CFA_XSP16, literal(-6)))
          CFI (cfiCond14) ?RET_LOW load(1, XDATA, add(CFA_XSP16, literal(-5)))
          CFI (cfiCond14) ?RET_HIGH load(1, XDATA, add(CFA_XSP16, literal(-4)))
          CFI (cfiCond14) ?BRET_EXT load(1, XDATA, add(CFA_XSP16, literal(-3)))
          CFI (cfiCond14) DPL0 load(1, XDATA, add(CFA_XSP16, literal(-2)))
          CFI (cfiCond14) DPH0 load(1, XDATA, add(CFA_XSP16, literal(-1)))
          CFI (cfiCond14) CFA_SP SP+-2
          CFI (cfiCond14) CFA_XSP16 add(XSP16, 12)
          CFI Block cfiCond15 Using cfiCommon0
          CFI (cfiCond15) Function zclSampleLight_ProcessIdentifyTimeChange
          CFI (cfiCond15) Conditional ??CrossCallReturnLabel_5
          CFI (cfiCond15) DPL0 Frame(CFA_SP, 4)
          CFI (cfiCond15) DPH0 Frame(CFA_SP, 5)
          CFI (cfiCond15) CFA_SP SP+-7
          CFI Block cfiPicker16 Using cfiCommon1
          CFI (cfiPicker16) NoFunction
          CFI (cfiPicker16) Picker
        MOV       R3,#0x0
        MOV       DPTR,#zclSampleLight_TaskID
        MOVX      A,@DPTR
        MOV       R1,A
        LCALL     `??osal_stop_timerEx::?relay`; Banked call to: osal_stop_timerEx
        RET
          CFI EndBlock cfiCond13
          CFI EndBlock cfiCond14
          CFI EndBlock cfiCond15
          CFI EndBlock cfiPicker16

        RSEG BANKED_CODE:HUGECODE:NOROOT(0)
?Subroutine3:
          CFI Block cfiCond17 Using cfiCommon0
          CFI Function zclSampleLight_event_loop
          CFI Conditional ??CrossCallReturnLabel_7
          CFI R6 load(1, XDATA, add(CFA_XSP16, literal(-12)))
          CFI VB load(1, XDATA, add(CFA_XSP16, literal(-11)))
          CFI V0 load(1, XDATA, add(CFA_XSP16, literal(-10)))
          CFI V1 load(1, XDATA, add(CFA_XSP16, literal(-9)))
          CFI V2 load(1, XDATA, add(CFA_XSP16, literal(-8)))
          CFI V3 load(1, XDATA, add(CFA_XSP16, literal(-7)))
          CFI R7 load(1, XDATA, add(CFA_XSP16, literal(-6)))
          CFI ?RET_LOW load(1, XDATA, add(CFA_XSP16, literal(-5)))
          CFI ?RET_HIGH load(1, XDATA, add(CFA_XSP16, literal(-4)))
          CFI ?BRET_EXT load(1, XDATA, add(CFA_XSP16, literal(-3)))
          CFI DPL0 load(1, XDATA, add(CFA_XSP16, literal(-2)))
          CFI DPH0 load(1, XDATA, add(CFA_XSP16, literal(-1)))
          CFI CFA_SP SP+-2
          CFI CFA_XSP16 add(XSP16, 16)
          CFI Block cfiCond18 Using cfiCommon0
          CFI (cfiCond18) Function zclSampleLight_ProcessIdentifyTimeChange
          CFI (cfiCond18) Conditional ??CrossCallReturnLabel_8
          CFI (cfiCond18) DPL0 Frame(CFA_SP, 4)
          CFI (cfiCond18) DPH0 Frame(CFA_SP, 5)
          CFI (cfiCond18) CFA_SP SP+-7
          CFI (cfiCond18) CFA_XSP16 add(XSP16, 4)
          CFI Block cfiPicker19 Using cfiCommon1
          CFI (cfiPicker19) NoFunction
          CFI (cfiPicker19) Picker
        MOV       R2,#0x1
          CFI EndBlock cfiCond17
          CFI EndBlock cfiCond18
          CFI EndBlock cfiPicker19
        REQUIRE ??Subroutine9_0
        ; // Fall through to label ??Subroutine9_0

        RSEG BANKED_CODE:HUGECODE:NOROOT(0)
??Subroutine9_0:
          CFI Block cfiCond20 Using cfiCommon0
          CFI Function zclSampleLight_event_loop
          CFI Conditional ??CrossCallReturnLabel_9
          CFI R6 load(1, XDATA, add(CFA_XSP16, literal(-12)))
          CFI VB load(1, XDATA, add(CFA_XSP16, literal(-11)))
          CFI V0 load(1, XDATA, add(CFA_XSP16, literal(-10)))
          CFI V1 load(1, XDATA, add(CFA_XSP16, literal(-9)))
          CFI V2 load(1, XDATA, add(CFA_XSP16, literal(-8)))
          CFI V3 load(1, XDATA, add(CFA_XSP16, literal(-7)))
          CFI R7 load(1, XDATA, add(CFA_XSP16, literal(-6)))
          CFI ?RET_LOW load(1, XDATA, add(CFA_XSP16, literal(-5)))
          CFI ?RET_HIGH load(1, XDATA, add(CFA_XSP16, literal(-4)))
          CFI ?BRET_EXT load(1, XDATA, add(CFA_XSP16, literal(-3)))
          CFI DPL0 load(1, XDATA, add(CFA_XSP16, literal(-2)))
          CFI DPH0 load(1, XDATA, add(CFA_XSP16, literal(-1)))
          CFI CFA_SP SP+-2
          CFI CFA_XSP16 add(XSP16, 16)
          CFI Block cfiCond21 Using cfiCommon0
          CFI (cfiCond21) Function zclSampleLight_event_loop
          CFI (cfiCond21) Conditional ??CrossCallReturnLabel_7
          CFI (cfiCond21) R6 load(1, XDATA, add(CFA_XSP16, literal(-12)))
          CFI (cfiCond21) VB load(1, XDATA, add(CFA_XSP16, literal(-11)))
          CFI (cfiCond21) V0 load(1, XDATA, add(CFA_XSP16, literal(-10)))
          CFI (cfiCond21) V1 load(1, XDATA, add(CFA_XSP16, literal(-9)))
          CFI (cfiCond21) V2 load(1, XDATA, add(CFA_XSP16, literal(-8)))
          CFI (cfiCond21) V3 load(1, XDATA, add(CFA_XSP16, literal(-7)))
          CFI (cfiCond21) R7 load(1, XDATA, add(CFA_XSP16, literal(-6)))
          CFI (cfiCond21) ?RET_LOW load(1, XDATA, add(CFA_XSP16, literal(-5)))
          CFI (cfiCond21) ?RET_HIGH load(1, XDATA, add(CFA_XSP16, literal(-4)))
          CFI (cfiCond21) ?BRET_EXT load(1, XDATA, add(CFA_XSP16, literal(-3)))
          CFI (cfiCond21) DPL0 load(1, XDATA, add(CFA_XSP16, literal(-2)))
          CFI (cfiCond21) DPH0 load(1, XDATA, add(CFA_XSP16, literal(-1)))
          CFI (cfiCond21) CFA_SP SP+-2
          CFI (cfiCond21) CFA_XSP16 add(XSP16, 16)
          CFI Block cfiCond22 Using cfiCommon0
          CFI (cfiCond22) Function zclSampleLight_ProcessIdentifyTimeChange
          CFI (cfiCond22) Conditional ??CrossCallReturnLabel_8
          CFI (cfiCond22) DPL0 Frame(CFA_SP, 4)
          CFI (cfiCond22) DPH0 Frame(CFA_SP, 5)
          CFI (cfiCond22) CFA_SP SP+-7
          CFI (cfiCond22) CFA_XSP16 add(XSP16, 4)
          CFI Block cfiPicker23 Using cfiCommon1
          CFI (cfiPicker23) NoFunction
          CFI (cfiPicker23) Picker
        MOV       R3,#0x0
        MOV       DPTR,#zclSampleLight_TaskID
        MOVX      A,@DPTR
        MOV       R1,A
        LCALL     `??osal_start_timerEx::?relay`; Banked call to: osal_start_timerEx
        MOV       A,#0x4
        RET
          CFI EndBlock cfiCond20
          CFI EndBlock cfiCond21
          CFI EndBlock cfiCond22
          CFI EndBlock cfiPicker23
//  742 
//  743 
//  744 
//  745 
//  746 //////GP_UPDATE
//  747 ////#if (ZG_BUILD_RTR_TYPE)
//  748 ///*********************************************************************
//  749 // * @fn      gp_CommissioningMode
//  750 // *
//  751 // * @brief   Callback that notifies the application that gp Proxy is entering 
//  752 // *          into commissioning mode
//  753 // *
//  754 // * @param   isEntering - 
//  755 // *
//  756 // * @return  
//  757 // */
//  758 //static void gp_CommissioningMode(bool isEntering)
//  759 //{
//  760 //  if(isEntering)
//  761 //  {
//  762 //    //Led on indicating enter commissioning mode
//  763 //  }
//  764 //  else
//  765 //  {
//  766 //    //Led off indicating enter commissioning mode
//  767 //  }
//  768 //}
//  769 
//  770 
//  771 
//  772 ////GP_UPDATE
//  773 ///*********************************************************************
//  774 // * @fn      gp_ChangeChannelReq
//  775 // *
//  776 // * @brief   Callback function to notify the application about a GP commissioning 
//  777 // * request that will change the current channel for at most 
//  778 // * gpBirectionalCommissioningChangeChannelTimeout ms
//  779 // *
//  780 // * @param   channel - Channel in which the commissioning will take place
//  781 // *
//  782 // * @return  TRUE to allow change channel, FALSE to do not allow
//  783 // */
//  784 //static uint8 gp_ChangeChannelReq(void)
//  785 //{
//  786 //  bool allowChangeChannel = TRUE;
//  787 //  
//  788 //  //Check application state to decide if allow change channel or not
//  789 //  
//  790 //  return allowChangeChannel;
//  791 //}
//  792 //
//  793 ////#endif
//  794 
//  795 
//  796 
//  797 
//  798 
//  799 ///*********************************************************************
//  800 // * @fn      zclSampleLight_ProcessCommissioningStatus
//  801 // *
//  802 // * @brief   Callback in which the status of the commissioning process are reported
//  803 // *
//  804 // * @param   bdbCommissioningModeMsg - Context message of the status of a commissioning process
//  805 // *
//  806 // * @return  none
//  807 // */
//  808 //static void zclSampleLight_ProcessCommissioningStatus(bdbCommissioningModeMsg_t *bdbCommissioningModeMsg)
//  809 //{
//  810 //  switch(bdbCommissioningModeMsg->bdbCommissioningMode)
//  811 //  {
//  812 //    case BDB_COMMISSIONING_FORMATION:
//  813 //      if(bdbCommissioningModeMsg->bdbCommissioningStatus == BDB_COMMISSIONING_SUCCESS)
//  814 //      {
//  815 //        //After formation, perform nwk steering again plus the remaining commissioning modes that has not been process yet
//  816 //        bdb_StartCommissioning(BDB_COMMISSIONING_MODE_NWK_STEERING | bdbCommissioningModeMsg->bdbRemainingCommissioningModes);
//  817 //      }
//  818 //      else
//  819 //      {
//  820 //        //Want to try other channels?
//  821 //        //try with bdb_setChannelAttribute
//  822 //      }
//  823 //    break;
//  824 //    case BDB_COMMISSIONING_NWK_STEERING:
//  825 //      if(bdbCommissioningModeMsg->bdbCommissioningStatus == BDB_COMMISSIONING_SUCCESS)
//  826 //      {
//  827 //        //YOUR JOB:
//  828 //        //We are on the nwk, what now?
//  829 //      }
//  830 //      else
//  831 //      {
//  832 //        //See the possible errors for nwk steering procedure
//  833 //        //No suitable networks found
//  834 //        //Want to try other channels?
//  835 //        //try with bdb_setChannelAttribute
//  836 //      }
//  837 //    break;
//  838 //    case BDB_COMMISSIONING_FINDING_BINDING:
//  839 //      if(bdbCommissioningModeMsg->bdbCommissioningStatus == BDB_COMMISSIONING_SUCCESS)
//  840 //      {
//  841 //        //YOUR JOB:
//  842 //      }
//  843 //      else
//  844 //      {
//  845 //        //YOUR JOB:
//  846 //        //retry?, wait for user interaction?
//  847 //      }
//  848 //    break;
//  849 //    case BDB_COMMISSIONING_INITIALIZATION:
//  850 //      //Initialization notification can only be successful. Failure on initialization 
//  851 //      //only happens for ZED and is notified as BDB_COMMISSIONING_PARENT_LOST notification
//  852 //      
//  853 //      //YOUR JOB:
//  854 //      //We are on a network, what now?
//  855 //      
//  856 //    break;
//  857 //#if ZG_BUILD_ENDDEVICE_TYPE    
//  858 //    case BDB_COMMISSIONING_PARENT_LOST:
//  859 //      if(bdbCommissioningModeMsg->bdbCommissioningStatus == BDB_COMMISSIONING_NETWORK_RESTORED)
//  860 //      {
//  861 //        //We did recover from losing parent
//  862 //      }
//  863 //      else
//  864 //      {
//  865 //        //Parent not found, attempt to rejoin again after a fixed delay
//  866 //        osal_start_timerEx(zclSampleLight_TaskID, SAMPLEAPP_END_DEVICE_REJOIN_EVT, SAMPLEAPP_END_DEVICE_REJOIN_DELAY);
//  867 //      }
//  868 //    break;
//  869 //#endif 
//  870 //  }
//  871 //  
//  872 //  UI_UpdateComissioningStatus(bdbCommissioningModeMsg);
//  873 //}
//  874 
//  875 
//  876 
//  877 
//  878 /*********************************************************************
//  879  * @fn      zclSampleLight_BasicResetCB
//  880  *
//  881  * @brief   Callback from the ZCL General Cluster Library
//  882  *          to set all the Basic Cluster attributes to default values.
//  883  *
//  884  * @param   none
//  885  *
//  886  * @return  none
//  887  */

        RSEG BANKED_CODE:HUGECODE:NOROOT(0)
//  888 static void zclSampleLight_BasicResetCB( void )
zclSampleLight_BasicResetCB:
          CFI Block cfiBlock24 Using cfiCommon0
          CFI Function zclSampleLight_BasicResetCB
        CODE
//  889 {
        FUNCALL zclSampleLight_BasicResetCB, zclSampleLight_ResetAttributesToDefaultValues
        LOCFRAME ISTACK, 2, STACK
        LOCFRAME PSTACK, 0, STACK
        LOCFRAME XSTACK, 0, STACK
        LOCFRAME IOVERLAY, 0, STATIC
        LOCFRAME DOVERLAY, 0, STATIC
        ARGFRAME ISTACK, 2, STACK
        ARGFRAME PSTACK, 0, STACK
        ARGFRAME XSTACK, 0, STACK
        ARGFRAME IOVERLAY, 0, STATIC
        ARGFRAME DOVERLAY, 0, STATIC
        PUSH      DPL
          CFI DPL0 Frame(CFA_SP, 4)
          CFI CFA_SP SP+-4
        PUSH      DPH
          CFI DPH0 Frame(CFA_SP, 5)
          CFI CFA_SP SP+-5
        ; Saved register size: 2
        ; Auto size: 0
//  890   //Reset every attribute in all supported cluster to their default value.
//  891 
//  892   zclSampleLight_ResetAttributesToDefaultValues();
        ; Setup parameters for call to function zclSampleLight_ResetAttributesToDefaultValues
        LCALL     ??zclSampleLight_ResetAttributesToDefaultValues; Banked call to: zclSampleLight_ResetAttributesToDefaultValues
//  893 
//  894 //  zclSampleLight_UpdateLedState();
//  895 //
//  896 //  // update the display
//  897 //  UI_UpdateLcd( ); 
//  898 }
        SJMP      ??Subroutine10_0
          CFI EndBlock cfiBlock24

        RSEG BANKED_CODE:HUGECODE:NOROOT(0)
?Subroutine2:
          CFI Block cfiBlock25 Using cfiCommon0
          CFI NoFunction
          CFI CFA_SP SP+-5
          CFI DPL0 Frame(CFA_SP, 4)
          CFI DPH0 Frame(CFA_SP, 5)
        MOVX      @DPTR,A
          CFI EndBlock cfiBlock25
        REQUIRE ??Subroutine10_0
        ; // Fall through to label ??Subroutine10_0

        RSEG BANKED_CODE:HUGECODE:NOROOT(0)
??Subroutine10_0:
          CFI Block cfiBlock26 Using cfiCommon0
          CFI NoFunction
          CFI CFA_SP SP+-5
          CFI DPL0 Frame(CFA_SP, 4)
          CFI DPH0 Frame(CFA_SP, 5)
        POP       DPH
          CFI CFA_SP SP+-4
          CFI DPH0 SameValue
        POP       DPL
          CFI CFA_SP SP+-3
          CFI DPL0 SameValue
        LJMP      ?BRET
          CFI EndBlock cfiBlock26
//  899 
//  900 
//  901 
//  902 
//  903 /*********************************************************************
//  904  * @fn      zclSampleLight_IdentifyCB
//  905  *
//  906  * @brief   Callback from the ZCL General Cluster Library when
//  907  *          it received an Identity Command for this application.
//  908  *
//  909  * @param   srcAddr - source address and endpoint of the response message
//  910  * @param   identifyTime - the number of seconds to identify yourself
//  911  *
//  912  * @return  none
//  913  */

        RSEG BANKED_CODE:HUGECODE:NOROOT(0)
//  914 static void zclSampleLight_IdentifyCB( zclIdentify_t *pCmd )
zclSampleLight_IdentifyCB:
          CFI Block cfiBlock27 Using cfiCommon0
          CFI Function zclSampleLight_IdentifyCB
        CODE
//  915 {
        FUNCALL zclSampleLight_IdentifyCB, zclSampleLight_ProcessIdentifyTimeChange
        LOCFRAME ISTACK, 2, STACK
        LOCFRAME PSTACK, 0, STACK
        LOCFRAME XSTACK, 0, STACK
        LOCFRAME IOVERLAY, 0, STATIC
        LOCFRAME DOVERLAY, 0, STATIC
        ARGFRAME ISTACK, 2, STACK
        ARGFRAME PSTACK, 0, STACK
        ARGFRAME XSTACK, 0, STACK
        ARGFRAME IOVERLAY, 0, STATIC
        ARGFRAME DOVERLAY, 0, STATIC
        PUSH      DPL
          CFI DPL0 Frame(CFA_SP, 4)
          CFI CFA_SP SP+-4
        PUSH      DPH
          CFI DPH0 Frame(CFA_SP, 5)
          CFI CFA_SP SP+-5
        ; Saved register size: 2
        ; Auto size: 0
//  916   zclSampleLight_IdentifyTime = pCmd->identifyTime;
        MOV       DPL,R2
        MOV       DPH,R3
        INC       DPTR
        INC       DPTR
        MOVX      A,@DPTR
        MOV       R0,A
        INC       DPTR
        MOVX      A,@DPTR
        MOV       R1,A
        MOV       DPTR,#zclSampleLight_IdentifyTime
        MOV       A,R0
        MOVX      @DPTR,A
        INC       DPTR
        MOV       A,R1
        MOVX      @DPTR,A
//  917   zclSampleLight_ProcessIdentifyTimeChange();
        ; Setup parameters for call to function zclSampleLight_ProcessIdentifyTimeChange
        LCALL     `??zclSampleLight_ProcessIdentifyTimeChange::?re`; Banked call to: zclSampleLight_ProcessIdentifyTimeChange
//  918 }
        SJMP      ??Subroutine10_0
          CFI EndBlock cfiBlock27
//  919 
//  920 
//  921 
//  922 /*********************************************************************
//  923  * @fn      zclSampleLight_IdentifyQueryRspCB
//  924  *
//  925  * @brief   Callback from the ZCL General Cluster Library when
//  926  *          it received an Identity Query Response Command for this application.
//  927  *
//  928  * @param   srcAddr - requestor's address
//  929  * @param   timeout - number of seconds to identify yourself (valid for query response)
//  930  *
//  931  * @return  none
//  932  */

        RSEG BANKED_CODE:HUGECODE:NOROOT(0)
//  933 static void zclSampleLight_IdentifyQueryRspCB(  zclIdentifyQueryRsp_t *pRsp )
zclSampleLight_IdentifyQueryRspCB:
          CFI Block cfiBlock28 Using cfiCommon0
          CFI Function zclSampleLight_IdentifyQueryRspCB
        CODE
//  934 {
        ; Saved register size: 0
        ; Auto size: 0
//  935   // Query Response (with timeout value)
//  936   (void)pRsp;
//  937 }
        LJMP      ?BRET
          CFI EndBlock cfiBlock28
//  938 
//  939 
//  940 
//  941 /*********************************************************************
//  942  * @fn      zclSampleLight_OnOffCB
//  943  *
//  944  * @brief   Callback from the ZCL General Cluster Library when
//  945  *          it received an On/Off Command for this application.
//  946  *
//  947  * @param   cmd - COMMAND_ON, COMMAND_OFF or COMMAND_TOGGLE
//  948  *
//  949  * @return  none
//  950  */

        RSEG BANKED_CODE:HUGECODE:NOROOT(0)
//  951 static void zclSampleLight_OnOffCB( uint8 cmd )
zclSampleLight_OnOffCB:
          CFI Block cfiBlock29 Using cfiCommon0
          CFI Function zclSampleLight_OnOffCB
        CODE
//  952 {
        PUSH      DPL
          CFI DPL0 Frame(CFA_SP, 4)
          CFI CFA_SP SP+-4
        PUSH      DPH
          CFI DPH0 Frame(CFA_SP, 5)
          CFI CFA_SP SP+-5
        ; Saved register size: 2
        ; Auto size: 0
//  953   // Turn on the light
//  954   if ( cmd == COMMAND_ON )
        MOV       A,#0x1
        XRL       A,R1
        JNZ       ??zclSampleLight_OnOffCB_0
//  955   {
//  956     zclSampleLight_OnOff = LIGHT_ON;
        MOV       DPTR,#zclSampleLight_OnOff
        MOV       A,#0x1
        SJMP      ??zclSampleLight_OnOffCB_1
//  957     RELAY_STATE = 1;
//  958   }
//  959   // Turn off the light
//  960   else if ( cmd == COMMAND_OFF )
??zclSampleLight_OnOffCB_0:
        MOV       A,R1
        MOV       DPTR,#zclSampleLight_OnOff
        JNZ       ??zclSampleLight_OnOffCB_2
//  961   {
//  962     zclSampleLight_OnOff = LIGHT_OFF;
        CLR       A
??zclSampleLight_OnOffCB_1:
        MOVX      @DPTR,A
//  963     RELAY_STATE = 0;
        MOV       DPTR,#RELAY_STATE
        SJMP      ??zclSampleLight_OnOffCB_3
//  964   }
//  965   // Toggle the light
//  966   else
//  967   {
//  968     if ( zclSampleLight_OnOff == LIGHT_OFF )
??zclSampleLight_OnOffCB_2:
        MOVX      A,@DPTR
        JNZ       ??zclSampleLight_OnOffCB_4
//  969     {
//  970       zclSampleLight_OnOff = LIGHT_ON;
        MOV       A,#0x1
        SJMP      ??zclSampleLight_OnOffCB_3
//  971     }
//  972     else 
//  973     {
//  974       zclSampleLight_OnOff = LIGHT_OFF;
??zclSampleLight_OnOffCB_4:
        CLR       A
//  975     }
//  976   }
??zclSampleLight_OnOffCB_3:
        SJMP      ?Subroutine2
//  977 
//  978   // In this sample app, we use LED4 to simulate the Light
//  979   if ( zclSampleLight_OnOff == LIGHT_ON )
//  980   {
//  981 //    HalLedSet( HAL_LED_4, HAL_LED_MODE_ON );
//  982 //	  LED(1, 7);
//  983   }
//  984   else 
//  985   {
//  986 //    HalLedSet( HAL_LED_4, HAL_LED_MODE_OFF );
//  987 //	  LED(0, 7);
//  988   }
//  989 }
          CFI EndBlock cfiBlock29
//  990 
//  991 //#ifdef ZCL_LEVEL_CTRL
//  992 ///*********************************************************************
//  993 // * @fn      zclSampleLight_TimeRateHelper
//  994 // *
//  995 // * @brief   Calculate time based on rate, and startup level state machine
//  996 // *
//  997 // * @param   newLevel - new level for current level
//  998 // *
//  999 // * @return  diff (directly), zclSampleLight_CurrentLevel32 and zclSampleLight_NewLevel, zclSampleLight_NewLevelUp
// 1000 // */
// 1001 //static uint32 zclSampleLight_TimeRateHelper( uint8 newLevel )
// 1002 //{
// 1003 //  uint32 diff;
// 1004 //  uint32 newLevel32;
// 1005 //
// 1006 //  // remember current and new level
// 1007 //  zclSampleLight_NewLevel = newLevel;
// 1008 //  zclSampleLight_CurrentLevel32 = (uint32)1000 * zclSampleLight_LevelCurrentLevel;
// 1009 //
// 1010 //  // calculate diff
// 1011 //  newLevel32 = (uint32)1000 * newLevel;
// 1012 //  if ( zclSampleLight_LevelCurrentLevel > newLevel )
// 1013 //  {
// 1014 //    diff = zclSampleLight_CurrentLevel32 - newLevel32;
// 1015 //    zclSampleLight_NewLevelUp = FALSE;  // moving down
// 1016 //  }
// 1017 //  else
// 1018 //  {
// 1019 //    diff = newLevel32 - zclSampleLight_CurrentLevel32;
// 1020 //    zclSampleLight_NewLevelUp = TRUE;   // moving up
// 1021 //  }
// 1022 //
// 1023 //  return ( diff );
// 1024 //}
// 1025 //#ifdef ZCL_LEVEL_CTRL
// 1026 
// 1027 ///*********************************************************************
// 1028 // * @fn      zclSampleLight_MoveBasedOnRate
// 1029 // *
// 1030 // * @brief   Calculate time based on rate, and startup level state machine
// 1031 // *
// 1032 // * @param   newLevel - new level for current level
// 1033 // * @param   rate16   - fixed point rate (e.g. 16.123)
// 1034 // *
// 1035 // * @return  none
// 1036 // */
// 1037 //static void zclSampleLight_MoveBasedOnRate( uint8 newLevel, uint32 rate )
// 1038 //{
// 1039 //  uint32 diff;
// 1040 //
// 1041 //  // determine how much time (in 10ths of seconds) based on the difference and rate
// 1042 //  zclSampleLight_Rate32 = rate;
// 1043 //  diff = zclSampleLight_TimeRateHelper( newLevel );
// 1044 //  zclSampleLight_LevelRemainingTime = diff / rate;
// 1045 //  if ( !zclSampleLight_LevelRemainingTime )
// 1046 //  {
// 1047 //    zclSampleLight_LevelRemainingTime = 1;
// 1048 //  }
// 1049 //
// 1050 //  osal_start_timerEx( zclSampleLight_TaskID, SAMPLELIGHT_LEVEL_CTRL_EVT, 100 );
// 1051 //}
// 1052 
// 1053 
// 1054 
// 1055 
// 1056 
// 1057 
// 1058 ///*********************************************************************
// 1059 // * @fn      zclSampleLight_MoveBasedOnTime
// 1060 // *
// 1061 // * @brief   Calculate rate based on time, and startup level state machine
// 1062 // *
// 1063 // * @param   newLevel  - new level for current level
// 1064 // * @param   time      - in 10ths of seconds
// 1065 // *
// 1066 // * @return  none
// 1067 // */
// 1068 //static void zclSampleLight_MoveBasedOnTime( uint8 newLevel, uint16 time )
// 1069 //{
// 1070 //  uint16 diff;
// 1071 //
// 1072 //  // determine rate (in units) based on difference and time
// 1073 //  diff = zclSampleLight_TimeRateHelper( newLevel );
// 1074 //  zclSampleLight_LevelRemainingTime = zclSampleLight_GetTime( newLevel, time );
// 1075 //  zclSampleLight_Rate32 = diff / time;
// 1076 //
// 1077 //  osal_start_timerEx( zclSampleLight_TaskID, SAMPLELIGHT_LEVEL_CTRL_EVT, 100 );
// 1078 //}
// 1079 
// 1080 
// 1081 
// 1082 
// 1083 
// 1084 
// 1085 
// 1086 ///*********************************************************************
// 1087 // * @fn      zclSampleLight_GetTime
// 1088 // *
// 1089 // * @brief   Determine amount of time that MoveXXX will take to complete.
// 1090 // *
// 1091 // * @param   level = new level to move to
// 1092 // *          time  = 0xffff=default, or 0x0000-n amount of time in tenths of seconds.
// 1093 // *
// 1094 // * @return  none
// 1095 // */
// 1096 //static uint16 zclSampleLight_GetTime( uint8 newLevel, uint16 time )
// 1097 //{
// 1098 //  // there is a hiearchy of the amount of time to use for transistioning
// 1099 //  // check each one in turn. If none of defaults are set, then use fastest
// 1100 //  // time possible.
// 1101 //  if ( time == 0xFFFF )
// 1102 //  {
// 1103 //    // use On or Off Transition Time if set (not 0xffff)
// 1104 //    if ( zclSampleLight_LevelCurrentLevel > newLevel )
// 1105 //    {
// 1106 //      time = zclSampleLight_LevelOffTransitionTime;
// 1107 //    }
// 1108 //    else
// 1109 //    {
// 1110 //      time = zclSampleLight_LevelOnTransitionTime;
// 1111 //    }
// 1112 //
// 1113 //    // else use OnOffTransitionTime if set (not 0xffff)
// 1114 //    if ( time == 0xFFFF )
// 1115 //    {
// 1116 //      time = zclSampleLight_LevelOnOffTransitionTime;
// 1117 //    }
// 1118 //
// 1119 //    // else as fast as possible
// 1120 //    if ( time == 0xFFFF )
// 1121 //    {
// 1122 //      time = 1;
// 1123 //    }
// 1124 //  }
// 1125 //
// 1126 //  if ( time == 0 )
// 1127 //  {
// 1128 //    time = 1; // as fast as possible
// 1129 //  }
// 1130 //
// 1131 //  return ( time );
// 1132 //}
// 1133 
// 1134 
// 1135 
// 1136 
// 1137 
// 1138 ///*********************************************************************
// 1139 // * @fn      zclSampleLight_DefaultMove
// 1140 // *
// 1141 // * @brief   We were turned on/off. Use default time to move to on or off.
// 1142 // *
// 1143 // * @param   zclSampleLight_OnOff - must be set prior to calling this function.
// 1144 // *
// 1145 // * @return  none
// 1146 // */
// 1147 //static void zclSampleLight_DefaultMove( uint8 OnOff )
// 1148 //{
// 1149 //  uint8  newLevel;
// 1150 //  uint32 rate;      // fixed point decimal (3 places, eg. 16.345)
// 1151 //  uint16 time;
// 1152 //
// 1153 //  // if moving to on position, move to on level
// 1154 //  if ( OnOff )
// 1155 //  {
// 1156 //    if (zclSampleLight_OnOff == LIGHT_OFF)
// 1157 //    {
// 1158 //      zclSampleLight_LevelCurrentLevel = ATTR_LEVEL_MIN_LEVEL;
// 1159 //    }
// 1160 //    
// 1161 //    if ( zclSampleLight_LevelOnLevel == ATTR_LEVEL_ON_LEVEL_NO_EFFECT )
// 1162 //    {
// 1163 //      // The last Level (before going OFF) should be used)
// 1164 //      newLevel = zclSampleLight_LevelLastLevel;
// 1165 //    }
// 1166 //    else
// 1167 //    {
// 1168 //      newLevel = zclSampleLight_LevelOnLevel;
// 1169 //    }
// 1170 //
// 1171 //    time = zclSampleLight_LevelOnTransitionTime;
// 1172 //
// 1173 //  }
// 1174 //  else
// 1175 //  {
// 1176 //    newLevel = ATTR_LEVEL_MIN_LEVEL;
// 1177 //
// 1178 //    time = zclSampleLight_LevelOffTransitionTime;
// 1179 //  }
// 1180 //
// 1181 //  // else use OnOffTransitionTime if set (not 0xffff)
// 1182 //  if ( time == 0xFFFF )
// 1183 //  {
// 1184 //    time = zclSampleLight_LevelOnOffTransitionTime;
// 1185 //  }
// 1186 //
// 1187 //  // else as fast as possible
// 1188 //  if ( time == 0xFFFF )
// 1189 //  {
// 1190 //    time = 1;
// 1191 //  }
// 1192 //
// 1193 //  // calculate rate based on time (int 10ths) for full transition (1-254)
// 1194 //  rate = 255000 / time;    // units per tick, fixed point, 3 decimal places (e.g. 8500 = 8.5 units per tick)
// 1195 //
// 1196 //  // start up state machine.
// 1197 //  zclSampleLight_WithOnOff = TRUE;
// 1198 //  zclSampleLight_MoveBasedOnRate( newLevel, rate );
// 1199 //}
// 1200 
// 1201 
// 1202 
// 1203 
// 1204 
// 1205 ///*********************************************************************
// 1206 // * @fn      zclSampleLight_AdjustLightLevel
// 1207 // *
// 1208 // * @brief   Called each 10th of a second while state machine running
// 1209 // *
// 1210 // * @param   none
// 1211 // *
// 1212 // * @return  none
// 1213 // */
// 1214 //static void zclSampleLight_AdjustLightLevel( void )
// 1215 //{
// 1216 //  // one tick (10th of a second) less
// 1217 //  if ( zclSampleLight_LevelRemainingTime )
// 1218 //  {
// 1219 //    --zclSampleLight_LevelRemainingTime;
// 1220 //  }
// 1221 //
// 1222 //  // no time left, done
// 1223 //  if ( zclSampleLight_LevelRemainingTime == 0)
// 1224 //  {
// 1225 //    zclSampleLight_LevelCurrentLevel = zclSampleLight_NewLevel;
// 1226 //  }
// 1227 //
// 1228 //  // still time left, keep increment/decrementing
// 1229 //  else
// 1230 //  {
// 1231 //    if ( zclSampleLight_NewLevelUp )
// 1232 //    {
// 1233 //      zclSampleLight_CurrentLevel32 += zclSampleLight_Rate32;
// 1234 //    }
// 1235 //    else
// 1236 //    {
// 1237 //      zclSampleLight_CurrentLevel32 -= zclSampleLight_Rate32;
// 1238 //    }
// 1239 //    zclSampleLight_LevelCurrentLevel = (uint8)( zclSampleLight_CurrentLevel32 / 1000 );
// 1240 //  }
// 1241 //
// 1242 //  if (( zclSampleLight_LevelChangeCmd == LEVEL_CHANGED_BY_LEVEL_CMD ) && ( zclSampleLight_LevelOnLevel == ATTR_LEVEL_ON_LEVEL_NO_EFFECT ))
// 1243 //  {
// 1244 //    zclSampleLight_LevelLastLevel = zclSampleLight_LevelCurrentLevel;
// 1245 //  }
// 1246 //
// 1247 //  // also affect on/off
// 1248 //  if ( zclSampleLight_WithOnOff )
// 1249 //  {
// 1250 //    if ( zclSampleLight_LevelCurrentLevel > ATTR_LEVEL_MIN_LEVEL )
// 1251 //    {
// 1252 //      zclSampleLight_OnOff = LIGHT_ON;
// 1253 //    }
// 1254 //    else
// 1255 //    {
// 1256 //      if (zclSampleLight_LevelChangeCmd != LEVEL_CHANGED_BY_ON_CMD)
// 1257 //      {
// 1258 //        zclSampleLight_OnOff = LIGHT_OFF;
// 1259 //      }
// 1260 //      else
// 1261 //      {
// 1262 //        zclSampleLight_OnOff = LIGHT_ON;
// 1263 //      }
// 1264 //      
// 1265 //      if (( zclSampleLight_LevelChangeCmd != LEVEL_CHANGED_BY_LEVEL_CMD ) && ( zclSampleLight_LevelOnLevel == ATTR_LEVEL_ON_LEVEL_NO_EFFECT ))
// 1266 //      {
// 1267 //        zclSampleLight_LevelCurrentLevel = zclSampleLight_LevelLastLevel;
// 1268 //      }
// 1269 //    }
// 1270 //  }
// 1271 //
// 1272 //  zclSampleLight_UpdateLedState();
// 1273 //  
// 1274 //  // display light level as we go
// 1275 //  UI_UpdateLcd( );
// 1276 //
// 1277 //  // keep ticking away
// 1278 //  if ( zclSampleLight_LevelRemainingTime )
// 1279 //  {
// 1280 //    osal_start_timerEx( zclSampleLight_TaskID, SAMPLELIGHT_LEVEL_CTRL_EVT, 100 );
// 1281 //  }
// 1282 //}
// 1283 
// 1284 
// 1285 
// 1286 
// 1287 //
// 1288 ///*********************************************************************
// 1289 // * @fn      zclSampleLight_LevelControlMoveToLevelCB
// 1290 // *
// 1291 // * @brief   Callback from the ZCL General Cluster Library when
// 1292 // *          it received a LevelControlMoveToLevel Command for this application.
// 1293 // *
// 1294 // * @param   pCmd - ZigBee command parameters
// 1295 // *
// 1296 // * @return  none
// 1297 // */
// 1298 //static void zclSampleLight_LevelControlMoveToLevelCB( zclLCMoveToLevel_t *pCmd )
// 1299 //{
// 1300 //  zclSampleLight_LevelChangeCmd = LEVEL_CHANGED_BY_LEVEL_CMD;
// 1301 //
// 1302 //  zclSampleLight_WithOnOff = pCmd->withOnOff;
// 1303 //  zclSampleLight_MoveBasedOnTime( pCmd->level, pCmd->transitionTime );
// 1304 //}
// 1305 
// 1306 
// 1307 
// 1308 
// 1309 
// 1310 
// 1311 ///*********************************************************************
// 1312 // * @fn      zclSampleLight_LevelControlMoveCB
// 1313 // *
// 1314 // * @brief   Callback from the ZCL General Cluster Library when
// 1315 // *          it received a LevelControlMove Command for this application.
// 1316 // *
// 1317 // * @param   pCmd - ZigBee command parameters
// 1318 // *
// 1319 // * @return  none
// 1320 // */
// 1321 //static void zclSampleLight_LevelControlMoveCB( zclLCMove_t *pCmd )
// 1322 //{
// 1323 //  uint8 newLevel;
// 1324 //  uint32 rate;
// 1325 //
// 1326 //  // convert rate from units per second to units per tick (10ths of seconds)
// 1327 //  // and move at that right up or down
// 1328 //  zclSampleLight_WithOnOff = pCmd->withOnOff;
// 1329 //
// 1330 //  if ( pCmd->moveMode == LEVEL_MOVE_UP )
// 1331 //  {
// 1332 //    newLevel = ATTR_LEVEL_MAX_LEVEL;  // fully on
// 1333 //  }
// 1334 //  else
// 1335 //  {
// 1336 //    newLevel = ATTR_LEVEL_MIN_LEVEL; // fully off
// 1337 //  }
// 1338 //
// 1339 //  zclSampleLight_LevelChangeCmd = LEVEL_CHANGED_BY_LEVEL_CMD;
// 1340 //
// 1341 //  rate = (uint32)100 * pCmd->rate;
// 1342 //  zclSampleLight_MoveBasedOnRate( newLevel, rate );
// 1343 //}
// 1344 
// 1345 
// 1346 
// 1347 
// 1348 
// 1349 
// 1350 
// 1351 ///*********************************************************************
// 1352 // * @fn      zclSampleLight_LevelControlStepCB
// 1353 // *
// 1354 // * @brief   Callback from the ZCL General Cluster Library when
// 1355 // *          it received an On/Off Command for this application.
// 1356 // *
// 1357 // * @param   pCmd - ZigBee command parameters
// 1358 // *
// 1359 // * @return  none
// 1360 // */
// 1361 //static void zclSampleLight_LevelControlStepCB( zclLCStep_t *pCmd )
// 1362 //{
// 1363 //  uint8 newLevel;
// 1364 //
// 1365 //  // determine new level, but don't exceed boundaries
// 1366 //  if ( pCmd->stepMode == LEVEL_MOVE_UP )
// 1367 //  {
// 1368 //    if ( (uint16)zclSampleLight_LevelCurrentLevel + pCmd->amount > ATTR_LEVEL_MAX_LEVEL )
// 1369 //    {
// 1370 //      newLevel = ATTR_LEVEL_MAX_LEVEL;
// 1371 //    }
// 1372 //    else
// 1373 //    {
// 1374 //      newLevel = zclSampleLight_LevelCurrentLevel + pCmd->amount;
// 1375 //    }
// 1376 //  }
// 1377 //  else
// 1378 //  {
// 1379 //    if ( pCmd->amount >= zclSampleLight_LevelCurrentLevel )
// 1380 //    {
// 1381 //      newLevel = ATTR_LEVEL_MIN_LEVEL;
// 1382 //    }
// 1383 //    else
// 1384 //    {
// 1385 //      newLevel = zclSampleLight_LevelCurrentLevel - pCmd->amount;
// 1386 //    }
// 1387 //  }
// 1388 //  
// 1389 //  zclSampleLight_LevelChangeCmd = LEVEL_CHANGED_BY_LEVEL_CMD;
// 1390 //
// 1391 //  // move to the new level
// 1392 //  zclSampleLight_WithOnOff = pCmd->withOnOff;
// 1393 //  zclSampleLight_MoveBasedOnTime( newLevel, pCmd->transitionTime );
// 1394 //}
// 1395 
// 1396 
// 1397 
// 1398 
// 1399 //
// 1400 ///*********************************************************************
// 1401 // * @fn      zclSampleLight_LevelControlStopCB
// 1402 // *
// 1403 // * @brief   Callback from the ZCL General Cluster Library when
// 1404 // *          it received an Level Control Stop Command for this application.
// 1405 // *
// 1406 // * @param   pCmd - ZigBee command parameters
// 1407 // *
// 1408 // * @return  none
// 1409 // */
// 1410 //static void zclSampleLight_LevelControlStopCB( void )
// 1411 //{
// 1412 //  // stop immediately
// 1413 //  osal_stop_timerEx( zclSampleLight_TaskID, SAMPLELIGHT_LEVEL_CTRL_EVT );
// 1414 //  zclSampleLight_LevelRemainingTime = 0;
// 1415 //}
// 1416 //#endif
// 1417 
// 1418 
// 1419 
// 1420 
// 1421 ///*********************************************************************
// 1422 // * @fn      zclSampleApp_BatteryWarningCB
// 1423 // *
// 1424 // * @brief   Called to handle battery-low situation.
// 1425 // *
// 1426 // * @param   voltLevel - level of severity
// 1427 // *
// 1428 // * @return  none
// 1429 // */
// 1430 //void zclSampleApp_BatteryWarningCB( uint8 voltLevel )
// 1431 //{
// 1432 //  if ( voltLevel == VOLT_LEVEL_CAUTIOUS )
// 1433 //  {
// 1434 //    // Send warning message to the gateway and blink LED
// 1435 //  }
// 1436 //  else if ( voltLevel == VOLT_LEVEL_BAD )
// 1437 //  {
// 1438 //    // Shut down the system
// 1439 //  }
// 1440 //}
// 1441 
// 1442 
// 1443 
// 1444 
// 1445 
// 1446 /******************************************************************************
// 1447  *
// 1448  *  Functions for processing ZCL Foundation incoming Command/Response messages
// 1449  *
// 1450  *****************************************************************************/
// 1451 
// 1452 /*********************************************************************
// 1453  * @fn      zclSampleLight_ProcessIncomingMsg
// 1454  *
// 1455  * @brief   Process ZCL Foundation incoming message
// 1456  *
// 1457  * @param   pInMsg - pointer to the received message
// 1458  *
// 1459  * @return  none
// 1460  */

        RSEG BANKED_CODE:HUGECODE:NOROOT(0)
// 1461 static void zclSampleLight_ProcessIncomingMsg( zclIncomingMsg_t *pInMsg )
zclSampleLight_ProcessIncomingMsg:
          CFI Block cfiBlock30 Using cfiCommon0
          CFI Function zclSampleLight_ProcessIncomingMsg
        CODE
// 1462 {
        FUNCALL zclSampleLight_ProcessIncomingMsg, zclSampleLight_ProcessInDiscCmdsRspCmd
        LOCFRAME ISTACK, 0, STACK
        LOCFRAME PSTACK, 0, STACK
        LOCFRAME XSTACK, 9, STACK
        LOCFRAME IOVERLAY, 0, STATIC
        LOCFRAME DOVERLAY, 0, STATIC
        ARGFRAME ISTACK, 0, STACK
        ARGFRAME PSTACK, 0, STACK
        ARGFRAME XSTACK, 9, STACK
        ARGFRAME IOVERLAY, 0, STATIC
        ARGFRAME DOVERLAY, 0, STATIC
        FUNCALL zclSampleLight_ProcessIncomingMsg, zclSampleLight_ProcessInDiscCmdsRspCmd
        LOCFRAME ISTACK, 0, STACK
        LOCFRAME PSTACK, 0, STACK
        LOCFRAME XSTACK, 9, STACK
        LOCFRAME IOVERLAY, 0, STATIC
        LOCFRAME DOVERLAY, 0, STATIC
        ARGFRAME ISTACK, 0, STACK
        ARGFRAME PSTACK, 0, STACK
        ARGFRAME XSTACK, 9, STACK
        ARGFRAME IOVERLAY, 0, STATIC
        ARGFRAME DOVERLAY, 0, STATIC
        FUNCALL zclSampleLight_ProcessIncomingMsg, osal_mem_free
        LOCFRAME ISTACK, 0, STACK
        LOCFRAME PSTACK, 0, STACK
        LOCFRAME XSTACK, 9, STACK
        LOCFRAME IOVERLAY, 0, STATIC
        LOCFRAME DOVERLAY, 0, STATIC
        ARGFRAME ISTACK, 0, STACK
        ARGFRAME PSTACK, 0, STACK
        ARGFRAME XSTACK, 9, STACK
        ARGFRAME IOVERLAY, 0, STATIC
        ARGFRAME DOVERLAY, 0, STATIC
        MOV       A,#-0x9
        LCALL     ?BANKED_ENTER_XDATA
          CFI DPH0 load(1, XDATA, add(CFA_XSP16, literal(-1)))
          CFI DPL0 load(1, XDATA, add(CFA_XSP16, literal(-2)))
          CFI ?BRET_EXT load(1, XDATA, add(CFA_XSP16, literal(-3)))
          CFI ?RET_HIGH load(1, XDATA, add(CFA_XSP16, literal(-4)))
          CFI ?RET_LOW load(1, XDATA, add(CFA_XSP16, literal(-5)))
          CFI R7 load(1, XDATA, add(CFA_XSP16, literal(-6)))
          CFI V0 load(1, XDATA, add(CFA_XSP16, literal(-7)))
          CFI VB load(1, XDATA, add(CFA_XSP16, literal(-8)))
          CFI R6 load(1, XDATA, add(CFA_XSP16, literal(-9)))
          CFI CFA_SP SP+0
          CFI CFA_XSP16 add(XSP16, 9)
        ; Saved register size: 9
        ; Auto size: 0
// 1463   switch ( pInMsg->zclHdr.commandID )
        MOV       A,R2
        ADD       A,#0x17
        MOV       R0,A
        CLR       A
        ADDC      A,R3
        MOV       R1,A
        MOV       A,R0
        MOV       R6,A
        MOV       A,R1
        MOV       R7,A
        MOV       DPL,R2
        MOV       DPH,R3
        INC       DPTR
        INC       DPTR
        INC       DPTR
        INC       DPTR
        INC       DPTR
        INC       DPTR
        INC       DPTR
        MOVX      A,@DPTR
        DEC       A
        JZ        ??zclSampleLight_ProcessIncomingMsg_0
        ADD       A,#-0x3
        JZ        ??zclSampleLight_ProcessIncomingMsg_1
        ADD       A,#-0x9
        JZ        ??zclSampleLight_ProcessIncomingMsg_2
        ADD       A,#-0x5
        JZ        ??zclSampleLight_ProcessIncomingMsg_3
        ADD       A,#-0x2
        JZ        ??zclSampleLight_ProcessIncomingMsg_3
        ADD       A,#-0x2
        JZ        ??zclSampleLight_ProcessIncomingMsg_4
        SJMP      ??zclSampleLight_ProcessIncomingMsg_5
// 1464   {
// 1465 #ifdef ZCL_READ
// 1466     case ZCL_CMD_READ_RSP:
// 1467       zclSampleLight_ProcessInReadRspCmd( pInMsg );
??zclSampleLight_ProcessIncomingMsg_0:
        LCALL     ?Subroutine5 & 0xFFFF
??CrossCallReturnLabel_0:
        MOVX      A,@DPTR
        MOV       R1,A
        MOV       A,R0
        CLR       C
        SUBB      A,R1
        JNC       ??zclSampleLight_ProcessIncomingMsg_5
        INC       R0
        SJMP      ??CrossCallReturnLabel_0
// 1468       break;
// 1469 #endif
// 1470 #ifdef ZCL_WRITE
// 1471     case ZCL_CMD_WRITE_RSP:
// 1472       zclSampleLight_ProcessInWriteRspCmd( pInMsg );
??zclSampleLight_ProcessIncomingMsg_1:
        LCALL     ?Subroutine5 & 0xFFFF
??CrossCallReturnLabel_1:
        MOVX      A,@DPTR
        MOV       R1,A
        MOV       A,R0
        CLR       C
        SUBB      A,R1
        JNC       ??zclSampleLight_ProcessIncomingMsg_5
        INC       R0
        SJMP      ??CrossCallReturnLabel_1
// 1473       break;
// 1474 #endif
// 1475 #ifdef ZCL_REPORT
// 1476     case ZCL_CMD_CONFIG_REPORT:
// 1477     	break;
// 1478 	
// 1479     case ZCL_CMD_CONFIG_REPORT_RSP:
// 1480     	break;
// 1481 	
// 1482     case ZCL_CMD_READ_REPORT_CFG:
// 1483     	break;
// 1484 	
// 1485     case ZCL_CMD_READ_REPORT_CFG_RSP:
// 1486     	break;
// 1487 	
// 1488     case ZCL_CMD_REPORT:
// 1489       //bdb_ProcessIncomingReportingMsg( pInMsg );
// 1490       break;
// 1491 
// 1492     case ZCL_CMD_DEFAULT_RSP:
// 1493       zclSampleLight_ProcessInDefaultRspCmd( pInMsg );
// 1494       break;
// 1495 #endif  
// 1496     case ZCL_CMD_DEFAULT_RSP:
// 1497       zclSampleLight_ProcessInDefaultRspCmd( pInMsg );
// 1498       break;
// 1499       
// 1500 #ifdef ZCL_DISCOVER     
// 1501 //    case ZCL_CMD_DISCOVER_RSP:
// 1502 //      zclSampleLight_ProcessInDiscCmdsRspCmd( pInMsg );
// 1503 //      break;
// 1504 
// 1505 
// 1506     case ZCL_CMD_DISCOVER_CMDS_RECEIVED_RSP:
// 1507       zclSampleLight_ProcessInDiscCmdsRspCmd( pInMsg );
??zclSampleLight_ProcessIncomingMsg_3:
        ; Setup parameters for call to function zclSampleLight_ProcessInDiscCmdsRspCmd
// 1508       break;
// 1509 
// 1510     case ZCL_CMD_DISCOVER_CMDS_GEN_RSP:
// 1511       zclSampleLight_ProcessInDiscCmdsRspCmd( pInMsg );
        ; Setup parameters for call to function zclSampleLight_ProcessInDiscCmdsRspCmd
        LCALL     `??zclSampleLight_ProcessInDiscCmdsRspCmd::?rela`; Banked call to: zclSampleLight_ProcessInDiscCmdsRspCmd
// 1512       break;
        SJMP      ??zclSampleLight_ProcessIncomingMsg_5
// 1513 
// 1514     case ZCL_CMD_DISCOVER_ATTRS_RSP:
// 1515       zclSampleLight_ProcessInDiscAttrsRspCmd( pInMsg );
??zclSampleLight_ProcessIncomingMsg_2:
        LCALL     ?Subroutine4 & 0xFFFF
??CrossCallReturnLabel_11:
        MOV       DPL,R0
        MOV       DPH,R1
        INC       DPTR
        MOVX      A,@DPTR
        MOV       R3,A
        MOV       A,R2
        CLR       C
        SUBB      A,R3
        JNC       ??zclSampleLight_ProcessIncomingMsg_5
        INC       R2
        SJMP      ??CrossCallReturnLabel_11
// 1516       break;
// 1517 
// 1518     case ZCL_CMD_DISCOVER_ATTRS_EXT_RSP:
// 1519       zclSampleLight_ProcessInDiscAttrsExtRspCmd( pInMsg );
??zclSampleLight_ProcessIncomingMsg_4:
        LCALL     ?Subroutine4 & 0xFFFF
// 1520       break;
// 1521 #endif
// 1522     default:
// 1523       break;
// 1524   }
??CrossCallReturnLabel_12:
        SJMP      ??zclSampleLight_ProcessIncomingMsg_6
??zclSampleLight_ProcessIncomingMsg_7:
        INC       R2
??zclSampleLight_ProcessIncomingMsg_6:
        MOV       DPL,R0
        MOV       DPH,R1
        INC       DPTR
        MOVX      A,@DPTR
        MOV       R3,A
        MOV       A,R2
        CLR       C
        SUBB      A,R3
        JC        ??zclSampleLight_ProcessIncomingMsg_7
// 1525 
// 1526   if ( pInMsg->attrCmd )
??zclSampleLight_ProcessIncomingMsg_5:
        MOV       DPL,R6
        MOV       DPH,R7
        MOVX      A,@DPTR
        MOV       R2,A
        INC       DPTR
        MOVX      A,@DPTR
        MOV       R3,A
        MOV       A,R2
        ORL       A,R3
        JZ        ??zclSampleLight_ProcessIncomingMsg_8
// 1527     osal_mem_free( pInMsg->attrCmd );
        ; Setup parameters for call to function osal_mem_free
        LCALL     `??osal_mem_free::?relay`; Banked call to: osal_mem_free
// 1528 }
??zclSampleLight_ProcessIncomingMsg_8:
        LJMP      ?Subroutine0 & 0xFFFF
          CFI EndBlock cfiBlock30

        RSEG BANKED_CODE:HUGECODE:NOROOT(0)
?Subroutine5:
          CFI Block cfiCond31 Using cfiCommon0
          CFI Function zclSampleLight_ProcessIncomingMsg
          CFI Conditional ??CrossCallReturnLabel_0
          CFI R6 load(1, XDATA, add(CFA_XSP16, literal(-9)))
          CFI VB load(1, XDATA, add(CFA_XSP16, literal(-8)))
          CFI V0 load(1, XDATA, add(CFA_XSP16, literal(-7)))
          CFI R7 load(1, XDATA, add(CFA_XSP16, literal(-6)))
          CFI ?RET_LOW load(1, XDATA, add(CFA_XSP16, literal(-5)))
          CFI ?RET_HIGH load(1, XDATA, add(CFA_XSP16, literal(-4)))
          CFI ?BRET_EXT load(1, XDATA, add(CFA_XSP16, literal(-3)))
          CFI DPL0 load(1, XDATA, add(CFA_XSP16, literal(-2)))
          CFI DPH0 load(1, XDATA, add(CFA_XSP16, literal(-1)))
          CFI CFA_SP SP+-2
          CFI CFA_XSP16 add(XSP16, 9)
          CFI Block cfiCond32 Using cfiCommon0
          CFI (cfiCond32) Function zclSampleLight_ProcessIncomingMsg
          CFI (cfiCond32) Conditional ??CrossCallReturnLabel_1
          CFI (cfiCond32) R6 load(1, XDATA, add(CFA_XSP16, literal(-9)))
          CFI (cfiCond32) VB load(1, XDATA, add(CFA_XSP16, literal(-8)))
          CFI (cfiCond32) V0 load(1, XDATA, add(CFA_XSP16, literal(-7)))
          CFI (cfiCond32) R7 load(1, XDATA, add(CFA_XSP16, literal(-6)))
          CFI (cfiCond32) ?RET_LOW load(1, XDATA, add(CFA_XSP16, literal(-5)))
          CFI (cfiCond32) ?RET_HIGH load(1, XDATA, add(CFA_XSP16, literal(-4)))
          CFI (cfiCond32) ?BRET_EXT load(1, XDATA, add(CFA_XSP16, literal(-3)))
          CFI (cfiCond32) DPL0 load(1, XDATA, add(CFA_XSP16, literal(-2)))
          CFI (cfiCond32) DPH0 load(1, XDATA, add(CFA_XSP16, literal(-1)))
          CFI (cfiCond32) CFA_SP SP+-2
          CFI (cfiCond32) CFA_XSP16 add(XSP16, 9)
          CFI Block cfiPicker33 Using cfiCommon1
          CFI (cfiPicker33) NoFunction
          CFI (cfiPicker33) Picker
        MOV       DPL,R0
        MOV       DPH,R1
        MOVX      A,@DPTR
        MOV       R0,A
        INC       DPTR
        MOVX      A,@DPTR
        MOV       DPL,R0
        MOV       DPH,A
        MOV       R0,#0x0
        RET
          CFI EndBlock cfiCond31
          CFI EndBlock cfiCond32
          CFI EndBlock cfiPicker33

        RSEG BANKED_CODE:HUGECODE:NOROOT(0)
?Subroutine4:
          CFI Block cfiCond34 Using cfiCommon0
          CFI Function zclSampleLight_ProcessIncomingMsg
          CFI Conditional ??CrossCallReturnLabel_11
          CFI R6 load(1, XDATA, add(CFA_XSP16, literal(-9)))
          CFI VB load(1, XDATA, add(CFA_XSP16, literal(-8)))
          CFI V0 load(1, XDATA, add(CFA_XSP16, literal(-7)))
          CFI R7 load(1, XDATA, add(CFA_XSP16, literal(-6)))
          CFI ?RET_LOW load(1, XDATA, add(CFA_XSP16, literal(-5)))
          CFI ?RET_HIGH load(1, XDATA, add(CFA_XSP16, literal(-4)))
          CFI ?BRET_EXT load(1, XDATA, add(CFA_XSP16, literal(-3)))
          CFI DPL0 load(1, XDATA, add(CFA_XSP16, literal(-2)))
          CFI DPH0 load(1, XDATA, add(CFA_XSP16, literal(-1)))
          CFI CFA_SP SP+-2
          CFI CFA_XSP16 add(XSP16, 9)
          CFI Block cfiCond35 Using cfiCommon0
          CFI (cfiCond35) Function zclSampleLight_ProcessIncomingMsg
          CFI (cfiCond35) Conditional ??CrossCallReturnLabel_12
          CFI (cfiCond35) R6 load(1, XDATA, add(CFA_XSP16, literal(-9)))
          CFI (cfiCond35) VB load(1, XDATA, add(CFA_XSP16, literal(-8)))
          CFI (cfiCond35) V0 load(1, XDATA, add(CFA_XSP16, literal(-7)))
          CFI (cfiCond35) R7 load(1, XDATA, add(CFA_XSP16, literal(-6)))
          CFI (cfiCond35) ?RET_LOW load(1, XDATA, add(CFA_XSP16, literal(-5)))
          CFI (cfiCond35) ?RET_HIGH load(1, XDATA, add(CFA_XSP16, literal(-4)))
          CFI (cfiCond35) ?BRET_EXT load(1, XDATA, add(CFA_XSP16, literal(-3)))
          CFI (cfiCond35) DPL0 load(1, XDATA, add(CFA_XSP16, literal(-2)))
          CFI (cfiCond35) DPH0 load(1, XDATA, add(CFA_XSP16, literal(-1)))
          CFI (cfiCond35) CFA_SP SP+-2
          CFI (cfiCond35) CFA_XSP16 add(XSP16, 9)
          CFI Block cfiPicker36 Using cfiCommon1
          CFI (cfiPicker36) NoFunction
          CFI (cfiPicker36) Picker
        MOV       DPL,R0
        MOV       DPH,R1
          CFI EndBlock cfiCond34
          CFI EndBlock cfiCond35
          CFI EndBlock cfiPicker36
        REQUIRE ??Subroutine11_0
        ; // Fall through to label ??Subroutine11_0

        RSEG BANKED_CODE:HUGECODE:NOROOT(0)
??Subroutine11_0:
          CFI Block cfiCond37 Using cfiCommon0
          CFI Function zclSampleLight_ProcessInDiscCmdsRspCmd
          CFI Conditional ??CrossCallReturnLabel_10
          CFI DPL0 Frame(CFA_SP, 4)
          CFI DPH0 Frame(CFA_SP, 5)
          CFI CFA_SP SP+-7
          CFI Block cfiCond38 Using cfiCommon0
          CFI (cfiCond38) Function zclSampleLight_ProcessIncomingMsg
          CFI (cfiCond38) Conditional ??CrossCallReturnLabel_11
          CFI (cfiCond38) R6 load(1, XDATA, add(CFA_XSP16, literal(-9)))
          CFI (cfiCond38) VB load(1, XDATA, add(CFA_XSP16, literal(-8)))
          CFI (cfiCond38) V0 load(1, XDATA, add(CFA_XSP16, literal(-7)))
          CFI (cfiCond38) R7 load(1, XDATA, add(CFA_XSP16, literal(-6)))
          CFI (cfiCond38) ?RET_LOW load(1, XDATA, add(CFA_XSP16, literal(-5)))
          CFI (cfiCond38) ?RET_HIGH load(1, XDATA, add(CFA_XSP16, literal(-4)))
          CFI (cfiCond38) ?BRET_EXT load(1, XDATA, add(CFA_XSP16, literal(-3)))
          CFI (cfiCond38) DPL0 load(1, XDATA, add(CFA_XSP16, literal(-2)))
          CFI (cfiCond38) DPH0 load(1, XDATA, add(CFA_XSP16, literal(-1)))
          CFI (cfiCond38) CFA_SP SP+-2
          CFI (cfiCond38) CFA_XSP16 add(XSP16, 9)
          CFI Block cfiCond39 Using cfiCommon0
          CFI (cfiCond39) Function zclSampleLight_ProcessIncomingMsg
          CFI (cfiCond39) Conditional ??CrossCallReturnLabel_12
          CFI (cfiCond39) R6 load(1, XDATA, add(CFA_XSP16, literal(-9)))
          CFI (cfiCond39) VB load(1, XDATA, add(CFA_XSP16, literal(-8)))
          CFI (cfiCond39) V0 load(1, XDATA, add(CFA_XSP16, literal(-7)))
          CFI (cfiCond39) R7 load(1, XDATA, add(CFA_XSP16, literal(-6)))
          CFI (cfiCond39) ?RET_LOW load(1, XDATA, add(CFA_XSP16, literal(-5)))
          CFI (cfiCond39) ?RET_HIGH load(1, XDATA, add(CFA_XSP16, literal(-4)))
          CFI (cfiCond39) ?BRET_EXT load(1, XDATA, add(CFA_XSP16, literal(-3)))
          CFI (cfiCond39) DPL0 load(1, XDATA, add(CFA_XSP16, literal(-2)))
          CFI (cfiCond39) DPH0 load(1, XDATA, add(CFA_XSP16, literal(-1)))
          CFI (cfiCond39) CFA_SP SP+-2
          CFI (cfiCond39) CFA_XSP16 add(XSP16, 9)
          CFI Block cfiPicker40 Using cfiCommon1
          CFI (cfiPicker40) NoFunction
          CFI (cfiPicker40) Picker
        MOVX      A,@DPTR
        MOV       R0,A
        INC       DPTR
        MOVX      A,@DPTR
        MOV       R1,A
        MOV       R2,#0x0
        RET
          CFI EndBlock cfiCond37
          CFI EndBlock cfiCond38
          CFI EndBlock cfiCond39
          CFI EndBlock cfiPicker40
// 1529 
// 1530 #ifdef ZCL_READ
// 1531 /*********************************************************************
// 1532  * @fn      zclSampleLight_ProcessInReadRspCmd
// 1533  *
// 1534  * @brief   Process the "Profile" Read Response Command
// 1535  *
// 1536  * @param   pInMsg - incoming message to process
// 1537  *
// 1538  * @return  none
// 1539  */
// 1540 static uint8 zclSampleLight_ProcessInReadRspCmd( zclIncomingMsg_t *pInMsg )
// 1541 {
// 1542   zclReadRspCmd_t *readRspCmd;
// 1543   uint8 i;
// 1544 
// 1545   readRspCmd = (zclReadRspCmd_t *)pInMsg->attrCmd;
// 1546   for (i = 0; i < readRspCmd->numAttr; i++)
// 1547   {
// 1548     // Notify the originator of the results of the original read attributes
// 1549     // attempt and, for each successfull request, the value of the requested
// 1550     // attribute
// 1551   }
// 1552 
// 1553   return ( TRUE );
// 1554 }
// 1555 #endif // ZCL_READ
// 1556 
// 1557 
// 1558 
// 1559 
// 1560 
// 1561 #ifdef ZCL_WRITE
// 1562 /*********************************************************************
// 1563  * @fn      zclSampleLight_ProcessInWriteRspCmd
// 1564  *
// 1565  * @brief   Process the "Profile" Write Response Command
// 1566  *
// 1567  * @param   pInMsg - incoming message to process
// 1568  *
// 1569  * @return  none
// 1570  */
// 1571 static uint8 zclSampleLight_ProcessInWriteRspCmd( zclIncomingMsg_t *pInMsg )
// 1572 {
// 1573   zclWriteRspCmd_t *writeRspCmd;
// 1574   uint8 i;
// 1575 
// 1576   writeRspCmd = (zclWriteRspCmd_t *)pInMsg->attrCmd;
// 1577   for ( i = 0; i < writeRspCmd->numAttr; i++ )
// 1578   {
// 1579     // Notify the device of the results of the its original write attributes
// 1580     // command.
// 1581   }
// 1582 
// 1583   return ( TRUE );
// 1584 }
// 1585 #endif // ZCL_WRITE
// 1586 
// 1587 
// 1588 
// 1589 
// 1590 
// 1591 
// 1592 
// 1593 /*********************************************************************
// 1594  * @fn      zclSampleLight_ProcessInDefaultRspCmd
// 1595  *
// 1596  * @brief   Process the "Profile" Default Response Command
// 1597  *
// 1598  * @param   pInMsg - incoming message to process
// 1599  *
// 1600  * @return  none
// 1601  */
// 1602 static uint8 zclSampleLight_ProcessInDefaultRspCmd( zclIncomingMsg_t *pInMsg )
// 1603 {
// 1604   // zclDefaultRspCmd_t *defaultRspCmd = (zclDefaultRspCmd_t *)pInMsg->attrCmd;
// 1605 
// 1606   // Device is notified of the Default Response command.
// 1607   (void)pInMsg;
// 1608 
// 1609   return ( TRUE );
// 1610 }
// 1611 
// 1612 
// 1613 
// 1614 
// 1615 
// 1616 #ifdef ZCL_DISCOVER
// 1617 /*********************************************************************
// 1618  * @fn      zclSampleLight_ProcessInDiscCmdsRspCmd
// 1619  *
// 1620  * @brief   Process the Discover Commands Response Command
// 1621  *
// 1622  * @param   pInMsg - incoming message to process
// 1623  *
// 1624  * @return  none
// 1625  */

        RSEG BANKED_CODE:HUGECODE:NOROOT(0)
// 1626 static uint8 zclSampleLight_ProcessInDiscCmdsRspCmd( zclIncomingMsg_t *pInMsg )
zclSampleLight_ProcessInDiscCmdsRspCmd:
          CFI Block cfiBlock41 Using cfiCommon0
          CFI Function zclSampleLight_ProcessInDiscCmdsRspCmd
        CODE
// 1627 {
        PUSH      DPL
          CFI DPL0 Frame(CFA_SP, 4)
          CFI CFA_SP SP+-4
        PUSH      DPH
          CFI DPH0 Frame(CFA_SP, 5)
          CFI CFA_SP SP+-5
        ; Saved register size: 2
        ; Auto size: 0
// 1628   zclDiscoverCmdsCmdRsp_t *discoverRspCmd;
// 1629   uint8 i;
// 1630 
// 1631   discoverRspCmd = (zclDiscoverCmdsCmdRsp_t *)pInMsg->attrCmd;
        MOV       A,R2
        ADD       A,#0x17
        MOV       DPL,A
        CLR       A
        ADDC      A,R3
        MOV       DPH,A
        LCALL     ??Subroutine11_0 & 0xFFFF
// 1632   for ( i = 0; i < discoverRspCmd->numCmd; i++ )
??CrossCallReturnLabel_10:
        SJMP      ??zclSampleLight_ProcessInDiscCmdsRspCmd_0
??zclSampleLight_ProcessInDiscCmdsRspCmd_1:
        INC       R2
??zclSampleLight_ProcessInDiscCmdsRspCmd_0:
        MOV       DPL,R0
        MOV       DPH,R1
        INC       DPTR
        INC       DPTR
        MOVX      A,@DPTR
        MOV       R3,A
        MOV       A,R2
        CLR       C
        SUBB      A,R3
        JC        ??zclSampleLight_ProcessInDiscCmdsRspCmd_1
// 1633   {
// 1634     // Device is notified of the result of its attribute discovery command.
// 1635   }
// 1636 
// 1637   return ( TRUE );
        MOV       R1,#0x1
        LJMP      ??Subroutine10_0 & 0xFFFF
// 1638 }
          CFI EndBlock cfiBlock41

        RSEG XDATA_ID:CODE:NOROOT(0)
`?<Initializer for bindingInClusters>`:
        DATA16
        DW 6
        DW 8

        RSEG XDATA_ID:CODE:NOROOT(0)
`?<Initializer for sampleLight_TestEp>`:
        DATA8
        DB 8
        DB 0
        DATA16
        DW zclSampleLight_TaskID
        DW 0H
        DATA8
        DB 0

        RSEG XDATA_ID:CODE:NOROOT(0)
`?<Initializer for zclSampleLight_NwkState>`:
        DATA8
        DB 1

        RSEG XDATA_ID:CODE:NOROOT(0)
`?<Initializer for zclSampleLight_CmdCallbacks>`:
        DATA16
        DW `??zclSampleLight_BasicResetCB::?relay`
        DW `??zclSampleLight_IdentifyCB::?relay`
        DW `??zclSampleLight_IdentifyQueryRspCB::?relay`
        DW `??zclSampleLight_OnOffCB::?relay`
        DW 0H
        DW 0H
        DW 0H
        DW 0H
        DW 0H
        DW 0H
        DW 0H
        DW 0H
        DW 0H
        DW 0H
        DW 0H
        DW 0H

        RSEG XDATA_ROM_C:CONST:REORDER:NOROOT(0)
        DATA32
__Constant_3e8:
        DD 1000

        RSEG XDATA_ROM_C:CONST:REORDER:NOROOT(0)
        DATA32
__Constant_7d0:
        DD 2000

        RSEG XDATA_ROM_C:CONST:REORDER:NOROOT(0)
        DATA32
__Constant_64:
        DD 100

        RSEG BANK_RELAYS:CODE:REORDER:NOROOT(0)
`??zclSampleLight_Init::?relay`:
        CODE
        LCALL   ?BDISPATCH
        DATA24
        DC24    zclSampleLight_Init

        RSEG BANK_RELAYS:CODE:REORDER:NOROOT(0)
`??zclSampleLight_event_loop::?relay`:
        CODE
        LCALL   ?BDISPATCH
        DATA24
        DC24    zclSampleLight_event_loop

        RSEG BANK_RELAYS:CODE:REORDER:NOROOT(0)
`??zclSampleLight_ReportOnOff::?relay`:
        CODE
        LCALL   ?BDISPATCH
        DATA24
        DC24    zclSampleLight_ReportOnOff

        RSEG BANK_RELAYS:CODE:REORDER:NOROOT(0)
`??zclSampleLight_ReportTemp::?relay`:
        CODE
        LCALL   ?BDISPATCH
        DATA24
        DC24    zclSampleLight_ReportTemp

        RSEG BANK_RELAYS:CODE:REORDER:NOROOT(0)
`??zclSampleLight_ProcessIdentifyTimeChange::?re`:
        CODE
        LCALL   ?BDISPATCH
        DATA24
        DC24    zclSampleLight_ProcessIdentifyTimeChange

        RSEG BANK_RELAYS:CODE:REORDER:NOROOT(0)
`??zclSampleLight_BasicResetCB::?relay`:
        CODE
        LCALL   ?BDISPATCH
        DATA24
        DC24    zclSampleLight_BasicResetCB

        RSEG BANK_RELAYS:CODE:REORDER:NOROOT(0)
`??zclSampleLight_IdentifyCB::?relay`:
        CODE
        LCALL   ?BDISPATCH
        DATA24
        DC24    zclSampleLight_IdentifyCB

        RSEG BANK_RELAYS:CODE:REORDER:NOROOT(0)
`??zclSampleLight_IdentifyQueryRspCB::?relay`:
        CODE
        LCALL   ?BDISPATCH
        DATA24
        DC24    zclSampleLight_IdentifyQueryRspCB

        RSEG BANK_RELAYS:CODE:REORDER:NOROOT(0)
`??zclSampleLight_OnOffCB::?relay`:
        CODE
        LCALL   ?BDISPATCH
        DATA24
        DC24    zclSampleLight_OnOffCB

        RSEG BANK_RELAYS:CODE:REORDER:NOROOT(0)
`??zclSampleLight_ProcessIncomingMsg::?relay`:
        CODE
        LCALL   ?BDISPATCH
        DATA24
        DC24    zclSampleLight_ProcessIncomingMsg

        RSEG BANK_RELAYS:CODE:REORDER:NOROOT(0)
`??zclSampleLight_ProcessInDiscCmdsRspCmd::?rela`:
        CODE
        LCALL   ?BDISPATCH
        DATA24
        DC24    zclSampleLight_ProcessInDiscCmdsRspCmd

        END
// 1639 //#endif // ZCL_DISCOVER
// 1640 
// 1641 
// 1642 
// 1643 
// 1644 
// 1645 /*********************************************************************
// 1646  * @fn      zclSampleLight_ProcessInDiscAttrsRspCmd
// 1647  *
// 1648  * @brief   Process the "Profile" Discover Attributes Response Command
// 1649  *
// 1650  * @param   pInMsg - incoming message to process
// 1651  *
// 1652  * @return  none
// 1653  */
// 1654 static uint8 zclSampleLight_ProcessInDiscAttrsRspCmd( zclIncomingMsg_t *pInMsg )
// 1655 {
// 1656   zclDiscoverAttrsRspCmd_t *discoverRspCmd;
// 1657   uint8 i;
// 1658 
// 1659   discoverRspCmd = (zclDiscoverAttrsRspCmd_t *)pInMsg->attrCmd;
// 1660   for ( i = 0; i < discoverRspCmd->numAttr; i++ )
// 1661   {
// 1662     // Device is notified of the result of its attribute discovery command.
// 1663   }
// 1664 
// 1665   return ( TRUE );
// 1666 }
// 1667 
// 1668 
// 1669 
// 1670 
// 1671 
// 1672 
// 1673 /*********************************************************************
// 1674  * @fn      zclSampleLight_ProcessInDiscAttrsExtRspCmd
// 1675  *
// 1676  * @brief   Process the "Profile" Discover Attributes Extended Response Command
// 1677  *
// 1678  * @param   pInMsg - incoming message to process
// 1679  *
// 1680  * @return  none
// 1681  */
// 1682 static uint8 zclSampleLight_ProcessInDiscAttrsExtRspCmd( zclIncomingMsg_t *pInMsg )
// 1683 {
// 1684   zclDiscoverAttrsExtRsp_t *discoverRspCmd;
// 1685   uint8 i;
// 1686 
// 1687   discoverRspCmd = (zclDiscoverAttrsExtRsp_t *)pInMsg->attrCmd;
// 1688   for ( i = 0; i < discoverRspCmd->numAttr; i++ )
// 1689   {
// 1690     // Device is notified of the result of its attribute discovery command.
// 1691   }
// 1692 
// 1693   return ( TRUE );
// 1694 }
// 1695 #endif // ZCL_DISCOVER
// 1696 //
// 1697 //void zclSampleLight_UiActionToggleLight(uint16 keys)
// 1698 //{
// 1699 //  zclSampleLight_OnOffCB(COMMAND_TOGGLE);
// 1700 //}
// 1701 //
// 1702 //void zclSampleLight_UpdateLedState(void)
// 1703 //{
// 1704 //  // set the LED1 based on light (on or off)
// 1705 //  if ( zclSampleLight_OnOff == LIGHT_ON )
// 1706 //  {
// 1707 //    HalLedSet ( UI_LED_APP, HAL_LED_MODE_ON );
// 1708 //  }
// 1709 //  else
// 1710 //  {
// 1711 //    HalLedSet ( UI_LED_APP, HAL_LED_MODE_OFF );
// 1712 //  }
// 1713 //}
// 1714 
// 1715 
// 1716 
// 1717 
// 1718 //void zclSampleLight_UiUpdateLcd(uint8 UiState, char * line[3])
// 1719 //{
// 1720 //#ifdef LCD_SUPPORTED
// 1721 //#ifdef ZCL_LEVEL_CTRL
// 1722 //  zclHA_uint8toa( zclSampleLight_LevelCurrentLevel, &sLightLevel[9] );
// 1723 //  line[0] = (char *)sLightLevel;
// 1724 //#endif // ZCL_LEVEL_CTRL
// 1725 //  line[1] = (char *)(zclSampleLight_OnOff ? sLightOn : sLightOff);
// 1726 //  line[2] = "< TOGGLE LIGHT >";
// 1727 //#endif
// 1728 //}
// 1729 
// 1730 /****************************************************************************
// 1731 ****************************************************************************/
// 1732 
// 
// 969 bytes in segment BANKED_CODE
//  66 bytes in segment BANK_RELAYS
//  44 bytes in segment XDATA_I
//  44 bytes in segment XDATA_ID
//  12 bytes in segment XDATA_ROM_C
//  27 bytes in segment XDATA_Z
// 
// 110 bytes of CODE     memory
//   0 bytes of CONST    memory (+ 12 bytes shared)
// 969 bytes of HUGECODE memory
//  71 bytes of XDATA    memory
//
//Errors: none
//Warnings: none
