///////////////////////////////////////////////////////////////////////////////
//
// IAR C/C++ Compiler V10.30.1.6000 for 8051              05/May/2021  18:21:36
// Copyright 2004-2018 IAR Systems AB.
// Evaluation license - IAR Embedded Workbench for 8051, Evaluation edition 10.40
//
//    Core               =  plain
//    Code model         =  banked
//    Data model         =  large
//    Calling convention =  xdata reentrant
//    Constant location  =  data_rom
//    Dptr setup         =  1,16
//                          
//    Source file        =  
//        C:\Texas Instruments\2. main recover\Z-Stack 3.0.2\Z-Stack
//        3.0.2\Projects\zstack\HomeAutomation\Source\zcl_sampleapps_ui.c
//    Command line       =  
//        -f C:\users\slavko\Temp\EW41a7.tmp ("C:\Texas Instruments\2. main
//        recover\Z-Stack 3.0.2\Z-Stack
//        3.0.2\Projects\zstack\HomeAutomation\Source\zcl_sampleapps_ui.c" -D
//        BDB_REPORTING -D SECURE=1 -D TC_LINKKEY_JOIN -D NV_INIT -D NV_RESTORE
//        -D xZTOOL_P1 -D xMT_TASK -D xMT_APP_FUNC -D xMT_SYS_FUNC -D
//        xMT_ZDO_FUNC -D xMT_ZDO_MGMT -D xMT_APP_CNF_FUNC -D
//        LCD_SUPPORTED=DEBUG -D MULTICAST_ENABLED=FALSE -D ZCL_READ -D
//        ZCL_DISCOVER -D ZCL_WRITE -D ZCL_BASIC -D ZCL_IDENTIFY -D ZCL_ON_OFF
//        -D ZCL_SCENES -D ZCL_GROUPS -D ZCL_LEVEL_CTRL -D HAL_LED=TRUE -D
//        HAL_KEY=TRUE -D BLINK_LEDS -lC "C:\Texas Instruments\2. main
//        recover\Z-Stack 3.0.2\Z-Stack
//        3.0.2\Projects\zstack\HomeAutomation\SampleLight\CC2530DB\RouterEB\List"
//        -lA "C:\Texas Instruments\2. main recover\Z-Stack 3.0.2\Z-Stack
//        3.0.2\Projects\zstack\HomeAutomation\SampleLight\CC2530DB\RouterEB\List"
//        --diag_suppress Pe001,Pa010 -o "C:\Texas Instruments\2. main
//        recover\Z-Stack 3.0.2\Z-Stack
//        3.0.2\Projects\zstack\HomeAutomation\SampleLight\CC2530DB\RouterEB\Obj"
//        -e --debug --core=plain --dptr=16,1 --data_model=large
//        --code_model=banked --calling_convention=xdata_reentrant
//        --place_constants=data_rom --nr_virtual_regs 16 -f "C:\Texas
//        Instruments\2. main recover\Z-Stack 3.0.2\Z-Stack
//        3.0.2\Projects\zstack\HomeAutomation\SampleLight\CC2530DB\..\..\..\Tools\CC2530DB\f8wRouter.cfg"
//        (-DCPU32MHZ -DROOT=__near_func -DMAC_CFG_APP_PENDING_QUEUE=TRUE
//        -DMAC_CFG_TX_DATA_MAX=5 -DMAC_CFG_TX_MAX=8 -DMAC_CFG_RX_MAX=5
//        -DRTR_NWK) -f "C:\Texas Instruments\2. main recover\Z-Stack
//        3.0.2\Z-Stack
//        3.0.2\Projects\zstack\HomeAutomation\SampleLight\CC2530DB\..\..\..\Tools\CC2530DB\f8wConfig.cfg"
//        (-DZIGBEEPRO -DSECURE=1 -DZG_SECURE_DYNAMIC=0 -DREFLECTOR
//        -DDEFAULT_CHANLIST=0x00000800 -DZDAPP_CONFIG_PAN_ID=0xFFFF
//        -DNWK_START_DELAY=100 -DEXTENDED_JOINING_RANDOM_MASK=0x007F
//        -DBEACON_REQUEST_DELAY=100 -DBEACON_REQ_DELAY_MASK=0x00FF
//        -DLINK_STATUS_JITTER_MASK=0x007F -DROUTE_EXPIRY_TIME=30
//        -DAPSC_ACK_WAIT_DURATION_POLLED=3000 -DNWK_INDIRECT_MSG_TIMEOUT=7
//        -DMAX_RREQ_ENTRIES=8 -DAPSC_MAX_FRAME_RETRIES=3
//        -DNWK_MAX_DATA_RETRIES=2 -DMAX_POLL_FAILURE_RETRIES=2 -DMAX_BCAST=9
//        -DAPS_MAX_GROUPS=16 -DMAX_RTG_ENTRIES=40 -DNWK_MAX_BINDING_ENTRIES=4
//        -DMAX_BINDING_CLUSTER_IDS=4 -DDEFAULT_KEY={0}
//        -DMAC_MAX_FRAME_SIZE=116 -DZDNWKMGR_MIN_TRANSMISSIONS=20
//        "-DCONST=const __code" -DGENERIC=__generic -DRFD_RCVC_ALWAYS_ON=FALSE
//        -DPOLL_RATE=1000 -DQUEUED_POLL_RATE=100 -DRESPONSE_POLL_RATE=100
//        -DREJOIN_POLL_RATE=440 -DREJOIN_BACKOFF=900000 -DREJOIN_SCAN=900000
//        -DENABLE_LED4_DISABLE_S1) -f "C:\Texas Instruments\2. main
//        recover\Z-Stack 3.0.2\Z-Stack
//        3.0.2\Projects\zstack\HomeAutomation\SampleLight\CC2530DB\..\..\..\Tools\CC2530DB\f8wZCL.cfg"
//        -I "C:\Texas Instruments\2. main recover\Z-Stack 3.0.2\Z-Stack
//        3.0.2\Projects\zstack\HomeAutomation\SampleLight\CC2530DB\" -I
//        "C:\Texas Instruments\2. main recover\Z-Stack 3.0.2\Z-Stack
//        3.0.2\Projects\zstack\HomeAutomation\SampleLight\CC2530DB\..\Source\"
//        -I "C:\Texas Instruments\2. main recover\Z-Stack 3.0.2\Z-Stack
//        3.0.2\Projects\zstack\HomeAutomation\SampleLight\CC2530DB\..\..\Source\"
//        -I "C:\Texas Instruments\2. main recover\Z-Stack 3.0.2\Z-Stack
//        3.0.2\Projects\zstack\HomeAutomation\SampleLight\CC2530DB\..\..\..\ZMain\TI2530DB\"
//        -I "C:\Texas Instruments\2. main recover\Z-Stack 3.0.2\Z-Stack
//        3.0.2\Projects\zstack\HomeAutomation\SampleLight\CC2530DB\..\..\..\..\..\Components\hal\include\"
//        -I "C:\Texas Instruments\2. main recover\Z-Stack 3.0.2\Z-Stack
//        3.0.2\Projects\zstack\HomeAutomation\SampleLight\CC2530DB\..\..\..\..\..\Components\hal\target\CC2530EB\"
//        -I "C:\Texas Instruments\2. main recover\Z-Stack 3.0.2\Z-Stack
//        3.0.2\Projects\zstack\HomeAutomation\SampleLight\CC2530DB\..\..\..\..\..\Components\mac\include\"
//        -I "C:\Texas Instruments\2. main recover\Z-Stack 3.0.2\Z-Stack
//        3.0.2\Projects\zstack\HomeAutomation\SampleLight\CC2530DB\..\..\..\..\..\Components\mac\high_level\"
//        -I "C:\Texas Instruments\2. main recover\Z-Stack 3.0.2\Z-Stack
//        3.0.2\Projects\zstack\HomeAutomation\SampleLight\CC2530DB\..\..\..\..\..\Components\mac\low_level\srf04\"
//        -I "C:\Texas Instruments\2. main recover\Z-Stack 3.0.2\Z-Stack
//        3.0.2\Projects\zstack\HomeAutomation\SampleLight\CC2530DB\..\..\..\..\..\Components\mac\low_level\srf04\single_chip\"
//        -I "C:\Texas Instruments\2. main recover\Z-Stack 3.0.2\Z-Stack
//        3.0.2\Projects\zstack\HomeAutomation\SampleLight\CC2530DB\..\..\..\..\..\Components\mt\"
//        -I "C:\Texas Instruments\2. main recover\Z-Stack 3.0.2\Z-Stack
//        3.0.2\Projects\zstack\HomeAutomation\SampleLight\CC2530DB\..\..\..\..\..\Components\osal\include\"
//        -I "C:\Texas Instruments\2. main recover\Z-Stack 3.0.2\Z-Stack
//        3.0.2\Projects\zstack\HomeAutomation\SampleLight\CC2530DB\..\..\..\..\..\Components\services\saddr\"
//        -I "C:\Texas Instruments\2. main recover\Z-Stack 3.0.2\Z-Stack
//        3.0.2\Projects\zstack\HomeAutomation\SampleLight\CC2530DB\..\..\..\..\..\Components\services\sdata\"
//        -I "C:\Texas Instruments\2. main recover\Z-Stack 3.0.2\Z-Stack
//        3.0.2\Projects\zstack\HomeAutomation\SampleLight\CC2530DB\..\..\..\..\..\Components\stack\af\"
//        -I "C:\Texas Instruments\2. main recover\Z-Stack 3.0.2\Z-Stack
//        3.0.2\Projects\zstack\HomeAutomation\SampleLight\CC2530DB\..\..\..\..\..\Components\stack\bdb\"
//        -I "C:\Texas Instruments\2. main recover\Z-Stack 3.0.2\Z-Stack
//        3.0.2\Projects\zstack\HomeAutomation\SampleLight\CC2530DB\..\..\..\..\..\Components\stack\nwk\"
//        -I "C:\Texas Instruments\2. main recover\Z-Stack 3.0.2\Z-Stack
//        3.0.2\Projects\zstack\HomeAutomation\SampleLight\CC2530DB\..\..\..\..\..\Components\stack\bdb\"
//        -I "C:\Texas Instruments\2. main recover\Z-Stack 3.0.2\Z-Stack
//        3.0.2\Projects\zstack\HomeAutomation\SampleLight\CC2530DB\..\..\..\..\..\Components\stack\gp\"
//        -I "C:\Texas Instruments\2. main recover\Z-Stack 3.0.2\Z-Stack
//        3.0.2\Projects\zstack\HomeAutomation\SampleLight\CC2530DB\..\..\..\..\..\Components\stack\sapi\"
//        -I "C:\Texas Instruments\2. main recover\Z-Stack 3.0.2\Z-Stack
//        3.0.2\Projects\zstack\HomeAutomation\SampleLight\CC2530DB\..\..\..\..\..\Components\stack\sec\"
//        -I "C:\Texas Instruments\2. main recover\Z-Stack 3.0.2\Z-Stack
//        3.0.2\Projects\zstack\HomeAutomation\SampleLight\CC2530DB\..\..\..\..\..\Components\stack\sys\"
//        -I "C:\Texas Instruments\2. main recover\Z-Stack 3.0.2\Z-Stack
//        3.0.2\Projects\zstack\HomeAutomation\SampleLight\CC2530DB\..\..\..\..\..\Components\stack\zcl\"
//        -I "C:\Texas Instruments\2. main recover\Z-Stack 3.0.2\Z-Stack
//        3.0.2\Projects\zstack\HomeAutomation\SampleLight\CC2530DB\..\..\..\..\..\Components\stack\zdo\"
//        -I "C:\Texas Instruments\2. main recover\Z-Stack 3.0.2\Z-Stack
//        3.0.2\Projects\zstack\HomeAutomation\SampleLight\CC2530DB\..\..\..\..\..\Components\zmac\"
//        -I "C:\Texas Instruments\2. main recover\Z-Stack 3.0.2\Z-Stack
//        3.0.2\Projects\zstack\HomeAutomation\SampleLight\CC2530DB\..\..\..\..\..\Components\zmac\f8w\"
//        -Ohz --require_prototypes)
//    Locale             =  English_USA.1252
//    List file          =  
//        C:\Texas Instruments\2. main recover\Z-Stack 3.0.2\Z-Stack
//        3.0.2\Projects\zstack\HomeAutomation\SampleLight\CC2530DB\RouterEB\List\zcl_sampleapps_ui.s51
//
///////////////////////////////////////////////////////////////////////////////

        NAME zcl_sampleapps_ui

        RTMODEL "__SystemLibrary", "CLib"
        RTMODEL "__calling_convention", "xdata_reentrant"
        RTMODEL "__code_model", "banked"
        RTMODEL "__core", "plain"
        RTMODEL "__data_model", "large"
        RTMODEL "__dptr_size", "16"
        RTMODEL "__extended_stack", "disabled"
        RTMODEL "__location_for_constants", "data"
        RTMODEL "__number_of_dptrs", "1"
        RTMODEL "__register_banks", "*"
        RTMODEL "__rt_version", "1"

        RSEG DOVERLAY:DATA:NOROOT(0)
        RSEG IOVERLAY:IDATA:NOROOT(0)
        RSEG ISTACK:IDATA:NOROOT(0)
        RSEG PSTACK:XDATA:NOROOT(0)
        RSEG XSTACK:XDATA:NOROOT(0)

        EXTERN ?V0
        EXTERN ?V1
        EXTERN ?V2
        EXTERN ?V3
        EXTERN ?V4
        EXTERN ?V5
        EXTERN ?V6
        EXTERN ?V7
        EXTERN ?V8
        EXTERN ?V9
        EXTERN ?V10
        EXTERN ?V11
        EXTERN ?V12
        EXTERN ?V13
        EXTERN ?V14
        EXTERN ?V15
        EXTERN ?ALLOC_XSTACK8
        EXTERN ?BANKED_ENTER_XDATA
        EXTERN ?BANKED_LEAVE_XDATA
        EXTERN ?BDISPATCH
        EXTERN ?BRET
        EXTERN ?CALL_IND
        EXTERN ?DEALLOC_XSTACK8
        EXTERN ?L_AND
        EXTERN ?L_AND_TO_X
        EXTERN ?L_IOR_TO_X
        EXTERN ?L_NOT
        EXTERN ?L_SHL
        EXTERN ?PUSH_XSTACK8_X_FOUR
        EXTERN ?PUSH_XSTACK8_X_TWO
        EXTERN ?PUSH_XSTACK_I_ONE
        EXTERN ?PUSH_XSTACK_I_THREE
        EXTERN ?PUSH_XSTACK_I_TWO
        EXTERN ?SS_SHR
        EXTERN ?S_DIV_MOD
        EXTERN ?UC_SWITCH_SPARSE
        EXTERN ?UL_DIV_MOD
        EXTERN ?US_SHR
        EXTERN ?US_SWITCH_DENSE
        EXTERN ?XLOAD_R2345
        EXTERN ?XSP
        EXTERN ?XSTACK_DISP0_8
        EXTERN ?XSTACK_DISP100_8
        EXTERN ?XSTACK_DISP101_8
        EXTERN __INIT_XDATA_I
        EXTERN __INIT_XDATA_Z

        PUBLIC `??UI_ActionBackFromAppMenu::?relay`
        FUNCTION `??UI_ActionBackFromAppMenu::?relay`,0203H
        PUBLIC `??UI_DeviceStateUpdated::?relay`
        FUNCTION `??UI_DeviceStateUpdated::?relay`,0203H
        PUBLIC `??UI_Init::?relay`
        FUNCTION `??UI_Init::?relay`,0203H
        PUBLIC `??UI_MainStateMachine::?relay`
        FUNCTION `??UI_MainStateMachine::?relay`,0203H
        PUBLIC `??UI_UpdateComissioningStatus::?relay`
        FUNCTION `??UI_UpdateComissioningStatus::?relay`,0203H
        PUBLIC `??UI_UpdateLcd::?relay`
        FUNCTION `??UI_UpdateLcd::?relay`,0203H
        FUNCTION `??uiActionAppSecificMenu::?relay`,0203H
        FUNCTION `??uiActionConfigureEnables::?relay`,0203H
        FUNCTION `??uiActionMenuJump::?relay`,0203H
        FUNCTION `??uiActionProcessConfigureChannels::?relay`,0203H
        FUNCTION `??uiActionProcessConfigurePanId::?relay`,0203H
        FUNCTION `??uiActionProcessPrepareInstallCode::?relay`,0203H
        FUNCTION `??uiActionResetToFactoryNew::?relay`,0203H
        FUNCTION `??uiActionSetInstallCode::?relay`,0203H
        FUNCTION `??uiActionStartComissioning::?relay`,0203H
        FUNCTION `??uiArrayToString::?relay`,0203H
        FUNCTION `??uiCreateChannelMaskString::?relay`,0203H
        FUNCTION `??uiProcessBindNotification::?relay`,0203H
        FUNCTION `??uiProcessIdentifyTimeChange::?relay`,0203H
        FUNCTION `??uiProcessPermitJoin::?relay`,0203H
        FUNCTION `??uiUintToString::?relay`,0203H
        PUBLIC UI_ActionBackFromAppMenu
        FUNCTION UI_ActionBackFromAppMenu,0203H
        ARGFRAME XSTACK, 0, STACK
        LOCFRAME ISTACK, 2, STACK
        PUBLIC UI_DeviceStateUpdated
        FUNCTION UI_DeviceStateUpdated,021203H
        ARGFRAME XSTACK, 0, STACK
        LOCFRAME XSTACK, 9, STACK
        PUBLIC UI_Init
        FUNCTION UI_Init,021203H
        ARGFRAME XSTACK, 8, STACK
        LOCFRAME XSTACK, 9, STACK
        PUBLIC UI_MainStateMachine
        FUNCTION UI_MainStateMachine,0a1203H
        ARGFRAME XSTACK, 0, STACK
        LOCFRAME XSTACK, 9, STACK
        PUBLIC UI_UpdateComissioningStatus
        FUNCTION UI_UpdateComissioningStatus,021203H
        ARGFRAME XSTACK, 0, STACK
        LOCFRAME ISTACK, 2, STACK
        PUBLIC UI_UpdateLcd
        FUNCTION UI_UpdateLcd,0a1203H
        ARGFRAME XSTACK, 9, STACK
        ARGFRAME IOVERLAY, 0, STATIC
        ARGFRAME DOVERLAY, 0, STATIC
        LOCFRAME ISTACK, 1, STACK
        LOCFRAME XSTACK, 81, STACK
        PUBWEAK __Constant_1f4
        PUBWEAK __Constant_fa
        FUNCTION uiActionAppSecificMenu,0603H
        ARGFRAME XSTACK, 0, STACK
        LOCFRAME ISTACK, 2, STACK
        FUNCTION uiActionConfigureEnables,080603H
        ARGFRAME XSTACK, 0, STACK
        LOCFRAME XSTACK, 10, STACK
        FUNCTION uiActionMenuJump,080603H
        ARGFRAME XSTACK, 0, STACK
        LOCFRAME XSTACK, 10, STACK
        FUNCTION uiActionProcessConfigureChannels,080603H
        ARGFRAME XSTACK, 0, STACK
        LOCFRAME XSTACK, 12, STACK
        FUNCTION uiActionProcessConfigurePanId,0a1603H
        ARGFRAME XSTACK, 0, STACK
        LOCFRAME XSTACK, 16, STACK
        FUNCTION uiActionProcessPrepareInstallCode,0a1603H
        ARGFRAME XSTACK, 0, STACK
        LOCFRAME ISTACK, 1, STACK
        LOCFRAME XSTACK, 16, STACK
        FUNCTION uiActionResetToFactoryNew,021603H
        ARGFRAME XSTACK, 0, STACK
        LOCFRAME ISTACK, 2, STACK
        FUNCTION uiActionSetInstallCode,0a1603H
        ARGFRAME XSTACK, 0, STACK
        LOCFRAME XSTACK, 10, STACK
        FUNCTION uiActionStartComissioning,021603H
        ARGFRAME XSTACK, 0, STACK
        LOCFRAME ISTACK, 2, STACK
        FUNCTION uiArrayToString,080203H
        ARGFRAME XSTACK, 77, STACK
        ARGFRAME IOVERLAY, 0, STATIC
        ARGFRAME DOVERLAY, 0, STATIC
        LOCFRAME ISTACK, 1, STACK
        LOCFRAME XSTACK, 18, STACK
        FUNCTION uiCreateChannelMaskString,080203H
        ARGFRAME XSTACK, 78, STACK
        ARGFRAME IOVERLAY, 0, STATIC
        ARGFRAME DOVERLAY, 0, STATIC
        LOCFRAME ISTACK, 1, STACK
        LOCFRAME XSTACK, 21, STACK
        FUNCTION uiProcessBindNotification,0603H
        ARGFRAME XSTACK, 0, STACK
        LOCFRAME ISTACK, 2, STACK
        FUNCTION uiProcessIdentifyTimeChange,021603H
        ARGFRAME XSTACK, 0, STACK
        LOCFRAME ISTACK, 2, STACK
        FUNCTION uiProcessPermitJoin,021603H
        ARGFRAME XSTACK, 0, STACK
        LOCFRAME ISTACK, 2, STACK
        FUNCTION uiUintToString,080203H
        ARGFRAME XSTACK, 81, STACK
        ARGFRAME IOVERLAY, 0, STATIC
        ARGFRAME DOVERLAY, 0, STATIC
        LOCFRAME ISTACK, 1, STACK
        LOCFRAME XSTACK, 25, STACK
        
          CFI Names cfiNames0
          CFI StackFrame CFA_SP SP IDATA
          CFI StackFrame CFA_PSP16 PSP16 XDATA
          CFI StackFrame CFA_XSP16 XSP16 XDATA
          CFI StaticOverlayFrame CFA_IOVERLAY IOVERLAY
          CFI StaticOverlayFrame CFA_DOVERLAY DOVERLAY
          CFI Resource `PSW.CY`:1, `B.BR0`:1, `B.BR1`:1, `B.BR2`:1, `B.BR3`:1
          CFI Resource `B.BR4`:1, `B.BR5`:1, `B.BR6`:1, `B.BR7`:1, `VB.BR8`:1
          CFI Resource `VB.BR9`:1, `VB.BR10`:1, `VB.BR11`:1, `VB.BR12`:1
          CFI Resource `VB.BR13`:1, `VB.BR14`:1, `VB.BR15`:1, VB:8, B:8, A:8
          CFI Resource PSW:8, DPL0:8, DPH0:8, R0:8, R1:8, R2:8, R3:8, R4:8, R5:8
          CFI Resource R6:8, R7:8, V0:8, V1:8, V2:8, V3:8, V4:8, V5:8, V6:8, V7:8
          CFI Resource V8:8, V9:8, V10:8, V11:8, V12:8, V13:8, V14:8, V15:8, SP:8
          CFI Resource PSPH:8, PSPL:8, PSP16:16, XSPH:8, XSPL:8, XSP16:16
          CFI VirtualResource ?RET:24
          CFI Resource ?BRET_EXT:8
          CFI VirtualResource ?RET_HIGH:8, ?RET_LOW:8
          CFI ResourceParts PSP16 PSPH, PSPL
          CFI ResourceParts XSP16 XSPH, XSPL
          CFI ResourceParts ?RET ?BRET_EXT, ?RET_HIGH, ?RET_LOW
          CFI EndNames cfiNames0
        
          CFI Common cfiCommon0 Using cfiNames0
          CFI CodeAlign 1
          CFI DataAlign -1
          CFI ReturnAddress ?RET CODE
          CFI CFA_DOVERLAY Used
          CFI CFA_IOVERLAY Used
          CFI CFA_SP SP+-3
          CFI CFA_PSP16 PSP16+0
          CFI CFA_XSP16 XSP16+0
          CFI `PSW.CY` SameValue
          CFI `B.BR0` SameValue
          CFI `B.BR1` SameValue
          CFI `B.BR2` SameValue
          CFI `B.BR3` SameValue
          CFI `B.BR4` SameValue
          CFI `B.BR5` SameValue
          CFI `B.BR6` SameValue
          CFI `B.BR7` SameValue
          CFI `VB.BR8` SameValue
          CFI `VB.BR9` SameValue
          CFI `VB.BR10` SameValue
          CFI `VB.BR11` SameValue
          CFI `VB.BR12` SameValue
          CFI `VB.BR13` SameValue
          CFI `VB.BR14` SameValue
          CFI `VB.BR15` SameValue
          CFI VB SameValue
          CFI B Undefined
          CFI A Undefined
          CFI PSW SameValue
          CFI DPL0 SameValue
          CFI DPH0 SameValue
          CFI R0 Undefined
          CFI R1 Undefined
          CFI R2 Undefined
          CFI R3 Undefined
          CFI R4 Undefined
          CFI R5 Undefined
          CFI R6 SameValue
          CFI R7 SameValue
          CFI V0 SameValue
          CFI V1 SameValue
          CFI V2 SameValue
          CFI V3 SameValue
          CFI V4 SameValue
          CFI V5 SameValue
          CFI V6 SameValue
          CFI V7 SameValue
          CFI V8 SameValue
          CFI V9 SameValue
          CFI V10 SameValue
          CFI V11 SameValue
          CFI V12 SameValue
          CFI V13 SameValue
          CFI V14 SameValue
          CFI V15 SameValue
          CFI PSPH Undefined
          CFI PSPL Undefined
          CFI XSPH Undefined
          CFI XSPL Undefined
          CFI ?RET Concat
          CFI ?BRET_EXT Frame(CFA_SP, 3)
          CFI ?RET_HIGH Frame(CFA_SP, 2)
          CFI ?RET_LOW Frame(CFA_SP, 1)
          CFI EndCommon cfiCommon0
        
        
          CFI Common cfiCommon1 Using cfiNames0
          CFI CodeAlign 1
          CFI DataAlign -1
          CFI ReturnAddress ?RET CODE
          CFI CFA_DOVERLAY Used
          CFI CFA_IOVERLAY Used
          CFI CFA_SP SP+-2
          CFI CFA_PSP16 PSP16+0
          CFI CFA_XSP16 XSP16+0
          CFI `PSW.CY` SameValue
          CFI `B.BR0` SameValue
          CFI `B.BR1` SameValue
          CFI `B.BR2` SameValue
          CFI `B.BR3` SameValue
          CFI `B.BR4` SameValue
          CFI `B.BR5` SameValue
          CFI `B.BR6` SameValue
          CFI `B.BR7` SameValue
          CFI `VB.BR8` SameValue
          CFI `VB.BR9` SameValue
          CFI `VB.BR10` SameValue
          CFI `VB.BR11` SameValue
          CFI `VB.BR12` SameValue
          CFI `VB.BR13` SameValue
          CFI `VB.BR14` SameValue
          CFI `VB.BR15` SameValue
          CFI VB SameValue
          CFI B SameValue
          CFI A SameValue
          CFI PSW SameValue
          CFI DPL0 SameValue
          CFI DPH0 SameValue
          CFI R0 SameValue
          CFI R1 SameValue
          CFI R2 SameValue
          CFI R3 SameValue
          CFI R4 SameValue
          CFI R5 SameValue
          CFI R6 SameValue
          CFI R7 SameValue
          CFI V0 SameValue
          CFI V1 SameValue
          CFI V2 SameValue
          CFI V3 SameValue
          CFI V4 SameValue
          CFI V5 SameValue
          CFI V6 SameValue
          CFI V7 SameValue
          CFI V8 SameValue
          CFI V9 SameValue
          CFI V10 SameValue
          CFI V11 SameValue
          CFI V12 SameValue
          CFI V13 SameValue
          CFI V14 SameValue
          CFI V15 SameValue
          CFI PSPH Undefined
          CFI PSPL Undefined
          CFI XSPH Undefined
          CFI XSPL Undefined
          CFI ?RET Concat
          CFI ?BRET_EXT SameValue
          CFI ?RET_HIGH Frame(CFA_SP, 2)
          CFI ?RET_LOW Frame(CFA_SP, 1)
          CFI EndCommon cfiCommon1
        
APSME_IsDistributedSecurity SYMBOL "APSME_IsDistributedSecurity"
`??APSME_IsDistributedSecurity::?relay` SYMBOL "?relay", APSME_IsDistributedSecurity
HalLcdWriteString   SYMBOL "HalLcdWriteString"
`??HalLcdWriteString::?relay` SYMBOL "?relay", HalLcdWriteString
HalLcd_HW_Clear     SYMBOL "HalLcd_HW_Clear"
`??HalLcd_HW_Clear::?relay` SYMBOL "?relay", HalLcd_HW_Clear
HalLedBlink         SYMBOL "HalLedBlink"
`??HalLedBlink::?relay` SYMBOL "?relay", HalLedBlink
HalLedSet           SYMBOL "HalLedSet"
`??HalLedSet::?relay` SYMBOL "?relay", HalLedSet
NLME_GetRemainingPermitJoiningDuration SYMBOL "NLME_GetRemainingPermitJoiningDuration"
`??NLME_GetRemainingPermitJoiningDuration::?rela` SYMBOL "?relay", NLME_GetRemainingPermitJoiningDuration
ZDO_RegisterForZdoCB SYMBOL "ZDO_RegisterForZdoCB"
`??ZDO_RegisterForZdoCB::?relay` SYMBOL "?relay", ZDO_RegisterForZdoCB
bdb_GenerateInstallCodeCRC SYMBOL "bdb_GenerateInstallCodeCRC"
`??bdb_GenerateInstallCodeCRC::?relay` SYMBOL "?relay", bdb_GenerateInstallCodeCRC
bdb_GetFBInitiatorStatus SYMBOL "bdb_GetFBInitiatorStatus"
`??bdb_GetFBInitiatorStatus::?relay` SYMBOL "?relay", bdb_GetFBInitiatorStatus
bdb_RegisterBindNotificationCB SYMBOL "bdb_RegisterBindNotificationCB"
`??bdb_RegisterBindNotificationCB::?relay` SYMBOL "?relay", bdb_RegisterBindNotificationCB
bdb_RegisterIdentifyTimeChangeCB SYMBOL "bdb_RegisterIdentifyTimeChangeCB"
`??bdb_RegisterIdentifyTimeChangeCB::?relay` SYMBOL "?relay", bdb_RegisterIdentifyTimeChangeCB
bdb_StartCommissioning SYMBOL "bdb_StartCommissioning"
`??bdb_StartCommissioning::?relay` SYMBOL "?relay", bdb_StartCommissioning
bdb_resetLocalAction SYMBOL "bdb_resetLocalAction"
`??bdb_resetLocalAction::?relay` SYMBOL "?relay", bdb_resetLocalAction
bdb_setActiveCentralizedLinkKey SYMBOL "bdb_setActiveCentralizedLinkKey"
`??bdb_setActiveCentralizedLinkKey::?relay` SYMBOL "?relay", bdb_setActiveCentralizedLinkKey
osal_memcpy         SYMBOL "osal_memcpy"
`??osal_memcpy::?relay` SYMBOL "?relay", osal_memcpy
osal_nv_item_len    SYMBOL "osal_nv_item_len"
`??osal_nv_item_len::?relay` SYMBOL "?relay", osal_nv_item_len
osal_nv_write       SYMBOL "osal_nv_write"
`??osal_nv_write::?relay` SYMBOL "?relay", osal_nv_write
osal_start_timerEx  SYMBOL "osal_start_timerEx"
`??osal_start_timerEx::?relay` SYMBOL "?relay", osal_start_timerEx
osal_stop_timerEx   SYMBOL "osal_stop_timerEx"
`??osal_stop_timerEx::?relay` SYMBOL "?relay", osal_stop_timerEx
UI_ActionBackFromAppMenu SYMBOL "UI_ActionBackFromAppMenu"
`??UI_ActionBackFromAppMenu::?relay` SYMBOL "?relay", UI_ActionBackFromAppMenu
UI_DeviceStateUpdated SYMBOL "UI_DeviceStateUpdated"
`??UI_DeviceStateUpdated::?relay` SYMBOL "?relay", UI_DeviceStateUpdated
UI_Init             SYMBOL "UI_Init"
`??UI_Init::?relay` SYMBOL "?relay", UI_Init
UI_MainStateMachine SYMBOL "UI_MainStateMachine"
`??UI_MainStateMachine::?relay` SYMBOL "?relay", UI_MainStateMachine
UI_UpdateComissioningStatus SYMBOL "UI_UpdateComissioningStatus"
`??UI_UpdateComissioningStatus::?relay` SYMBOL "?relay", UI_UpdateComissioningStatus
UI_UpdateLcd        SYMBOL "UI_UpdateLcd"
`??UI_UpdateLcd::?relay` SYMBOL "?relay", UI_UpdateLcd

        EXTERN `??APSME_IsDistributedSecurity::?relay`
        FUNCTION `??APSME_IsDistributedSecurity::?relay`,00H
        EXTERN `??HalLcdWriteString::?relay`
        FUNCTION `??HalLcdWriteString::?relay`,00H
        EXTERN `??HalLcd_HW_Clear::?relay`
        FUNCTION `??HalLcd_HW_Clear::?relay`,00H
        EXTERN `??HalLedBlink::?relay`
        FUNCTION `??HalLedBlink::?relay`,00H
        EXTERN `??HalLedSet::?relay`
        FUNCTION `??HalLedSet::?relay`,00H
        EXTERN `??NLME_GetRemainingPermitJoiningDuration::?rela`
        FUNCTION `??NLME_GetRemainingPermitJoiningDuration::?rela`,00H
        EXTERN `??ZDO_RegisterForZdoCB::?relay`
        FUNCTION `??ZDO_RegisterForZdoCB::?relay`,00H
        EXTERN `??bdb_GenerateInstallCodeCRC::?relay`
        FUNCTION `??bdb_GenerateInstallCodeCRC::?relay`,00H
        EXTERN `??bdb_GetFBInitiatorStatus::?relay`
        FUNCTION `??bdb_GetFBInitiatorStatus::?relay`,00H
        EXTERN `??bdb_RegisterBindNotificationCB::?relay`
        FUNCTION `??bdb_RegisterBindNotificationCB::?relay`,00H
        EXTERN `??bdb_RegisterIdentifyTimeChangeCB::?relay`
        FUNCTION `??bdb_RegisterIdentifyTimeChangeCB::?relay`,00H
        EXTERN `??bdb_StartCommissioning::?relay`
        FUNCTION `??bdb_StartCommissioning::?relay`,00H
        EXTERN `??bdb_resetLocalAction::?relay`
        FUNCTION `??bdb_resetLocalAction::?relay`,00H
        EXTERN `??bdb_setActiveCentralizedLinkKey::?relay`
        FUNCTION `??bdb_setActiveCentralizedLinkKey::?relay`,00H
        EXTERN `??osal_memcpy::?relay`
        FUNCTION `??osal_memcpy::?relay`,00H
        EXTERN `??osal_nv_item_len::?relay`
        FUNCTION `??osal_nv_item_len::?relay`,00H
        EXTERN `??osal_nv_write::?relay`
        FUNCTION `??osal_nv_write::?relay`,00H
        EXTERN `??osal_start_timerEx::?relay`
        FUNCTION `??osal_start_timerEx::?relay`,00H
        EXTERN `??osal_stop_timerEx::?relay`
        FUNCTION `??osal_stop_timerEx::?relay`,00H
        EXTERN APSME_IsDistributedSecurity
        FUNCTION APSME_IsDistributedSecurity,0202H
        ARGFRAME ISTACK, 0, STACK
        ARGFRAME PSTACK, 0, STACK
        ARGFRAME XSTACK, 76, STACK
        ARGFRAME IOVERLAY, 0, STATIC
        ARGFRAME DOVERLAY, 0, STATIC
        EXTERN HalLcdWriteString
        FUNCTION HalLcdWriteString,0202H
        ARGFRAME ISTACK, 0, STACK
        ARGFRAME PSTACK, 0, STACK
        ARGFRAME XSTACK, 76, STACK
        ARGFRAME IOVERLAY, 0, STATIC
        ARGFRAME DOVERLAY, 0, STATIC
        EXTERN HalLcd_HW_Clear
        FUNCTION HalLcd_HW_Clear,0202H
        ARGFRAME ISTACK, 0, STACK
        ARGFRAME PSTACK, 0, STACK
        ARGFRAME XSTACK, 76, STACK
        ARGFRAME IOVERLAY, 0, STATIC
        ARGFRAME DOVERLAY, 0, STATIC
        EXTERN HalLedBlink
        FUNCTION HalLedBlink,0202H
        ARGFRAME ISTACK, 2, STACK
        ARGFRAME PSTACK, 0, STACK
        ARGFRAME XSTACK, 9, STACK
        ARGFRAME IOVERLAY, 0, STATIC
        ARGFRAME DOVERLAY, 0, STATIC
        EXTERN HalLedSet
        FUNCTION HalLedSet,0202H
        ARGFRAME ISTACK, 2, STACK
        ARGFRAME PSTACK, 0, STACK
        ARGFRAME XSTACK, 0, STACK
        ARGFRAME IOVERLAY, 0, STATIC
        ARGFRAME DOVERLAY, 0, STATIC
        EXTERN NLME_GetRemainingPermitJoiningDuration
        FUNCTION NLME_GetRemainingPermitJoiningDuration,0202H
        ARGFRAME ISTACK, 0, STACK
        ARGFRAME PSTACK, 0, STACK
        ARGFRAME XSTACK, 76, STACK
        ARGFRAME IOVERLAY, 0, STATIC
        ARGFRAME DOVERLAY, 0, STATIC
        EXTERN ZDO_RegisterForZdoCB
        FUNCTION ZDO_RegisterForZdoCB,0202H
        ARGFRAME ISTACK, 0, STACK
        ARGFRAME PSTACK, 0, STACK
        ARGFRAME XSTACK, 9, STACK
        ARGFRAME IOVERLAY, 0, STATIC
        ARGFRAME DOVERLAY, 0, STATIC
        EXTERN _NIB
        EXTERN aExtendedAddress
        EXTERN bdbAttributes
        EXTERN bdb_GenerateInstallCodeCRC
        FUNCTION bdb_GenerateInstallCodeCRC,0202H
        ARGFRAME ISTACK, 0, STACK
        ARGFRAME PSTACK, 0, STACK
        ARGFRAME XSTACK, 16, STACK
        ARGFRAME IOVERLAY, 0, STATIC
        ARGFRAME DOVERLAY, 0, STATIC
        EXTERN bdb_GetFBInitiatorStatus
        FUNCTION bdb_GetFBInitiatorStatus,0202H
        ARGFRAME ISTACK, 0, STACK
        ARGFRAME PSTACK, 0, STACK
        ARGFRAME XSTACK, 76, STACK
        ARGFRAME IOVERLAY, 0, STATIC
        ARGFRAME DOVERLAY, 0, STATIC
        EXTERN bdb_RegisterBindNotificationCB
        FUNCTION bdb_RegisterBindNotificationCB,0202H
        ARGFRAME ISTACK, 0, STACK
        ARGFRAME PSTACK, 0, STACK
        ARGFRAME XSTACK, 9, STACK
        ARGFRAME IOVERLAY, 0, STATIC
        ARGFRAME DOVERLAY, 0, STATIC
        EXTERN bdb_RegisterIdentifyTimeChangeCB
        FUNCTION bdb_RegisterIdentifyTimeChangeCB,0202H
        ARGFRAME ISTACK, 0, STACK
        ARGFRAME PSTACK, 0, STACK
        ARGFRAME XSTACK, 9, STACK
        ARGFRAME IOVERLAY, 0, STATIC
        ARGFRAME DOVERLAY, 0, STATIC
        EXTERN bdb_StartCommissioning
        FUNCTION bdb_StartCommissioning,0202H
        ARGFRAME ISTACK, 2, STACK
        ARGFRAME PSTACK, 0, STACK
        ARGFRAME XSTACK, 9, STACK
        ARGFRAME IOVERLAY, 0, STATIC
        ARGFRAME DOVERLAY, 0, STATIC
        EXTERN bdb_resetLocalAction
        FUNCTION bdb_resetLocalAction,0202H
        ARGFRAME ISTACK, 2, STACK
        ARGFRAME PSTACK, 0, STACK
        ARGFRAME XSTACK, 0, STACK
        ARGFRAME IOVERLAY, 0, STATIC
        ARGFRAME DOVERLAY, 0, STATIC
        EXTERN bdb_setActiveCentralizedLinkKey
        FUNCTION bdb_setActiveCentralizedLinkKey,0202H
        ARGFRAME ISTACK, 0, STACK
        ARGFRAME PSTACK, 0, STACK
        ARGFRAME XSTACK, 10, STACK
        ARGFRAME IOVERLAY, 0, STATIC
        ARGFRAME DOVERLAY, 0, STATIC
        EXTERN osal_memcpy
        FUNCTION osal_memcpy,0202H
        ARGFRAME ISTACK, 0, STACK
        ARGFRAME PSTACK, 0, STACK
        ARGFRAME XSTACK, 79, STACK
        ARGFRAME IOVERLAY, 0, STATIC
        ARGFRAME DOVERLAY, 0, STATIC
        EXTERN osal_nv_item_len
        FUNCTION osal_nv_item_len,0202H
        ARGFRAME ISTACK, 0, STACK
        ARGFRAME PSTACK, 0, STACK
        ARGFRAME XSTACK, 12, STACK
        ARGFRAME IOVERLAY, 0, STATIC
        ARGFRAME DOVERLAY, 0, STATIC
        EXTERN osal_nv_write
        FUNCTION osal_nv_write,0202H
        ARGFRAME ISTACK, 0, STACK
        ARGFRAME PSTACK, 0, STACK
        ARGFRAME XSTACK, 16, STACK
        ARGFRAME IOVERLAY, 0, STATIC
        ARGFRAME DOVERLAY, 0, STATIC
        EXTERN osal_start_timerEx
        FUNCTION osal_start_timerEx,0202H
        ARGFRAME ISTACK, 0, STACK
        ARGFRAME PSTACK, 0, STACK
        ARGFRAME XSTACK, 80, STACK
        ARGFRAME IOVERLAY, 0, STATIC
        ARGFRAME DOVERLAY, 0, STATIC
        EXTERN osal_stop_timerEx
        FUNCTION osal_stop_timerEx,0202H
        ARGFRAME ISTACK, 0, STACK
        ARGFRAME PSTACK, 0, STACK
        ARGFRAME XSTACK, 76, STACK
        ARGFRAME IOVERLAY, 0, STATIC
        ARGFRAME DOVERLAY, 0, STATIC
        EXTERN zgConfigPANID

// C:\Texas Instruments\2. main recover\Z-Stack 3.0.2\Z-Stack 3.0.2\Projects\zstack\HomeAutomation\Source\zcl_sampleapps_ui.c
//    1 /**************************************************************************************************
//    2   Filename:       zcl_sampleapps_ui.c
//    3   Revised:        $Date: 2016-8-1 16:04:46 -0700 (Fri, 24 Oct 2014) $
//    4   Revision:       $Revision: 40796 $
//    5 
//    6 
//    7   Description:    Z-Stack Sample Application User Interface.
//    8 
//    9 
//   10   Copyright 2006-2016 Texas Instruments Incorporated. All rights reserved.
//   11 
//   12   IMPORTANT: Your use of this Software is limited to those specific rights
//   13   granted under the terms of a software license agreement between the user
//   14   who downloaded the software, his/her employer (which must be your employer)
//   15   and Texas Instruments Incorporated (the "License").  You may not use this
//   16   Software unless you agree to abide by the terms of the License. The License
//   17   limits your use, and you acknowledge, that the Software may not be modified,
//   18   copied or distributed unless embedded on a Texas Instruments microcontroller
//   19   or used solely and exclusively in conjunction with a Texas Instruments radio
//   20   frequency transceiver, which is integrated into your product.  Other than for
//   21   the foregoing purpose, you may not use, reproduce, copy, prepare derivative
//   22   works of, modify, distribute, perform, display or sell this Software and/or
//   23   its documentation for any purpose.
//   24 
//   25   YOU FURTHER ACKNOWLEDGE AND AGREE THAT THE SOFTWARE AND DOCUMENTATION ARE
//   26   PROVIDED "AS IS" WITHOUT WARRANTY OF ANY KIND, EITHER EXPRESS OR IMPLIED,
//   27   INCLUDING WITHOUT LIMITATION, ANY WARRANTY OF MERCHANTABILITY, TITLE,
//   28   NON-INFRINGEMENT AND FITNESS FOR A PARTICULAR PURPOSE. IN NO EVENT SHALL
//   29   TEXAS INSTRUMENTS OR ITS LICENSORS BE LIABLE OR OBLIGATED UNDER CONTRACT,
//   30   NEGLIGENCE, STRICT LIABILITY, CONTRIBUTION, BREACH OF WARRANTY, OR OTHER
//   31   LEGAL EQUITABLE THEORY ANY DIRECT OR INDIRECT DAMAGES OR EXPENSES
//   32   INCLUDING BUT NOT LIMITED TO ANY INCIDENTAL, SPECIAL, INDIRECT, PUNITIVE
//   33   OR CONSEQUENTIAL DAMAGES, LOST PROFITS OR LOST DATA, COST OF PROCUREMENT
//   34   OF SUBSTITUTE GOODS, TECHNOLOGY, SERVICES, OR ANY CLAIMS BY THIRD PARTIES
//   35   (INCLUDING BUT NOT LIMITED TO ANY DEFENSE THEREOF), OR OTHER SIMILAR COSTS.
//   36 
//   37   Should you have any questions regarding your right to use this Software,
//   38   contact Texas Instruments Incorporated at www.TI.com.
//   39 **************************************************************************************************/
//   40 
//   41 /*********************************************************************
//   42   This file implements the user interface that is common to most of the Z-Stack sample applications.
//   43 
//   44   The sample applications are intended for the following platforms:
//   45   - CC2530EM+SmartRF05
//   46   - CC2538EM+SmartRF06
//   47 
//   48   The UI peripherals being used:
//   49 
//   50   - LCD based menu system:
//   51     only using 3 lines of 16 characters each, for compatibility accross platforms.
//   52 
//   53   - Switches: 
//   54     Using 4 directional switches and one selection switch. On SmartRF05, these are implemented by
//   55     the joystick.
//   56 
//   57     - The switches have the following functionality, where applicable:
//   58       - Left/Right: depending on the menu screen, these are used for either:
//   59         - move to the previous/next menu screen
//   60         - move to the previous/next digit/sub-item within a menu screen
//   61       - Up/Down: change the value of the currently selected item
//   62       - Ok (Select): execute the operation associated with the current menu screeen
//   63 
//   64   - LEDs:
//   65     LED1 is used differently by the individual applications.
//   66     the 3 other LEDs are common accross all the applications, and function as follows:
//   67 
//   68     - LED2: device state and type
//   69       - Off: not connected to network
//   70       - Constantly on: connected to the network as an end device
//   71       - Blinking, 4 seconds period, 95% duty cycle: connected to the network as a router
//   72       - Blinking, 4 seconds period, 75% duty cycle: connected to the network as a coordinator
//   73 
//   74     - LED3: identify status
//   75       - Off: device is not identifying
//   76       - Blinking, 1 second period, 50% duty cycle: device is identifying
//   77 
//   78     - LED4: open for joining status
//   79       - Off: other devices cannot join through this device
//   80       - Blinking, 1 second period, 25% duty cycle: other devices can join using standard comissioning
//   81       - Blinking, 1 second period, 75% duty cycle: other devices can join using touchlink (i.e
//   82         touchlink is enabled on the current device as a target)
//   83       - On: device can join using either standard comissioning or touchlink
//   84 
//   85   The menu system:
//   86 
//   87     <HELP> Wellcome screen
//   88       Displays the sample application name.
//   89       Press and hold [OK] to show a simple help screen.
//   90       
//   91       Help screen
//   92       Release [OK] to go back to the welcome screen.
//   93       
//   94     <CONFIGURE> Configuration sub-menu
//   95       Press [OK] to display the configuration sub-menu
//   96       
//   97       <ADD INSTL CODE> install code sub-menu
//   98         Press [OK] to display the install code sub-menu
//   99         
//  100         <SET INSTL CODE> set install code
//  101           Press [OK] to to edit the install code
//  102           
//  103           Install code editing screen
//  104             Press [LEFT] / [RIGHT] to select a digit
//  105             Press [UP] / [DOWN] to change the selected digit
//  106             press [OK] to to go back to the higher menu level
//  107             
//  108         <SET I.C. ADDR> set install code address (coordinator only)
//  109           Press [OK] to to edit the install code address
//  110 
//  111           Install code address editing screen
//  112             Press [LEFT] / [RIGHT] to select a digit
//  113             Press [UP] / [DOWN] to change the selected digit
//  114             press [OK] to to go back to the higher menu level
//  115             
//  116         <APLY INST CODE> apply install code
//  117           Press [OK] to apply the address+Install-Code pair (coordinator) or the Install-Code (Routers and End-Devices)
//  118           This menu screen also displays the status of the last apply-install-code operation
//  119 
//  120         <BACK> go back to higher menu level
//  121           press [OK] to to go back to the higher menu level
//  122         
//  123       <T.L. TRGT TIME> Set the touchlink enable duration
//  124         Press and hold [UP] / [DOWN] to increase / decrease the displayed time. The longer the press, the faster
//  125         the change. 
//  126         The maximum duration is 86400 seconds. Increasing it above this value will display '(forever)' - 
//  127         in this setting, the touchlink target will stay active once started and untill manually stopped.
//  128         The minimum duration is 1 second. Decreasing it below this value sets tohchlink target to always disabled.
//  129         This menu item is only available if BDB_TL_TARGET is defined.
//  130 
//  131       <T.L. STEALING> enable/disable touchlink stealing
//  132         Press [OK] to toggle (enable/disable) touchlink stealing.
//  133         When stealing is enabled, a touchlink target may be 'stolen' by another device acting as a touchlink 
//  134         initiator, which will take it out of its existing network and add it to another network.
//  135         This menu item is only available if BDB_TL_TARGET is defined.
//  136 
//  137       <T.L. INITIATOR> enable/disable touchlink initiator
//  138         Press [OK] to toggle (enable/disable) touchlink initiator.
//  139         When enabled, touchlink initiator functionality will be executed as part of the commissioning procedure.
//  140         This menu item is only available if BDB_TL_INITIATOR is defined.
//  141 
//  142       <NWK FORMATION> enable/disable network formation for when cannot connect to an existing network
//  143         Press [OK] to toggle (enable/disable) network formation.
//  144         When enabled, network formation will be executed as part of the commissioning procedure, unless 
//  145         the device has already joined a network.
//  146 
//  147       <NWK STEERING> enable/disable attempting to connect to an existing network
//  148         Press [OK] to toggle (enable/disable) network steering.
//  149         When enabled, network steering will be executed as part of the commissioning procedure, so the
//  150         device will try to join an existing network, and will open the network for joining of other devices
//  151         once it is joined.
//  152 
//  153       <FINDNG+BINDNG> enable/disable finding and binding
//  154         Press [OK] to toggle (enable/disable) finding and binding (F&B).
//  155         When enabled, finding and binding will be executed as part of the commissioning procedure, so the
//  156         device will either start identifying, look for matchng devices that are currently identifying, or 
//  157         both (depending of whether it is a F&B target, initiator, or both).
//  158       
//  159       <PRI CHANL MASK> set the primary channel mask
//  160         Press [OK] to edit the primary channel list
//  161 
//  162         Primary channel list editing screen
//  163           Press [LEFT] / [RIGHT] to select a channel (from channel 11 to channel 26)
//  164           Press [UP] / [DOWN] to enable / disable the selected channel, accordingly.
//  165           press [OK] to to go back to the higher menu level
//  166 
//  167       <SEC CHANL MASK> set the secondary channel mask
//  168         Press [OK] to edit the secondary channel list
//  169         
//  170         Secondary channel list editing screen
//  171           Press [LEFT] / [RIGHT] to select a channel (from channel 11 to channel 26)
//  172           Press [UP] / [DOWN] to enable / disable the selected channel, accordingly
//  173           press [OK] to to go back to the higher menu level
//  174         
//  175       <PAN ID> set the PAN ID
//  176         Press [OK] to edit the PAN ID to create / connect to
//  177         
//  178         PAN ID editing screen
//  179           Press [LEFT] / [RIGHT] to select the digit to edit
//  180           Press [UP] / [DOWN] to change the selected digit
//  181           press [OK] to to go back to the higher menu level
//  182         
//  183       <BACK> go back to higher menu level
//  184         press [OK] to to go back to the higher menu level
//  185       
//  186     <COMMISSION> start comissionin
//  187       Press [OK] to start the commissioning procedure. (Note: this is disabled if a previous comissioning is
//  188       already on-going).
//  189       This procedure will execute the following methods, depending on whether they are enabled or disabled
//  190       in the respective configuration item):
//  191         - Touchlink (as Touchlink Initiator)
//  192         - Network Steering
//  193         - Network Formation
//  194         - Finding and Binding
//  195       This screen shows the following information
//  196         Line1:
//  197           Current commissioning method being executed:
//  198             TL: Touchlink
//  199             NS: Network Steering
//  200             NF: Network Formation
//  201             FB: Finding And Binding
//  202             PL: Parent Lost (for end devices only)
//  203             -- - idle (commissioning not currently active)
//  204           Network status
//  205             NotOnNwk - not currently connected to a network
//  206             FORM - network was formed by the current device during the latest execution of the NF method
//  207             JOIN - the current device joined an existing network during the latest execution of the NS method
//  208             TCHL - the current device joined a network using touchlink 
//  209             EXST - the device was already connected to a network when the commissioning was started
//  210           Joining permission state (not showing on end devices):
//  211             CLOSED - the current device is closed for joining of other devices
//  212             OpenXXX - the current device is open for joining of other devices, and will close in XXX seconds
//  213         Line2:
//  214           IdXXX - The device is identifying (if XXX > 0), and will stop identifying in XXX seconds.
//  215           SrchXXX/YY - The device is currently performing F&B as an Initiator (if XXX > 0), and will stop in
//  216             XXX seconds. YY is the number of matching endpoints that were foind, for which bindings were 
//  217             successfully created or already existed.
//  218         
//  219     <T.L. TARGET> start touchlink target
//  220       Press [OK] to start / stop touchlink target functionality.
//  221       When not active, pressing [OK] will start touchlink target for the duration defined by the respective
//  222       configuration item.
//  223       When active, pressing OK will immidiately stop touchlink target functionality.
//  224       This menu item is only available if BDB_TL_TARGET is defined.
//  225 
//  226     <APP MENU> application-specific sub-menu
//  227       Press [OK] to enter the application-specific sub-menu.
//  228       See the main comment in the specific application c file for more details.
//  229       
//  230     <INFO> device and network information
//  231       This screen has no operation related to it. It shows the following information:
//  232         Line1:
//  233           Device IEEE address
//  234         Line2: (only meaningful when the device is on a network)
//  235           nXXXX - the Network pan-id
//  236           cXX - the Channel the network is active on
//  237           aXXXX - the short Address of the device
//  238         Line3:
//  239           XXX (YYY) - the device is not connected to a network.
//  240             XXX is either ZR, ZC or ZED, depending on the build configuration.
//  241             YYY is the network-state value (see definition of devStates_t in ZDApp.h).
//  242           ZC - the device is connected to a network as a coordinator.
//  243           ZR CENT - the device is connected to a centralized network as a router.
//  244           ZR DIST - the device is connected to a distributed network as a router.
//  245           ZED pXXXX - the device is connected to a network as an end device. Parent address is XXXX.
//  246 
//  247     <RESET TO FN> reset the device to factory-new
//  248       Press [OK] to reset the device to factory-new. The device will disconnect from the network, and 
//  249       all configurations and network information will be deleted.
//  250 
//  251 *********************************************************************/
//  252 
//  253 #ifdef LEGACY_LCD_DEBUG
//  254 #error Please disable LEGACY_LCD_DEBUG.
//  255 #endif
//  256 
//  257 #if (BDB_INSTALL_CODE_USE!=BDB_INSTALL_CODE_USE_IC_CRC)
//  258 #warning Install-Code functionality is disabled. To enable, make sure BDB_INSTALL_CODE_USE==BDB_INSTALL_CODE_USE_IC_CRC
//  259 #endif
//  260 
//  261 /*********************************************************************
//  262  * INCLUDES
//  263  */
//  264 #include "hal_types.h"
//  265 #include "hal_key.h"
//  266 #include "bdb_interface.h"
//  267 #include "hal_lcd.h"
//  268 #include "hal_led.h"
//  269 #include "zcl.h"
//  270 #include "zdapp.h"
//  271 #include "zcl_sampleapps_ui.h"
//  272 
//  273 #ifdef BDB_TL_TARGET
//  274   #include "bdb_touchlink_target.h"
//  275 #endif
//  276 
//  277 
//  278 /*********************************************************************
//  279  * CONSTANT-MACROS AND ENUMERATIONS
//  280  */
//  281 enum
//  282 {
//  283   UI_STATE_DEFAULT = 0,
//  284   UI_STATE_CONFIGURE,
//  285   UI_STATE_COMMISSION,
//  286 #ifdef BDB_TL_TARGET
//  287   UI_STATE_TOGGLE_TL_TARGET,
//  288 #endif
//  289   UI_STATE_APP_SPECIFIC_MENU,
//  290   UI_STATE_INFO,
//  291   UI_STATE_RESET_TO_FACTORY_NEW,
//  292   UI_STATE_STATE_HELP,
//  293   UI_STATE_SET_INST_CODE,
//  294 #ifdef BDB_TL_TARGET
//  295   UI_STATE_TOUCHLINK_TARGET,
//  296   UI_STATE_TOUCHLINK_STEALING,
//  297 #endif
//  298 #ifdef BDB_TL_INITIATOR
//  299   UI_STATE_TOUCHLINK_INITIATOR,
//  300 #endif
//  301   UI_STATE_NETWORK_FORMATION,
//  302   UI_STATE_NETWORK_STEERING,
//  303   UI_STATE_FINDING_AND_BINDING,
//  304   UI_STATE_SET_PRI_CHANEL_MASK_0,
//  305   UI_STATE_SET_SEC_CHANEL_MASK_0,
//  306   UI_STATE_SET_PAN_ID_0,
//  307   UI_STATE_BACK_FROM_CONFIGURE,
//  308   UI_STATE_SET_PRI_CHANEL_MASK_1,
//  309   UI_STATE_SET_SEC_CHANEL_MASK_1,
//  310   UI_STATE_SET_PAN_ID_1,
//  311   UI_STATE_SET_INST_CODE_0,
//  312 #if (ZG_BUILD_COORDINATOR_TYPE)
//  313   UI_STATE_SET_INST_CODE_ADDR_0,
//  314 #endif
//  315   UI_STATE_SET_INST_CODE_DONE,
//  316   UI_STATE_BACK_FROM_INSTALL_CODE,
//  317   UI_STATE_SET_INST_CODE_1,
//  318 #if (ZG_BUILD_COORDINATOR_TYPE)
//  319   UI_STATE_SET_INST_CODE_ADDR_1,
//  320 #endif
//  321 };
//  322 
//  323 #define DEFAULT_COMISSIONING_MODE (BDB_COMMISSIONING_MODE_NWK_STEERING | BDB_COMMISSIONING_MODE_NWK_FORMATION | BDB_COMMISSIONING_MODE_FINDING_BINDING)
//  324 
//  325 #define TOUCHLINK_TIMEOUT_INCREMENTS_INITIAL 1000
//  326 #define TOUCHLINK_TIMEOUT_INCREMENTS_MAX 10000000
//  327 
//  328 #define DEFAULT_TOUCHLINK_TARGET_TIMEOUT 30000
//  329 
//  330 #define LCD_CURSOR_UPDATE_INTERVAL 500
//  331 
//  332 #define LCD_AUTO_REFRESH_INTERVAL_ON_COMISSIONING_SCREEN 250
//  333 
//  334 #define LCD_AUTO_UPDATE_INTERVAL_ON_TOUCHLINK_TARGET_SCREEN 1000
//  335 #define LCD_AUTO_UPDATE_INTERVAL_ON_TOUCHLINK_TARGET_SCREEN_END 50
//  336 
//  337 #define LCD_LINE_LENGTH 16
//  338 
//  339 #define STATUS_UNKNOWN 0xFF
//  340 
//  341 #define LCD_CURSOR_CHAR ' '
//  342 
//  343 #define UI_INSTALL_CODE_DEFAULT {0x83,0xFE,0xD3,0x40,0x7A,0x93,0x97,0x23,0xA5,0xC6,0x39,0xB2,0x69,0x16,0xD5,0x05,0xC3,0xB5} //This install code produces the key: 66B6900981E1EE3CA4206B6B861C02BB
//  344 #define UI_INSTALL_CODE_ADDR_DEFAULT {0xE7,0xFC,0x0E,0x04,0x00,0x4B,0x12,0x00}
//  345 
//  346 
//  347 #ifdef HAL_BOARD_CC2538
//  348 #define UI_LCD_LINE_1 HAL_LCD_LINE_3
//  349 #define UI_LCD_LINE_2 HAL_LCD_LINE_4
//  350 #define UI_LCD_LINE_3 HAL_LCD_LINE_5
//  351 
//  352 #define LCD_CC2538_PREFIX_COUNT 3
//  353 #else
//  354 #define UI_LCD_LINE_1 HAL_LCD_LINE_1
//  355 #define UI_LCD_LINE_2 HAL_LCD_LINE_2
//  356 #define UI_LCD_LINE_3 HAL_LCD_LINE_3
//  357 
//  358 #define LCD_CC2538_PREFIX_COUNT 0
//  359 #endif
//  360 
//  361 #define UI_LED_IDENTIFY_DUTY_CYCLE    50
//  362 
//  363 #define UI_LED_COORDINATOR_DUTY_CYCLE 75
//  364 #define UI_LED_ROUTER_DUTY_CYCLE      95
//  365 #define UI_LED_END_DEVICE_DUTY_CYCLE 100
//  366 
//  367 #define UI_LED_DEVICE_STATE_FLASH_TIME 4000
//  368 
//  369 #define UI_LED_DEVICE_STATE       HAL_LED_2
//  370 #define UI_LED_IDENTIFY           HAL_LED_3
//  371 #define UI_LED_NETWORK_OPEN_STATE HAL_LED_4
//  372 
//  373 #define NWK_OPEN_FOR_JOINING 0x1
//  374 #define NWK_OPEN_TOUCHLINK_AS_TARGET 0x2
//  375 
//  376 /*********************************************************************
//  377  * TYPEDEFS
//  378  */
//  379    
//  380 /*********************************************************************
//  381 * LOCAL FUNCTIONS DECLARATIONS
//  382 */
//  383 static void uiUintToString(uint32 value, char * str, uint8 base, uint8 num_of_digists, bool pad0, bool reverse);
//  384 static void uiArrayToString(uint8 * buf, char * str, uint8 num_of_digists, bool big_endian);
//  385 static void uiCreateChannelMaskString(uint32 channel_mask, char * str);
//  386 
//  387 
//  388 #ifdef BDB_TL_TARGET
//  389 static void uiActionToggleTlTarget(uint16 keys);
//  390 #endif
//  391 static void uiActionStartComissioning(uint16 keys);
//  392 static void uiActionSetInstallCode(uint16 keys);
//  393 static void uiActionResetToFactoryNew(uint16 keys);
//  394 static void uiActionConfigureEnables(uint16 keys);
//  395 static void uiActionMenuJump(uint16 keys);
//  396 static void uiActionProcessConfigureChannels(uint16 keys);
//  397 static void uiActionProcessConfigurePanId(uint16 keys);
//  398 static void uiActionProcessPrepareInstallCode(uint16 keys);
//  399 static void uiActionAppSecificMenu(uint16 keys);
//  400 
//  401 static void *uiProcessPermitJoin( void *duration );
//  402 
//  403 static void uiProcessIdentifyTimeChange( uint8 endpoint );
//  404 
//  405 static void uiProcessBindNotification( bdbBindNotificationData_t *data );
//  406 
//  407 #ifdef BDB_TL_TARGET
//  408 static void uiProcessTouchlinkTargetEnable( uint8 enable );
//  409 #endif
//  410 
//  411 /*********************************************************************
//  412  * CONSTANTS
//  413  */

        RSEG XDATA_ROM_C:CONST:REORDER:NOROOT(0)
        DATA8
//  414 static const uiState_t gui_states_main[] = 
gui_states_main:
        DB 254
        DB 5
        DATA16
        DW 4
        DW `??uiActionMenuJump::?relay`
        DATA8
        DB 254
        DB 254
        DATA16
        DW 4
        DW `??uiActionMenuJump::?relay`
        DATA8
        DB 254
        DB 254
        DATA16
        DW 4
        DW `??uiActionStartComissioning::?relay`
        DATA8
        DB 254
        DB 254
        DATA16
        DW 4
        DW `??uiActionAppSecificMenu::?relay`
        DATA8
        DB 254
        DB 254
        DATA16
        DW 0
        DW 0H
        DATA8
        DB 0
        DB 254
        DATA16
        DW 4
        DW `??uiActionResetToFactoryNew::?relay`
        DATA8
        DB 255
        DB 255
        DATA16
        DW 1024
        DW `??uiActionMenuJump::?relay`
        DATA8
        DB 254
        DB 14
        DATA16
        DW 4
        DW `??uiActionMenuJump::?relay`
        DATA8
        DB 254
        DB 254
        DATA16
        DW 4
        DW `??uiActionConfigureEnables::?relay`
        DATA8
        DB 254
        DB 254
        DATA16
        DW 4
        DW `??uiActionConfigureEnables::?relay`
        DATA8
        DB 254
        DB 254
        DATA16
        DW 4
        DW `??uiActionConfigureEnables::?relay`
        DATA8
        DB 254
        DB 254
        DATA16
        DW 4
        DW `??uiActionMenuJump::?relay`
        DATA8
        DB 254
        DB 254
        DATA16
        DW 4
        DW `??uiActionMenuJump::?relay`
        DATA8
        DB 254
        DB 254
        DATA16
        DW 4
        DW `??uiActionMenuJump::?relay`
        DATA8
        DB 7
        DB 254
        DATA16
        DW 4
        DW `??uiActionMenuJump::?relay`
        DATA8
        DB 255
        DB 255
        DATA16
        DW 1055
        DW `??uiActionProcessConfigureChannels::?relay`
        DATA8
        DB 255
        DB 255
        DATA16
        DW 1055
        DW `??uiActionProcessConfigureChannels::?relay`
        DATA8
        DB 255
        DB 255
        DATA16
        DW 1055
        DW `??uiActionProcessConfigurePanId::?relay`
        DATA8
        DB 254
        DB 20
        DATA16
        DW 4
        DW `??uiActionMenuJump::?relay`
        DATA8
        DB 254
        DB 254
        DATA16
        DW 4
        DW `??uiActionSetInstallCode::?relay`
        DATA8
        DB 18
        DB 254
        DATA16
        DW 4
        DW `??uiActionMenuJump::?relay`
        DATA8
        DB 255
        DB 255
        DATA16
        DW 1055
        DW `??uiActionProcessPrepareInstallCode::?relay`
//  415 {
//  416   /*  UI_STATE_DEFAULT                */ {UI_STATE_DEFAULT_MOVE,          UI_STATE_RESET_TO_FACTORY_NEW,    UI_KEY_SW_5_PRESSED, &uiActionMenuJump},
//  417   /*  UI_STATE_CONFIGURE              */ {UI_STATE_DEFAULT_MOVE,          UI_STATE_DEFAULT_MOVE,            UI_KEY_SW_5_PRESSED, &uiActionMenuJump},
//  418   /*  UI_STATE_COMMISSION             */ {UI_STATE_DEFAULT_MOVE,          UI_STATE_DEFAULT_MOVE,            UI_KEY_SW_5_PRESSED, &uiActionStartComissioning},
//  419 #ifdef BDB_TL_TARGET
//  420   /*  UI_STATE_TOGGLE_TL_TARGET       */ {UI_STATE_DEFAULT_MOVE,          UI_STATE_DEFAULT_MOVE,            UI_KEY_SW_5_PRESSED, &uiActionToggleTlTarget},
//  421 #endif
//  422   /*  UI_STATE_APP_SPECIFIC_MENU      */ {UI_STATE_DEFAULT_MOVE,          UI_STATE_DEFAULT_MOVE,            UI_KEY_SW_5_PRESSED, &uiActionAppSecificMenu},
//  423   /*  UI_STATE_INFO                   */ {UI_STATE_DEFAULT_MOVE,          UI_STATE_DEFAULT_MOVE,            0, NULL},
//  424   /*  UI_STATE_RESET_TO_FACTORY_NEW   */ {UI_STATE_DEFAULT,               UI_STATE_DEFAULT_MOVE,            UI_KEY_SW_5_PRESSED, &uiActionResetToFactoryNew},
//  425 
//  426   /*  UI_STATE_STATE_HELP             */ {UI_STATE_UNCHANGED,             UI_STATE_UNCHANGED,               UI_KEY_SW_5_RELEASED,&uiActionMenuJump},
//  427 
//  428   /*  UI_STATE_SET_INST_CODE          */ {UI_STATE_DEFAULT_MOVE,          UI_STATE_BACK_FROM_CONFIGURE,     UI_KEY_SW_5_PRESSED, &uiActionMenuJump},
//  429 #ifdef BDB_TL_TARGET
//  430   /*  UI_STATE_TOUCHLINK_TARGET       */ {UI_STATE_DEFAULT_MOVE,          UI_STATE_DEFAULT_MOVE,            UI_KEY_SW_1_PRESSED | UI_KEY_SW_3_PRESSED | UI_KEY_SW_1_RELEASED | UI_KEY_SW_3_RELEASED, &uiActionConfigureEnables},
//  431   /*  UI_STATE_TOUCHLINK_STEALING     */ {UI_STATE_DEFAULT_MOVE,          UI_STATE_DEFAULT_MOVE,            UI_KEY_SW_5_PRESSED, &uiActionConfigureEnables},
//  432 #endif
//  433 #ifdef BDB_TL_INITIATOR
//  434   /*  UI_STATE_TOUCHLINK_INITIATOR    */ {UI_STATE_DEFAULT_MOVE,          UI_STATE_DEFAULT_MOVE,            UI_KEY_SW_5_PRESSED, &uiActionConfigureEnables},
//  435 #endif
//  436   /*  UI_STATE_NETWORK_FORMATION      */ {UI_STATE_DEFAULT_MOVE,          UI_STATE_DEFAULT_MOVE,            UI_KEY_SW_5_PRESSED, &uiActionConfigureEnables},
//  437   /*  UI_STATE_NETWORK_STEERING       */ {UI_STATE_DEFAULT_MOVE,          UI_STATE_DEFAULT_MOVE,            UI_KEY_SW_5_PRESSED, &uiActionConfigureEnables},
//  438   /*  UI_STATE_FINDING_AND_BINDING    */ {UI_STATE_DEFAULT_MOVE,          UI_STATE_DEFAULT_MOVE,            UI_KEY_SW_5_PRESSED, &uiActionConfigureEnables},
//  439   /*  UI_STATE_SET_PRI_CHANEL_MASK_0  */ {UI_STATE_DEFAULT_MOVE,          UI_STATE_DEFAULT_MOVE,            UI_KEY_SW_5_PRESSED, &uiActionMenuJump},
//  440   /*  UI_STATE_SET_SEC_CHANEL_MASK_0  */ {UI_STATE_DEFAULT_MOVE,          UI_STATE_DEFAULT_MOVE,            UI_KEY_SW_5_PRESSED, &uiActionMenuJump},
//  441   /*  UI_STATE_SET_PAN_ID_0           */ {UI_STATE_DEFAULT_MOVE,          UI_STATE_DEFAULT_MOVE,            UI_KEY_SW_5_PRESSED, &uiActionMenuJump},
//  442   /*  UI_STATE_BACK_FROM_CONFIGURE    */ {UI_STATE_SET_INST_CODE,         UI_STATE_DEFAULT_MOVE,            UI_KEY_SW_5_PRESSED, &uiActionMenuJump},
//  443 
//  444   /*  UI_STATE_SET_PRI_CHANEL_MASK_1  */ {UI_STATE_UNCHANGED,             UI_STATE_UNCHANGED,               UI_KEY_SW_1_PRESSED | UI_KEY_SW_3_PRESSED | UI_KEY_SW_5_PRESSED | UI_KEY_SW_2_PRESSED  | UI_KEY_SW_4_PRESSED | UI_KEY_SW_5_RELEASED , &uiActionProcessConfigureChannels},
//  445   /*  UI_STATE_SET_SEC_CHANEL_MASK_1  */ {UI_STATE_UNCHANGED,             UI_STATE_UNCHANGED,               UI_KEY_SW_1_PRESSED | UI_KEY_SW_3_PRESSED | UI_KEY_SW_5_PRESSED | UI_KEY_SW_2_PRESSED  | UI_KEY_SW_4_PRESSED | UI_KEY_SW_5_RELEASED , &uiActionProcessConfigureChannels},
//  446   /*  UI_STATE_SET_PAN_ID_1           */ {UI_STATE_UNCHANGED,             UI_STATE_UNCHANGED,               UI_KEY_SW_1_PRESSED | UI_KEY_SW_3_PRESSED | UI_KEY_SW_5_PRESSED | UI_KEY_SW_2_PRESSED  | UI_KEY_SW_4_PRESSED | UI_KEY_SW_5_RELEASED , &uiActionProcessConfigurePanId},
//  447 
//  448   /*  UI_STATE_SET_INST_CODE_0        */ {UI_STATE_DEFAULT_MOVE,          UI_STATE_BACK_FROM_INSTALL_CODE,  UI_KEY_SW_5_PRESSED, &uiActionMenuJump},
//  449 #if (ZG_BUILD_COORDINATOR_TYPE)
//  450   /*  UI_STATE_SET_INST_CODE_ADDR_0   */ {UI_STATE_DEFAULT_MOVE,          UI_STATE_DEFAULT_MOVE,            UI_KEY_SW_5_PRESSED, &uiActionMenuJump},
//  451 #endif  
//  452   /*  UI_STATE_SET_INST_CODE_DONE     */ {UI_STATE_DEFAULT_MOVE,          UI_STATE_DEFAULT_MOVE,            UI_KEY_SW_5_PRESSED, &uiActionSetInstallCode},
//  453   /*  UI_STATE_BACK_FROM_INSTALL_CODE */ {UI_STATE_SET_INST_CODE_0,       UI_STATE_DEFAULT_MOVE,            UI_KEY_SW_5_PRESSED, &uiActionMenuJump},
//  454 
//  455   /*  UI_STATE_SET_INST_CODE_1        */ {UI_STATE_UNCHANGED,             UI_STATE_UNCHANGED,               UI_KEY_SW_1_PRESSED | UI_KEY_SW_3_PRESSED | UI_KEY_SW_5_PRESSED | UI_KEY_SW_2_PRESSED  | UI_KEY_SW_4_PRESSED | UI_KEY_SW_5_RELEASED , &uiActionProcessPrepareInstallCode},
//  456 #if (ZG_BUILD_COORDINATOR_TYPE)
//  457   /*  UI_STATE_SET_INST_CODE_ADDR_1   */ {UI_STATE_UNCHANGED,             UI_STATE_UNCHANGED,               UI_KEY_SW_1_PRESSED | UI_KEY_SW_3_PRESSED | UI_KEY_SW_5_PRESSED | UI_KEY_SW_2_PRESSED  | UI_KEY_SW_4_PRESSED | UI_KEY_SW_5_RELEASED , &uiActionProcessPrepareInstallCode},
//  458 #endif
//  459 };
//  460 
//  461 /*********************************************************************
//  462  * GLOBAL VARIABLES
//  463  */
//  464 
//  465 /*********************************************************************
//  466  * GLOBAL FUNCTIONS
//  467  */
//  468 
//  469 /*********************************************************************
//  470  * EXTERNAL REFERENCES
//  471  */
//  472 extern uint8 aExtendedAddress[];
//  473 
//  474 /*********************************************************************
//  475  * LOCAL VARIABLES
//  476  */

        RSEG XDATA_Z:XDATA:NOROOT(0)
        DATA8
//  477 static uint8 uiAppTaskId;
uiAppTaskId:
        DS 1
        REQUIRE __INIT_XDATA_Z

        RSEG XDATA_Z:XDATA:NOROOT(0)
        DATA16
//  478 static uint16 uiLcdAutoUpdateEvent;
uiLcdAutoUpdateEvent:
        DS 2
        REQUIRE __INIT_XDATA_Z

        RSEG XDATA_Z:XDATA:NOROOT(0)
        DATA16
//  479 static uint16 * pUiIdentifyTimeAttribute;
pUiIdentifyTimeAttribute:
        DS 2
        REQUIRE __INIT_XDATA_Z
//  480 

        RSEG XDATA_Z:XDATA:NOROOT(0)
        DATA16
//  481 static uiAppUpdateLcd_t uiAppUpdateLcd;
uiAppUpdateLcd:
        DS 2
        REQUIRE __INIT_XDATA_Z

        RSEG XDATA_Z:XDATA:NOROOT(0)
        DATA16
//  482 static const uiState_t * uiAppStatesMain = NULL;
uiAppStatesMain:
        DS 2
        REQUIRE __INIT_XDATA_Z
//  483 

        RSEG XDATA_Z:XDATA:NOROOT(0)
        DATA8
//  484 static uint8 FBMatchesFound = 0;
FBMatchesFound:
        DS 1
        REQUIRE __INIT_XDATA_Z
//  485 

        RSEG XDATA_Z:XDATA:NOROOT(0)
        DATA16
//  486 static int uiCurrentState = UI_STATE_DEFAULT;
uiCurrentState:
        DS 2
        REQUIRE __INIT_XDATA_Z

        RSEG XDATA_Z:XDATA:NOROOT(0)
        DATA8
//  487 static bool uiCommissioningIsInitializing = FALSE;
uiCommissioningIsInitializing:
        DS 1
        REQUIRE __INIT_XDATA_Z
//  488 

        RSEG XDATA_I:XDATA:NOROOT(0)
//  489 static uint8 uiLcdCursorLine = 0xFF;
uiLcdCursorLine:
        DATA8
        DS 1
        REQUIRE `?<Initializer for uiLcdCursorLine>`
        REQUIRE __INIT_XDATA_I

        RSEG XDATA_Z:XDATA:NOROOT(0)
        DATA8
//  490 static uint8 uiLcdCursorCol;
uiLcdCursorCol:
        DS 1
        REQUIRE __INIT_XDATA_Z

        RSEG XDATA_Z:XDATA:NOROOT(0)
        DATA8
//  491 static uint8 uiLcdCursorState;
uiLcdCursorState:
        DS 1
        REQUIRE __INIT_XDATA_Z
//  492 

        RSEG XDATA_I:XDATA:NOROOT(0)
//  493 static uint8 uiSelectedBdbComissioningModes = DEFAULT_COMISSIONING_MODE;
uiSelectedBdbComissioningModes:
        DATA8
        DS 1
        REQUIRE `?<Initializer for uiSelectedBdbComissioningMod`
        REQUIRE __INIT_XDATA_I
//  494 

        RSEG XDATA_I:XDATA:NOROOT(0)
//  495 static ZStatus_t uiAddInstallCodeLastStatus = STATUS_UNKNOWN;
uiAddInstallCodeLastStatus:
        DATA8
        DS 1
        REQUIRE `?<Initializer for uiAddInstallCodeLastStatus>`
        REQUIRE __INIT_XDATA_I
//  496 

        RSEG XDATA_I:XDATA:NOROOT(0)
//  497 static char * uiCommissioningStateStr = "--";
uiCommissioningStateStr:
        DATA16
        DS 2
        REQUIRE `?<Initializer for uiCommissioningStateStr>`
        REQUIRE __INIT_XDATA_I

        RSEG XDATA_Z:XDATA:NOROOT(0)
        DATA16
//  498 static char * uiCommissioningNetworkConnrctionStr = NULL;
uiCommissioningNetworkConnrctionStr:
        DS 2
        REQUIRE __INIT_XDATA_Z
//  499 

        RSEG XDATA_Z:XDATA:NOROOT(0)
        DATA8
//  500 static bool uiComissioningIsActive = FALSE;
uiComissioningIsActive:
        DS 1
        REQUIRE __INIT_XDATA_Z
//  501 

        RSEG XDATA_Z:XDATA:NOROOT(0)
        DATA8
//  502 static bool uiResetInitiated = FALSE;
uiResetInitiated:
        DS 1
        REQUIRE __INIT_XDATA_Z
//  503 
//  504 #ifdef BDB_TL_TARGET
//  505 static uint16 uiKeyAutoRepeatEvent;
//  506 static uint32 uiLcdAutoUpdateInterval;
//  507 
//  508 static uint16 uiAutoKeyRepeatDelay = 500;
//  509 static uint32 uiAutoKeyRepeatCount = 0;
//  510 
//  511 static uint32 uiTouchlinkTargetTimeout = DEFAULT_TOUCHLINK_TARGET_TIMEOUT;
//  512 #endif
//  513 

        RSEG XDATA_I:XDATA:NOROOT(0)
//  514 static uint8 uiInstallCode[] = UI_INSTALL_CODE_DEFAULT;
uiInstallCode:
        DATA8
        DS 18
        REQUIRE `?<Initializer for uiInstallCode>`
        REQUIRE __INIT_XDATA_I
//  515 #if (ZG_BUILD_COORDINATOR_TYPE)
//  516 static uint8 uiInstallCodeAddr[Z_EXTADDR_LEN] = UI_INSTALL_CODE_ADDR_DEFAULT;
//  517 #endif
//  518 

        RSEG XDATA_I:XDATA:NOROOT(0)
//  519 static const uiState_t * uiStates = gui_states_main;
uiStates:
        DATA16
        DS 2
        REQUIRE `?<Initializer for uiStates>`
        REQUIRE __INIT_XDATA_I
//  520 

        RSEG XDATA_Z:XDATA:NOROOT(0)
        DATA16
//  521 static char * uiAppTitleStr;
uiAppTitleStr:
        DS 2
        REQUIRE __INIT_XDATA_Z
//  522 

        RSEG XDATA_I:XDATA:NOROOT(0)
//  523 static uint8 uiNetworkOpenStateLedDutyCycle[] = {0, 25, 75, 100}; //25% = open for joining; 75% = touchlink target; 100% = both;
uiNetworkOpenStateLedDutyCycle:
        DATA32
        DS 4
        REQUIRE `?<Initializer for uiNetworkOpenStateLedDutyCyc`
        REQUIRE __INIT_XDATA_I

        RSEG XDATA_Z:XDATA:NOROOT(0)
        DATA8
//  524 static uint8 uiNwkOpenState = 0x00;
uiNwkOpenState:
        DS 1
        REQUIRE __INIT_XDATA_Z
//  525 

        RSEG XDATA_Z:XDATA:NOROOT(0)
        DATA8
//  526 static devStates_t uiNwkStateShadow = DEV_HOLD;
uiNwkStateShadow:
        DS 1
        REQUIRE __INIT_XDATA_Z
//  527 
//  528 /*********************************************************************
//  529  * LOCAL UTILITY FUNCTIONS
//  530  */
//  531 
//  532 /*********************************************************************
//  533  * @fn          uiUintToString
//  534  *
//  535  * @brief       format an integer into a string buffer.
//  536  *
//  537  * @param       value - 32bit unsigned int value to be formatted
//  538  *              str - pointer to a buffer to store the formatted bnumber
//  539  *              base - base represenation of the value. currently only tested base 10 and 16
//  540  *              num_of_digists - number of digits to include in the formatted string
//  541  *              pad0 - should be set to TRUE to pad the number with leading 0's as required
//  542  *              reverse - should be set to TRUE to reverse the output string
//  543  *
//  544  * @return      none
//  545  */

        RSEG BANKED_CODE:HUGECODE:NOROOT(0)
//  546 static void uiUintToString (uint32 value, char * str, uint8 base, uint8 num_of_digists, bool pad0, bool reverse)
uiUintToString:
          CFI Block cfiBlock0 Using cfiCommon0
          CFI Function uiUintToString
        CODE
//  547 {
        REQUIRE ?V0
        REQUIRE ?V1
        REQUIRE ?V2
        REQUIRE ?V3
        REQUIRE ?V4
        REQUIRE ?V5
        REQUIRE ?V6
        REQUIRE ?V7
        REQUIRE ?V8
        REQUIRE ?V9
        REQUIRE ?V10
        REQUIRE ?V11
        REQUIRE ?V12
        REQUIRE ?V13
        REQUIRE ?V14
        REQUIRE ?V15
        MOV       A,#-0x18
        LCALL     ?BANKED_ENTER_XDATA
          CFI DPH0 load(1, XDATA, add(CFA_XSP16, literal(-1)))
          CFI DPL0 load(1, XDATA, add(CFA_XSP16, literal(-2)))
          CFI ?BRET_EXT load(1, XDATA, add(CFA_XSP16, literal(-3)))
          CFI ?RET_HIGH load(1, XDATA, add(CFA_XSP16, literal(-4)))
          CFI ?RET_LOW load(1, XDATA, add(CFA_XSP16, literal(-5)))
          CFI R7 load(1, XDATA, add(CFA_XSP16, literal(-6)))
          CFI V15 load(1, XDATA, add(CFA_XSP16, literal(-7)))
          CFI V14 load(1, XDATA, add(CFA_XSP16, literal(-8)))
          CFI V13 load(1, XDATA, add(CFA_XSP16, literal(-9)))
          CFI V12 load(1, XDATA, add(CFA_XSP16, literal(-10)))
          CFI V11 load(1, XDATA, add(CFA_XSP16, literal(-11)))
          CFI V10 load(1, XDATA, add(CFA_XSP16, literal(-12)))
          CFI V9 load(1, XDATA, add(CFA_XSP16, literal(-13)))
          CFI V8 load(1, XDATA, add(CFA_XSP16, literal(-14)))
          CFI V7 load(1, XDATA, add(CFA_XSP16, literal(-15)))
          CFI V6 load(1, XDATA, add(CFA_XSP16, literal(-16)))
          CFI V5 load(1, XDATA, add(CFA_XSP16, literal(-17)))
          CFI V4 load(1, XDATA, add(CFA_XSP16, literal(-18)))
          CFI V3 load(1, XDATA, add(CFA_XSP16, literal(-19)))
          CFI V2 load(1, XDATA, add(CFA_XSP16, literal(-20)))
          CFI V1 load(1, XDATA, add(CFA_XSP16, literal(-21)))
          CFI V0 load(1, XDATA, add(CFA_XSP16, literal(-22)))
          CFI VB load(1, XDATA, add(CFA_XSP16, literal(-23)))
          CFI R6 load(1, XDATA, add(CFA_XSP16, literal(-24)))
          CFI CFA_SP SP+0
          CFI CFA_XSP16 add(XSP16, 24)
        ; Saved register size: 24
        ; Auto size: 1
        MOV       A,#-0x1
        LCALL     ?ALLOC_XSTACK8
          CFI CFA_XSP16 add(XSP16, 25)
        MOV       A,R1
        MOV       DPL,?XSP + 0
        MOV       DPH,?XSP + 1
        MOVX      @DPTR,A
        MOV       ?V4,R2
        MOV       ?V5,R3
        MOV       ?V6,R4
        MOV       ?V7,R5
//  548   int i;
//  549   uint8 index;
//  550   
//  551   for (i = 0; i < num_of_digists; i++)
        MOV       R2,#0x0
        MOV       R3,#0x0
        MOV       ?V8,A
        CLR       A
        MOV       ?V9,A
        MOV       ?V10,A
        MOV       ?V11,A
        MOV       A,#0x1b
        LCALL     ?XSTACK_DISP0_8
        MOVX      A,@DPTR
        MOV       R4,A
        MOV       A,#0x1c
        LCALL     ?XSTACK_DISP0_8
        MOVX      A,@DPTR
        MOV       R6,A
        MOV       A,#0x1d
        LCALL     ?XSTACK_DISP0_8
        MOVX      A,@DPTR
        MOV       R5,A
        SJMP      ??uiUintToString_0
??uiUintToString_1:
        INC       R2
        MOV       A,R2
        JNZ       ??uiUintToString_0
        INC       R3
??uiUintToString_0:
        MOV       A,R4
        MOV       R0,A
        CLR       C
        MOV       A,R2
        SUBB      A,R0
        LCALL     ?Subroutine27 & 0xFFFF
??CrossCallReturnLabel_80:
        JNC       ??uiUintToString_2
//  552   {
//  553     index = (reverse ? i : num_of_digists - 1 - i);
        MOV       A,R5
        JZ        ??uiUintToString_3
        MOV       A,R2
        SJMP      ??uiUintToString_4
??uiUintToString_3:
        MOV       A,R2
        MOV       R0,A
        MOV       A,#-0x1
        ADD       A,R4
        CLR       C
        SUBB      A,R0
??uiUintToString_4:
        MOV       R7,A
//  554     str[index] = '0' + (value % base);
        MOV       ?V12,?V8
        MOV       ?V13,?V9
        MOV       ?V14,?V10
        MOV       ?V15,?V11
        MOV       ?V0,?V4
        MOV       ?V1,?V5
        MOV       ?V2,?V6
        MOV       ?V3,?V7
        MOV       R0,#?V0
        MOV       R1,#?V12
        LCALL     ?UL_DIV_MOD
        MOV       A,?V12
        ADD       A,#0x30
        MOV       ?V0,A
        MOV       A,R7
        MOV       R0,A
        MOV       A,#0x19
        LCALL     ?XSTACK_DISP0_8
        LCALL     ?Subroutine22 & 0xFFFF
??CrossCallReturnLabel_45:
        MOV       A,?V0
        MOVX      @DPTR,A
//  555     if (str[index] > '9')
        CLR       C
        SUBB      A,#0x3a
        JC        ??uiUintToString_5
//  556     {
//  557       str[index] += 'A' - '0' - 10;
        MOVX      A,@DPTR
        ADD       A,#0x7
        MOVX      @DPTR,A
//  558     }
//  559     value /= base;
??uiUintToString_5:
        MOV       ?V0,?V8
        MOV       ?V1,?V9
        MOV       ?V2,?V10
        MOV       ?V3,?V11
        MOV       R0,#?V4
        MOV       R1,#?V0
        LCALL     ?UL_DIV_MOD
//  560     if ((!pad0) && (value == 0))
        MOV       A,R6
        JNZ       ??uiUintToString_1
        MOV       A,?V4
        ORL       A,?V5
        ORL       A,?V6
        ORL       A,?V7
        JNZ       ??uiUintToString_1
//  561     {
//  562       break;
//  563     }
//  564   }
//  565 }
??uiUintToString_2:
        MOV       A,#0x1
        LCALL     ?DEALLOC_XSTACK8
          CFI CFA_XSP16 add(XSP16, 24)
        MOV       R7,#0x10
        LJMP      ?BANKED_LEAVE_XDATA
          CFI EndBlock cfiBlock0

        RSEG BANKED_CODE:HUGECODE:NOROOT(0)
?Subroutine27:
          CFI Block cfiCond1 Using cfiCommon0
          CFI Function uiUintToString
          CFI Conditional ??CrossCallReturnLabel_80
          CFI R6 load(1, XDATA, add(CFA_XSP16, literal(-24)))
          CFI VB load(1, XDATA, add(CFA_XSP16, literal(-23)))
          CFI V0 load(1, XDATA, add(CFA_XSP16, literal(-22)))
          CFI V1 load(1, XDATA, add(CFA_XSP16, literal(-21)))
          CFI V2 load(1, XDATA, add(CFA_XSP16, literal(-20)))
          CFI V3 load(1, XDATA, add(CFA_XSP16, literal(-19)))
          CFI V4 load(1, XDATA, add(CFA_XSP16, literal(-18)))
          CFI V5 load(1, XDATA, add(CFA_XSP16, literal(-17)))
          CFI V6 load(1, XDATA, add(CFA_XSP16, literal(-16)))
          CFI V7 load(1, XDATA, add(CFA_XSP16, literal(-15)))
          CFI V8 load(1, XDATA, add(CFA_XSP16, literal(-14)))
          CFI V9 load(1, XDATA, add(CFA_XSP16, literal(-13)))
          CFI V10 load(1, XDATA, add(CFA_XSP16, literal(-12)))
          CFI V11 load(1, XDATA, add(CFA_XSP16, literal(-11)))
          CFI V12 load(1, XDATA, add(CFA_XSP16, literal(-10)))
          CFI V13 load(1, XDATA, add(CFA_XSP16, literal(-9)))
          CFI V14 load(1, XDATA, add(CFA_XSP16, literal(-8)))
          CFI V15 load(1, XDATA, add(CFA_XSP16, literal(-7)))
          CFI R7 load(1, XDATA, add(CFA_XSP16, literal(-6)))
          CFI ?RET_LOW load(1, XDATA, add(CFA_XSP16, literal(-5)))
          CFI ?RET_HIGH load(1, XDATA, add(CFA_XSP16, literal(-4)))
          CFI ?BRET_EXT load(1, XDATA, add(CFA_XSP16, literal(-3)))
          CFI DPL0 load(1, XDATA, add(CFA_XSP16, literal(-2)))
          CFI DPH0 load(1, XDATA, add(CFA_XSP16, literal(-1)))
          CFI CFA_SP SP+-2
          CFI CFA_XSP16 add(XSP16, 25)
          CFI Block cfiCond2 Using cfiCommon0
          CFI (cfiCond2) Function uiCreateChannelMaskString
          CFI (cfiCond2) Conditional ??CrossCallReturnLabel_81
          CFI (cfiCond2) R6 load(1, XDATA, add(CFA_XSP16, literal(-20)))
          CFI (cfiCond2) VB load(1, XDATA, add(CFA_XSP16, literal(-19)))
          CFI (cfiCond2) V0 load(1, XDATA, add(CFA_XSP16, literal(-18)))
          CFI (cfiCond2) V1 load(1, XDATA, add(CFA_XSP16, literal(-17)))
          CFI (cfiCond2) V2 load(1, XDATA, add(CFA_XSP16, literal(-16)))
          CFI (cfiCond2) V3 load(1, XDATA, add(CFA_XSP16, literal(-15)))
          CFI (cfiCond2) V4 load(1, XDATA, add(CFA_XSP16, literal(-14)))
          CFI (cfiCond2) V5 load(1, XDATA, add(CFA_XSP16, literal(-13)))
          CFI (cfiCond2) V6 load(1, XDATA, add(CFA_XSP16, literal(-12)))
          CFI (cfiCond2) V7 load(1, XDATA, add(CFA_XSP16, literal(-11)))
          CFI (cfiCond2) V8 load(1, XDATA, add(CFA_XSP16, literal(-10)))
          CFI (cfiCond2) V9 load(1, XDATA, add(CFA_XSP16, literal(-9)))
          CFI (cfiCond2) V10 load(1, XDATA, add(CFA_XSP16, literal(-8)))
          CFI (cfiCond2) V11 load(1, XDATA, add(CFA_XSP16, literal(-7)))
          CFI (cfiCond2) R7 load(1, XDATA, add(CFA_XSP16, literal(-6)))
          CFI (cfiCond2) ?RET_LOW load(1, XDATA, add(CFA_XSP16, literal(-5)))
          CFI (cfiCond2) ?RET_HIGH load(1, XDATA, add(CFA_XSP16, literal(-4)))
          CFI (cfiCond2) ?BRET_EXT load(1, XDATA, add(CFA_XSP16, literal(-3)))
          CFI (cfiCond2) DPL0 load(1, XDATA, add(CFA_XSP16, literal(-2)))
          CFI (cfiCond2) DPH0 load(1, XDATA, add(CFA_XSP16, literal(-1)))
          CFI (cfiCond2) CFA_SP SP+-2
          CFI (cfiCond2) CFA_XSP16 add(XSP16, 21)
          CFI Block cfiPicker3 Using cfiCommon1
          CFI (cfiPicker3) NoFunction
          CFI (cfiPicker3) Picker
        MOV       A,R3
          CFI EndBlock cfiCond1
          CFI EndBlock cfiCond2
          CFI EndBlock cfiPicker3
        REQUIRE ??Subroutine39_0
        ; // Fall through to label ??Subroutine39_0

        RSEG BANKED_CODE:HUGECODE:NOROOT(0)
??Subroutine39_0:
          CFI Block cfiCond4 Using cfiCommon0
          CFI Function uiArrayToString
          CFI Conditional ??CrossCallReturnLabel_79
          CFI R6 load(1, XDATA, add(CFA_XSP16, literal(-18)))
          CFI VB load(1, XDATA, add(CFA_XSP16, literal(-17)))
          CFI V0 load(1, XDATA, add(CFA_XSP16, literal(-16)))
          CFI V1 load(1, XDATA, add(CFA_XSP16, literal(-15)))
          CFI V2 load(1, XDATA, add(CFA_XSP16, literal(-14)))
          CFI V3 load(1, XDATA, add(CFA_XSP16, literal(-13)))
          CFI V4 load(1, XDATA, add(CFA_XSP16, literal(-12)))
          CFI V5 load(1, XDATA, add(CFA_XSP16, literal(-11)))
          CFI V6 load(1, XDATA, add(CFA_XSP16, literal(-10)))
          CFI V7 load(1, XDATA, add(CFA_XSP16, literal(-9)))
          CFI V8 load(1, XDATA, add(CFA_XSP16, literal(-8)))
          CFI V9 load(1, XDATA, add(CFA_XSP16, literal(-7)))
          CFI R7 load(1, XDATA, add(CFA_XSP16, literal(-6)))
          CFI ?RET_LOW load(1, XDATA, add(CFA_XSP16, literal(-5)))
          CFI ?RET_HIGH load(1, XDATA, add(CFA_XSP16, literal(-4)))
          CFI ?BRET_EXT load(1, XDATA, add(CFA_XSP16, literal(-3)))
          CFI DPL0 load(1, XDATA, add(CFA_XSP16, literal(-2)))
          CFI DPH0 load(1, XDATA, add(CFA_XSP16, literal(-1)))
          CFI CFA_SP SP+-2
          CFI CFA_XSP16 add(XSP16, 18)
          CFI Block cfiCond5 Using cfiCommon0
          CFI (cfiCond5) Function uiUintToString
          CFI (cfiCond5) Conditional ??CrossCallReturnLabel_80
          CFI (cfiCond5) R6 load(1, XDATA, add(CFA_XSP16, literal(-24)))
          CFI (cfiCond5) VB load(1, XDATA, add(CFA_XSP16, literal(-23)))
          CFI (cfiCond5) V0 load(1, XDATA, add(CFA_XSP16, literal(-22)))
          CFI (cfiCond5) V1 load(1, XDATA, add(CFA_XSP16, literal(-21)))
          CFI (cfiCond5) V2 load(1, XDATA, add(CFA_XSP16, literal(-20)))
          CFI (cfiCond5) V3 load(1, XDATA, add(CFA_XSP16, literal(-19)))
          CFI (cfiCond5) V4 load(1, XDATA, add(CFA_XSP16, literal(-18)))
          CFI (cfiCond5) V5 load(1, XDATA, add(CFA_XSP16, literal(-17)))
          CFI (cfiCond5) V6 load(1, XDATA, add(CFA_XSP16, literal(-16)))
          CFI (cfiCond5) V7 load(1, XDATA, add(CFA_XSP16, literal(-15)))
          CFI (cfiCond5) V8 load(1, XDATA, add(CFA_XSP16, literal(-14)))
          CFI (cfiCond5) V9 load(1, XDATA, add(CFA_XSP16, literal(-13)))
          CFI (cfiCond5) V10 load(1, XDATA, add(CFA_XSP16, literal(-12)))
          CFI (cfiCond5) V11 load(1, XDATA, add(CFA_XSP16, literal(-11)))
          CFI (cfiCond5) V12 load(1, XDATA, add(CFA_XSP16, literal(-10)))
          CFI (cfiCond5) V13 load(1, XDATA, add(CFA_XSP16, literal(-9)))
          CFI (cfiCond5) V14 load(1, XDATA, add(CFA_XSP16, literal(-8)))
          CFI (cfiCond5) V15 load(1, XDATA, add(CFA_XSP16, literal(-7)))
          CFI (cfiCond5) R7 load(1, XDATA, add(CFA_XSP16, literal(-6)))
          CFI (cfiCond5) ?RET_LOW load(1, XDATA, add(CFA_XSP16, literal(-5)))
          CFI (cfiCond5) ?RET_HIGH load(1, XDATA, add(CFA_XSP16, literal(-4)))
          CFI (cfiCond5) ?BRET_EXT load(1, XDATA, add(CFA_XSP16, literal(-3)))
          CFI (cfiCond5) DPL0 load(1, XDATA, add(CFA_XSP16, literal(-2)))
          CFI (cfiCond5) DPH0 load(1, XDATA, add(CFA_XSP16, literal(-1)))
          CFI (cfiCond5) CFA_SP SP+-2
          CFI (cfiCond5) CFA_XSP16 add(XSP16, 25)
          CFI Block cfiCond6 Using cfiCommon0
          CFI (cfiCond6) Function uiCreateChannelMaskString
          CFI (cfiCond6) Conditional ??CrossCallReturnLabel_81
          CFI (cfiCond6) R6 load(1, XDATA, add(CFA_XSP16, literal(-20)))
          CFI (cfiCond6) VB load(1, XDATA, add(CFA_XSP16, literal(-19)))
          CFI (cfiCond6) V0 load(1, XDATA, add(CFA_XSP16, literal(-18)))
          CFI (cfiCond6) V1 load(1, XDATA, add(CFA_XSP16, literal(-17)))
          CFI (cfiCond6) V2 load(1, XDATA, add(CFA_XSP16, literal(-16)))
          CFI (cfiCond6) V3 load(1, XDATA, add(CFA_XSP16, literal(-15)))
          CFI (cfiCond6) V4 load(1, XDATA, add(CFA_XSP16, literal(-14)))
          CFI (cfiCond6) V5 load(1, XDATA, add(CFA_XSP16, literal(-13)))
          CFI (cfiCond6) V6 load(1, XDATA, add(CFA_XSP16, literal(-12)))
          CFI (cfiCond6) V7 load(1, XDATA, add(CFA_XSP16, literal(-11)))
          CFI (cfiCond6) V8 load(1, XDATA, add(CFA_XSP16, literal(-10)))
          CFI (cfiCond6) V9 load(1, XDATA, add(CFA_XSP16, literal(-9)))
          CFI (cfiCond6) V10 load(1, XDATA, add(CFA_XSP16, literal(-8)))
          CFI (cfiCond6) V11 load(1, XDATA, add(CFA_XSP16, literal(-7)))
          CFI (cfiCond6) R7 load(1, XDATA, add(CFA_XSP16, literal(-6)))
          CFI (cfiCond6) ?RET_LOW load(1, XDATA, add(CFA_XSP16, literal(-5)))
          CFI (cfiCond6) ?RET_HIGH load(1, XDATA, add(CFA_XSP16, literal(-4)))
          CFI (cfiCond6) ?BRET_EXT load(1, XDATA, add(CFA_XSP16, literal(-3)))
          CFI (cfiCond6) DPL0 load(1, XDATA, add(CFA_XSP16, literal(-2)))
          CFI (cfiCond6) DPH0 load(1, XDATA, add(CFA_XSP16, literal(-1)))
          CFI (cfiCond6) CFA_SP SP+-2
          CFI (cfiCond6) CFA_XSP16 add(XSP16, 21)
          CFI Block cfiPicker7 Using cfiCommon1
          CFI (cfiPicker7) NoFunction
          CFI (cfiPicker7) Picker
        SUBB      A,#0x0
        MOV       C,0xD0 /* PSW */.2
        XRL       A,PSW
        RLC       A
        RET
          CFI EndBlock cfiCond4
          CFI EndBlock cfiCond5
          CFI EndBlock cfiCond6
          CFI EndBlock cfiPicker7
//  566 
//  567 /*********************************************************************
//  568  * @fn          uiArrayToString
//  569  *
//  570  * @brief       format a memory buffer into a string buffer in hex representation.
//  571  *
//  572  * @param       buf - pointer to a bufer to be formatted
//  573  *              str - pointer to a buffer to store the formatted string
//  574  *              num_of_digists - number of digits to include in the formatted string
//  575  *              big_endian - whether the memory content should be represented as big or little endian
//  576  *
//  577  * @return      none
//  578  */

        RSEG BANKED_CODE:HUGECODE:NOROOT(0)
//  579 static void uiArrayToString (uint8 * buf, char * str, uint8 num_of_digists, bool big_endian)
uiArrayToString:
          CFI Block cfiBlock8 Using cfiCommon0
          CFI Function uiArrayToString
        CODE
//  580 {
        REQUIRE ?V0
        REQUIRE ?V1
        REQUIRE ?V2
        REQUIRE ?V3
        REQUIRE ?V4
        REQUIRE ?V5
        REQUIRE ?V6
        REQUIRE ?V7
        REQUIRE ?V8
        REQUIRE ?V9
        MOV       A,#-0x12
        LCALL     ?BANKED_ENTER_XDATA
          CFI DPH0 load(1, XDATA, add(CFA_XSP16, literal(-1)))
          CFI DPL0 load(1, XDATA, add(CFA_XSP16, literal(-2)))
          CFI ?BRET_EXT load(1, XDATA, add(CFA_XSP16, literal(-3)))
          CFI ?RET_HIGH load(1, XDATA, add(CFA_XSP16, literal(-4)))
          CFI ?RET_LOW load(1, XDATA, add(CFA_XSP16, literal(-5)))
          CFI R7 load(1, XDATA, add(CFA_XSP16, literal(-6)))
          CFI V9 load(1, XDATA, add(CFA_XSP16, literal(-7)))
          CFI V8 load(1, XDATA, add(CFA_XSP16, literal(-8)))
          CFI V7 load(1, XDATA, add(CFA_XSP16, literal(-9)))
          CFI V6 load(1, XDATA, add(CFA_XSP16, literal(-10)))
          CFI V5 load(1, XDATA, add(CFA_XSP16, literal(-11)))
          CFI V4 load(1, XDATA, add(CFA_XSP16, literal(-12)))
          CFI V3 load(1, XDATA, add(CFA_XSP16, literal(-13)))
          CFI V2 load(1, XDATA, add(CFA_XSP16, literal(-14)))
          CFI V1 load(1, XDATA, add(CFA_XSP16, literal(-15)))
          CFI V0 load(1, XDATA, add(CFA_XSP16, literal(-16)))
          CFI VB load(1, XDATA, add(CFA_XSP16, literal(-17)))
          CFI R6 load(1, XDATA, add(CFA_XSP16, literal(-18)))
          CFI CFA_SP SP+0
          CFI CFA_XSP16 add(XSP16, 18)
        ; Saved register size: 18
        ; Auto size: 0
        MOV       A,R2
        MOV       R6,A
        MOV       A,R3
        MOV       R7,A
        MOV       ?V0,R4
        MOV       ?V1,R5
        MOV       ?V5,R1
//  581   int i;
//  582   uint8 stringIndex;
//  583   uint8 value;
//  584   
//  585   for (i = 0; i < num_of_digists; i++)
        MOV       R4,#0x0
        MOV       R5,#0x0
        MOV       A,#0x12
        LCALL     ?XSTACK_DISP0_8
        MOVX      A,@DPTR
        MOV       ?V6,A
        SJMP      ??uiArrayToString_0
//  586   {
//  587     stringIndex = (big_endian ? i : num_of_digists - 1 - i);
//  588     if(big_endian)
//  589     {
//  590       value = (buf[i / 2] >> (4 * (!(i % 2)))) & 0x0F;
//  591     }
//  592     else
//  593     {
//  594       value = (buf[i / 2] >> (4 * (i % 2))) & 0x0F;
??uiArrayToString_1:
        MOV       A,R4
        MOV       R0,A
        MOV       A,R5
        MOV       R1,A
        MOV       R2,#0x2
        MOV       R3,#0x0
        LCALL     ?S_DIV_MOD
        LCALL     ?Subroutine28 & 0xFFFF
//  595     }
??CrossCallReturnLabel_61:
        MOV       ?V8,A
        MOV       ?V9,#0x0
        MOV       A,R2
        RLC       A
        RLC       A
        ANL       A,#0xfc
        MOV       R0,#?V8
        LCALL     ?SS_SHR
        MOV       A,?V8
??uiArrayToString_2:
        ANL       A,#0xf
        MOV       R0,A
//  596     str[stringIndex] = '0' + value;
        MOV       A,#0x30
        ADD       A,R0
        MOV       R0,A
        MOV       R2,?V4
        MOV       A,?V0
        ADD       A,R2
        MOV       DPL,A
        CLR       A
        ADDC      A,?V1
        MOV       DPH,A
        MOV       A,R0
        MOVX      @DPTR,A
//  597     if (str[stringIndex] > '9')
        CLR       C
        SUBB      A,#0x3a
        JC        ??uiArrayToString_3
//  598     {
//  599       str[stringIndex] += 'A' - '0' - 10;
        MOVX      A,@DPTR
        ADD       A,#0x7
        MOVX      @DPTR,A
//  600     }
??uiArrayToString_3:
        INC       R4
        MOV       A,R4
        JNZ       ??uiArrayToString_0
        INC       R5
??uiArrayToString_0:
        MOV       R0,?V5
        CLR       C
        MOV       A,R4
        SUBB      A,R0
        MOV       A,R5
        LCALL     ??Subroutine39_0 & 0xFFFF
??CrossCallReturnLabel_79:
        JNC       ??uiArrayToString_4
        MOV       A,?V6
        JZ        ??uiArrayToString_5
        MOV       A,R4
        SJMP      ??uiArrayToString_6
??uiArrayToString_5:
        MOV       A,R4
        MOV       R0,A
        MOV       A,#-0x1
        ADD       A,?V5
        CLR       C
        SUBB      A,R0
??uiArrayToString_6:
        MOV       ?V4,A
        MOV       A,R4
        MOV       R0,A
        MOV       A,R5
        MOV       R1,A
        MOV       R2,#0x2
        MOV       R3,#0x0
        LCALL     ?S_DIV_MOD
        MOV       A,?V6
        JZ        ??uiArrayToString_1
        MOV       A,R2
        ORL       A,R3
        JNZ       ??uiArrayToString_7
        MOV       ?V2,#0x4
        SJMP      ??uiArrayToString_8
??uiArrayToString_7:
        MOV       ?V2,#0x0
??uiArrayToString_8:
        MOV       A,R4
        MOV       R0,A
        MOV       A,R5
        MOV       R1,A
        MOV       R2,#0x2
        MOV       R3,#0x0
        LCALL     ?S_DIV_MOD
        LCALL     ?Subroutine28 & 0xFFFF
//  601   }
??CrossCallReturnLabel_62:
        MOV       R0,?V2
        CJNE      R0,#0x0,??uiArrayToString_9
        SJMP      ??uiArrayToString_2
??uiArrayToString_9:
        CLR       C
        RRC       A
        DJNZ      R0,??uiArrayToString_9
        SJMP      ??uiArrayToString_2
//  602 }
??uiArrayToString_4:
          CFI EndBlock cfiBlock8
        REQUIRE ?Subroutine0
        ; // Fall through to label ?Subroutine0

        RSEG BANKED_CODE:HUGECODE:NOROOT(0)
?Subroutine0:
          CFI Block cfiBlock9 Using cfiCommon0
          CFI NoFunction
          CFI CFA_SP SP+0
          CFI CFA_XSP16 add(XSP16, 18)
          CFI VB load(1, XDATA, add(CFA_XSP16, literal(-17)))
          CFI DPL0 load(1, XDATA, add(CFA_XSP16, literal(-2)))
          CFI DPH0 load(1, XDATA, add(CFA_XSP16, literal(-1)))
          CFI R6 load(1, XDATA, add(CFA_XSP16, literal(-18)))
          CFI R7 load(1, XDATA, add(CFA_XSP16, literal(-6)))
          CFI V0 load(1, XDATA, add(CFA_XSP16, literal(-16)))
          CFI V1 load(1, XDATA, add(CFA_XSP16, literal(-15)))
          CFI V2 load(1, XDATA, add(CFA_XSP16, literal(-14)))
          CFI V3 load(1, XDATA, add(CFA_XSP16, literal(-13)))
          CFI V4 load(1, XDATA, add(CFA_XSP16, literal(-12)))
          CFI V5 load(1, XDATA, add(CFA_XSP16, literal(-11)))
          CFI V6 load(1, XDATA, add(CFA_XSP16, literal(-10)))
          CFI V7 load(1, XDATA, add(CFA_XSP16, literal(-9)))
          CFI V8 load(1, XDATA, add(CFA_XSP16, literal(-8)))
          CFI V9 load(1, XDATA, add(CFA_XSP16, literal(-7)))
          CFI ?BRET_EXT load(1, XDATA, add(CFA_XSP16, literal(-3)))
          CFI ?RET_HIGH load(1, XDATA, add(CFA_XSP16, literal(-4)))
          CFI ?RET_LOW load(1, XDATA, add(CFA_XSP16, literal(-5)))
        MOV       R7,#0xa
        LJMP      ?BANKED_LEAVE_XDATA
          CFI EndBlock cfiBlock9

        RSEG BANKED_CODE:HUGECODE:NOROOT(0)
?Subroutine28:
          CFI Block cfiCond10 Using cfiCommon0
          CFI Function uiArrayToString
          CFI Conditional ??CrossCallReturnLabel_61
          CFI R6 load(1, XDATA, add(CFA_XSP16, literal(-18)))
          CFI VB load(1, XDATA, add(CFA_XSP16, literal(-17)))
          CFI V0 load(1, XDATA, add(CFA_XSP16, literal(-16)))
          CFI V1 load(1, XDATA, add(CFA_XSP16, literal(-15)))
          CFI V2 load(1, XDATA, add(CFA_XSP16, literal(-14)))
          CFI V3 load(1, XDATA, add(CFA_XSP16, literal(-13)))
          CFI V4 load(1, XDATA, add(CFA_XSP16, literal(-12)))
          CFI V5 load(1, XDATA, add(CFA_XSP16, literal(-11)))
          CFI V6 load(1, XDATA, add(CFA_XSP16, literal(-10)))
          CFI V7 load(1, XDATA, add(CFA_XSP16, literal(-9)))
          CFI V8 load(1, XDATA, add(CFA_XSP16, literal(-8)))
          CFI V9 load(1, XDATA, add(CFA_XSP16, literal(-7)))
          CFI R7 load(1, XDATA, add(CFA_XSP16, literal(-6)))
          CFI ?RET_LOW load(1, XDATA, add(CFA_XSP16, literal(-5)))
          CFI ?RET_HIGH load(1, XDATA, add(CFA_XSP16, literal(-4)))
          CFI ?BRET_EXT load(1, XDATA, add(CFA_XSP16, literal(-3)))
          CFI DPL0 load(1, XDATA, add(CFA_XSP16, literal(-2)))
          CFI DPH0 load(1, XDATA, add(CFA_XSP16, literal(-1)))
          CFI CFA_SP SP+-2
          CFI CFA_XSP16 add(XSP16, 18)
          CFI Block cfiCond11 Using cfiCommon0
          CFI (cfiCond11) Function uiArrayToString
          CFI (cfiCond11) Conditional ??CrossCallReturnLabel_62
          CFI (cfiCond11) R6 load(1, XDATA, add(CFA_XSP16, literal(-18)))
          CFI (cfiCond11) VB load(1, XDATA, add(CFA_XSP16, literal(-17)))
          CFI (cfiCond11) V0 load(1, XDATA, add(CFA_XSP16, literal(-16)))
          CFI (cfiCond11) V1 load(1, XDATA, add(CFA_XSP16, literal(-15)))
          CFI (cfiCond11) V2 load(1, XDATA, add(CFA_XSP16, literal(-14)))
          CFI (cfiCond11) V3 load(1, XDATA, add(CFA_XSP16, literal(-13)))
          CFI (cfiCond11) V4 load(1, XDATA, add(CFA_XSP16, literal(-12)))
          CFI (cfiCond11) V5 load(1, XDATA, add(CFA_XSP16, literal(-11)))
          CFI (cfiCond11) V6 load(1, XDATA, add(CFA_XSP16, literal(-10)))
          CFI (cfiCond11) V7 load(1, XDATA, add(CFA_XSP16, literal(-9)))
          CFI (cfiCond11) V8 load(1, XDATA, add(CFA_XSP16, literal(-8)))
          CFI (cfiCond11) V9 load(1, XDATA, add(CFA_XSP16, literal(-7)))
          CFI (cfiCond11) R7 load(1, XDATA, add(CFA_XSP16, literal(-6)))
          CFI (cfiCond11) ?RET_LOW load(1, XDATA, add(CFA_XSP16, literal(-5)))
          CFI (cfiCond11) ?RET_HIGH load(1, XDATA, add(CFA_XSP16, literal(-4)))
          CFI (cfiCond11) ?BRET_EXT load(1, XDATA, add(CFA_XSP16, literal(-3)))
          CFI (cfiCond11) DPL0 load(1, XDATA, add(CFA_XSP16, literal(-2)))
          CFI (cfiCond11) DPH0 load(1, XDATA, add(CFA_XSP16, literal(-1)))
          CFI (cfiCond11) CFA_SP SP+-2
          CFI (cfiCond11) CFA_XSP16 add(XSP16, 18)
          CFI Block cfiPicker12 Using cfiCommon1
          CFI (cfiPicker12) NoFunction
          CFI (cfiPicker12) Picker
        MOV       ?V9,R1
        MOV       A,R6
        ADD       A,R0
        MOV       DPL,A
        MOV       A,R7
        ADDC      A,?V9
        MOV       DPH,A
        MOVX      A,@DPTR
        RET
          CFI EndBlock cfiCond10
          CFI EndBlock cfiCond11
          CFI EndBlock cfiPicker12
//  603 
//  604 /*********************************************************************
//  605  * @fn          uiCreateChannelMaskString
//  606  *
//  607  * @brief       format a channel mask into a string bugger
//  608  *
//  609  * @param       channel_mask - bitmask of the enabled / disabled channels (bits 11-26 represent the
//  610  *                respective channels)
//  611  *              str - pointer to a buffer to store the formatted string
//  612  *
//  613  * @return      none
//  614  */

        RSEG BANKED_CODE:HUGECODE:NOROOT(0)
//  615 static void uiCreateChannelMaskString(uint32 channel_mask, char * str)
uiCreateChannelMaskString:
          CFI Block cfiBlock13 Using cfiCommon0
          CFI Function uiCreateChannelMaskString
        CODE
//  616 {
        REQUIRE ?V0
        REQUIRE ?V1
        REQUIRE ?V2
        REQUIRE ?V3
        REQUIRE ?V4
        REQUIRE ?V5
        REQUIRE ?V6
        REQUIRE ?V7
        REQUIRE ?V8
        REQUIRE ?V9
        REQUIRE ?V10
        REQUIRE ?V11
        MOV       A,#-0x14
        LCALL     ?BANKED_ENTER_XDATA
          CFI DPH0 load(1, XDATA, add(CFA_XSP16, literal(-1)))
          CFI DPL0 load(1, XDATA, add(CFA_XSP16, literal(-2)))
          CFI ?BRET_EXT load(1, XDATA, add(CFA_XSP16, literal(-3)))
          CFI ?RET_HIGH load(1, XDATA, add(CFA_XSP16, literal(-4)))
          CFI ?RET_LOW load(1, XDATA, add(CFA_XSP16, literal(-5)))
          CFI R7 load(1, XDATA, add(CFA_XSP16, literal(-6)))
          CFI V11 load(1, XDATA, add(CFA_XSP16, literal(-7)))
          CFI V10 load(1, XDATA, add(CFA_XSP16, literal(-8)))
          CFI V9 load(1, XDATA, add(CFA_XSP16, literal(-9)))
          CFI V8 load(1, XDATA, add(CFA_XSP16, literal(-10)))
          CFI V7 load(1, XDATA, add(CFA_XSP16, literal(-11)))
          CFI V6 load(1, XDATA, add(CFA_XSP16, literal(-12)))
          CFI V5 load(1, XDATA, add(CFA_XSP16, literal(-13)))
          CFI V4 load(1, XDATA, add(CFA_XSP16, literal(-14)))
          CFI V3 load(1, XDATA, add(CFA_XSP16, literal(-15)))
          CFI V2 load(1, XDATA, add(CFA_XSP16, literal(-16)))
          CFI V1 load(1, XDATA, add(CFA_XSP16, literal(-17)))
          CFI V0 load(1, XDATA, add(CFA_XSP16, literal(-18)))
          CFI VB load(1, XDATA, add(CFA_XSP16, literal(-19)))
          CFI R6 load(1, XDATA, add(CFA_XSP16, literal(-20)))
          CFI CFA_SP SP+0
          CFI CFA_XSP16 add(XSP16, 20)
        ; Saved register size: 20
        ; Auto size: 1
        MOV       A,#-0x1
        LCALL     ?ALLOC_XSTACK8
          CFI CFA_XSP16 add(XSP16, 21)
        MOV       ?V4,R2
        MOV       ?V5,R3
        MOV       ?V6,R4
        MOV       ?V7,R5
//  617   int i;
//  618   uint32 mask = 0x00000800;
        MOV       ?V0,#0x0
        MOV       ?V1,#0x8
        MOV       ?V2,#0x0
        MOV       ?V3,#0x0
//  619   
//  620   for (i = 0; i < 16; i++)
        MOV       R2,#0x0
        MOV       R3,#0x0
        MOV       A,#0x15
        LCALL     ?XSTACK_DISP0_8
        LCALL     ?Subroutine32 & 0xFFFF
//  621   {
//  622     str[i] = channel_mask & mask ? '*' : '-';
??CrossCallReturnLabel_69:
        MOV       ?V8,?V4
        MOV       ?V9,?V5
        MOV       ?V10,?V6
        MOV       ?V11,?V7
        MOV       R0,#?V8
        MOV       R1,#?V0
        LCALL     ?L_AND
        MOV       A,?V8
        ORL       A,?V9
        ORL       A,?V10
        ORL       A,?V11
        MOV       DPL,?XSP + 0
        MOV       DPH,?XSP + 1
        JZ        ??uiCreateChannelMaskString_0
        MOV       A,#0x2a
        SJMP      ??uiCreateChannelMaskString_1
??uiCreateChannelMaskString_0:
        MOV       A,#0x2d
??uiCreateChannelMaskString_1:
        MOVX      @DPTR,A
        MOVX      A,@DPTR
        PUSH      A
          CFI CFA_SP SP+-1
        MOV       A,R4
        ADD       A,R2
        MOV       DPL,A
        MOV       A,R5
        ADDC      A,R3
        MOV       DPH,A
        POP       A
          CFI CFA_SP SP+0
        MOVX      @DPTR,A
//  623     mask <<= 1;
        MOV       A,#0x1
        MOV       R0,#?V0
        LCALL     ?L_SHL
//  624   }
        INC       R2
        MOV       A,R2
        JNZ       ??uiCreateChannelMaskString_2
        INC       R3
??uiCreateChannelMaskString_2:
        CLR       C
        SUBB      A,#0x10
        LCALL     ?Subroutine27 & 0xFFFF
??CrossCallReturnLabel_81:
        JC        ??CrossCallReturnLabel_69
//  625   
//  626   str[16] = 0;
        MOV       A,R4
        ADD       A,#0x10
        MOV       DPL,A
        CLR       A
        ADDC      A,R5
        MOV       DPH,A
        CLR       A
        MOVX      @DPTR,A
//  627 }
        INC       A
        LCALL     ?DEALLOC_XSTACK8
          CFI CFA_XSP16 add(XSP16, 20)
        MOV       R7,#0xc
        LJMP      ?BANKED_LEAVE_XDATA
          CFI EndBlock cfiBlock13
//  628 
//  629 
//  630 /*********************************************************************
//  631  * LOCAL FUNCTIONS
//  632  */
//  633 
//  634 /*********************************************************************
//  635  * @fn          uiActionMenuJump
//  636  *
//  637  * @brief       State-machine action for jumping to another state
//  638  *
//  639  * @param       keys - the keypress code that triggered the call to this function
//  640  *
//  641  * @return      none
//  642  */

        RSEG BANKED_CODE:HUGECODE:NOROOT(0)
//  643 static void uiActionMenuJump(uint16 keys)
uiActionMenuJump:
          CFI Block cfiBlock14 Using cfiCommon0
          CFI Function uiActionMenuJump
        CODE
//  644 {
        REQUIRE ?V0
        REQUIRE ?V1
        MOV       A,#-0xa
        LCALL     ?BANKED_ENTER_XDATA
          CFI DPH0 load(1, XDATA, add(CFA_XSP16, literal(-1)))
          CFI DPL0 load(1, XDATA, add(CFA_XSP16, literal(-2)))
          CFI ?BRET_EXT load(1, XDATA, add(CFA_XSP16, literal(-3)))
          CFI ?RET_HIGH load(1, XDATA, add(CFA_XSP16, literal(-4)))
          CFI ?RET_LOW load(1, XDATA, add(CFA_XSP16, literal(-5)))
          CFI R7 load(1, XDATA, add(CFA_XSP16, literal(-6)))
          CFI V1 load(1, XDATA, add(CFA_XSP16, literal(-7)))
          CFI V0 load(1, XDATA, add(CFA_XSP16, literal(-8)))
          CFI VB load(1, XDATA, add(CFA_XSP16, literal(-9)))
          CFI R6 load(1, XDATA, add(CFA_XSP16, literal(-10)))
          CFI CFA_SP SP+0
          CFI CFA_XSP16 add(XSP16, 10)
        ; Saved register size: 10
        ; Auto size: 0
//  645   switch (uiCurrentState)
        MOV       DPTR,#uiCurrentState
        LCALL     ?Subroutine38 & 0xFFFF
??CrossCallReturnLabel_120:
        JNZ       ??uiActionMenuJump_0
        MOV       A,?V0
        LCALL     ?UC_SWITCH_SPARSE
`?<Jumptable for uiActionMenuJump>_0`:
        DATA
        DATA8
        DATA
        DATA8
        DATA
        DATA8
        DB        0
        DATA
        DATA8
        DATA
        DATA8
        DATA
        DATA8
        DB        10
        DATA
        DATA8
        DATA
        DATA8
        DATA
        DATA8
        DB        0
        DATA
        DATA16
        DATA
        DATA16
        DATA
        DATA16
        DW        ??uiActionMenuJump_1
        DATA
        DATA8
        DATA
        DATA8
        DATA
        DATA8
        DB        1
        DATA
        DATA16
        DATA
        DATA16
        DATA
        DATA16
        DW        ??uiActionMenuJump_2
        DATA
        DATA8
        DATA
        DATA8
        DATA
        DATA8
        DB        6
        DATA
        DATA16
        DATA
        DATA16
        DATA
        DATA16
        DW        ??uiActionMenuJump_3
        DATA
        DATA8
        DATA
        DATA8
        DATA
        DATA8
        DB        7
        DATA
        DATA16
        DATA
        DATA16
        DATA
        DATA16
        DW        ??uiActionMenuJump_4
        DATA
        DATA8
        DATA
        DATA8
        DATA
        DATA8
        DB        11
        DATA
        DATA16
        DATA
        DATA16
        DATA
        DATA16
        DW        ??uiActionMenuJump_5
        DATA
        DATA8
        DATA
        DATA8
        DATA
        DATA8
        DB        12
        DATA
        DATA16
        DATA
        DATA16
        DATA
        DATA16
        DW        ??uiActionMenuJump_6
        DATA
        DATA8
        DATA
        DATA8
        DATA
        DATA8
        DB        13
        DATA
        DATA16
        DATA
        DATA16
        DATA
        DATA16
        DW        ??uiActionMenuJump_7
        DATA
        DATA8
        DATA
        DATA8
        DATA
        DATA8
        DB        14
        DATA
        DATA16
        DATA
        DATA16
        DATA
        DATA16
        DW        ??uiActionMenuJump_8
        DATA
        DATA8
        DATA
        DATA8
        DATA
        DATA8
        DB        18
        DATA
        DATA16
        DATA
        DATA16
        DATA
        DATA16
        DW        ??uiActionMenuJump_9
        DATA
        DATA8
        DATA
        DATA8
        DATA
        DATA8
        DB        20
        DATA
        DATA16
        DATA
        DATA16
        DATA
        DATA16
        DW        ??uiActionMenuJump_2
        DATA
        DATA16
        DATA
        DATA16
        DW        ??uiActionMenuJump_0
        CODE
//  646   {
//  647     case UI_STATE_DEFAULT:
//  648       uiCurrentState = UI_STATE_STATE_HELP;
??uiActionMenuJump_1:
        MOV       DPTR,#uiCurrentState
        MOV       A,#0x6
        SJMP      ??uiActionMenuJump_10
//  649       break;
//  650     case UI_STATE_STATE_HELP:
//  651       uiCurrentState = UI_STATE_DEFAULT;
??uiActionMenuJump_3:
        MOV       DPTR,#uiCurrentState
        CLR       A
        MOVX      @DPTR,A
        INC       DPTR
        SJMP      ??uiActionMenuJump_11
//  652       break;
//  653     case UI_STATE_CONFIGURE:
//  654       uiCurrentState = UI_STATE_SET_INST_CODE;
//  655       break;
//  656     case UI_STATE_BACK_FROM_CONFIGURE:
//  657       uiCurrentState = UI_STATE_CONFIGURE;
??uiActionMenuJump_8:
        MOV       DPTR,#uiCurrentState
        MOV       A,#0x1
        SJMP      ??uiActionMenuJump_10
//  658       break;
//  659     case UI_STATE_SET_PRI_CHANEL_MASK_0:
//  660       uiCurrentState = UI_STATE_SET_PRI_CHANEL_MASK_1;
??uiActionMenuJump_5:
        MOV       DPTR,#uiCurrentState
        MOV       A,#0xf
        SJMP      ??uiActionMenuJump_10
//  661       break;
//  662     case UI_STATE_SET_SEC_CHANEL_MASK_0:
//  663       uiCurrentState = UI_STATE_SET_SEC_CHANEL_MASK_1;
??uiActionMenuJump_6:
        MOV       DPTR,#uiCurrentState
        MOV       A,#0x10
        SJMP      ??uiActionMenuJump_10
//  664       break;
//  665     case UI_STATE_SET_PAN_ID_0:
//  666       uiCurrentState = UI_STATE_SET_PAN_ID_1;
??uiActionMenuJump_7:
        MOV       DPTR,#uiCurrentState
        MOV       A,#0x11
        SJMP      ??uiActionMenuJump_10
//  667       break;
//  668     case UI_STATE_SET_INST_CODE:
//  669       uiCurrentState = UI_STATE_SET_INST_CODE_0;
??uiActionMenuJump_4:
        MOV       DPTR,#uiCurrentState
        MOV       A,#0x12
        SJMP      ??uiActionMenuJump_10
//  670       break;
//  671     case UI_STATE_SET_INST_CODE_0:
//  672       uiCurrentState = UI_STATE_SET_INST_CODE_1;
??uiActionMenuJump_9:
        MOV       DPTR,#uiCurrentState
        MOV       A,#0x15
        SJMP      ??uiActionMenuJump_10
//  673       break;
//  674 #if (ZG_BUILD_COORDINATOR_TYPE)
//  675     case UI_STATE_SET_INST_CODE_ADDR_0:
//  676       uiCurrentState = UI_STATE_SET_INST_CODE_ADDR_1;
//  677       break;
//  678 #endif
//  679     case UI_STATE_BACK_FROM_INSTALL_CODE:
//  680       uiCurrentState = UI_STATE_SET_INST_CODE;
??uiActionMenuJump_2:
        MOV       DPTR,#uiCurrentState
        MOV       A,#0x7
??uiActionMenuJump_10:
        MOVX      @DPTR,A
        INC       DPTR
        CLR       A
??uiActionMenuJump_11:
        MOVX      @DPTR,A
//  681       break;
//  682   }
//  683 }
??uiActionMenuJump_0:
          CFI EndBlock cfiBlock14
        REQUIRE ?Subroutine1
        ; // Fall through to label ?Subroutine1

        RSEG BANKED_CODE:HUGECODE:NOROOT(0)
?Subroutine1:
          CFI Block cfiBlock15 Using cfiCommon0
          CFI NoFunction
          CFI CFA_SP SP+0
          CFI CFA_XSP16 add(XSP16, 10)
          CFI VB load(1, XDATA, add(CFA_XSP16, literal(-9)))
          CFI DPL0 load(1, XDATA, add(CFA_XSP16, literal(-2)))
          CFI DPH0 load(1, XDATA, add(CFA_XSP16, literal(-1)))
          CFI R6 load(1, XDATA, add(CFA_XSP16, literal(-10)))
          CFI R7 load(1, XDATA, add(CFA_XSP16, literal(-6)))
          CFI V0 load(1, XDATA, add(CFA_XSP16, literal(-8)))
          CFI V1 load(1, XDATA, add(CFA_XSP16, literal(-7)))
          CFI ?BRET_EXT load(1, XDATA, add(CFA_XSP16, literal(-3)))
          CFI ?RET_HIGH load(1, XDATA, add(CFA_XSP16, literal(-4)))
          CFI ?RET_LOW load(1, XDATA, add(CFA_XSP16, literal(-5)))
        MOV       R7,#0x2
        LJMP      ?BANKED_LEAVE_XDATA
          CFI EndBlock cfiBlock15
//  684 
//  685 /*********************************************************************
//  686  * @fn          uiActionStartComissioning
//  687  *
//  688  * @brief       State-machine action for starting comissioning
//  689  *
//  690  * @param       keys - the keypress code that triggered the call to this function
//  691  *
//  692  * @return      none
//  693  */

        RSEG BANKED_CODE:HUGECODE:NOROOT(0)
//  694 static void uiActionStartComissioning(uint16 keys)
uiActionStartComissioning:
          CFI Block cfiBlock16 Using cfiCommon0
          CFI Function uiActionStartComissioning
        CODE
//  695 {
        FUNCALL uiActionStartComissioning, UI_UpdateLcd
        LOCFRAME ISTACK, 2, STACK
        LOCFRAME PSTACK, 0, STACK
        LOCFRAME XSTACK, 0, STACK
        LOCFRAME IOVERLAY, 0, STATIC
        LOCFRAME DOVERLAY, 0, STATIC
        ARGFRAME ISTACK, 2, STACK
        ARGFRAME PSTACK, 0, STACK
        ARGFRAME XSTACK, 0, STACK
        ARGFRAME IOVERLAY, 0, STATIC
        ARGFRAME DOVERLAY, 0, STATIC
        FUNCALL uiActionStartComissioning, bdb_StartCommissioning
        LOCFRAME ISTACK, 2, STACK
        LOCFRAME PSTACK, 0, STACK
        LOCFRAME XSTACK, 0, STACK
        LOCFRAME IOVERLAY, 0, STATIC
        LOCFRAME DOVERLAY, 0, STATIC
        ARGFRAME ISTACK, 2, STACK
        ARGFRAME PSTACK, 0, STACK
        ARGFRAME XSTACK, 0, STACK
        ARGFRAME IOVERLAY, 0, STATIC
        ARGFRAME DOVERLAY, 0, STATIC
        PUSH      DPL
          CFI DPL0 Frame(CFA_SP, 4)
          CFI CFA_SP SP+-4
        PUSH      DPH
          CFI DPH0 Frame(CFA_SP, 5)
          CFI CFA_SP SP+-5
        ; Saved register size: 2
        ; Auto size: 0
//  696   if ((!uiComissioningIsActive) && (uiSelectedBdbComissioningModes != 0))
        MOV       DPTR,#uiComissioningIsActive
        MOVX      A,@DPTR
        JNZ       ??uiActionStartComissioning_0
        MOV       DPTR,#uiSelectedBdbComissioningModes
        MOVX      A,@DPTR
        JZ        ??uiActionStartComissioning_0
//  697   {
//  698     uiComissioningIsActive = TRUE;
        MOV       DPTR,#uiComissioningIsActive
        MOV       A,#0x1
        MOVX      @DPTR,A
//  699 
//  700     FBMatchesFound = 0;
        MOV       DPTR,#FBMatchesFound
        CLR       A
        MOVX      @DPTR,A
//  701     
//  702     //update LCD now, since bdb_StartCommissioning() is blocking for a few seconds,
//  703     // and we want to give a prompt response to the user
//  704     uiCommissioningIsInitializing = TRUE;
        MOV       DPTR,#uiCommissioningIsInitializing
        INC       A
        MOVX      @DPTR,A
//  705     UI_UpdateLcd();
        ; Setup parameters for call to function UI_UpdateLcd
        LCALL     `??UI_UpdateLcd::?relay`; Banked call to: UI_UpdateLcd
//  706 
//  707     //if already on the network - mark it as 'existing connection'
//  708     if ((uiNwkStateShadow == DEV_END_DEVICE) || (uiNwkStateShadow == DEV_ZB_COORD) || (uiNwkStateShadow == DEV_ROUTER))
        MOV       DPTR,#uiNwkStateShadow
        MOVX      A,@DPTR
        XRL       A,#0x6
        JZ        ??uiActionStartComissioning_1
        MOVX      A,@DPTR
        XRL       A,#0x9
        JZ        ??uiActionStartComissioning_1
        MOVX      A,@DPTR
        XRL       A,#0x7
        JNZ       ??uiActionStartComissioning_2
//  709     {
//  710       uiCommissioningNetworkConnrctionStr = "EXST";
??uiActionStartComissioning_1:
        MOV       DPTR,#uiCommissioningNetworkConnrctionStr
        MOV       A,#`?<Constant "EXST">` & 0xff
        MOVX      @DPTR,A
        INC       DPTR
        MOV       A,#(`?<Constant "EXST">` >> 8) & 0xff
        MOVX      @DPTR,A
//  711     }
//  712     
//  713     bdb_StartCommissioning(uiSelectedBdbComissioningModes);
??uiActionStartComissioning_2:
        ; Setup parameters for call to function bdb_StartCommissioning
        MOV       DPTR,#uiSelectedBdbComissioningModes
        MOVX      A,@DPTR
        MOV       R1,A
        LCALL     `??bdb_StartCommissioning::?relay`; Banked call to: bdb_StartCommissioning
//  714   }
//  715 }
??uiActionStartComissioning_0:
        LJMP      ?Subroutine2 & 0xFFFF
          CFI EndBlock cfiBlock16
//  716 
//  717 /*********************************************************************
//  718  * @fn          uiActionSetInstallCode
//  719  *
//  720  * @brief       State-machine action for setting the install code
//  721  *
//  722  * @param       keys - the keypress code that triggered the call to this function
//  723  *
//  724  * @return      none
//  725  */

        RSEG BANKED_CODE:HUGECODE:NOROOT(0)
//  726 static void uiActionSetInstallCode(uint16 keys)
uiActionSetInstallCode:
          CFI Block cfiBlock17 Using cfiCommon0
          CFI Function uiActionSetInstallCode
        CODE
//  727 {
        FUNCALL uiActionSetInstallCode, bdb_GenerateInstallCodeCRC
        LOCFRAME ISTACK, 0, STACK
        LOCFRAME PSTACK, 0, STACK
        LOCFRAME XSTACK, 10, STACK
        LOCFRAME IOVERLAY, 0, STATIC
        LOCFRAME DOVERLAY, 0, STATIC
        ARGFRAME ISTACK, 0, STACK
        ARGFRAME PSTACK, 0, STACK
        ARGFRAME XSTACK, 10, STACK
        ARGFRAME IOVERLAY, 0, STATIC
        ARGFRAME DOVERLAY, 0, STATIC
        FUNCALL uiActionSetInstallCode, bdb_setActiveCentralizedLinkKey
        LOCFRAME ISTACK, 0, STACK
        LOCFRAME PSTACK, 0, STACK
        LOCFRAME XSTACK, 10, STACK
        LOCFRAME IOVERLAY, 0, STATIC
        LOCFRAME DOVERLAY, 0, STATIC
        ARGFRAME ISTACK, 0, STACK
        ARGFRAME PSTACK, 0, STACK
        ARGFRAME XSTACK, 10, STACK
        ARGFRAME IOVERLAY, 0, STATIC
        ARGFRAME DOVERLAY, 0, STATIC
        REQUIRE ?V0
        REQUIRE ?V1
        MOV       A,#-0xa
        LCALL     ?BANKED_ENTER_XDATA
          CFI DPH0 load(1, XDATA, add(CFA_XSP16, literal(-1)))
          CFI DPL0 load(1, XDATA, add(CFA_XSP16, literal(-2)))
          CFI ?BRET_EXT load(1, XDATA, add(CFA_XSP16, literal(-3)))
          CFI ?RET_HIGH load(1, XDATA, add(CFA_XSP16, literal(-4)))
          CFI ?RET_LOW load(1, XDATA, add(CFA_XSP16, literal(-5)))
          CFI R7 load(1, XDATA, add(CFA_XSP16, literal(-6)))
          CFI V1 load(1, XDATA, add(CFA_XSP16, literal(-7)))
          CFI V0 load(1, XDATA, add(CFA_XSP16, literal(-8)))
          CFI VB load(1, XDATA, add(CFA_XSP16, literal(-9)))
          CFI R6 load(1, XDATA, add(CFA_XSP16, literal(-10)))
          CFI CFA_SP SP+0
          CFI CFA_XSP16 add(XSP16, 10)
        ; Saved register size: 10
        ; Auto size: 0
//  728   uint16 crc = bdb_GenerateInstallCodeCRC(uiInstallCode);
        ; Setup parameters for call to function bdb_GenerateInstallCodeCRC
        LCALL     ?Subroutine26 & 0xFFFF
//  729   uiInstallCode[INSTALL_CODE_LEN] = crc & 0xFF;
//  730   uiInstallCode[INSTALL_CODE_LEN + 1] = crc >> 8;
//  731 
//  732 #if (ZG_BUILD_COORDINATOR_TYPE)
//  733   if (ZG_DEVICE_COORDINATOR_TYPE)
//  734   {  
//  735     uiAddInstallCodeLastStatus = bdb_addInstallCode(uiInstallCode, uiInstallCodeAddr);
//  736   }
//  737   else
//  738   {
//  739     uiAddInstallCodeLastStatus = bdb_setActiveCentralizedLinkKey(zstack_UseInstallCode, uiInstallCode);
//  740   }
//  741 #else
//  742   uiAddInstallCodeLastStatus = bdb_setActiveCentralizedLinkKey(zstack_UseInstallCode, uiInstallCode);
??CrossCallReturnLabel_58:
        ; Setup parameters for call to function bdb_setActiveCentralizedLinkKey
        MOV       R2,#uiInstallCode & 0xff
        MOV       R3,#(uiInstallCode >> 8) & 0xff
        MOV       R1,#0x1
        LCALL     `??bdb_setActiveCentralizedLinkKey::?relay`; Banked call to: bdb_setActiveCentralizedLinkKey
        MOV       A,R1
        MOV       DPTR,#uiAddInstallCodeLastStatus
        MOVX      @DPTR,A
//  743 #endif
//  744 }
        SJMP      ?Subroutine1
          CFI EndBlock cfiBlock17
//  745 
//  746 /*********************************************************************
//  747  * @fn          uiActionAppSecificMenu
//  748  *
//  749  * @brief       State-machine action for executing the application-specific sub-menus
//  750  *
//  751  * @param       keys - the keypress code that triggered the call to this function
//  752  *
//  753  * @return      none
//  754  */

        RSEG BANKED_CODE:HUGECODE:NOROOT(0)
//  755 void uiActionAppSecificMenu(uint16 keys)
uiActionAppSecificMenu:
          CFI Block cfiBlock18 Using cfiCommon0
          CFI Function uiActionAppSecificMenu
        CODE
//  756 {
        PUSH      DPL
          CFI DPL0 Frame(CFA_SP, 4)
          CFI CFA_SP SP+-4
        PUSH      DPH
          CFI DPH0 Frame(CFA_SP, 5)
          CFI CFA_SP SP+-5
        ; Saved register size: 2
        ; Auto size: 0
//  757   if (uiAppStatesMain != NULL)
        MOV       DPTR,#uiAppStatesMain
        LCALL     ??Subroutine43_0 & 0xFFFF
??CrossCallReturnLabel_88:
        JZ        ??uiActionAppSecificMenu_0
//  758   {
//  759     uiStates = uiAppStatesMain;
        MOV       DPTR,#uiStates
        LCALL     ??Subroutine46_0 & 0xFFFF
//  760     uiCurrentState = 1; //do not start from 0, which is the 'back' menu item
??CrossCallReturnLabel_128:
        MOV       DPTR,#uiCurrentState
        MOV       A,#0x1
        MOVX      @DPTR,A
        INC       DPTR
        CLR       A
        MOVX      @DPTR,A
//  761   }
//  762 }
??uiActionAppSecificMenu_0:
        LJMP      ?Subroutine2 & 0xFFFF
          CFI EndBlock cfiBlock18
//  763 
//  764 /*********************************************************************
//  765  * @fn          UI_ActionBackFromAppMenu
//  766  *
//  767  * @brief       Application state-machine action for returning to the common menu
//  768  *
//  769  * @param       keys - the keypress code that triggered the call to this function
//  770  *
//  771  * @return      none
//  772  */

        RSEG BANKED_CODE:HUGECODE:NOROOT(0)
//  773 void UI_ActionBackFromAppMenu(uint16 keys)
UI_ActionBackFromAppMenu:
          CFI Block cfiBlock19 Using cfiCommon0
          CFI Function UI_ActionBackFromAppMenu
        CODE
//  774 {
        PUSH      DPL
          CFI DPL0 Frame(CFA_SP, 4)
          CFI CFA_SP SP+-4
        PUSH      DPH
          CFI DPH0 Frame(CFA_SP, 5)
          CFI CFA_SP SP+-5
        ; Saved register size: 2
        ; Auto size: 0
//  775   uiStates = gui_states_main;
        MOV       DPTR,#uiStates
        MOV       A,#gui_states_main & 0xff
        MOVX      @DPTR,A
        INC       DPTR
        MOV       A,#(gui_states_main >> 8) & 0xff
        MOVX      @DPTR,A
//  776   uiCurrentState = UI_STATE_APP_SPECIFIC_MENU;
        MOV       DPTR,#uiCurrentState
        MOV       A,#0x3
        MOVX      @DPTR,A
        INC       DPTR
        CLR       A
        MOVX      @DPTR,A
//  777 }
        LJMP      ?Subroutine2 & 0xFFFF
          CFI EndBlock cfiBlock19
//  778 
//  779 #ifdef BDB_TL_TARGET
//  780 /*********************************************************************
//  781  * @fn          uiActionToggleTlTarget
//  782  *
//  783  * @brief       State-machine action for toggling touchlink-target functionality
//  784  *
//  785  * @param       keys - the keypress code that triggered the call to this function
//  786  *
//  787  * @return      none
//  788  */
//  789 void uiActionToggleTlTarget(uint16 keys)
//  790 {
//  791   if (!touchLinkTargetEnabled)
//  792   {
//  793     if (uiTouchlinkTargetTimeout > 0)
//  794     {
//  795       touchLinkTarget_EnableCommissioning( uiTouchlinkTargetTimeout );
//  796       uiLcdAutoUpdateInterval = LCD_AUTO_UPDATE_INTERVAL_ON_TOUCHLINK_TARGET_SCREEN;
//  797     }
//  798   }
//  799   else
//  800   {
//  801     touchLinkTarget_DisableCommissioning();
//  802     uiLcdAutoUpdateInterval = LCD_AUTO_UPDATE_INTERVAL_ON_TOUCHLINK_TARGET_SCREEN_END;
//  803   }
//  804 }
//  805 #endif
//  806 
//  807 /*********************************************************************
//  808  * @fn          uiActionProcessConfigureChannels
//  809  *
//  810  * @brief       State-machine action for configuring channel masks
//  811  *
//  812  * @param       keys - the keypress code that triggered the call to this function
//  813  *
//  814  * @return      none
//  815  */

        RSEG BANKED_CODE:HUGECODE:NOROOT(0)
//  816 static void uiActionProcessConfigureChannels(uint16 keys)
uiActionProcessConfigureChannels:
          CFI Block cfiBlock20 Using cfiCommon0
          CFI Function uiActionProcessConfigureChannels
        CODE
//  817 {
        REQUIRE ?V0
        REQUIRE ?V1
        REQUIRE ?V2
        REQUIRE ?V3
        MOV       A,#-0xc
        LCALL     ?BANKED_ENTER_XDATA
          CFI DPH0 load(1, XDATA, add(CFA_XSP16, literal(-1)))
          CFI DPL0 load(1, XDATA, add(CFA_XSP16, literal(-2)))
          CFI ?BRET_EXT load(1, XDATA, add(CFA_XSP16, literal(-3)))
          CFI ?RET_HIGH load(1, XDATA, add(CFA_XSP16, literal(-4)))
          CFI ?RET_LOW load(1, XDATA, add(CFA_XSP16, literal(-5)))
          CFI R7 load(1, XDATA, add(CFA_XSP16, literal(-6)))
          CFI V3 load(1, XDATA, add(CFA_XSP16, literal(-7)))
          CFI V2 load(1, XDATA, add(CFA_XSP16, literal(-8)))
          CFI V1 load(1, XDATA, add(CFA_XSP16, literal(-9)))
          CFI V0 load(1, XDATA, add(CFA_XSP16, literal(-10)))
          CFI VB load(1, XDATA, add(CFA_XSP16, literal(-11)))
          CFI R6 load(1, XDATA, add(CFA_XSP16, literal(-12)))
          CFI CFA_SP SP+0
          CFI CFA_XSP16 add(XSP16, 12)
        ; Saved register size: 12
        ; Auto size: 0
//  818   uint32 * channelMask;
//  819   
//  820   uiLcdCursorLine = 1;
        MOV       DPTR,#uiLcdCursorLine
        MOV       A,#0x1
        MOVX      @DPTR,A
//  821   uiLcdCursorState = 0;
        MOV       DPTR,#uiLcdCursorState
        CLR       A
        MOVX      @DPTR,A
//  822 
//  823   if (uiCurrentState == UI_STATE_SET_PRI_CHANEL_MASK_1)
        MOV       DPTR,#uiCurrentState
        MOVX      A,@DPTR
        XRL       A,#0xf
        JNZ       ??uiActionProcessConfigureChannels_0
        INC       DPTR
        MOVX      A,@DPTR
??uiActionProcessConfigureChannels_0:
        JNZ       ??uiActionProcessConfigureChannels_1
//  824   {
//  825     channelMask = &bdbAttributes.bdbPrimaryChannelSet;
        MOV       R4,#(bdbAttributes + 4) & 0xff
        MOV       R5,#((bdbAttributes + 4) >> 8) & 0xff
        SJMP      ??uiActionProcessConfigureChannels_2
//  826   }
//  827   else
//  828   {
//  829     channelMask = &bdbAttributes.bdbSecondaryChannelSet;
??uiActionProcessConfigureChannels_1:
        MOV       R4,#bdbAttributes & 0xff
        MOV       R5,#(bdbAttributes >> 8) & 0xff
//  830   }
//  831 
//  832   if (keys & UI_KEY_SW_5_RELEASED)
??uiActionProcessConfigureChannels_2:
        MOV       A,R3
        ANL       A,#0x4
        JZ        ??uiActionProcessConfigureChannels_3
//  833   {
//  834     uiLcdCursorCol = 0;
        MOV       DPTR,#uiLcdCursorCol
        CLR       A
        MOVX      @DPTR,A
//  835   }
//  836   
//  837   if (keys & UI_KEY_SW_1_PRESSED)
??uiActionProcessConfigureChannels_3:
        MOV       ?V0,#0x0
        MOV       ?V1,#0x8
        MOV       ?V2,#0x0
        MOV       ?V3,#0x0
        MOV       DPTR,#uiLcdCursorCol
        MOVX      A,@DPTR
        MOV       R0,#?V0
        LCALL     ?L_SHL
        MOV       A,R2
        MOV       C,0xE0 /* A   */.0
        JNC       ??uiActionProcessConfigureChannels_4
//  838   {
//  839     *channelMask |= ((uint32)0x00000800 << uiLcdCursorCol);
        MOV       DPL,R4
        MOV       DPH,R5
        MOV       R0,#?V0
        LCALL     ?L_IOR_TO_X
//  840     uiLcdCursorState = 1;
        SJMP      ??uiActionProcessConfigureChannels_5
//  841   }
//  842   else if (keys & UI_KEY_SW_3_PRESSED)
??uiActionProcessConfigureChannels_4:
        ANL       A,#0x10
        JZ        ??uiActionProcessConfigureChannels_6
//  843   {
//  844     *channelMask &= ~(((uint32)0x00000800 << uiLcdCursorCol));
        MOV       R0,#?V0
        LCALL     ?L_NOT
        MOV       DPL,R4
        MOV       DPH,R5
        MOV       R0,#?V0
        LCALL     ?L_AND_TO_X
//  845     uiLcdCursorState = 1;
??uiActionProcessConfigureChannels_5:
        MOV       DPTR,#uiLcdCursorState
        MOV       A,#0x1
        SJMP      ??CrossCallReturnLabel_0
//  846   }
//  847   else if (keys & UI_KEY_SW_2_PRESSED)
??uiActionProcessConfigureChannels_6:
        MOV       A,R2
        ANL       A,#0x2
        JZ        ??uiActionProcessConfigureChannels_7
//  848   {
//  849     if (uiLcdCursorCol < 15)
        MOVX      A,@DPTR
        CLR       C
        SUBB      A,#0xf
        JNC       ??uiActionProcessConfigureChannels_8
//  850     {
//  851       uiLcdCursorCol++;
        MOVX      A,@DPTR
        INC       A
        SJMP      ??CrossCallReturnLabel_0
//  852     }
//  853     else
//  854     {
//  855       uiLcdCursorCol = 0;
??uiActionProcessConfigureChannels_8:
        CLR       A
        SJMP      ??CrossCallReturnLabel_0
//  856     }
//  857   }
//  858   else if (keys & UI_KEY_SW_4_PRESSED)
??uiActionProcessConfigureChannels_7:
        MOV       A,R2
        ANL       A,#0x8
        JZ        ??uiActionProcessConfigureChannels_9
//  859   {
//  860     if (uiLcdCursorCol > 0)
        MOVX      A,@DPTR
        JZ        ??uiActionProcessConfigureChannels_10
//  861     {
//  862       uiLcdCursorCol--;
        DEC       A
        SJMP      ??CrossCallReturnLabel_0
//  863     }
//  864     else
//  865     {
//  866       uiLcdCursorCol = 15;
??uiActionProcessConfigureChannels_10:
        MOV       A,#0xf
        SJMP      ??CrossCallReturnLabel_0
//  867     }
//  868   }
//  869   else if (keys & UI_KEY_SW_5_PRESSED)
??uiActionProcessConfigureChannels_9:
        MOV       A,R2
        ANL       A,#0x4
        JZ        ??uiActionProcessConfigureChannels_11
//  870   {
//  871     if (uiCurrentState == UI_STATE_SET_PRI_CHANEL_MASK_1)
        MOV       DPTR,#uiCurrentState
        MOVX      A,@DPTR
        XRL       A,#0xf
        JNZ       ??uiActionProcessConfigureChannels_12
        INC       DPTR
        MOVX      A,@DPTR
??uiActionProcessConfigureChannels_12:
        MOV       DPTR,#uiCurrentState
        JNZ       ??uiActionProcessConfigureChannels_13
//  872     {
//  873       uiCurrentState = UI_STATE_SET_PRI_CHANEL_MASK_0;
        MOV       A,#0xb
        SJMP      ??uiActionProcessConfigureChannels_14
//  874     }
//  875     else
//  876     {
//  877       uiCurrentState = UI_STATE_SET_SEC_CHANEL_MASK_0;
??uiActionProcessConfigureChannels_13:
        MOV       A,#0xc
//  878     }
//  879     
//  880     uiLcdCursorLine = 0xFF;
//  881   }
??uiActionProcessConfigureChannels_14:
        LCALL     ?Subroutine5 & 0xFFFF
??CrossCallReturnLabel_0:
        MOVX      @DPTR,A
//  882 }
??uiActionProcessConfigureChannels_11:
          CFI EndBlock cfiBlock20
        REQUIRE ?Subroutine3
        ; // Fall through to label ?Subroutine3

        RSEG BANKED_CODE:HUGECODE:NOROOT(0)
?Subroutine3:
          CFI Block cfiBlock21 Using cfiCommon0
          CFI NoFunction
          CFI CFA_SP SP+0
          CFI CFA_XSP16 add(XSP16, 12)
          CFI VB load(1, XDATA, add(CFA_XSP16, literal(-11)))
          CFI DPL0 load(1, XDATA, add(CFA_XSP16, literal(-2)))
          CFI DPH0 load(1, XDATA, add(CFA_XSP16, literal(-1)))
          CFI R6 load(1, XDATA, add(CFA_XSP16, literal(-12)))
          CFI R7 load(1, XDATA, add(CFA_XSP16, literal(-6)))
          CFI V0 load(1, XDATA, add(CFA_XSP16, literal(-10)))
          CFI V1 load(1, XDATA, add(CFA_XSP16, literal(-9)))
          CFI V2 load(1, XDATA, add(CFA_XSP16, literal(-8)))
          CFI V3 load(1, XDATA, add(CFA_XSP16, literal(-7)))
          CFI ?BRET_EXT load(1, XDATA, add(CFA_XSP16, literal(-3)))
          CFI ?RET_HIGH load(1, XDATA, add(CFA_XSP16, literal(-4)))
          CFI ?RET_LOW load(1, XDATA, add(CFA_XSP16, literal(-5)))
        MOV       R7,#0x4
        LJMP      ?BANKED_LEAVE_XDATA
          CFI EndBlock cfiBlock21
//  883 
//  884 /*********************************************************************
//  885  * @fn          uiActionProcessConfigurePanId
//  886  *
//  887  * @brief       State-machine action for configuring the PAN ID
//  888  *
//  889  * @param       keys - the keypress code that triggered the call to this function
//  890  *
//  891  * @return      none
//  892  */

        RSEG BANKED_CODE:HUGECODE:NOROOT(0)
//  893 static void uiActionProcessConfigurePanId(uint16 keys)
uiActionProcessConfigurePanId:
          CFI Block cfiBlock22 Using cfiCommon0
          CFI Function uiActionProcessConfigurePanId
        CODE
//  894 {
        FUNCALL uiActionProcessConfigurePanId, osal_nv_item_len
        LOCFRAME ISTACK, 0, STACK
        LOCFRAME PSTACK, 0, STACK
        LOCFRAME XSTACK, 12, STACK
        LOCFRAME IOVERLAY, 0, STATIC
        LOCFRAME DOVERLAY, 0, STATIC
        ARGFRAME ISTACK, 0, STACK
        ARGFRAME PSTACK, 0, STACK
        ARGFRAME XSTACK, 12, STACK
        ARGFRAME IOVERLAY, 0, STATIC
        ARGFRAME DOVERLAY, 0, STATIC
        FUNCALL uiActionProcessConfigurePanId, osal_nv_write
        LOCFRAME ISTACK, 0, STACK
        LOCFRAME PSTACK, 0, STACK
        LOCFRAME XSTACK, 16, STACK
        LOCFRAME IOVERLAY, 0, STATIC
        LOCFRAME DOVERLAY, 0, STATIC
        ARGFRAME ISTACK, 0, STACK
        ARGFRAME PSTACK, 0, STACK
        ARGFRAME XSTACK, 16, STACK
        ARGFRAME IOVERLAY, 0, STATIC
        ARGFRAME DOVERLAY, 0, STATIC
        REQUIRE ?V0
        REQUIRE ?V1
        REQUIRE ?V2
        REQUIRE ?V3
        MOV       A,#-0xc
        LCALL     ?BANKED_ENTER_XDATA
          CFI DPH0 load(1, XDATA, add(CFA_XSP16, literal(-1)))
          CFI DPL0 load(1, XDATA, add(CFA_XSP16, literal(-2)))
          CFI ?BRET_EXT load(1, XDATA, add(CFA_XSP16, literal(-3)))
          CFI ?RET_HIGH load(1, XDATA, add(CFA_XSP16, literal(-4)))
          CFI ?RET_LOW load(1, XDATA, add(CFA_XSP16, literal(-5)))
          CFI R7 load(1, XDATA, add(CFA_XSP16, literal(-6)))
          CFI V3 load(1, XDATA, add(CFA_XSP16, literal(-7)))
          CFI V2 load(1, XDATA, add(CFA_XSP16, literal(-8)))
          CFI V1 load(1, XDATA, add(CFA_XSP16, literal(-9)))
          CFI V0 load(1, XDATA, add(CFA_XSP16, literal(-10)))
          CFI VB load(1, XDATA, add(CFA_XSP16, literal(-11)))
          CFI R6 load(1, XDATA, add(CFA_XSP16, literal(-12)))
          CFI CFA_SP SP+0
          CFI CFA_XSP16 add(XSP16, 12)
        ; Saved register size: 12
        ; Auto size: 0
//  895   uint8 shift;
//  896   uint8 digit;
//  897   
//  898   uiLcdCursorLine = 0;
        MOV       DPTR,#uiLcdCursorLine
        CLR       A
        MOVX      @DPTR,A
//  899   uiLcdCursorState = 0;
        MOV       DPTR,#uiLcdCursorState
        MOVX      @DPTR,A
//  900   
//  901   if (keys & UI_KEY_SW_5_RELEASED)
        MOV       A,R3
        ANL       A,#0x4
        JZ        ??uiActionProcessConfigurePanId_0
//  902   {
//  903     uiLcdCursorCol = 6;
        MOV       DPTR,#uiLcdCursorCol
        MOV       A,#0x6
        MOVX      @DPTR,A
//  904   }
//  905 
//  906   if ((keys & UI_KEY_SW_1_PRESSED) || (keys & UI_KEY_SW_3_PRESSED))
??uiActionProcessConfigurePanId_0:
        MOV       A,R2
        ANL       A,#0x11
        JNZ       $+5
        LJMP      ??uiActionProcessConfigurePanId_1 & 0xFFFF
//  907   {
//  908     shift = 4 * (9 - uiLcdCursorCol);
        MOV       DPTR,#uiLcdCursorCol
        MOVX      A,@DPTR
        MOV       R0,A
        MOV       A,#0x9
        CLR       C
        SUBB      A,R0
        RLC       A
        RLC       A
        ANL       A,#0xfc
        MOV       R4,A
//  909     digit = (zgConfigPANID >> shift) & 0xF;
        MOV       DPTR,#zgConfigPANID
        LCALL     ?Subroutine38 & 0xFFFF
??CrossCallReturnLabel_121:
        MOV       ?V1,A
        MOV       A,R4
        MOV       R0,#?V0
        LCALL     ?US_SHR
        MOV       A,?V0
        ANL       A,#0xf
        MOV       R1,A
//  910     if (keys & UI_KEY_SW_1_PRESSED)
        MOV       A,R2
        MOV       C,0xE0 /* A   */.0
        JNC       ??uiActionProcessConfigurePanId_2
//  911     {
//  912       if (digit < 15)
        MOV       A,R1
        CLR       C
        SUBB      A,#0xf
        JNC       ??uiActionProcessConfigurePanId_3
//  913       {
//  914         digit++;
        INC       R1
        SJMP      ??uiActionProcessConfigurePanId_4
//  915       }
//  916       else
//  917       {
//  918         digit = 0;
??uiActionProcessConfigurePanId_3:
        MOV       R1,#0x0
        SJMP      ??uiActionProcessConfigurePanId_4
//  919       }
//  920     }
//  921     else if (keys & UI_KEY_SW_3_PRESSED)
??uiActionProcessConfigurePanId_2:
        ANL       A,#0x10
        JZ        ??uiActionProcessConfigurePanId_4
//  922     {
//  923       if (digit > 0)
        MOV       A,R1
        JZ        ??uiActionProcessConfigurePanId_5
//  924       {
//  925         digit--;
        DEC       R1
        SJMP      ??uiActionProcessConfigurePanId_4
//  926       }
//  927       else
//  928       {
//  929         digit = 15;
??uiActionProcessConfigurePanId_5:
        MOV       R1,#0xf
//  930       }
//  931     }
//  932 
//  933     zgConfigPANID &= ~((uint32)0xF << shift);
//  934     zgConfigPANID |= (uint32)digit << shift;
??uiActionProcessConfigurePanId_4:
        MOV       ?V0,#0xf
        MOV       ?V1,#0x0
        MOV       ?V2,#0x0
        MOV       ?V3,#0x0
        MOV       A,R4
        MOV       R0,#?V0
        LCALL     ?L_SHL
        MOV       A,?V0
        CPL       A
        MOV       R2,A
        MOV       A,?V1
        CPL       A
        MOV       R3,A
        MOV       DPTR,#zgConfigPANID
        MOVX      A,@DPTR
        ANL       A,R2
        MOVX      @DPTR,A
        INC       DPTR
        MOVX      A,@DPTR
        ANL       A,R3
        MOVX      @DPTR,A
        MOV       ?V0,R1
        CLR       A
        MOV       ?V1,A
        MOV       ?V2,A
        MOV       ?V3,A
        MOV       A,R4
        MOV       R0,#?V0
        LCALL     ?L_SHL
        MOV       DPTR,#zgConfigPANID
        MOVX      A,@DPTR
        ORL       A,?V0
        MOVX      @DPTR,A
        INC       DPTR
        MOVX      A,@DPTR
        ORL       A,?V1
        MOVX      @DPTR,A
//  935     uiLcdCursorState = 1;
        MOV       DPTR,#uiLcdCursorState
        MOV       A,#0x1
        SJMP      ??CrossCallReturnLabel_1
//  936   }
//  937   else if (keys & UI_KEY_SW_2_PRESSED)
??uiActionProcessConfigurePanId_1:
        MOV       A,R2
        ANL       A,#0x2
        JZ        ??uiActionProcessConfigurePanId_6
//  938   {
//  939     if (uiLcdCursorCol < 9)
        MOV       DPTR,#uiLcdCursorCol
        MOVX      A,@DPTR
        CLR       C
        SUBB      A,#0x9
        JNC       ??uiActionProcessConfigurePanId_7
//  940     {
//  941       uiLcdCursorCol++;
        MOVX      A,@DPTR
        INC       A
        SJMP      ??CrossCallReturnLabel_1
//  942     }
//  943   }
//  944   else if (keys & UI_KEY_SW_4_PRESSED)
??uiActionProcessConfigurePanId_6:
        MOV       A,R2
        ANL       A,#0x8
        JZ        ??uiActionProcessConfigurePanId_8
//  945   {
//  946     if (uiLcdCursorCol > 6)
        MOV       DPTR,#uiLcdCursorCol
        MOVX      A,@DPTR
        CLR       C
        SUBB      A,#0x7
        JC        ??uiActionProcessConfigurePanId_7
//  947     {
//  948       uiLcdCursorCol--;
        MOVX      A,@DPTR
        DEC       A
        SJMP      ??CrossCallReturnLabel_1
//  949     }
//  950   }
//  951   else if (keys & UI_KEY_SW_5_PRESSED)
??uiActionProcessConfigurePanId_8:
        MOV       A,R2
        ANL       A,#0x4
        JZ        ??uiActionProcessConfigurePanId_7
//  952   {
//  953     osal_nv_write(ZCD_NV_PANID, 0, osal_nv_item_len( ZCD_NV_PANID ), &zgConfigPANID); //todo: check and display result of osal_nv_write()
        ; Setup parameters for call to function osal_nv_item_len
        MOV       R2,#-0x7d
        MOV       R3,#0x0
        LCALL     `??osal_nv_item_len::?relay`; Banked call to: osal_nv_item_len
        MOV       ?V0,R2
        MOV       ?V1,R3
        ; Setup parameters for call to function osal_nv_write
        MOV       ?V2,#zgConfigPANID & 0xff
        MOV       ?V3,#(zgConfigPANID >> 8) & 0xff
        MOV       R0,#?V2
        LCALL     ?PUSH_XSTACK_I_TWO
          CFI CFA_XSP16 add(XSP16, 14)
        MOV       R0,#?V0
        LCALL     ?PUSH_XSTACK_I_TWO
          CFI CFA_XSP16 add(XSP16, 16)
        MOV       R4,#0x0
        MOV       R5,#0x0
        MOV       R2,#-0x7d
        MOV       R3,#0x0
        LCALL     `??osal_nv_write::?relay`; Banked call to: osal_nv_write
        MOV       A,#0x4
        LCALL     ?DEALLOC_XSTACK8
          CFI CFA_XSP16 add(XSP16, 12)
//  954 
//  955     uiCurrentState = UI_STATE_SET_PAN_ID_0;
        MOV       DPTR,#uiCurrentState
        MOV       A,#0xd
        LCALL     ?Subroutine5 & 0xFFFF
//  956     
//  957     uiLcdCursorLine = 0xFF;
//  958   }
??CrossCallReturnLabel_1:
        MOVX      @DPTR,A
//  959 }
??uiActionProcessConfigurePanId_7:
        LJMP      ?Subroutine3 & 0xFFFF
          CFI EndBlock cfiBlock22

        RSEG BANKED_CODE:HUGECODE:NOROOT(0)
?Subroutine5:
          CFI Block cfiCond23 Using cfiCommon0
          CFI Function uiActionProcessConfigureChannels
          CFI Conditional ??CrossCallReturnLabel_0
          CFI R6 load(1, XDATA, add(CFA_XSP16, literal(-12)))
          CFI VB load(1, XDATA, add(CFA_XSP16, literal(-11)))
          CFI V0 load(1, XDATA, add(CFA_XSP16, literal(-10)))
          CFI V1 load(1, XDATA, add(CFA_XSP16, literal(-9)))
          CFI V2 load(1, XDATA, add(CFA_XSP16, literal(-8)))
          CFI V3 load(1, XDATA, add(CFA_XSP16, literal(-7)))
          CFI R7 load(1, XDATA, add(CFA_XSP16, literal(-6)))
          CFI ?RET_LOW load(1, XDATA, add(CFA_XSP16, literal(-5)))
          CFI ?RET_HIGH load(1, XDATA, add(CFA_XSP16, literal(-4)))
          CFI ?BRET_EXT load(1, XDATA, add(CFA_XSP16, literal(-3)))
          CFI DPL0 load(1, XDATA, add(CFA_XSP16, literal(-2)))
          CFI DPH0 load(1, XDATA, add(CFA_XSP16, literal(-1)))
          CFI CFA_SP SP+-2
          CFI CFA_XSP16 add(XSP16, 12)
          CFI Block cfiCond24 Using cfiCommon0
          CFI (cfiCond24) Function uiActionProcessConfigurePanId
          CFI (cfiCond24) Conditional ??CrossCallReturnLabel_1
          CFI (cfiCond24) R6 load(1, XDATA, add(CFA_XSP16, literal(-12)))
          CFI (cfiCond24) VB load(1, XDATA, add(CFA_XSP16, literal(-11)))
          CFI (cfiCond24) V0 load(1, XDATA, add(CFA_XSP16, literal(-10)))
          CFI (cfiCond24) V1 load(1, XDATA, add(CFA_XSP16, literal(-9)))
          CFI (cfiCond24) V2 load(1, XDATA, add(CFA_XSP16, literal(-8)))
          CFI (cfiCond24) V3 load(1, XDATA, add(CFA_XSP16, literal(-7)))
          CFI (cfiCond24) R7 load(1, XDATA, add(CFA_XSP16, literal(-6)))
          CFI (cfiCond24) ?RET_LOW load(1, XDATA, add(CFA_XSP16, literal(-5)))
          CFI (cfiCond24) ?RET_HIGH load(1, XDATA, add(CFA_XSP16, literal(-4)))
          CFI (cfiCond24) ?BRET_EXT load(1, XDATA, add(CFA_XSP16, literal(-3)))
          CFI (cfiCond24) DPL0 load(1, XDATA, add(CFA_XSP16, literal(-2)))
          CFI (cfiCond24) DPH0 load(1, XDATA, add(CFA_XSP16, literal(-1)))
          CFI (cfiCond24) CFA_SP SP+-2
          CFI (cfiCond24) CFA_XSP16 add(XSP16, 12)
          CFI Block cfiCond25 Using cfiCommon0
          CFI (cfiCond25) Function uiActionProcessPrepareInstallCode
          CFI (cfiCond25) Conditional ??CrossCallReturnLabel_2
          CFI (cfiCond25) R6 load(1, XDATA, add(CFA_XSP16, literal(-16)))
          CFI (cfiCond25) VB load(1, XDATA, add(CFA_XSP16, literal(-15)))
          CFI (cfiCond25) V0 load(1, XDATA, add(CFA_XSP16, literal(-14)))
          CFI (cfiCond25) V1 load(1, XDATA, add(CFA_XSP16, literal(-13)))
          CFI (cfiCond25) V2 load(1, XDATA, add(CFA_XSP16, literal(-12)))
          CFI (cfiCond25) V3 load(1, XDATA, add(CFA_XSP16, literal(-11)))
          CFI (cfiCond25) V4 load(1, XDATA, add(CFA_XSP16, literal(-10)))
          CFI (cfiCond25) V5 load(1, XDATA, add(CFA_XSP16, literal(-9)))
          CFI (cfiCond25) V6 load(1, XDATA, add(CFA_XSP16, literal(-8)))
          CFI (cfiCond25) V7 load(1, XDATA, add(CFA_XSP16, literal(-7)))
          CFI (cfiCond25) R7 load(1, XDATA, add(CFA_XSP16, literal(-6)))
          CFI (cfiCond25) ?RET_LOW load(1, XDATA, add(CFA_XSP16, literal(-5)))
          CFI (cfiCond25) ?RET_HIGH load(1, XDATA, add(CFA_XSP16, literal(-4)))
          CFI (cfiCond25) ?BRET_EXT load(1, XDATA, add(CFA_XSP16, literal(-3)))
          CFI (cfiCond25) DPL0 load(1, XDATA, add(CFA_XSP16, literal(-2)))
          CFI (cfiCond25) DPH0 load(1, XDATA, add(CFA_XSP16, literal(-1)))
          CFI (cfiCond25) CFA_SP SP+-2
          CFI (cfiCond25) CFA_XSP16 add(XSP16, 16)
          CFI Block cfiPicker26 Using cfiCommon1
          CFI (cfiPicker26) NoFunction
          CFI (cfiPicker26) Picker
        MOVX      @DPTR,A
        INC       DPTR
        CLR       A
        MOVX      @DPTR,A
        MOV       DPTR,#uiLcdCursorLine
        MOV       A,#-0x1
        RET
          CFI EndBlock cfiCond23
          CFI EndBlock cfiCond24
          CFI EndBlock cfiCond25
          CFI EndBlock cfiPicker26
//  960 
//  961 /*********************************************************************
//  962  * @fn          uiActionProcessPrepareInstallCode
//  963  *
//  964  * @brief       State-machine action for editing the install-code and the install-code address
//  965  *
//  966  * @param       keys - the keypress code that triggered the call to this function
//  967  *
//  968  * @return      none
//  969  */

        RSEG BANKED_CODE:HUGECODE:NOROOT(0)
//  970 static void uiActionProcessPrepareInstallCode(uint16 keys)
uiActionProcessPrepareInstallCode:
          CFI Block cfiBlock27 Using cfiCommon0
          CFI Function uiActionProcessPrepareInstallCode
        CODE
//  971 {
        FUNCALL uiActionProcessPrepareInstallCode, bdb_GenerateInstallCodeCRC
        LOCFRAME ISTACK, 0, STACK
        LOCFRAME PSTACK, 0, STACK
        LOCFRAME XSTACK, 16, STACK
        LOCFRAME IOVERLAY, 0, STATIC
        LOCFRAME DOVERLAY, 0, STATIC
        ARGFRAME ISTACK, 0, STACK
        ARGFRAME PSTACK, 0, STACK
        ARGFRAME XSTACK, 16, STACK
        ARGFRAME IOVERLAY, 0, STATIC
        ARGFRAME DOVERLAY, 0, STATIC
        FUNCALL uiActionProcessPrepareInstallCode, bdb_GenerateInstallCodeCRC
        LOCFRAME ISTACK, 0, STACK
        LOCFRAME PSTACK, 0, STACK
        LOCFRAME XSTACK, 16, STACK
        LOCFRAME IOVERLAY, 0, STATIC
        LOCFRAME DOVERLAY, 0, STATIC
        ARGFRAME ISTACK, 0, STACK
        ARGFRAME PSTACK, 0, STACK
        ARGFRAME XSTACK, 16, STACK
        ARGFRAME IOVERLAY, 0, STATIC
        ARGFRAME DOVERLAY, 0, STATIC
        REQUIRE ?V0
        REQUIRE ?V1
        REQUIRE ?V2
        REQUIRE ?V3
        REQUIRE ?V4
        REQUIRE ?V5
        REQUIRE ?V6
        REQUIRE ?V7
        MOV       A,#-0x10
        LCALL     ?BANKED_ENTER_XDATA
          CFI DPH0 load(1, XDATA, add(CFA_XSP16, literal(-1)))
          CFI DPL0 load(1, XDATA, add(CFA_XSP16, literal(-2)))
          CFI ?BRET_EXT load(1, XDATA, add(CFA_XSP16, literal(-3)))
          CFI ?RET_HIGH load(1, XDATA, add(CFA_XSP16, literal(-4)))
          CFI ?RET_LOW load(1, XDATA, add(CFA_XSP16, literal(-5)))
          CFI R7 load(1, XDATA, add(CFA_XSP16, literal(-6)))
          CFI V7 load(1, XDATA, add(CFA_XSP16, literal(-7)))
          CFI V6 load(1, XDATA, add(CFA_XSP16, literal(-8)))
          CFI V5 load(1, XDATA, add(CFA_XSP16, literal(-9)))
          CFI V4 load(1, XDATA, add(CFA_XSP16, literal(-10)))
          CFI V3 load(1, XDATA, add(CFA_XSP16, literal(-11)))
          CFI V2 load(1, XDATA, add(CFA_XSP16, literal(-12)))
          CFI V1 load(1, XDATA, add(CFA_XSP16, literal(-13)))
          CFI V0 load(1, XDATA, add(CFA_XSP16, literal(-14)))
          CFI VB load(1, XDATA, add(CFA_XSP16, literal(-15)))
          CFI R6 load(1, XDATA, add(CFA_XSP16, literal(-16)))
          CFI CFA_SP SP+0
          CFI CFA_XSP16 add(XSP16, 16)
        ; Saved register size: 16
        ; Auto size: 0
        MOV       A,R2
        MOV       R6,A
//  972   static uint8 * pCurrentModifiedField;
//  973   static uint8 CurrentModifiedFieldLen;
//  974   static bool CurrentModifiedFieldIsBigEndian;
//  975   
//  976   static uint8 index;
//  977 
//  978   uint8 shift;
//  979   uint8 digit;
//  980   uint8 bufIndex;
//  981   uint16 crc;
//  982 
//  983   uiLcdCursorState = 0;
        MOV       DPTR,#uiLcdCursorState
        CLR       A
        MOVX      @DPTR,A
//  984   
//  985   if (keys & UI_KEY_SW_5_RELEASED)
        MOV       A,R3
        ANL       A,#0x4
        JZ        ??CrossCallReturnLabel_59
//  986   {
//  987     index = 0;
        MOV       DPTR,#??index
        CLR       A
        MOVX      @DPTR,A
//  988     
//  989 #if (ZG_BUILD_COORDINATOR_TYPE)
//  990     if (uiCurrentState == UI_STATE_SET_INST_CODE_ADDR_1)
//  991     {
//  992       pCurrentModifiedField = uiInstallCodeAddr;
//  993       CurrentModifiedFieldLen = sizeof(uiInstallCodeAddr);
//  994       CurrentModifiedFieldIsBigEndian = FALSE;
//  995     }
//  996     else
//  997 #endif
//  998     {
//  999       pCurrentModifiedField = uiInstallCode;
        MOV       DPTR,#??pCurrentModifiedField
        MOV       A,#uiInstallCode & 0xff
        MOVX      @DPTR,A
        INC       DPTR
        MOV       A,#(uiInstallCode >> 8) & 0xff
        MOVX      @DPTR,A
// 1000       CurrentModifiedFieldLen = INSTALL_CODE_LEN;
        MOV       DPTR,#??CurrentModifiedFieldLen
        MOV       A,#0x10
        MOVX      @DPTR,A
// 1001       CurrentModifiedFieldIsBigEndian = TRUE;
        MOV       DPTR,#??CurrentModifiedFieldIsBigEndian
        MOV       A,#0x1
        MOVX      @DPTR,A
// 1002 
// 1003       crc = bdb_GenerateInstallCodeCRC(uiInstallCode);
        ; Setup parameters for call to function bdb_GenerateInstallCodeCRC
        LCALL     ?Subroutine26 & 0xFFFF
// 1004       uiInstallCode[INSTALL_CODE_LEN] = crc & 0xFF;
// 1005       uiInstallCode[INSTALL_CODE_LEN + 1] = crc >> 8;
// 1006     }
// 1007   }
// 1008 
// 1009   if ((keys & UI_KEY_SW_1_PRESSED) || (keys & UI_KEY_SW_3_PRESSED))
??CrossCallReturnLabel_59:
        MOV       DPTR,#??index
        MOVX      A,@DPTR
        MOV       R2,A
        MOV       A,R6
        ANL       A,#0x11
        MOV       R4,A
        JNZ       $+5
        LJMP      ??uiActionProcessPrepareInstallCode_0 & 0xFFFF
// 1010   {
// 1011     if(pCurrentModifiedField == uiInstallCode)
        MOV       A,R2
        ADD       A,#0x1
        MOV       ?V0,A
        CLR       A
        ADDC      A,#0x0
        MOV       ?V1,A
        MOV       DPTR,#??pCurrentModifiedField
        MOVX      A,@DPTR
        XRL       A,#uiInstallCode & 0xff
        JNZ       ??uiActionProcessPrepareInstallCode_1
        INC       DPTR
        MOVX      A,@DPTR
        XRL       A,#(uiInstallCode >> 8) & 0xff
??uiActionProcessPrepareInstallCode_1:
        MOV       DPTR,#??CurrentModifiedFieldIsBigEndian
        JNZ       ??uiActionProcessPrepareInstallCode_2
// 1012     {
// 1013       shift = 4 * ((CurrentModifiedFieldIsBigEndian ? (index + 1) : index ) % 2);
        MOVX      A,@DPTR
        JZ        ??uiActionProcessPrepareInstallCode_3
        SJMP      ??uiActionProcessPrepareInstallCode_4
// 1014     }
// 1015     else
// 1016     {
// 1017       shift = 4 * ((CurrentModifiedFieldIsBigEndian ? index : (index + 1)) % 2);
??uiActionProcessPrepareInstallCode_2:
        MOVX      A,@DPTR
        JZ        ??uiActionProcessPrepareInstallCode_4
??uiActionProcessPrepareInstallCode_3:
        MOV       A,R2
        MOV       R0,A
        MOV       R1,#0x0
        SJMP      ??uiActionProcessPrepareInstallCode_5
??uiActionProcessPrepareInstallCode_4:
        MOV       R0,?V0
        MOV       R1,?V1
??uiActionProcessPrepareInstallCode_5:
        MOV       R2,#0x2
        MOV       R3,#0x0
        LCALL     ?S_DIV_MOD
        MOV       A,R2
        RLC       A
        RLC       A
        ANL       A,#0xfc
        MOV       R2,A
// 1018     }
// 1019     bufIndex = (CurrentModifiedFieldIsBigEndian ? (index / 2) : (CurrentModifiedFieldLen - 1 - (index / 2)));
        MOV       DPTR,#??index
        MOVX      A,@DPTR
        CLR       C
        RRC       A
        MOV       R0,A
        MOV       DPTR,#??CurrentModifiedFieldIsBigEndian
        MOVX      A,@DPTR
        JZ        ??uiActionProcessPrepareInstallCode_6
        MOV       ?V0,R0
        SJMP      ??uiActionProcessPrepareInstallCode_7
??uiActionProcessPrepareInstallCode_6:
        MOV       DPTR,#??CurrentModifiedFieldLen
        MOVX      A,@DPTR
        DEC       A
        CLR       C
        SUBB      A,R0
        MOV       ?V0,A
// 1020     digit = (pCurrentModifiedField[bufIndex] >> shift) & 0xF;
??uiActionProcessPrepareInstallCode_7:
        MOV       R0,?V0
        MOV       DPTR,#??pCurrentModifiedField
        LCALL     ?Subroutine22 & 0xFFFF
??CrossCallReturnLabel_46:
        MOVX      A,@DPTR
        MOV       R3,A
        MOV       ?V2,A
        MOV       ?V3,#0x0
        MOV       A,R2
        MOV       R0,#?V2
        LCALL     ?SS_SHR
        MOV       A,?V2
        ANL       A,#0xf
        MOV       R0,A
// 1021 
// 1022     if (keys & UI_KEY_SW_1_PRESSED)
        MOV       A,R6
        MOV       C,0xE0 /* A   */.0
        JNC       ??uiActionProcessPrepareInstallCode_8
// 1023     {
// 1024       if (digit < 15)
        MOV       A,R0
        CLR       C
        SUBB      A,#0xf
        JNC       ??uiActionProcessPrepareInstallCode_9
// 1025       {
// 1026         digit++;
        INC       R0
        SJMP      ??uiActionProcessPrepareInstallCode_10
// 1027       }
// 1028       else
// 1029       {
// 1030         digit = 0;
??uiActionProcessPrepareInstallCode_9:
        MOV       R0,#0x0
        SJMP      ??uiActionProcessPrepareInstallCode_10
// 1031       }
// 1032     }
// 1033     else if (keys & UI_KEY_SW_3_PRESSED)
??uiActionProcessPrepareInstallCode_8:
        ANL       A,#0x10
        JZ        ??uiActionProcessPrepareInstallCode_10
// 1034     {
// 1035       if (digit > 0)
        MOV       A,R0
        JZ        ??uiActionProcessPrepareInstallCode_11
// 1036       {
// 1037         digit--;
        DEC       R0
        SJMP      ??uiActionProcessPrepareInstallCode_10
// 1038       }
// 1039       else
// 1040       {
// 1041         digit = 15;
??uiActionProcessPrepareInstallCode_11:
        MOV       R0,#0xf
// 1042       }
// 1043     }
// 1044     
// 1045     pCurrentModifiedField[bufIndex] &= ~((uint32)0xF << shift);
// 1046     pCurrentModifiedField[bufIndex] |= (uint32)digit << shift;
??uiActionProcessPrepareInstallCode_10:
        MOV       ?V4,R0
        CLR       A
        MOV       ?V5,A
        MOV       ?V6,A
        MOV       ?V7,A
        MOV       A,R2
        MOV       R0,#?V4
        LCALL     ?L_SHL
        MOV       R1,?V4
        MOV       ?V4,#0xf
        MOV       ?V5,A
        MOV       ?V6,A
        MOV       ?V7,A
        MOV       A,R2
        MOV       R0,#?V4
        LCALL     ?L_SHL
        MOV       A,?V4
        CPL       A
        ANL       A,R3
        ORL       A,R1
        MOVX      @DPTR,A
// 1047     uiLcdCursorState = 1;
        MOV       DPTR,#uiLcdCursorState
        MOV       A,#0x1
        SJMP      ??uiActionProcessPrepareInstallCode_12
// 1048   }
// 1049   else if (keys & UI_KEY_SW_2_PRESSED)
??uiActionProcessPrepareInstallCode_0:
        MOV       A,R6
        ANL       A,#0x2
        JZ        ??uiActionProcessPrepareInstallCode_13
// 1050   {
// 1051     if (index < CurrentModifiedFieldLen * 2 - 1)
        MOV       DPTR,#??CurrentModifiedFieldLen
        MOVX      A,@DPTR
        ADD       A,0xE0 /* A   */
        MOV       R0,A
        CLR       A
        RLC       A
        MOV       R1,A
        MOV       A,R0
        ADD       A,#-0x1
        DEC       R0
        MOV       A,R1
        ADDC      A,#-0x1
        MOV       R1,A
        CLR       C
        MOV       A,R2
        SUBB      A,R0
        CLR       A
        SUBB      A,R1
        MOV       C,0xD0 /* PSW */.2
        XRL       A,PSW
        RLC       A
        MOV       DPTR,#??index
        JNC       ??uiActionProcessPrepareInstallCode_14
// 1052     {
// 1053       index++;
        MOVX      A,@DPTR
        INC       A
        SJMP      ??uiActionProcessPrepareInstallCode_12
// 1054     }
// 1055     else
// 1056     {
// 1057       index = 0;
??uiActionProcessPrepareInstallCode_14:
        CLR       A
        SJMP      ??uiActionProcessPrepareInstallCode_12
// 1058     }
// 1059   }
// 1060   else if (keys & UI_KEY_SW_4_PRESSED)
??uiActionProcessPrepareInstallCode_13:
        MOV       A,R6
        ANL       A,#0x8
        JZ        ??uiActionProcessPrepareInstallCode_15
// 1061   {
// 1062     if (index > 0)
        MOVX      A,@DPTR
        JZ        ??uiActionProcessPrepareInstallCode_16
// 1063     {
// 1064       index --;
        DEC       A
        SJMP      ??uiActionProcessPrepareInstallCode_12
// 1065     }
// 1066     else
// 1067     {
// 1068       index = (CurrentModifiedFieldLen * 2 - 1);
??uiActionProcessPrepareInstallCode_16:
        MOV       DPTR,#??CurrentModifiedFieldLen
        MOVX      A,@DPTR
        CLR       C
        RLC       A
        DEC       A
        MOV       DPTR,#??index
??uiActionProcessPrepareInstallCode_12:
        MOVX      @DPTR,A
// 1069     }
// 1070   }
// 1071   
// 1072   uiLcdCursorLine = index / LCD_LINE_LENGTH;
??uiActionProcessPrepareInstallCode_15:
        MOV       DPTR,#??index
        MOVX      A,@DPTR
        SWAP      A
        ANL       A,#0xf
        MOV       DPTR,#uiLcdCursorLine
        MOVX      @DPTR,A
// 1073   uiLcdCursorCol = index % LCD_LINE_LENGTH;
        MOV       DPTR,#??index
        MOVX      A,@DPTR
        ANL       A,#0xf
        MOV       DPTR,#uiLcdCursorCol
        MOVX      @DPTR,A
// 1074 
// 1075   if ((uiCurrentState == UI_STATE_SET_INST_CODE_1) && ((keys & UI_KEY_SW_1_PRESSED) || (keys & UI_KEY_SW_3_PRESSED)))
        MOV       DPTR,#uiCurrentState
        MOVX      A,@DPTR
        XRL       A,#0x15
        JNZ       ??uiActionProcessPrepareInstallCode_17
        INC       DPTR
        MOVX      A,@DPTR
??uiActionProcessPrepareInstallCode_17:
        JNZ       ??CrossCallReturnLabel_60
        MOV       A,R4
        JZ        ??CrossCallReturnLabel_60
// 1076   {
// 1077     crc = bdb_GenerateInstallCodeCRC(uiInstallCode);
        ; Setup parameters for call to function bdb_GenerateInstallCodeCRC
        LCALL     ?Subroutine26 & 0xFFFF
// 1078     uiInstallCode[INSTALL_CODE_LEN] = crc & 0xFF;
// 1079     uiInstallCode[INSTALL_CODE_LEN + 1] = crc >> 8;
// 1080   }
// 1081 
// 1082   if (keys & UI_KEY_SW_5_PRESSED)
??CrossCallReturnLabel_60:
        MOV       A,R6
        ANL       A,#0x4
        JZ        ??uiActionProcessPrepareInstallCode_18
// 1083   {
// 1084 #if (ZG_BUILD_COORDINATOR_TYPE)
// 1085     if (uiCurrentState == UI_STATE_SET_INST_CODE_ADDR_1)
// 1086     {
// 1087       uiCurrentState = UI_STATE_SET_INST_CODE_ADDR_0;
// 1088     }
// 1089     else
// 1090 #endif
// 1091     {
// 1092       uiCurrentState = UI_STATE_SET_INST_CODE_0;
        MOV       DPTR,#uiCurrentState
        MOV       A,#0x12
        LCALL     ?Subroutine5 & 0xFFFF
// 1093     }
// 1094     
// 1095     uiLcdCursorLine = 0xFF;
// 1096   }
??CrossCallReturnLabel_2:
        MOVX      @DPTR,A
// 1097 }
??uiActionProcessPrepareInstallCode_18:
        MOV       R7,#0x8
        LJMP      ?BANKED_LEAVE_XDATA
          CFI EndBlock cfiBlock27

        RSEG BANKED_CODE:HUGECODE:NOROOT(0)
?Subroutine26:
          CFI Block cfiCond28 Using cfiCommon0
          CFI Function uiActionSetInstallCode
          CFI Conditional ??CrossCallReturnLabel_58
          CFI R6 load(1, XDATA, add(CFA_XSP16, literal(-10)))
          CFI VB load(1, XDATA, add(CFA_XSP16, literal(-9)))
          CFI V0 load(1, XDATA, add(CFA_XSP16, literal(-8)))
          CFI V1 load(1, XDATA, add(CFA_XSP16, literal(-7)))
          CFI R7 load(1, XDATA, add(CFA_XSP16, literal(-6)))
          CFI ?RET_LOW load(1, XDATA, add(CFA_XSP16, literal(-5)))
          CFI ?RET_HIGH load(1, XDATA, add(CFA_XSP16, literal(-4)))
          CFI ?BRET_EXT load(1, XDATA, add(CFA_XSP16, literal(-3)))
          CFI DPL0 load(1, XDATA, add(CFA_XSP16, literal(-2)))
          CFI DPH0 load(1, XDATA, add(CFA_XSP16, literal(-1)))
          CFI CFA_SP SP+-2
          CFI CFA_XSP16 add(XSP16, 10)
          CFI Block cfiCond29 Using cfiCommon0
          CFI (cfiCond29) Function uiActionProcessPrepareInstallCode
          CFI (cfiCond29) Conditional ??CrossCallReturnLabel_59
          CFI (cfiCond29) R6 load(1, XDATA, add(CFA_XSP16, literal(-16)))
          CFI (cfiCond29) VB load(1, XDATA, add(CFA_XSP16, literal(-15)))
          CFI (cfiCond29) V0 load(1, XDATA, add(CFA_XSP16, literal(-14)))
          CFI (cfiCond29) V1 load(1, XDATA, add(CFA_XSP16, literal(-13)))
          CFI (cfiCond29) V2 load(1, XDATA, add(CFA_XSP16, literal(-12)))
          CFI (cfiCond29) V3 load(1, XDATA, add(CFA_XSP16, literal(-11)))
          CFI (cfiCond29) V4 load(1, XDATA, add(CFA_XSP16, literal(-10)))
          CFI (cfiCond29) V5 load(1, XDATA, add(CFA_XSP16, literal(-9)))
          CFI (cfiCond29) V6 load(1, XDATA, add(CFA_XSP16, literal(-8)))
          CFI (cfiCond29) V7 load(1, XDATA, add(CFA_XSP16, literal(-7)))
          CFI (cfiCond29) R7 load(1, XDATA, add(CFA_XSP16, literal(-6)))
          CFI (cfiCond29) ?RET_LOW load(1, XDATA, add(CFA_XSP16, literal(-5)))
          CFI (cfiCond29) ?RET_HIGH load(1, XDATA, add(CFA_XSP16, literal(-4)))
          CFI (cfiCond29) ?BRET_EXT load(1, XDATA, add(CFA_XSP16, literal(-3)))
          CFI (cfiCond29) DPL0 load(1, XDATA, add(CFA_XSP16, literal(-2)))
          CFI (cfiCond29) DPH0 load(1, XDATA, add(CFA_XSP16, literal(-1)))
          CFI (cfiCond29) CFA_SP SP+-2
          CFI (cfiCond29) CFA_XSP16 add(XSP16, 16)
          CFI Block cfiCond30 Using cfiCommon0
          CFI (cfiCond30) Function uiActionProcessPrepareInstallCode
          CFI (cfiCond30) Conditional ??CrossCallReturnLabel_60
          CFI (cfiCond30) R6 load(1, XDATA, add(CFA_XSP16, literal(-16)))
          CFI (cfiCond30) VB load(1, XDATA, add(CFA_XSP16, literal(-15)))
          CFI (cfiCond30) V0 load(1, XDATA, add(CFA_XSP16, literal(-14)))
          CFI (cfiCond30) V1 load(1, XDATA, add(CFA_XSP16, literal(-13)))
          CFI (cfiCond30) V2 load(1, XDATA, add(CFA_XSP16, literal(-12)))
          CFI (cfiCond30) V3 load(1, XDATA, add(CFA_XSP16, literal(-11)))
          CFI (cfiCond30) V4 load(1, XDATA, add(CFA_XSP16, literal(-10)))
          CFI (cfiCond30) V5 load(1, XDATA, add(CFA_XSP16, literal(-9)))
          CFI (cfiCond30) V6 load(1, XDATA, add(CFA_XSP16, literal(-8)))
          CFI (cfiCond30) V7 load(1, XDATA, add(CFA_XSP16, literal(-7)))
          CFI (cfiCond30) R7 load(1, XDATA, add(CFA_XSP16, literal(-6)))
          CFI (cfiCond30) ?RET_LOW load(1, XDATA, add(CFA_XSP16, literal(-5)))
          CFI (cfiCond30) ?RET_HIGH load(1, XDATA, add(CFA_XSP16, literal(-4)))
          CFI (cfiCond30) ?BRET_EXT load(1, XDATA, add(CFA_XSP16, literal(-3)))
          CFI (cfiCond30) DPL0 load(1, XDATA, add(CFA_XSP16, literal(-2)))
          CFI (cfiCond30) DPH0 load(1, XDATA, add(CFA_XSP16, literal(-1)))
          CFI (cfiCond30) CFA_SP SP+-2
          CFI (cfiCond30) CFA_XSP16 add(XSP16, 16)
          CFI Block cfiPicker31 Using cfiCommon1
          CFI (cfiPicker31) NoFunction
          CFI (cfiPicker31) Picker
        MOV       R2,#uiInstallCode & 0xff
        MOV       R3,#(uiInstallCode >> 8) & 0xff
        LCALL     `??bdb_GenerateInstallCodeCRC::?relay`; Banked call to: bdb_GenerateInstallCodeCRC
        MOV       A,R2
        MOV       DPTR,#uiInstallCode + 16
        MOVX      @DPTR,A
        MOV       A,R3
        INC       DPTR
        MOVX      @DPTR,A
        RET
          CFI EndBlock cfiCond28
          CFI EndBlock cfiCond29
          CFI EndBlock cfiCond30
          CFI EndBlock cfiPicker31

        RSEG BANKED_CODE:HUGECODE:NOROOT(0)
?Subroutine22:
          CFI Block cfiCond32 Using cfiCommon0
          CFI Function uiUintToString
          CFI Conditional ??CrossCallReturnLabel_45
          CFI R6 load(1, XDATA, add(CFA_XSP16, literal(-24)))
          CFI VB load(1, XDATA, add(CFA_XSP16, literal(-23)))
          CFI V0 load(1, XDATA, add(CFA_XSP16, literal(-22)))
          CFI V1 load(1, XDATA, add(CFA_XSP16, literal(-21)))
          CFI V2 load(1, XDATA, add(CFA_XSP16, literal(-20)))
          CFI V3 load(1, XDATA, add(CFA_XSP16, literal(-19)))
          CFI V4 load(1, XDATA, add(CFA_XSP16, literal(-18)))
          CFI V5 load(1, XDATA, add(CFA_XSP16, literal(-17)))
          CFI V6 load(1, XDATA, add(CFA_XSP16, literal(-16)))
          CFI V7 load(1, XDATA, add(CFA_XSP16, literal(-15)))
          CFI V8 load(1, XDATA, add(CFA_XSP16, literal(-14)))
          CFI V9 load(1, XDATA, add(CFA_XSP16, literal(-13)))
          CFI V10 load(1, XDATA, add(CFA_XSP16, literal(-12)))
          CFI V11 load(1, XDATA, add(CFA_XSP16, literal(-11)))
          CFI V12 load(1, XDATA, add(CFA_XSP16, literal(-10)))
          CFI V13 load(1, XDATA, add(CFA_XSP16, literal(-9)))
          CFI V14 load(1, XDATA, add(CFA_XSP16, literal(-8)))
          CFI V15 load(1, XDATA, add(CFA_XSP16, literal(-7)))
          CFI R7 load(1, XDATA, add(CFA_XSP16, literal(-6)))
          CFI ?RET_LOW load(1, XDATA, add(CFA_XSP16, literal(-5)))
          CFI ?RET_HIGH load(1, XDATA, add(CFA_XSP16, literal(-4)))
          CFI ?BRET_EXT load(1, XDATA, add(CFA_XSP16, literal(-3)))
          CFI DPL0 load(1, XDATA, add(CFA_XSP16, literal(-2)))
          CFI DPH0 load(1, XDATA, add(CFA_XSP16, literal(-1)))
          CFI CFA_SP SP+-2
          CFI CFA_XSP16 add(XSP16, 25)
          CFI Block cfiCond33 Using cfiCommon0
          CFI (cfiCond33) Function uiActionProcessPrepareInstallCode
          CFI (cfiCond33) Conditional ??CrossCallReturnLabel_46
          CFI (cfiCond33) R6 load(1, XDATA, add(CFA_XSP16, literal(-16)))
          CFI (cfiCond33) VB load(1, XDATA, add(CFA_XSP16, literal(-15)))
          CFI (cfiCond33) V0 load(1, XDATA, add(CFA_XSP16, literal(-14)))
          CFI (cfiCond33) V1 load(1, XDATA, add(CFA_XSP16, literal(-13)))
          CFI (cfiCond33) V2 load(1, XDATA, add(CFA_XSP16, literal(-12)))
          CFI (cfiCond33) V3 load(1, XDATA, add(CFA_XSP16, literal(-11)))
          CFI (cfiCond33) V4 load(1, XDATA, add(CFA_XSP16, literal(-10)))
          CFI (cfiCond33) V5 load(1, XDATA, add(CFA_XSP16, literal(-9)))
          CFI (cfiCond33) V6 load(1, XDATA, add(CFA_XSP16, literal(-8)))
          CFI (cfiCond33) V7 load(1, XDATA, add(CFA_XSP16, literal(-7)))
          CFI (cfiCond33) R7 load(1, XDATA, add(CFA_XSP16, literal(-6)))
          CFI (cfiCond33) ?RET_LOW load(1, XDATA, add(CFA_XSP16, literal(-5)))
          CFI (cfiCond33) ?RET_HIGH load(1, XDATA, add(CFA_XSP16, literal(-4)))
          CFI (cfiCond33) ?BRET_EXT load(1, XDATA, add(CFA_XSP16, literal(-3)))
          CFI (cfiCond33) DPL0 load(1, XDATA, add(CFA_XSP16, literal(-2)))
          CFI (cfiCond33) DPH0 load(1, XDATA, add(CFA_XSP16, literal(-1)))
          CFI (cfiCond33) CFA_SP SP+-2
          CFI (cfiCond33) CFA_XSP16 add(XSP16, 16)
          CFI Block cfiPicker34 Using cfiCommon1
          CFI (cfiPicker34) NoFunction
          CFI (cfiPicker34) Picker
        MOVX      A,@DPTR
        ADD       A,R0
        MOV       R0,A
        INC       DPTR
        MOVX      A,@DPTR
        ADDC      A,#0x0
        MOV       DPL,R0
        MOV       DPH,A
        RET
          CFI EndBlock cfiCond32
          CFI EndBlock cfiCond33
          CFI EndBlock cfiPicker34

        RSEG XDATA_Z:XDATA:NOROOT(0)
        DATA16
??pCurrentModifiedField:
        DS 2
        REQUIRE __INIT_XDATA_Z

        RSEG XDATA_Z:XDATA:NOROOT(0)
        DATA8
??CurrentModifiedFieldLen:
        DS 1
        REQUIRE __INIT_XDATA_Z

        RSEG XDATA_Z:XDATA:NOROOT(0)
        DATA8
??CurrentModifiedFieldIsBigEndian:
        DS 1
        REQUIRE __INIT_XDATA_Z

        RSEG XDATA_Z:XDATA:NOROOT(0)
        DATA8
??index:
        DS 1
        REQUIRE __INIT_XDATA_Z
// 1098 
// 1099 /*********************************************************************
// 1100  * @fn          uiActionConfigureEnables
// 1101  *
// 1102  * @brief       State-machine action for toggling various configurations on and off
// 1103  *
// 1104  * @param       keys - the keypress code that triggered the call to this function
// 1105  *
// 1106  * @return      none
// 1107  */

        RSEG BANKED_CODE:HUGECODE:NOROOT(0)
// 1108 static void uiActionConfigureEnables(uint16 keys)
uiActionConfigureEnables:
          CFI Block cfiBlock35 Using cfiCommon0
          CFI Function uiActionConfigureEnables
        CODE
// 1109 {
        REQUIRE ?V0
        REQUIRE ?V1
        MOV       A,#-0xa
        LCALL     ?BANKED_ENTER_XDATA
          CFI DPH0 load(1, XDATA, add(CFA_XSP16, literal(-1)))
          CFI DPL0 load(1, XDATA, add(CFA_XSP16, literal(-2)))
          CFI ?BRET_EXT load(1, XDATA, add(CFA_XSP16, literal(-3)))
          CFI ?RET_HIGH load(1, XDATA, add(CFA_XSP16, literal(-4)))
          CFI ?RET_LOW load(1, XDATA, add(CFA_XSP16, literal(-5)))
          CFI R7 load(1, XDATA, add(CFA_XSP16, literal(-6)))
          CFI V1 load(1, XDATA, add(CFA_XSP16, literal(-7)))
          CFI V0 load(1, XDATA, add(CFA_XSP16, literal(-8)))
          CFI VB load(1, XDATA, add(CFA_XSP16, literal(-9)))
          CFI R6 load(1, XDATA, add(CFA_XSP16, literal(-10)))
          CFI CFA_SP SP+0
          CFI CFA_XSP16 add(XSP16, 10)
        ; Saved register size: 10
        ; Auto size: 0
// 1110 #if defined ( BDB_TL_TARGET )
// 1111   static uint32 TouchlinkTimeoutIncements = TOUCHLINK_TIMEOUT_INCREMENTS_INITIAL;
// 1112 #endif
// 1113 
// 1114   switch (uiCurrentState)
        MOV       DPTR,#uiCurrentState
        LCALL     ?Subroutine16 & 0xFFFF
??CrossCallReturnLabel_30:
        LCALL     ?US_SWITCH_DENSE
`?<Jumptable for uiActionConfigureEnables>_0`:
        DATA
        DATA16
        DATA
        DATA16
        DW        8
        DATA
        DATA8
        DATA
        DATA8
        DB        2
        DATA
        DATA16
        DATA
        DATA16
        DW        ??uiActionConfigureEnables_0
        DATA
        DATA16
        DATA
        DATA16
        DW        ??uiActionConfigureEnables_1
        DATA
        DATA16
        DATA
        DATA16
        DW        ??uiActionConfigureEnables_2
        DATA
        DATA16
        DATA
        DATA16
        DW        ??uiActionConfigureEnables_3
        CODE
// 1115   {
// 1116 #ifdef BDB_TL_TARGET
// 1117     case UI_STATE_TOUCHLINK_TARGET:
// 1118       if (keys & UI_KEY_SW_1_PRESSED)
// 1119       {
// 1120         if (uiTouchlinkTargetTimeout < TOUCHLINK_TARGET_PERPETUAL - TouchlinkTimeoutIncements)
// 1121         {
// 1122           uiTouchlinkTargetTimeout += TouchlinkTimeoutIncements;
// 1123         }
// 1124         else
// 1125         {
// 1126           uiTouchlinkTargetTimeout = TOUCHLINK_TARGET_PERPETUAL;
// 1127         }
// 1128       }
// 1129       else if ((keys & UI_KEY_SW_3_PRESSED) && (uiTouchlinkTargetTimeout >= TouchlinkTimeoutIncements))
// 1130       {
// 1131         if ((uiTouchlinkTargetTimeout % TouchlinkTimeoutIncements) != 0)
// 1132         {
// 1133           uiTouchlinkTargetTimeout -= uiTouchlinkTargetTimeout % TouchlinkTimeoutIncements;
// 1134         }
// 1135         else
// 1136         {
// 1137           uiTouchlinkTargetTimeout -= TouchlinkTimeoutIncements;
// 1138         }
// 1139       }
// 1140 
// 1141       if ((keys & (UI_KEY_SW_1_PRESSED | UI_KEY_SW_3_PRESSED)) && ((uiTouchlinkTargetTimeout > 0) && (uiTouchlinkTargetTimeout < TOUCHLINK_TARGET_PERPETUAL)))
// 1142       {
// 1143         osal_start_timerEx(uiAppTaskId, uiKeyAutoRepeatEvent, uiAutoKeyRepeatDelay);
// 1144         uiAutoKeyRepeatDelay = 100;
// 1145         if (TouchlinkTimeoutIncements < TOUCHLINK_TIMEOUT_INCREMENTS_MAX)
// 1146         {
// 1147           uiAutoKeyRepeatCount++;
// 1148           if (uiAutoKeyRepeatCount == 3)
// 1149           {
// 1150             uiAutoKeyRepeatCount = 0;
// 1151             TouchlinkTimeoutIncements *= 2;
// 1152           }
// 1153         }
// 1154       }
// 1155       else
// 1156       {
// 1157         osal_stop_timerEx(uiAppTaskId, uiKeyAutoRepeatEvent);
// 1158         uiAutoKeyRepeatDelay = 500;
// 1159         uiAutoKeyRepeatCount = 0;
// 1160         TouchlinkTimeoutIncements = 1000;
// 1161       }
// 1162       break;
// 1163     case UI_STATE_TOUCHLINK_STEALING:
// 1164       bdb_TouchlinkSetAllowStealing( ! bdb_TouchlinkGetAllowStealing() );
// 1165       break;
// 1166 #endif
// 1167 #ifdef BDB_TL_INITIATOR
// 1168     case UI_STATE_TOUCHLINK_INITIATOR:
// 1169       uiSelectedBdbComissioningModes ^= BDB_COMMISSIONING_MODE_INITIATOR_TL;
// 1170       break;
// 1171 #endif
// 1172     case UI_STATE_NETWORK_FORMATION:
// 1173       uiSelectedBdbComissioningModes ^= BDB_COMMISSIONING_MODE_NWK_FORMATION;
??uiActionConfigureEnables_1:
        MOV       DPTR,#uiSelectedBdbComissioningModes
        MOVX      A,@DPTR
        XRL       A,#0x4
        SJMP      ??uiActionConfigureEnables_4
// 1174       break;
// 1175     case UI_STATE_NETWORK_STEERING:
// 1176       uiSelectedBdbComissioningModes ^= BDB_COMMISSIONING_MODE_NWK_STEERING;
??uiActionConfigureEnables_2:
        MOV       DPTR,#uiSelectedBdbComissioningModes
        MOVX      A,@DPTR
        XRL       A,#0x2
        SJMP      ??uiActionConfigureEnables_4
// 1177       break;
// 1178     case UI_STATE_FINDING_AND_BINDING:
// 1179       uiSelectedBdbComissioningModes ^= BDB_COMMISSIONING_MODE_FINDING_BINDING;
??uiActionConfigureEnables_3:
        MOV       DPTR,#uiSelectedBdbComissioningModes
        MOVX      A,@DPTR
        XRL       A,#0x8
??uiActionConfigureEnables_4:
        MOVX      @DPTR,A
// 1180       break;
// 1181   }
// 1182 }
??uiActionConfigureEnables_0:
        LJMP      ?Subroutine1 & 0xFFFF
          CFI EndBlock cfiBlock35
// 1183 
// 1184 /*********************************************************************
// 1185  * @fn          uiActionResetToFactoryNew
// 1186  *
// 1187  * @brief       State-machine action for resetting the device to factory new
// 1188  *
// 1189  * @param       keys - the keypress code that triggered the call to this function
// 1190  *
// 1191  * @return      none
// 1192  */

        RSEG BANKED_CODE:HUGECODE:NOROOT(0)
// 1193 static void uiActionResetToFactoryNew(uint16 keys)
uiActionResetToFactoryNew:
          CFI Block cfiBlock36 Using cfiCommon0
          CFI Function uiActionResetToFactoryNew
        CODE
// 1194 {
        FUNCALL uiActionResetToFactoryNew, bdb_resetLocalAction
        LOCFRAME ISTACK, 2, STACK
        LOCFRAME PSTACK, 0, STACK
        LOCFRAME XSTACK, 0, STACK
        LOCFRAME IOVERLAY, 0, STATIC
        LOCFRAME DOVERLAY, 0, STATIC
        ARGFRAME ISTACK, 2, STACK
        ARGFRAME PSTACK, 0, STACK
        ARGFRAME XSTACK, 0, STACK
        ARGFRAME IOVERLAY, 0, STATIC
        ARGFRAME DOVERLAY, 0, STATIC
        PUSH      DPL
          CFI DPL0 Frame(CFA_SP, 4)
          CFI CFA_SP SP+-4
        PUSH      DPH
          CFI DPH0 Frame(CFA_SP, 5)
          CFI CFA_SP SP+-5
        ; Saved register size: 2
        ; Auto size: 0
// 1195   uiResetInitiated = TRUE;
        MOV       DPTR,#uiResetInitiated
        MOV       A,#0x1
        MOVX      @DPTR,A
// 1196   bdb_resetLocalAction();
        ; Setup parameters for call to function bdb_resetLocalAction
        LCALL     `??bdb_resetLocalAction::?relay`; Banked call to: bdb_resetLocalAction
// 1197 }
        LJMP      ?Subroutine2 & 0xFFFF
          CFI EndBlock cfiBlock36
// 1198   
// 1199 /*********************************************************************
// 1200  * @fn          UI_MainStateMachine
// 1201  *
// 1202  * @brief       This is the main UI state machine engine.
// 1203  *              This function should be called from the application's key handler, and also from its event-loop
// 1204  *              for processing the key-repress event.
// 1205  *
// 1206  * @param       current_keys - a bitmask of the keys that are currently pressed, or 0xFFFF when this function
// 1207  *              is invoked to handle key auto-repeat.
// 1208  *
// 1209  * @return      none
// 1210  */

        RSEG BANKED_CODE:HUGECODE:NOROOT(0)
// 1211 void UI_MainStateMachine( uint16 current_keys ) //argument is uint16 to allow 8 bits for the keys (for future use), and another unique value to mark a re-press of the previous keys.
UI_MainStateMachine:
          CFI Block cfiBlock37 Using cfiCommon0
          CFI Function UI_MainStateMachine
        CODE
// 1212 {
        FUNCALL UI_MainStateMachine, UI_UpdateLcd
        LOCFRAME ISTACK, 0, STACK
        LOCFRAME PSTACK, 0, STACK
        LOCFRAME XSTACK, 9, STACK
        LOCFRAME IOVERLAY, 0, STATIC
        LOCFRAME DOVERLAY, 0, STATIC
        ARGFRAME ISTACK, 0, STACK
        ARGFRAME PSTACK, 0, STACK
        ARGFRAME XSTACK, 9, STACK
        ARGFRAME IOVERLAY, 0, STATIC
        ARGFRAME DOVERLAY, 0, STATIC
        REQUIRE ?V0
        MOV       A,#-0x9
        LCALL     ?BANKED_ENTER_XDATA
          CFI DPH0 load(1, XDATA, add(CFA_XSP16, literal(-1)))
          CFI DPL0 load(1, XDATA, add(CFA_XSP16, literal(-2)))
          CFI ?BRET_EXT load(1, XDATA, add(CFA_XSP16, literal(-3)))
          CFI ?RET_HIGH load(1, XDATA, add(CFA_XSP16, literal(-4)))
          CFI ?RET_LOW load(1, XDATA, add(CFA_XSP16, literal(-5)))
          CFI R7 load(1, XDATA, add(CFA_XSP16, literal(-6)))
          CFI V0 load(1, XDATA, add(CFA_XSP16, literal(-7)))
          CFI VB load(1, XDATA, add(CFA_XSP16, literal(-8)))
          CFI R6 load(1, XDATA, add(CFA_XSP16, literal(-9)))
          CFI CFA_SP SP+0
          CFI CFA_XSP16 add(XSP16, 9)
        ; Saved register size: 9
        ; Auto size: 0
// 1213   static byte PrevKeys = 0; //holds the keys that were pressed during the previous time this function was called. (Does not hold the keys that were released.)
// 1214 
// 1215   uint8 SavedLcdCursorLine = uiLcdCursorLine;
        MOV       DPTR,#uiLcdCursorLine
        MOVX      A,@DPTR
        MOV       ?V0,A
// 1216   bool LcdUpdateIsRequired = FALSE;
// 1217   uint16 keys; //will hold the bitmask of the currently pressed keys at the lower 8 bits, and the keys that have just been released at the higher 8 bits.
// 1218 
// 1219   if (uiResetInitiated)
        MOV       DPTR,#uiResetInitiated
        MOVX      A,@DPTR
        JZ        $+5
        LJMP      ??UI_MainStateMachine_0 & 0xFFFF
// 1220   {
// 1221     return;
// 1222   }
// 1223   
// 1224   if (current_keys == UI_KEY_AUTO_PRESSED)
        MOV       DPTR,#??PrevKeys
        MOVX      A,@DPTR
        MOV       R0,A
        MOV       A,#-0x1
        XRL       A,R2
        JNZ       ??UI_MainStateMachine_1
        MOV       A,#-0x1
        XRL       A,R3
??UI_MainStateMachine_1:
        JNZ       ??UI_MainStateMachine_2
// 1225   {
// 1226     keys = PrevKeys;
        MOV       A,R0
        MOV       R6,A
        MOV       R7,#0x0
        SJMP      ??UI_MainStateMachine_3
// 1227   }
// 1228   else
// 1229   {
// 1230     keys = (current_keys | (((PrevKeys ^ current_keys) & PrevKeys) << 8));
??UI_MainStateMachine_2:
        MOV       A,R0
        XRL       A,R2
        ANL       A,R0
        MOV       R1,A
        MOV       A,R2
        MOV       R6,A
        MOV       A,R3
        ORL       A,R1
        MOV       R7,A
// 1231   }
// 1232   
// 1233   uiLcdCursorLine = 0xFF;
??UI_MainStateMachine_3:
        MOV       DPTR,#uiLcdCursorLine
        MOV       A,#-0x1
        MOVX      @DPTR,A
// 1234 
// 1235   if ((keys & UI_KEY_SW_2_PRESSED) && (uiStates[uiCurrentState].next_state != UI_STATE_UNCHANGED))
        MOV       DPTR,#uiCurrentState
        LCALL     ?Subroutine25 & 0xFFFF
??CrossCallReturnLabel_53:
        MOV       A,R0
        MOV       B,#0x6
        MUL       AB
        MOV       R0,A
        MOV       R2,B
        MOV       B,#0x6
        MOV       A,R1
        MUL       AB
        ADD       A,R2
        MOV       R1,A
        MOV       DPTR,#uiStates
        MOVX      A,@DPTR
        ADD       A,R0
        MOV       R0,A
        INC       DPTR
        MOVX      A,@DPTR
        ADDC      A,R1
        MOV       R1,A
        MOV       A,R6
        ANL       A,#0x2
        JZ        ??UI_MainStateMachine_4
        MOV       DPL,R0
        MOV       DPH,R1
        MOVX      A,@DPTR
        MOV       R2,A
        MOV       A,#-0x1
        XRL       A,R2
        JZ        ??UI_MainStateMachine_4
// 1236   {
// 1237     if (uiStates[uiCurrentState].next_state == UI_STATE_DEFAULT_MOVE)
        MOV       A,#-0x2
        XRL       A,R2
        JNZ       ??UI_MainStateMachine_5
// 1238     {
// 1239       uiCurrentState++;
        MOV       DPTR,#uiCurrentState
        MOVX      A,@DPTR
        ADD       A,#0x1
        MOVX      @DPTR,A
        INC       DPTR
        MOVX      A,@DPTR
        ADDC      A,#0x0
        SJMP      ??UI_MainStateMachine_6
// 1240     }
// 1241     else
// 1242     {
// 1243       uiCurrentState = uiStates[uiCurrentState].next_state;
// 1244     }
// 1245     
// 1246     LcdUpdateIsRequired = TRUE;
// 1247   }
// 1248   else if ((keys & UI_KEY_SW_4_PRESSED) && (uiStates[uiCurrentState].prev_state != UI_STATE_UNCHANGED))
??UI_MainStateMachine_4:
        MOV       A,R6
        ANL       A,#0x8
        JZ        ??UI_MainStateMachine_7
        MOV       DPL,R0
        MOV       DPH,R1
        INC       DPTR
        MOVX      A,@DPTR
        MOV       R2,A
        MOV       A,#-0x1
        XRL       A,R2
        JZ        ??UI_MainStateMachine_7
// 1249   {
// 1250     if (uiStates[uiCurrentState].prev_state == UI_STATE_DEFAULT_MOVE)
        MOV       A,#-0x2
        XRL       A,R2
        JNZ       ??UI_MainStateMachine_5
// 1251     {
// 1252       uiCurrentState--;
        MOV       DPTR,#uiCurrentState
        MOVX      A,@DPTR
        ADD       A,#-0x1
        MOVX      @DPTR,A
        INC       DPTR
        MOVX      A,@DPTR
        ADDC      A,#-0x1
        SJMP      ??UI_MainStateMachine_6
// 1253     }
// 1254     else
// 1255     {
// 1256       uiCurrentState = uiStates[uiCurrentState].prev_state;
??UI_MainStateMachine_5:
        MOV       A,R2
        MOV       DPTR,#uiCurrentState
        MOVX      @DPTR,A
        INC       DPTR
        CLR       A
??UI_MainStateMachine_6:
        MOVX      @DPTR,A
// 1257     }
// 1258     
// 1259     LcdUpdateIsRequired = TRUE;
// 1260   }
// 1261   else if ((keys & uiStates[uiCurrentState].keys_mask) && (uiStates[uiCurrentState].state_func != NULL))
// 1262   {
// 1263     uiStates[uiCurrentState].state_func(keys);
// 1264     
// 1265     LcdUpdateIsRequired = TRUE;
// 1266   }
// 1267 
// 1268   if (LcdUpdateIsRequired)
// 1269   {
// 1270     UI_UpdateLcd();
??UI_MainStateMachine_8:
        ; Setup parameters for call to function UI_UpdateLcd
        LCALL     `??UI_UpdateLcd::?relay`; Banked call to: UI_UpdateLcd
        SJMP      ??UI_MainStateMachine_9
// 1271   }
??UI_MainStateMachine_7:
        MOV       DPL,R0
        MOV       DPH,R1
        INC       DPTR
        INC       DPTR
        MOVX      A,@DPTR
        ANL       A,R6
        MOV       R2,A
        INC       DPTR
        MOVX      A,@DPTR
        ANL       A,R7
        MOV       R3,A
        MOV       A,R2
        ORL       A,R3
        JZ        ??UI_MainStateMachine_10
        MOV       DPL,R0
        MOV       DPH,R1
        INC       DPTR
        INC       DPTR
        INC       DPTR
        INC       DPTR
        LCALL     ?Subroutine36 & 0xFFFF
??CrossCallReturnLabel_95:
        MOV       DPL,R0
        MOV       DPH,A
        MOV       A,DPL
        ORL       A,DPH
        JZ        ??UI_MainStateMachine_10
        ; Setup parameters for indirect call
        MOV       A,R6
        MOV       R2,A
        MOV       A,R7
        MOV       R3,A
        LCALL     ?CALL_IND
        SJMP      ??UI_MainStateMachine_8
// 1272   else
// 1273   {
// 1274     uiLcdCursorLine = SavedLcdCursorLine;
??UI_MainStateMachine_10:
        MOV       A,?V0
        MOV       DPTR,#uiLcdCursorLine
        MOVX      @DPTR,A
// 1275   }
// 1276 
// 1277   PrevKeys = keys & 0xFF; //only remember the keys that are currently pressed. Released keys are irrelevant. the 0xFF is not needed, since the target is uint8, but it is there just so it is clear that this assignment of uint16 into uint8 is intentional.
??UI_MainStateMachine_9:
        MOV       A,R6
        MOV       DPTR,#??PrevKeys
        MOVX      @DPTR,A
// 1278 }
??UI_MainStateMachine_0:
          CFI EndBlock cfiBlock37
        REQUIRE ?Subroutine4
        ; // Fall through to label ?Subroutine4

        RSEG BANKED_CODE:HUGECODE:NOROOT(0)
?Subroutine4:
          CFI Block cfiBlock38 Using cfiCommon0
          CFI NoFunction
          CFI CFA_SP SP+0
          CFI CFA_XSP16 add(XSP16, 9)
          CFI VB load(1, XDATA, add(CFA_XSP16, literal(-8)))
          CFI DPL0 load(1, XDATA, add(CFA_XSP16, literal(-2)))
          CFI DPH0 load(1, XDATA, add(CFA_XSP16, literal(-1)))
          CFI R6 load(1, XDATA, add(CFA_XSP16, literal(-9)))
          CFI R7 load(1, XDATA, add(CFA_XSP16, literal(-6)))
          CFI V0 load(1, XDATA, add(CFA_XSP16, literal(-7)))
          CFI ?BRET_EXT load(1, XDATA, add(CFA_XSP16, literal(-3)))
          CFI ?RET_HIGH load(1, XDATA, add(CFA_XSP16, literal(-4)))
          CFI ?RET_LOW load(1, XDATA, add(CFA_XSP16, literal(-5)))
        MOV       R7,#0x1
        LJMP      ?BANKED_LEAVE_XDATA
          CFI EndBlock cfiBlock38

        RSEG XDATA_Z:XDATA:NOROOT(0)
        DATA8
??PrevKeys:
        DS 1
        REQUIRE __INIT_XDATA_Z
// 1279 
// 1280 /*********************************************************************
// 1281  * @fn          UI_UpdateComissioningStatus
// 1282  *
// 1283  * @brief       Update the comissioning status to be displayed when the respective menu-screen is selected.
// 1284  *              This function should be called from the application, from within the function registered to
// 1285  *              be notified about these events.
// 1286  *
// 1287  * @param       bdbCommissioningModeMsg - comissioning mode and state information
// 1288  *
// 1289  * @return      none
// 1290  */

        RSEG BANKED_CODE:HUGECODE:NOROOT(0)
// 1291 void UI_UpdateComissioningStatus(bdbCommissioningModeMsg_t *bdbCommissioningModeMsg)
UI_UpdateComissioningStatus:
          CFI Block cfiBlock39 Using cfiCommon0
          CFI Function UI_UpdateComissioningStatus
        CODE
// 1292 {
        FUNCALL UI_UpdateComissioningStatus, UI_UpdateLcd
        LOCFRAME ISTACK, 2, STACK
        LOCFRAME PSTACK, 0, STACK
        LOCFRAME XSTACK, 0, STACK
        LOCFRAME IOVERLAY, 0, STATIC
        LOCFRAME DOVERLAY, 0, STATIC
        ARGFRAME ISTACK, 2, STACK
        ARGFRAME PSTACK, 0, STACK
        ARGFRAME XSTACK, 0, STACK
        ARGFRAME IOVERLAY, 0, STATIC
        ARGFRAME DOVERLAY, 0, STATIC
        PUSH      DPL
          CFI DPL0 Frame(CFA_SP, 4)
          CFI CFA_SP SP+-4
        PUSH      DPH
          CFI DPH0 Frame(CFA_SP, 5)
          CFI CFA_SP SP+-5
        ; Saved register size: 2
        ; Auto size: 0
// 1293   uiCommissioningIsInitializing = FALSE;
        MOV       DPTR,#uiCommissioningIsInitializing
        CLR       A
        MOVX      @DPTR,A
// 1294   
// 1295   switch(bdbCommissioningModeMsg->bdbCommissioningMode)
        MOV       DPL,R2
        MOV       DPH,R3
        INC       DPTR
        MOVX      A,@DPTR
        JZ        ??UI_UpdateComissioningStatus_0
        DEC       A
        JZ        ??UI_UpdateComissioningStatus_1
        DEC       A
        JZ        ??UI_UpdateComissioningStatus_2
        DEC       A
        JZ        ??UI_UpdateComissioningStatus_3
        SJMP      ??UI_UpdateComissioningStatus_4
// 1296   {
// 1297     case BDB_COMMISSIONING_FORMATION:
// 1298       uiCommissioningStateStr = "NF";
??UI_UpdateComissioningStatus_2:
        MOV       DPTR,#uiCommissioningStateStr
        MOV       A,#`?<Constant "NF">` & 0xff
        MOVX      @DPTR,A
        INC       DPTR
        MOV       A,#(`?<Constant "NF">` >> 8) & 0xff
        MOVX      @DPTR,A
// 1299       if ((bdbCommissioningModeMsg->bdbCommissioningStatus == BDB_COMMISSIONING_SUCCESS) && (uiCommissioningNetworkConnrctionStr == NULL))
        MOV       DPL,R2
        MOV       DPH,R3
        MOVX      A,@DPTR
        JNZ       ??UI_UpdateComissioningStatus_4
        MOV       DPTR,#uiCommissioningNetworkConnrctionStr
        LCALL     ??Subroutine43_0 & 0xFFFF
??CrossCallReturnLabel_89:
        JNZ       ??UI_UpdateComissioningStatus_5
// 1300       {
// 1301         uiCommissioningNetworkConnrctionStr = "FORM";
        MOV       DPTR,#uiCommissioningNetworkConnrctionStr
        MOV       A,#`?<Constant "FORM">` & 0xff
        MOVX      @DPTR,A
        INC       DPTR
        MOV       A,#(`?<Constant "FORM">` >> 8) & 0xff
        SJMP      ??UI_UpdateComissioningStatus_6
// 1302       }
// 1303       break;
// 1304     case BDB_COMMISSIONING_NWK_STEERING:
// 1305       uiCommissioningStateStr = "NS";
??UI_UpdateComissioningStatus_1:
        MOV       DPTR,#uiCommissioningStateStr
        MOV       A,#`?<Constant "NS">` & 0xff
        MOVX      @DPTR,A
        INC       DPTR
        MOV       A,#(`?<Constant "NS">` >> 8) & 0xff
        MOVX      @DPTR,A
// 1306       if ((bdbCommissioningModeMsg->bdbCommissioningStatus == BDB_COMMISSIONING_SUCCESS) && (uiCommissioningNetworkConnrctionStr == NULL))
        MOV       DPL,R2
        MOV       DPH,R3
        MOVX      A,@DPTR
        JNZ       ??UI_UpdateComissioningStatus_4
        MOV       DPTR,#uiCommissioningNetworkConnrctionStr
        LCALL     ??Subroutine43_0 & 0xFFFF
??CrossCallReturnLabel_90:
        JNZ       ??UI_UpdateComissioningStatus_5
// 1307       {
// 1308         uiCommissioningNetworkConnrctionStr = "JOIN";
        MOV       DPTR,#uiCommissioningNetworkConnrctionStr
        MOV       A,#`?<Constant "JOIN">` & 0xff
        MOVX      @DPTR,A
        INC       DPTR
        MOV       A,#(`?<Constant "JOIN">` >> 8) & 0xff
??UI_UpdateComissioningStatus_6:
        MOVX      @DPTR,A
        SJMP      ??UI_UpdateComissioningStatus_5
// 1309       }
// 1310       break;
// 1311     case BDB_COMMISSIONING_FINDING_BINDING:
// 1312       uiCommissioningStateStr = "FB";
??UI_UpdateComissioningStatus_3:
        MOV       DPTR,#uiCommissioningStateStr
        MOV       A,#`?<Constant "FB">` & 0xff
        MOVX      @DPTR,A
        INC       DPTR
        MOV       A,#(`?<Constant "FB">` >> 8) & 0xff
        SJMP      ??UI_UpdateComissioningStatus_7
// 1313       break;
// 1314     case BDB_COMMISSIONING_INITIALIZATION:
// 1315       uiCommissioningStateStr = "IN";
??UI_UpdateComissioningStatus_0:
        MOV       DPTR,#uiCommissioningStateStr
        MOV       A,#`?<Constant "IN">` & 0xff
        MOVX      @DPTR,A
        INC       DPTR
        MOV       A,#(`?<Constant "IN">` >> 8) & 0xff
??UI_UpdateComissioningStatus_7:
        MOVX      @DPTR,A
// 1316       break;
// 1317 #if ZG_BUILD_ENDDEVICE_TYPE    
// 1318     case BDB_COMMISSIONING_PARENT_LOST:
// 1319       if(bdbCommissioningModeMsg->bdbCommissioningStatus == BDB_COMMISSIONING_NETWORK_RESTORED)
// 1320       {
// 1321         uiCommissioningStateStr = "--";
// 1322       }
// 1323       else
// 1324       {
// 1325         uiCommissioningStateStr = "PL";
// 1326       }
// 1327       break;
// 1328 #endif
// 1329 #if BDB_TOUCHLINK_CAPABILITY_ENABLED
// 1330     case BDB_COMMISSIONING_TOUCHLINK:
// 1331       uiCommissioningStateStr = "TL";
// 1332       if ((bdbCommissioningModeMsg->bdbCommissioningStatus == BDB_COMMISSIONING_SUCCESS) && (uiCommissioningNetworkConnrctionStr == NULL))
// 1333       {
// 1334         uiCommissioningNetworkConnrctionStr = "TCHL";
// 1335       }
// 1336       break;
// 1337 #endif
// 1338   }
// 1339 
// 1340   if ((bdbCommissioningModeMsg->bdbCommissioningStatus != BDB_COMMISSIONING_IN_PROGRESS) && (bdbCommissioningModeMsg->bdbRemainingCommissioningModes == 0))
??UI_UpdateComissioningStatus_4:
        MOV       DPL,R2
        MOV       DPH,R3
        MOVX      A,@DPTR
        XRL       A,#0x1
        JZ        ??UI_UpdateComissioningStatus_8
??UI_UpdateComissioningStatus_5:
        MOV       DPL,R2
        MOV       DPH,R3
        INC       DPTR
        INC       DPTR
        MOVX      A,@DPTR
        JNZ       ??UI_UpdateComissioningStatus_8
// 1341   {
// 1342     uiCommissioningStateStr = "--";
        MOV       DPTR,#uiCommissioningStateStr
        MOV       A,#`?<Constant "--">` & 0xff
        MOVX      @DPTR,A
        INC       DPTR
        MOV       A,#(`?<Constant "--">` >> 8) & 0xff
        MOVX      @DPTR,A
// 1343 
// 1344     uiComissioningIsActive = FALSE;
        MOV       DPTR,#uiComissioningIsActive
        CLR       A
        MOVX      @DPTR,A
// 1345   }
// 1346   
// 1347   UI_UpdateLcd();
??UI_UpdateComissioningStatus_8:
        ; Setup parameters for call to function UI_UpdateLcd
        LCALL     `??UI_UpdateLcd::?relay`; Banked call to: UI_UpdateLcd
// 1348 }
          CFI EndBlock cfiBlock39
        REQUIRE ?Subroutine2
        ; // Fall through to label ?Subroutine2

        RSEG BANKED_CODE:HUGECODE:NOROOT(0)
?Subroutine2:
          CFI Block cfiBlock40 Using cfiCommon0
          CFI NoFunction
          CFI CFA_SP SP+-5
          CFI DPL0 Frame(CFA_SP, 4)
          CFI DPH0 Frame(CFA_SP, 5)
        POP       DPH
          CFI CFA_SP SP+-4
          CFI DPH0 SameValue
        POP       DPL
          CFI CFA_SP SP+-3
          CFI DPL0 SameValue
        LJMP      ?BRET
          CFI EndBlock cfiBlock40
// 1349 
// 1350 
// 1351 void HalLcd_HW_WriteChar(uint8 line, uint8 col, char text);
// 1352 
// 1353 
// 1354 /*********************************************************************
// 1355  * @fn          UI_UpdateLcd
// 1356  *
// 1357  * @brief       Update the LCD display.
// 1358  *              This function should be called by the application when handling the display-auto-refresh event, and
// 1359  *              also whenevet an action that may change the information being displayed is executed.
// 1360  *
// 1361  * @param       none
// 1362  *
// 1363  * @return      none
// 1364  */

        RSEG BANKED_CODE:HUGECODE:NOROOT(0)
// 1365 void UI_UpdateLcd( void )
UI_UpdateLcd:
          CFI Block cfiBlock41 Using cfiCommon0
          CFI Function UI_UpdateLcd
        CODE
// 1366 {
        FUNCALL UI_UpdateLcd, osal_stop_timerEx
        LOCFRAME ISTACK, 0, STACK
        LOCFRAME PSTACK, 0, STACK
        LOCFRAME XSTACK, 76, STACK
        LOCFRAME IOVERLAY, 0, STATIC
        LOCFRAME DOVERLAY, 0, STATIC
        ARGFRAME ISTACK, 0, STACK
        ARGFRAME PSTACK, 0, STACK
        ARGFRAME XSTACK, 76, STACK
        ARGFRAME IOVERLAY, 0, STATIC
        ARGFRAME DOVERLAY, 0, STATIC
        FUNCALL UI_UpdateLcd, osal_memcpy
        LOCFRAME ISTACK, 0, STACK
        LOCFRAME PSTACK, 0, STACK
        LOCFRAME XSTACK, 79, STACK
        LOCFRAME IOVERLAY, 0, STATIC
        LOCFRAME DOVERLAY, 0, STATIC
        ARGFRAME ISTACK, 0, STACK
        ARGFRAME PSTACK, 0, STACK
        ARGFRAME XSTACK, 79, STACK
        ARGFRAME IOVERLAY, 0, STATIC
        ARGFRAME DOVERLAY, 0, STATIC
        FUNCALL UI_UpdateLcd, osal_memcpy
        LOCFRAME ISTACK, 0, STACK
        LOCFRAME PSTACK, 0, STACK
        LOCFRAME XSTACK, 79, STACK
        LOCFRAME IOVERLAY, 0, STATIC
        LOCFRAME DOVERLAY, 0, STATIC
        ARGFRAME ISTACK, 0, STACK
        ARGFRAME PSTACK, 0, STACK
        ARGFRAME XSTACK, 79, STACK
        ARGFRAME IOVERLAY, 0, STATIC
        ARGFRAME DOVERLAY, 0, STATIC
        FUNCALL UI_UpdateLcd, osal_memcpy
        LOCFRAME ISTACK, 0, STACK
        LOCFRAME PSTACK, 0, STACK
        LOCFRAME XSTACK, 79, STACK
        LOCFRAME IOVERLAY, 0, STATIC
        LOCFRAME DOVERLAY, 0, STATIC
        ARGFRAME ISTACK, 0, STACK
        ARGFRAME PSTACK, 0, STACK
        ARGFRAME XSTACK, 79, STACK
        ARGFRAME IOVERLAY, 0, STATIC
        ARGFRAME DOVERLAY, 0, STATIC
        FUNCALL UI_UpdateLcd, osal_memcpy
        LOCFRAME ISTACK, 0, STACK
        LOCFRAME PSTACK, 0, STACK
        LOCFRAME XSTACK, 79, STACK
        LOCFRAME IOVERLAY, 0, STATIC
        LOCFRAME DOVERLAY, 0, STATIC
        ARGFRAME ISTACK, 0, STACK
        ARGFRAME PSTACK, 0, STACK
        ARGFRAME XSTACK, 79, STACK
        ARGFRAME IOVERLAY, 0, STATIC
        ARGFRAME DOVERLAY, 0, STATIC
        FUNCALL UI_UpdateLcd, osal_memcpy
        LOCFRAME ISTACK, 0, STACK
        LOCFRAME PSTACK, 0, STACK
        LOCFRAME XSTACK, 79, STACK
        LOCFRAME IOVERLAY, 0, STATIC
        LOCFRAME DOVERLAY, 0, STATIC
        ARGFRAME ISTACK, 0, STACK
        ARGFRAME PSTACK, 0, STACK
        ARGFRAME XSTACK, 79, STACK
        ARGFRAME IOVERLAY, 0, STATIC
        ARGFRAME DOVERLAY, 0, STATIC
        FUNCALL UI_UpdateLcd, NLME_GetRemainingPermitJoiningDuration
        LOCFRAME ISTACK, 0, STACK
        LOCFRAME PSTACK, 0, STACK
        LOCFRAME XSTACK, 76, STACK
        LOCFRAME IOVERLAY, 0, STATIC
        LOCFRAME DOVERLAY, 0, STATIC
        ARGFRAME ISTACK, 0, STACK
        ARGFRAME PSTACK, 0, STACK
        ARGFRAME XSTACK, 76, STACK
        ARGFRAME IOVERLAY, 0, STATIC
        ARGFRAME DOVERLAY, 0, STATIC
        FUNCALL UI_UpdateLcd, osal_memcpy
        LOCFRAME ISTACK, 0, STACK
        LOCFRAME PSTACK, 0, STACK
        LOCFRAME XSTACK, 79, STACK
        LOCFRAME IOVERLAY, 0, STATIC
        LOCFRAME DOVERLAY, 0, STATIC
        ARGFRAME ISTACK, 0, STACK
        ARGFRAME PSTACK, 0, STACK
        ARGFRAME XSTACK, 79, STACK
        ARGFRAME IOVERLAY, 0, STATIC
        ARGFRAME DOVERLAY, 0, STATIC
        FUNCALL UI_UpdateLcd, uiUintToString
        LOCFRAME ISTACK, 0, STACK
        LOCFRAME PSTACK, 0, STACK
        LOCFRAME XSTACK, 81, STACK
        LOCFRAME IOVERLAY, 0, STATIC
        LOCFRAME DOVERLAY, 0, STATIC
        ARGFRAME ISTACK, 0, STACK
        ARGFRAME PSTACK, 0, STACK
        ARGFRAME XSTACK, 81, STACK
        ARGFRAME IOVERLAY, 0, STATIC
        ARGFRAME DOVERLAY, 0, STATIC
        FUNCALL UI_UpdateLcd, osal_memcpy
        LOCFRAME ISTACK, 0, STACK
        LOCFRAME PSTACK, 0, STACK
        LOCFRAME XSTACK, 79, STACK
        LOCFRAME IOVERLAY, 0, STATIC
        LOCFRAME DOVERLAY, 0, STATIC
        ARGFRAME ISTACK, 0, STACK
        ARGFRAME PSTACK, 0, STACK
        ARGFRAME XSTACK, 79, STACK
        ARGFRAME IOVERLAY, 0, STATIC
        ARGFRAME DOVERLAY, 0, STATIC
        FUNCALL UI_UpdateLcd, osal_memcpy
        LOCFRAME ISTACK, 0, STACK
        LOCFRAME PSTACK, 0, STACK
        LOCFRAME XSTACK, 79, STACK
        LOCFRAME IOVERLAY, 0, STATIC
        LOCFRAME DOVERLAY, 0, STATIC
        ARGFRAME ISTACK, 0, STACK
        ARGFRAME PSTACK, 0, STACK
        ARGFRAME XSTACK, 79, STACK
        ARGFRAME IOVERLAY, 0, STATIC
        ARGFRAME DOVERLAY, 0, STATIC
        FUNCALL UI_UpdateLcd, uiUintToString
        LOCFRAME ISTACK, 0, STACK
        LOCFRAME PSTACK, 0, STACK
        LOCFRAME XSTACK, 81, STACK
        LOCFRAME IOVERLAY, 0, STATIC
        LOCFRAME DOVERLAY, 0, STATIC
        ARGFRAME ISTACK, 0, STACK
        ARGFRAME PSTACK, 0, STACK
        ARGFRAME XSTACK, 81, STACK
        ARGFRAME IOVERLAY, 0, STATIC
        ARGFRAME DOVERLAY, 0, STATIC
        FUNCALL UI_UpdateLcd, bdb_GetFBInitiatorStatus
        LOCFRAME ISTACK, 0, STACK
        LOCFRAME PSTACK, 0, STACK
        LOCFRAME XSTACK, 76, STACK
        LOCFRAME IOVERLAY, 0, STATIC
        LOCFRAME DOVERLAY, 0, STATIC
        ARGFRAME ISTACK, 0, STACK
        ARGFRAME PSTACK, 0, STACK
        ARGFRAME XSTACK, 76, STACK
        ARGFRAME IOVERLAY, 0, STATIC
        ARGFRAME DOVERLAY, 0, STATIC
        FUNCALL UI_UpdateLcd, uiUintToString
        LOCFRAME ISTACK, 0, STACK
        LOCFRAME PSTACK, 0, STACK
        LOCFRAME XSTACK, 81, STACK
        LOCFRAME IOVERLAY, 0, STATIC
        LOCFRAME DOVERLAY, 0, STATIC
        ARGFRAME ISTACK, 0, STACK
        ARGFRAME PSTACK, 0, STACK
        ARGFRAME XSTACK, 81, STACK
        ARGFRAME IOVERLAY, 0, STATIC
        ARGFRAME DOVERLAY, 0, STATIC
        FUNCALL UI_UpdateLcd, uiUintToString
        LOCFRAME ISTACK, 0, STACK
        LOCFRAME PSTACK, 0, STACK
        LOCFRAME XSTACK, 81, STACK
        LOCFRAME IOVERLAY, 0, STATIC
        LOCFRAME DOVERLAY, 0, STATIC
        ARGFRAME ISTACK, 0, STACK
        ARGFRAME PSTACK, 0, STACK
        ARGFRAME XSTACK, 81, STACK
        ARGFRAME IOVERLAY, 0, STATIC
        ARGFRAME DOVERLAY, 0, STATIC
        FUNCALL UI_UpdateLcd, osal_start_timerEx
        LOCFRAME ISTACK, 0, STACK
        LOCFRAME PSTACK, 0, STACK
        LOCFRAME XSTACK, 80, STACK
        LOCFRAME IOVERLAY, 0, STATIC
        LOCFRAME DOVERLAY, 0, STATIC
        ARGFRAME ISTACK, 0, STACK
        ARGFRAME PSTACK, 0, STACK
        ARGFRAME XSTACK, 80, STACK
        ARGFRAME IOVERLAY, 0, STATIC
        ARGFRAME DOVERLAY, 0, STATIC
        FUNCALL UI_UpdateLcd, uiArrayToString
        LOCFRAME ISTACK, 0, STACK
        LOCFRAME PSTACK, 0, STACK
        LOCFRAME XSTACK, 77, STACK
        LOCFRAME IOVERLAY, 0, STATIC
        LOCFRAME DOVERLAY, 0, STATIC
        ARGFRAME ISTACK, 0, STACK
        ARGFRAME PSTACK, 0, STACK
        ARGFRAME XSTACK, 77, STACK
        ARGFRAME IOVERLAY, 0, STATIC
        ARGFRAME DOVERLAY, 0, STATIC
        FUNCALL UI_UpdateLcd, uiArrayToString
        LOCFRAME ISTACK, 0, STACK
        LOCFRAME PSTACK, 0, STACK
        LOCFRAME XSTACK, 77, STACK
        LOCFRAME IOVERLAY, 0, STATIC
        LOCFRAME DOVERLAY, 0, STATIC
        ARGFRAME ISTACK, 0, STACK
        ARGFRAME PSTACK, 0, STACK
        ARGFRAME XSTACK, 77, STACK
        ARGFRAME IOVERLAY, 0, STATIC
        ARGFRAME DOVERLAY, 0, STATIC
        FUNCALL UI_UpdateLcd, osal_memcpy
        LOCFRAME ISTACK, 0, STACK
        LOCFRAME PSTACK, 0, STACK
        LOCFRAME XSTACK, 79, STACK
        LOCFRAME IOVERLAY, 0, STATIC
        LOCFRAME DOVERLAY, 0, STATIC
        ARGFRAME ISTACK, 0, STACK
        ARGFRAME PSTACK, 0, STACK
        ARGFRAME XSTACK, 79, STACK
        ARGFRAME IOVERLAY, 0, STATIC
        ARGFRAME DOVERLAY, 0, STATIC
        FUNCALL UI_UpdateLcd, uiUintToString
        LOCFRAME ISTACK, 0, STACK
        LOCFRAME PSTACK, 0, STACK
        LOCFRAME XSTACK, 81, STACK
        LOCFRAME IOVERLAY, 0, STATIC
        LOCFRAME DOVERLAY, 0, STATIC
        ARGFRAME ISTACK, 0, STACK
        ARGFRAME PSTACK, 0, STACK
        ARGFRAME XSTACK, 81, STACK
        ARGFRAME IOVERLAY, 0, STATIC
        ARGFRAME DOVERLAY, 0, STATIC
        FUNCALL UI_UpdateLcd, uiArrayToString
        LOCFRAME ISTACK, 0, STACK
        LOCFRAME PSTACK, 0, STACK
        LOCFRAME XSTACK, 77, STACK
        LOCFRAME IOVERLAY, 0, STATIC
        LOCFRAME DOVERLAY, 0, STATIC
        ARGFRAME ISTACK, 0, STACK
        ARGFRAME PSTACK, 0, STACK
        ARGFRAME XSTACK, 77, STACK
        ARGFRAME IOVERLAY, 0, STATIC
        ARGFRAME DOVERLAY, 0, STATIC
        FUNCALL UI_UpdateLcd, uiArrayToString
        LOCFRAME ISTACK, 0, STACK
        LOCFRAME PSTACK, 0, STACK
        LOCFRAME XSTACK, 77, STACK
        LOCFRAME IOVERLAY, 0, STATIC
        LOCFRAME DOVERLAY, 0, STATIC
        ARGFRAME ISTACK, 0, STACK
        ARGFRAME PSTACK, 0, STACK
        ARGFRAME XSTACK, 77, STACK
        ARGFRAME IOVERLAY, 0, STATIC
        ARGFRAME DOVERLAY, 0, STATIC
        FUNCALL UI_UpdateLcd, osal_memcpy
        LOCFRAME ISTACK, 0, STACK
        LOCFRAME PSTACK, 0, STACK
        LOCFRAME XSTACK, 79, STACK
        LOCFRAME IOVERLAY, 0, STATIC
        LOCFRAME DOVERLAY, 0, STATIC
        ARGFRAME ISTACK, 0, STACK
        ARGFRAME PSTACK, 0, STACK
        ARGFRAME XSTACK, 79, STACK
        ARGFRAME IOVERLAY, 0, STATIC
        ARGFRAME DOVERLAY, 0, STATIC
        FUNCALL UI_UpdateLcd, uiArrayToString
        LOCFRAME ISTACK, 0, STACK
        LOCFRAME PSTACK, 0, STACK
        LOCFRAME XSTACK, 77, STACK
        LOCFRAME IOVERLAY, 0, STATIC
        LOCFRAME DOVERLAY, 0, STATIC
        ARGFRAME ISTACK, 0, STACK
        ARGFRAME PSTACK, 0, STACK
        ARGFRAME XSTACK, 77, STACK
        ARGFRAME IOVERLAY, 0, STATIC
        ARGFRAME DOVERLAY, 0, STATIC
        FUNCALL UI_UpdateLcd, uiCreateChannelMaskString
        LOCFRAME ISTACK, 0, STACK
        LOCFRAME PSTACK, 0, STACK
        LOCFRAME XSTACK, 78, STACK
        LOCFRAME IOVERLAY, 0, STATIC
        LOCFRAME DOVERLAY, 0, STATIC
        ARGFRAME ISTACK, 0, STACK
        ARGFRAME PSTACK, 0, STACK
        ARGFRAME XSTACK, 78, STACK
        ARGFRAME IOVERLAY, 0, STATIC
        ARGFRAME DOVERLAY, 0, STATIC
        FUNCALL UI_UpdateLcd, uiCreateChannelMaskString
        LOCFRAME ISTACK, 0, STACK
        LOCFRAME PSTACK, 0, STACK
        LOCFRAME XSTACK, 78, STACK
        LOCFRAME IOVERLAY, 0, STATIC
        LOCFRAME DOVERLAY, 0, STATIC
        ARGFRAME ISTACK, 0, STACK
        ARGFRAME PSTACK, 0, STACK
        ARGFRAME XSTACK, 78, STACK
        ARGFRAME IOVERLAY, 0, STATIC
        ARGFRAME DOVERLAY, 0, STATIC
        FUNCALL UI_UpdateLcd, uiCreateChannelMaskString
        LOCFRAME ISTACK, 0, STACK
        LOCFRAME PSTACK, 0, STACK
        LOCFRAME XSTACK, 78, STACK
        LOCFRAME IOVERLAY, 0, STATIC
        LOCFRAME DOVERLAY, 0, STATIC
        ARGFRAME ISTACK, 0, STACK
        ARGFRAME PSTACK, 0, STACK
        ARGFRAME XSTACK, 78, STACK
        ARGFRAME IOVERLAY, 0, STATIC
        ARGFRAME DOVERLAY, 0, STATIC
        FUNCALL UI_UpdateLcd, uiCreateChannelMaskString
        LOCFRAME ISTACK, 0, STACK
        LOCFRAME PSTACK, 0, STACK
        LOCFRAME XSTACK, 78, STACK
        LOCFRAME IOVERLAY, 0, STATIC
        LOCFRAME DOVERLAY, 0, STATIC
        ARGFRAME ISTACK, 0, STACK
        ARGFRAME PSTACK, 0, STACK
        ARGFRAME XSTACK, 78, STACK
        ARGFRAME IOVERLAY, 0, STATIC
        ARGFRAME DOVERLAY, 0, STATIC
        FUNCALL UI_UpdateLcd, osal_memcpy
        LOCFRAME ISTACK, 0, STACK
        LOCFRAME PSTACK, 0, STACK
        LOCFRAME XSTACK, 79, STACK
        LOCFRAME IOVERLAY, 0, STATIC
        LOCFRAME DOVERLAY, 0, STATIC
        ARGFRAME ISTACK, 0, STACK
        ARGFRAME PSTACK, 0, STACK
        ARGFRAME XSTACK, 79, STACK
        ARGFRAME IOVERLAY, 0, STATIC
        ARGFRAME DOVERLAY, 0, STATIC
        FUNCALL UI_UpdateLcd, osal_memcpy
        LOCFRAME ISTACK, 0, STACK
        LOCFRAME PSTACK, 0, STACK
        LOCFRAME XSTACK, 79, STACK
        LOCFRAME IOVERLAY, 0, STATIC
        LOCFRAME DOVERLAY, 0, STATIC
        ARGFRAME ISTACK, 0, STACK
        ARGFRAME PSTACK, 0, STACK
        ARGFRAME XSTACK, 79, STACK
        ARGFRAME IOVERLAY, 0, STATIC
        ARGFRAME DOVERLAY, 0, STATIC
        FUNCALL UI_UpdateLcd, uiUintToString
        LOCFRAME ISTACK, 0, STACK
        LOCFRAME PSTACK, 0, STACK
        LOCFRAME XSTACK, 81, STACK
        LOCFRAME IOVERLAY, 0, STATIC
        LOCFRAME DOVERLAY, 0, STATIC
        ARGFRAME ISTACK, 0, STACK
        ARGFRAME PSTACK, 0, STACK
        ARGFRAME XSTACK, 81, STACK
        ARGFRAME IOVERLAY, 0, STATIC
        ARGFRAME DOVERLAY, 0, STATIC
        FUNCALL UI_UpdateLcd, osal_memcpy
        LOCFRAME ISTACK, 0, STACK
        LOCFRAME PSTACK, 0, STACK
        LOCFRAME XSTACK, 79, STACK
        LOCFRAME IOVERLAY, 0, STATIC
        LOCFRAME DOVERLAY, 0, STATIC
        ARGFRAME ISTACK, 0, STACK
        ARGFRAME PSTACK, 0, STACK
        ARGFRAME XSTACK, 79, STACK
        ARGFRAME IOVERLAY, 0, STATIC
        ARGFRAME DOVERLAY, 0, STATIC
        FUNCALL UI_UpdateLcd, osal_memcpy
        LOCFRAME ISTACK, 0, STACK
        LOCFRAME PSTACK, 0, STACK
        LOCFRAME XSTACK, 79, STACK
        LOCFRAME IOVERLAY, 0, STATIC
        LOCFRAME DOVERLAY, 0, STATIC
        ARGFRAME ISTACK, 0, STACK
        ARGFRAME PSTACK, 0, STACK
        ARGFRAME XSTACK, 79, STACK
        ARGFRAME IOVERLAY, 0, STATIC
        ARGFRAME DOVERLAY, 0, STATIC
        FUNCALL UI_UpdateLcd, uiUintToString
        LOCFRAME ISTACK, 0, STACK
        LOCFRAME PSTACK, 0, STACK
        LOCFRAME XSTACK, 81, STACK
        LOCFRAME IOVERLAY, 0, STATIC
        LOCFRAME DOVERLAY, 0, STATIC
        ARGFRAME ISTACK, 0, STACK
        ARGFRAME PSTACK, 0, STACK
        ARGFRAME XSTACK, 81, STACK
        ARGFRAME IOVERLAY, 0, STATIC
        ARGFRAME DOVERLAY, 0, STATIC
        FUNCALL UI_UpdateLcd, osal_memcpy
        LOCFRAME ISTACK, 0, STACK
        LOCFRAME PSTACK, 0, STACK
        LOCFRAME XSTACK, 79, STACK
        LOCFRAME IOVERLAY, 0, STATIC
        LOCFRAME DOVERLAY, 0, STATIC
        ARGFRAME ISTACK, 0, STACK
        ARGFRAME PSTACK, 0, STACK
        ARGFRAME XSTACK, 79, STACK
        ARGFRAME IOVERLAY, 0, STATIC
        ARGFRAME DOVERLAY, 0, STATIC
        FUNCALL UI_UpdateLcd, uiUintToString
        LOCFRAME ISTACK, 0, STACK
        LOCFRAME PSTACK, 0, STACK
        LOCFRAME XSTACK, 81, STACK
        LOCFRAME IOVERLAY, 0, STATIC
        LOCFRAME DOVERLAY, 0, STATIC
        ARGFRAME ISTACK, 0, STACK
        ARGFRAME PSTACK, 0, STACK
        ARGFRAME XSTACK, 81, STACK
        ARGFRAME IOVERLAY, 0, STATIC
        ARGFRAME DOVERLAY, 0, STATIC
        FUNCALL UI_UpdateLcd, uiUintToString
        LOCFRAME ISTACK, 0, STACK
        LOCFRAME PSTACK, 0, STACK
        LOCFRAME XSTACK, 81, STACK
        LOCFRAME IOVERLAY, 0, STATIC
        LOCFRAME DOVERLAY, 0, STATIC
        ARGFRAME ISTACK, 0, STACK
        ARGFRAME PSTACK, 0, STACK
        ARGFRAME XSTACK, 81, STACK
        ARGFRAME IOVERLAY, 0, STATIC
        ARGFRAME DOVERLAY, 0, STATIC
        FUNCALL UI_UpdateLcd, uiUintToString
        LOCFRAME ISTACK, 0, STACK
        LOCFRAME PSTACK, 0, STACK
        LOCFRAME XSTACK, 81, STACK
        LOCFRAME IOVERLAY, 0, STATIC
        LOCFRAME DOVERLAY, 0, STATIC
        ARGFRAME ISTACK, 0, STACK
        ARGFRAME PSTACK, 0, STACK
        ARGFRAME XSTACK, 81, STACK
        ARGFRAME IOVERLAY, 0, STATIC
        ARGFRAME DOVERLAY, 0, STATIC
        FUNCALL UI_UpdateLcd, osal_memcpy
        LOCFRAME ISTACK, 0, STACK
        LOCFRAME PSTACK, 0, STACK
        LOCFRAME XSTACK, 79, STACK
        LOCFRAME IOVERLAY, 0, STATIC
        LOCFRAME DOVERLAY, 0, STATIC
        ARGFRAME ISTACK, 0, STACK
        ARGFRAME PSTACK, 0, STACK
        ARGFRAME XSTACK, 79, STACK
        ARGFRAME IOVERLAY, 0, STATIC
        ARGFRAME DOVERLAY, 0, STATIC
        FUNCALL UI_UpdateLcd, osal_memcpy
        LOCFRAME ISTACK, 0, STACK
        LOCFRAME PSTACK, 0, STACK
        LOCFRAME XSTACK, 79, STACK
        LOCFRAME IOVERLAY, 0, STATIC
        LOCFRAME DOVERLAY, 0, STATIC
        ARGFRAME ISTACK, 0, STACK
        ARGFRAME PSTACK, 0, STACK
        ARGFRAME XSTACK, 79, STACK
        ARGFRAME IOVERLAY, 0, STATIC
        ARGFRAME DOVERLAY, 0, STATIC
        FUNCALL UI_UpdateLcd, APSME_IsDistributedSecurity
        LOCFRAME ISTACK, 0, STACK
        LOCFRAME PSTACK, 0, STACK
        LOCFRAME XSTACK, 76, STACK
        LOCFRAME IOVERLAY, 0, STATIC
        LOCFRAME DOVERLAY, 0, STATIC
        ARGFRAME ISTACK, 0, STACK
        ARGFRAME PSTACK, 0, STACK
        ARGFRAME XSTACK, 76, STACK
        ARGFRAME IOVERLAY, 0, STATIC
        ARGFRAME DOVERLAY, 0, STATIC
        FUNCALL UI_UpdateLcd, osal_memcpy
        LOCFRAME ISTACK, 0, STACK
        LOCFRAME PSTACK, 0, STACK
        LOCFRAME XSTACK, 79, STACK
        LOCFRAME IOVERLAY, 0, STATIC
        LOCFRAME DOVERLAY, 0, STATIC
        ARGFRAME ISTACK, 0, STACK
        ARGFRAME PSTACK, 0, STACK
        ARGFRAME XSTACK, 79, STACK
        ARGFRAME IOVERLAY, 0, STATIC
        ARGFRAME DOVERLAY, 0, STATIC
        FUNCALL UI_UpdateLcd, osal_memcpy
        LOCFRAME ISTACK, 0, STACK
        LOCFRAME PSTACK, 0, STACK
        LOCFRAME XSTACK, 79, STACK
        LOCFRAME IOVERLAY, 0, STATIC
        LOCFRAME DOVERLAY, 0, STATIC
        ARGFRAME ISTACK, 0, STACK
        ARGFRAME PSTACK, 0, STACK
        ARGFRAME XSTACK, 79, STACK
        ARGFRAME IOVERLAY, 0, STATIC
        ARGFRAME DOVERLAY, 0, STATIC
        FUNCALL UI_UpdateLcd, osal_memcpy
        LOCFRAME ISTACK, 0, STACK
        LOCFRAME PSTACK, 0, STACK
        LOCFRAME XSTACK, 79, STACK
        LOCFRAME IOVERLAY, 0, STATIC
        LOCFRAME DOVERLAY, 0, STATIC
        ARGFRAME ISTACK, 0, STACK
        ARGFRAME PSTACK, 0, STACK
        ARGFRAME XSTACK, 79, STACK
        ARGFRAME IOVERLAY, 0, STATIC
        ARGFRAME DOVERLAY, 0, STATIC
        FUNCALL UI_UpdateLcd, uiUintToString
        LOCFRAME ISTACK, 0, STACK
        LOCFRAME PSTACK, 0, STACK
        LOCFRAME XSTACK, 81, STACK
        LOCFRAME IOVERLAY, 0, STATIC
        LOCFRAME DOVERLAY, 0, STATIC
        ARGFRAME ISTACK, 0, STACK
        ARGFRAME PSTACK, 0, STACK
        ARGFRAME XSTACK, 81, STACK
        ARGFRAME IOVERLAY, 0, STATIC
        ARGFRAME DOVERLAY, 0, STATIC
        FUNCALL UI_UpdateLcd, osal_memcpy
        LOCFRAME ISTACK, 0, STACK
        LOCFRAME PSTACK, 0, STACK
        LOCFRAME XSTACK, 79, STACK
        LOCFRAME IOVERLAY, 0, STATIC
        LOCFRAME DOVERLAY, 0, STATIC
        ARGFRAME ISTACK, 0, STACK
        ARGFRAME PSTACK, 0, STACK
        ARGFRAME XSTACK, 79, STACK
        ARGFRAME IOVERLAY, 0, STATIC
        ARGFRAME DOVERLAY, 0, STATIC
        FUNCALL UI_UpdateLcd, uiUintToString
        LOCFRAME ISTACK, 0, STACK
        LOCFRAME PSTACK, 0, STACK
        LOCFRAME XSTACK, 81, STACK
        LOCFRAME IOVERLAY, 0, STATIC
        LOCFRAME DOVERLAY, 0, STATIC
        ARGFRAME ISTACK, 0, STACK
        ARGFRAME PSTACK, 0, STACK
        ARGFRAME XSTACK, 81, STACK
        ARGFRAME IOVERLAY, 0, STATIC
        ARGFRAME DOVERLAY, 0, STATIC
        FUNCALL UI_UpdateLcd, osal_start_timerEx
        LOCFRAME ISTACK, 0, STACK
        LOCFRAME PSTACK, 0, STACK
        LOCFRAME XSTACK, 80, STACK
        LOCFRAME IOVERLAY, 0, STATIC
        LOCFRAME DOVERLAY, 0, STATIC
        ARGFRAME ISTACK, 0, STACK
        ARGFRAME PSTACK, 0, STACK
        ARGFRAME XSTACK, 80, STACK
        ARGFRAME IOVERLAY, 0, STATIC
        ARGFRAME DOVERLAY, 0, STATIC
        FUNCALL UI_UpdateLcd, HalLcd_HW_Clear
        LOCFRAME ISTACK, 0, STACK
        LOCFRAME PSTACK, 0, STACK
        LOCFRAME XSTACK, 76, STACK
        LOCFRAME IOVERLAY, 0, STATIC
        LOCFRAME DOVERLAY, 0, STATIC
        ARGFRAME ISTACK, 0, STACK
        ARGFRAME PSTACK, 0, STACK
        ARGFRAME XSTACK, 76, STACK
        ARGFRAME IOVERLAY, 0, STATIC
        ARGFRAME DOVERLAY, 0, STATIC
        FUNCALL UI_UpdateLcd, HalLcdWriteString
        LOCFRAME ISTACK, 0, STACK
        LOCFRAME PSTACK, 0, STACK
        LOCFRAME XSTACK, 76, STACK
        LOCFRAME IOVERLAY, 0, STATIC
        LOCFRAME DOVERLAY, 0, STATIC
        ARGFRAME ISTACK, 0, STACK
        ARGFRAME PSTACK, 0, STACK
        ARGFRAME XSTACK, 76, STACK
        ARGFRAME IOVERLAY, 0, STATIC
        ARGFRAME DOVERLAY, 0, STATIC
        FUNCALL UI_UpdateLcd, HalLcdWriteString
        LOCFRAME ISTACK, 0, STACK
        LOCFRAME PSTACK, 0, STACK
        LOCFRAME XSTACK, 76, STACK
        LOCFRAME IOVERLAY, 0, STATIC
        LOCFRAME DOVERLAY, 0, STATIC
        ARGFRAME ISTACK, 0, STACK
        ARGFRAME PSTACK, 0, STACK
        ARGFRAME XSTACK, 76, STACK
        ARGFRAME IOVERLAY, 0, STATIC
        ARGFRAME DOVERLAY, 0, STATIC
        FUNCALL UI_UpdateLcd, HalLcdWriteString
        LOCFRAME ISTACK, 0, STACK
        LOCFRAME PSTACK, 0, STACK
        LOCFRAME XSTACK, 76, STACK
        LOCFRAME IOVERLAY, 0, STATIC
        LOCFRAME DOVERLAY, 0, STATIC
        ARGFRAME ISTACK, 0, STACK
        ARGFRAME PSTACK, 0, STACK
        ARGFRAME XSTACK, 76, STACK
        ARGFRAME IOVERLAY, 0, STATIC
        ARGFRAME DOVERLAY, 0, STATIC
        REQUIRE ?V0
        REQUIRE ?V1
        REQUIRE ?V2
        REQUIRE ?V4
        REQUIRE ?V5
        REQUIRE ?V6
        REQUIRE ?V8
        REQUIRE ?V9
        MOV       A,#-0x12
        LCALL     ?BANKED_ENTER_XDATA
          CFI DPH0 load(1, XDATA, add(CFA_XSP16, literal(-1)))
          CFI DPL0 load(1, XDATA, add(CFA_XSP16, literal(-2)))
          CFI ?BRET_EXT load(1, XDATA, add(CFA_XSP16, literal(-3)))
          CFI ?RET_HIGH load(1, XDATA, add(CFA_XSP16, literal(-4)))
          CFI ?RET_LOW load(1, XDATA, add(CFA_XSP16, literal(-5)))
          CFI R7 load(1, XDATA, add(CFA_XSP16, literal(-6)))
          CFI V9 load(1, XDATA, add(CFA_XSP16, literal(-7)))
          CFI V8 load(1, XDATA, add(CFA_XSP16, literal(-8)))
          CFI V7 load(1, XDATA, add(CFA_XSP16, literal(-9)))
          CFI V6 load(1, XDATA, add(CFA_XSP16, literal(-10)))
          CFI V5 load(1, XDATA, add(CFA_XSP16, literal(-11)))
          CFI V4 load(1, XDATA, add(CFA_XSP16, literal(-12)))
          CFI V3 load(1, XDATA, add(CFA_XSP16, literal(-13)))
          CFI V2 load(1, XDATA, add(CFA_XSP16, literal(-14)))
          CFI V1 load(1, XDATA, add(CFA_XSP16, literal(-15)))
          CFI V0 load(1, XDATA, add(CFA_XSP16, literal(-16)))
          CFI VB load(1, XDATA, add(CFA_XSP16, literal(-17)))
          CFI R6 load(1, XDATA, add(CFA_XSP16, literal(-18)))
          CFI CFA_SP SP+0
          CFI CFA_XSP16 add(XSP16, 18)
        ; Saved register size: 18
        ; Auto size: 58
        MOV       A,#-0x3a
        LCALL     ?ALLOC_XSTACK8
          CFI CFA_XSP16 add(XSP16, 76)
// 1367   char * line[3];
// 1368   char LineBuf[3][LCD_CC2538_PREFIX_COUNT + LCD_LINE_LENGTH + 1];
// 1369   uint8 i;
// 1370   uint8 *xad;
// 1371   bool LcdAutoRefreshRequired = FALSE;
        MOV       R6,#0x0
// 1372   uint8 FBRemainingTimeLeft;
// 1373   uint8 PermitJoinDuration;
// 1374   
// 1375   LineBuf[0][LCD_CC2538_PREFIX_COUNT] = 0;
        MOV       A,#0x7
        LCALL     ?XSTACK_DISP0_8
        CLR       A
        MOVX      @DPTR,A
// 1376   LineBuf[1][LCD_CC2538_PREFIX_COUNT] = 0;
        MOV       A,#0x18
        LCALL     ?XSTACK_DISP0_8
        CLR       A
        MOVX      @DPTR,A
// 1377   LineBuf[2][LCD_CC2538_PREFIX_COUNT] = 0;
        MOV       A,#0x29
        LCALL     ?XSTACK_DISP0_8
        CLR       A
        MOVX      @DPTR,A
// 1378   line[0] = LineBuf[0] + LCD_CC2538_PREFIX_COUNT;
        MOV       A,#0x7
        LCALL     ?XSTACK_DISP100_8
        LCALL     ?Subroutine8 & 0xFFFF
// 1379   line[1] = LineBuf[1] + LCD_CC2538_PREFIX_COUNT;
??CrossCallReturnLabel_135:
        MOV       A,#0x18
        LCALL     ?XSTACK_DISP0_8
        MOV       R0,DPL
        MOV       R1,DPH
        MOV       A,#0x2
        LCALL     ?XSTACK_DISP0_8
        LCALL     ??Subroutine46_0 & 0xFFFF
// 1380   line[2] = LineBuf[2] + LCD_CC2538_PREFIX_COUNT;
??CrossCallReturnLabel_129:
        MOV       A,#0x29
        LCALL     ?XSTACK_DISP0_8
        MOV       R0,DPL
        MOV       R1,DPH
        MOV       A,#0x4
        LCALL     ?XSTACK_DISP0_8
        LCALL     ??Subroutine46_0 & 0xFFFF
// 1381 
// 1382 #ifdef HAL_BOARD_CC2538
// 1383   for (i = 0; i < LCD_CC2538_PREFIX_COUNT; i++)
// 1384   {
// 1385     LineBuf[0][i] = ' ';
// 1386     LineBuf[1][i] = ' ';
// 1387     LineBuf[2][i] = ' ';
// 1388   }
// 1389 #endif
// 1390 
// 1391   osal_stop_timerEx(uiAppTaskId, uiLcdAutoUpdateEvent);
??CrossCallReturnLabel_130:
        ; Setup parameters for call to function osal_stop_timerEx
        MOV       DPTR,#uiLcdAutoUpdateEvent
        LCALL     ?Subroutine23 & 0xFFFF
??CrossCallReturnLabel_47:
        MOV       DPTR,#uiAppTaskId
        MOVX      A,@DPTR
        MOV       R1,A
        LCALL     `??osal_stop_timerEx::?relay`; Banked call to: osal_stop_timerEx
// 1392 
// 1393   if (uiStates == uiAppStatesMain)
        MOV       DPTR,#uiStates
        LCALL     ?Subroutine24 & 0xFFFF
??CrossCallReturnLabel_51:
        MOVX      A,@DPTR
        XRL       A,R0
        JNZ       ??UI_UpdateLcd_0
        INC       DPTR
        MOVX      A,@DPTR
        XRL       A,R1
??UI_UpdateLcd_0:
        JNZ       ??UI_UpdateLcd_1
// 1394   {
// 1395     if (uiCurrentState == UI_STATE_BACK_FROM_APP_MENU)
        MOV       DPTR,#uiCurrentState
        LCALL     ??Subroutine43_0 & 0xFFFF
??CrossCallReturnLabel_91:
        JNZ       $+5
        LJMP      ??UI_UpdateLcd_2 & 0xFFFF
// 1396     {
// 1397       line[2] = "<     BACK     >";
// 1398     }
// 1399     else
// 1400     {
// 1401       uiAppUpdateLcd(uiCurrentState, line);
        ; Setup parameters for indirect call
        MOV       R2,?XSP + 0
        MOV       R3,?XSP + 1
        MOV       DPTR,#uiCurrentState
        MOVX      A,@DPTR
        MOV       R1,A
        MOV       DPTR,#uiAppUpdateLcd
        LCALL     ?Subroutine21 & 0xFFFF
// 1402     }
// 1403   }
??CrossCallReturnLabel_42:
        LCALL     ?CALL_IND
        LJMP      ??UI_UpdateLcd_3 & 0xFFFF
// 1404   else
// 1405   {
// 1406     switch (uiCurrentState)
??UI_UpdateLcd_1:
        MOV       R2,#`?<Constant "1234567890123456">` & 0xff
        MOV       R3,#(`?<Constant "1234567890123456">` >> 8) & 0xff
        MOV       ?V4,#`?<Constant "    0x          ">` & 0xff
        MOV       ?V5,#(`?<Constant "    0x          ">` >> 8) & 0xff
        MOV       ?V6,R6
        MOV       ?V0,#`?<Constant "    0xFFFF (any)">` & 0xff
        MOV       ?V1,#(`?<Constant "    0xFFFF (any)">` >> 8) & 0xff
        MOV       ?V2,R6
        MOV       DPTR,#uiCurrentState
        MOVX      A,@DPTR
        MOV       ?V8,A
        INC       DPTR
        MOVX      A,@DPTR
        MOV       ?V9,A
        MOV       R0,#?V8
        LCALL     ?US_SWITCH_DENSE
`?<Jumptable for UI_UpdateLcd>_0`:
        DATA
        DATA16
        DATA
        DATA16
        DW        0
        DATA
        DATA8
        DATA
        DATA8
        DB        21
        DATA
        DATA16
        DATA
        DATA16
        DW        ??UI_UpdateLcd_3
        DATA
        DATA16
        DATA
        DATA16
        DW        ??UI_UpdateLcd_4
        DATA
        DATA16
        DATA
        DATA16
        DW        ??UI_UpdateLcd_5
        DATA
        DATA16
        DATA
        DATA16
        DW        ??UI_UpdateLcd_6
        DATA
        DATA16
        DATA
        DATA16
        DW        ??UI_UpdateLcd_7
        DATA
        DATA16
        DATA
        DATA16
        DW        ??UI_UpdateLcd_8
        DATA
        DATA16
        DATA
        DATA16
        DW        ??UI_UpdateLcd_9
        DATA
        DATA16
        DATA
        DATA16
        DW        ??UI_UpdateLcd_10
        DATA
        DATA16
        DATA
        DATA16
        DW        ??UI_UpdateLcd_11
        DATA
        DATA16
        DATA
        DATA16
        DW        ??UI_UpdateLcd_12
        DATA
        DATA16
        DATA
        DATA16
        DW        ??UI_UpdateLcd_13
        DATA
        DATA16
        DATA
        DATA16
        DW        ??UI_UpdateLcd_14
        DATA
        DATA16
        DATA
        DATA16
        DW        ??UI_UpdateLcd_15
        DATA
        DATA16
        DATA
        DATA16
        DW        ??UI_UpdateLcd_16
        DATA
        DATA16
        DATA
        DATA16
        DW        ??UI_UpdateLcd_17
        DATA
        DATA16
        DATA
        DATA16
        DW        ??UI_UpdateLcd_2
        DATA
        DATA16
        DATA
        DATA16
        DW        ??UI_UpdateLcd_18
        DATA
        DATA16
        DATA
        DATA16
        DW        ??UI_UpdateLcd_19
        DATA
        DATA16
        DATA
        DATA16
        DW        ??UI_UpdateLcd_20
        DATA
        DATA16
        DATA
        DATA16
        DW        ??UI_UpdateLcd_21
        DATA
        DATA16
        DATA
        DATA16
        DW        ??UI_UpdateLcd_22
        DATA
        DATA16
        DATA
        DATA16
        DW        ??UI_UpdateLcd_2
        DATA
        DATA16
        DATA
        DATA16
        DW        ??UI_UpdateLcd_23
        CODE
// 1407     {
// 1408       case UI_STATE_FINDING_AND_BINDING:
// 1409         line[1] = uiSelectedBdbComissioningModes & BDB_COMMISSIONING_MODE_FINDING_BINDING ? "ENABLED" : "DISABLED";
??UI_UpdateLcd_14:
        MOV       DPTR,#uiSelectedBdbComissioningModes
        MOVX      A,@DPTR
        MOV       C,0xE0 /* A   */.3
        JNC       ??UI_UpdateLcd_24
        MOV       R0,#`?<Constant "ENABLED">` & 0xff
        MOV       R1,#(`?<Constant "ENABLED">` >> 8) & 0xff
        SJMP      ??UI_UpdateLcd_25
??UI_UpdateLcd_24:
        MOV       R0,#`?<Constant "DISABLED">` & 0xff
        MOV       R1,#(`?<Constant "DISABLED">` >> 8) & 0xff
??UI_UpdateLcd_25:
        MOV       A,#0x2
        LCALL     ?XSTACK_DISP0_8
        LCALL     ?Subroutine7 & 0xFFFF
// 1410         line[2] = "<FINDNG+BINDNG >";
??CrossCallReturnLabel_7:
        LCALL     ?XSTACK_DISP0_8
        MOV       A,#`?<Constant "<FINDNG+BINDNG >">` & 0xff
        MOVX      @DPTR,A
        INC       DPTR
        MOV       A,#(`?<Constant "<FINDNG+BINDNG >">` >> 8) & 0xff
        LJMP      ??UI_UpdateLcd_26 & 0xFFFF
// 1411         break;
// 1412       case UI_STATE_BACK_FROM_CONFIGURE:
// 1413         line[2] = "<     BACK     >";
// 1414         break;
// 1415       case UI_STATE_BACK_FROM_INSTALL_CODE:
// 1416         line[2] = "<     BACK     >";
??UI_UpdateLcd_2:
        MOV       A,#0x4
        LCALL     ?XSTACK_DISP0_8
        MOV       A,#`?<Constant "<     BACK     >">` & 0xff
        MOVX      @DPTR,A
        INC       DPTR
        MOV       A,#(`?<Constant "<     BACK     >">` >> 8) & 0xff
        LJMP      ??UI_UpdateLcd_26 & 0xFFFF
// 1417         break;
// 1418       case UI_STATE_NETWORK_FORMATION:
// 1419         line[1] = uiSelectedBdbComissioningModes & BDB_COMMISSIONING_MODE_NWK_FORMATION ? "ENABLED" : "DISABLED";
??UI_UpdateLcd_12:
        MOV       DPTR,#uiSelectedBdbComissioningModes
        MOVX      A,@DPTR
        MOV       C,0xE0 /* A   */.2
        JNC       ??UI_UpdateLcd_27
        MOV       R0,#`?<Constant "ENABLED">` & 0xff
        MOV       R1,#(`?<Constant "ENABLED">` >> 8) & 0xff
        SJMP      ??UI_UpdateLcd_28
??UI_UpdateLcd_27:
        MOV       R0,#`?<Constant "DISABLED">` & 0xff
        MOV       R1,#(`?<Constant "DISABLED">` >> 8) & 0xff
??UI_UpdateLcd_28:
        MOV       A,#0x2
        LCALL     ?XSTACK_DISP0_8
        LCALL     ?Subroutine7 & 0xFFFF
// 1420         line[2] = "<NWK FORMATION >";
??CrossCallReturnLabel_8:
        LCALL     ?XSTACK_DISP0_8
        MOV       A,#`?<Constant "<NWK FORMATION >">` & 0xff
        MOVX      @DPTR,A
        INC       DPTR
        MOV       A,#(`?<Constant "<NWK FORMATION >">` >> 8) & 0xff
        LJMP      ??UI_UpdateLcd_26 & 0xFFFF
// 1421         break;
// 1422       case UI_STATE_NETWORK_STEERING:
// 1423         line[1] = uiSelectedBdbComissioningModes & BDB_COMMISSIONING_MODE_NWK_STEERING ? "ENABLED" : "DISABLED";
??UI_UpdateLcd_13:
        MOV       DPTR,#uiSelectedBdbComissioningModes
        MOVX      A,@DPTR
        MOV       C,0xE0 /* A   */.1
        JNC       ??UI_UpdateLcd_29
        MOV       R0,#`?<Constant "ENABLED">` & 0xff
        MOV       R1,#(`?<Constant "ENABLED">` >> 8) & 0xff
        SJMP      ??UI_UpdateLcd_30
??UI_UpdateLcd_29:
        MOV       R0,#`?<Constant "DISABLED">` & 0xff
        MOV       R1,#(`?<Constant "DISABLED">` >> 8) & 0xff
??UI_UpdateLcd_30:
        MOV       A,#0x2
        LCALL     ?XSTACK_DISP0_8
        LCALL     ?Subroutine7 & 0xFFFF
// 1424         line[2] = "< NWK STEERING >";
??CrossCallReturnLabel_9:
        LCALL     ?XSTACK_DISP0_8
        MOV       A,#`?<Constant "< NWK STEERING >">` & 0xff
        MOVX      @DPTR,A
        INC       DPTR
        MOV       A,#(`?<Constant "< NWK STEERING >">` >> 8) & 0xff
        LJMP      ??UI_UpdateLcd_26 & 0xFFFF
// 1425         break;
// 1426 #ifdef BDB_TL_TARGET
// 1427       case UI_STATE_TOGGLE_TL_TARGET:
// 1428         {
// 1429           uint32 temp_u32;
// 1430 
// 1431           temp_u32 = touchLinkTarget_GetTimer();
// 1432           if (temp_u32 == 0)
// 1433           {
// 1434             line[1] = "DISABLED        ";
// 1435           }
// 1436           else if (temp_u32 == TOUCHLINK_TARGET_PERPETUAL)
// 1437           {
// 1438             line[1] = "ENABLED FOREVER ";
// 1439           }
// 1440           else
// 1441           {
// 1442             uiConstStrCpy(line[1], "ENABLED (     s)");
// 1443             uiUintToString( temp_u32 / 1000 + ((temp_u32 % 1000) > 0 ? 1 : 0), line[1] + 9, 10, 5, FALSE, FALSE); //note: timeouts longer than 65535 seconds will not display correctly
// 1444             osal_start_timerEx(uiAppTaskId, uiLcdAutoUpdateEvent, uiLcdAutoUpdateInterval);
// 1445           }
// 1446         }
// 1447         line[2] = "< T.L. TARGET  >";
// 1448         break;
// 1449       case UI_STATE_TOUCHLINK_TARGET:
// 1450         if (uiTouchlinkTargetTimeout == 0)
// 1451         {
// 1452           line[1] = "DISABLED        ";
// 1453         }
// 1454         else if (uiTouchlinkTargetTimeout == TOUCHLINK_TARGET_PERPETUAL)
// 1455         {
// 1456           line[1] = "Enable (forever)";
// 1457         }
// 1458         else
// 1459         {
// 1460           uiConstStrCpy(line[1], "Enable For     s");
// 1461           uiUintToString( uiTouchlinkTargetTimeout / 1000 + ((uiTouchlinkTargetTimeout % 1000) > 0 ? 1 : 0), line[1] + 10, 10, 5, FALSE, FALSE); //note: timeouts longer than 65535 seconds will not display correctly
// 1462           line[1][16] = 0;
// 1463         }
// 1464         line[2] = "<T.L. TRGT TIME>";
// 1465         break;
// 1466       case UI_STATE_TOUCHLINK_STEALING:
// 1467         line[1] = bdb_TouchlinkGetAllowStealing() ? "ENABLED" : "DISABLED";
// 1468         line[2] = "<T.L. STEALING >";
// 1469         break;
// 1470 #endif
// 1471 #ifdef BDB_TL_INITIATOR
// 1472       case UI_STATE_TOUCHLINK_INITIATOR:
// 1473         line[1] = uiSelectedBdbComissioningModes & BDB_COMMISSIONING_MODE_INITIATOR_TL ? "ENABLED" : "DISABLED";
// 1474         line[2] = "<T.L. INITIATOR>";
// 1475         break;
// 1476 #endif
// 1477       case UI_STATE_CONFIGURE:
// 1478         line[2] = "<  CONFIGURE   >";
??UI_UpdateLcd_5:
        MOV       A,#0x4
        LCALL     ?XSTACK_DISP0_8
        MOV       A,#`?<Constant "<  CONFIGURE   >">` & 0xff
        MOVX      @DPTR,A
        INC       DPTR
        MOV       A,#(`?<Constant "<  CONFIGURE   >">` >> 8) & 0xff
        LJMP      ??UI_UpdateLcd_26 & 0xFFFF
// 1479         break;
// 1480       case UI_STATE_RESET_TO_FACTORY_NEW:
// 1481         if (uiResetInitiated)
??UI_UpdateLcd_9:
        MOV       DPTR,#uiResetInitiated
        MOVX      A,@DPTR
        JZ        ??UI_UpdateLcd_31
// 1482         {
// 1483           line[0] = "Resetting,";
        MOV       DPL,?XSP + 0
        MOV       DPH,?XSP + 1
        MOV       A,#`?<Constant "Resetting,">` & 0xff
        MOVX      @DPTR,A
        INC       DPTR
        MOV       A,#(`?<Constant "Resetting,">` >> 8) & 0xff
        MOVX      @DPTR,A
// 1484           line[1] = "Please wait...";
        MOV       A,#0x2
        LCALL     ?XSTACK_DISP0_8
        MOV       A,#`?<Constant "Please wait...">` & 0xff
        MOVX      @DPTR,A
        INC       DPTR
        MOV       A,#(`?<Constant "Please wait...">` >> 8) & 0xff
        LJMP      ??UI_UpdateLcd_26 & 0xFFFF
// 1485         }
// 1486         else
// 1487         {
// 1488           line[2] = "< RESET TO FN  >";
??UI_UpdateLcd_31:
        MOV       A,#0x4
        LCALL     ?XSTACK_DISP0_8
        MOV       A,#`?<Constant "< RESET TO FN  >">` & 0xff
        MOVX      @DPTR,A
        INC       DPTR
        MOV       A,#(`?<Constant "< RESET TO FN  >">` >> 8) & 0xff
        LJMP      ??UI_UpdateLcd_26 & 0xFFFF
// 1489         }
// 1490         break;
// 1491       case UI_STATE_DEFAULT:
// 1492         line[0] = uiAppTitleStr;
??UI_UpdateLcd_4:
        MOV       DPTR,#uiAppTitleStr
        LCALL     ?Subroutine25 & 0xFFFF
??CrossCallReturnLabel_54:
        LCALL     ?Subroutine8 & 0xFFFF
// 1493         line[1] = "hold OK for help";
??CrossCallReturnLabel_136:
        MOV       A,#0x2
        LCALL     ?XSTACK_DISP0_8
        MOV       A,#`?<Constant "hold OK for help">` & 0xff
        MOVX      @DPTR,A
        INC       DPTR
        MOV       A,#(`?<Constant "hold OK for help">` >> 8) & 0xff
        MOVX      @DPTR,A
// 1494         line[2] = "<     HELP     >";
        MOV       A,#0x4
        LCALL     ?XSTACK_DISP0_8
        MOV       A,#`?<Constant "<     HELP     >">` & 0xff
        MOVX      @DPTR,A
        INC       DPTR
        MOV       A,#(`?<Constant "<     HELP     >">` >> 8) & 0xff
        LJMP      ??UI_UpdateLcd_26 & 0xFFFF
// 1495         break;
// 1496       case UI_STATE_STATE_HELP:
// 1497 #ifdef HAL_BOARD_CC2538
// 1498         line[0] = "< > to move     ";
// 1499         line[1] = "^ v change value";
// 1500 #else
// 1501         line[0] = "\x1B \x1A to move     ";
??UI_UpdateLcd_10:
        MOV       DPL,?XSP + 0
        MOV       DPH,?XSP + 1
        MOV       A,#`?<Constant "\\033 \\032 to move     ">` & 0xff
        MOVX      @DPTR,A
        INC       DPTR
        MOV       A,#(`?<Constant "\\033 \\032 to move     ">` >> 8) & 0xff
        MOVX      @DPTR,A
// 1502         line[1] = "\x18 \x19 change value";
        MOV       A,#0x2
        LCALL     ?XSTACK_DISP0_8
        MOV       A,#`?<Constant "\\030 \\031 change value">` & 0xff
        MOVX      @DPTR,A
        INC       DPTR
        MOV       A,#(`?<Constant "\\030 \\031 change value">` >> 8) & 0xff
        MOVX      @DPTR,A
// 1503 #endif        
// 1504         line[2] = "OK to execute   ";
        MOV       A,#0x4
        LCALL     ?XSTACK_DISP0_8
        MOV       A,#`?<Constant "OK to execute   ">` & 0xff
        MOVX      @DPTR,A
        INC       DPTR
        MOV       A,#(`?<Constant "OK to execute   ">` >> 8) & 0xff
        LJMP      ??UI_UpdateLcd_26 & 0xFFFF
// 1505         break;
// 1506       case UI_STATE_COMMISSION:
// 1507         if (uiCommissioningIsInitializing)
??UI_UpdateLcd_6:
        MOV       DPTR,#uiCommissioningIsInitializing
        MOVX      A,@DPTR
        JZ        ??UI_UpdateLcd_32
// 1508         {
// 1509           uiConstStrCpy(line[0], "Please wait...  ");
        ; Setup parameters for call to function osal_memcpy
        MOV       ?V0,#`?<Constant "Please wait...  ">` & 0xff
        MOV       ?V1,#(`?<Constant "Please wait...  ">` >> 8) & 0xff
        MOV       R0,#?V0
        LCALL     ?PUSH_XSTACK_I_THREE
          CFI CFA_XSP16 add(XSP16, 79)
        MOV       R4,#0x11
        MOV       R5,#0x0
        MOV       A,#0x3
        LCALL     ?XSTACK_DISP0_8
        LCALL     ?Subroutine23 & 0xFFFF
// 1510         }
??CrossCallReturnLabel_48:
        LJMP      ??UI_UpdateLcd_33 & 0xFFFF
          CFI CFA_XSP16 add(XSP16, 76)
// 1511         else
// 1512         {
// 1513           uiConstStrCpy(line[0], "xx              "); // TL/NF/NS/FB/-- TCHL/FORM/JOIN count/CLOSE
??UI_UpdateLcd_32:
        ; Setup parameters for call to function osal_memcpy
        MOV       ?V0,#`?<Constant "xx              ">` & 0xff
        MOV       ?V1,#(`?<Constant "xx              ">` >> 8) & 0xff
        MOV       R0,#?V0
        LCALL     ?PUSH_XSTACK_I_THREE
          CFI CFA_XSP16 add(XSP16, 79)
        MOV       R4,#0x11
        MOV       R5,#0x0
        MOV       A,#0x3
        LCALL     ?XSTACK_DISP0_8
        LCALL     ?Subroutine9 & 0xFFFF
??CrossCallReturnLabel_10:
        LCALL     ?DEALLOC_XSTACK8
          CFI CFA_XSP16 add(XSP16, 76)
// 1514 
// 1515           osal_memcpy(line[0] + 0, uiCommissioningStateStr, 2);
        ; Setup parameters for call to function osal_memcpy
        MOV       DPTR,#uiCommissioningStateStr
        LCALL     ?Subroutine16 & 0xFFFF
??CrossCallReturnLabel_31:
        LCALL     ?PUSH_XSTACK_I_THREE
          CFI CFA_XSP16 add(XSP16, 79)
        MOV       R4,#0x2
        MOV       R5,#0x0
        MOV       A,#0x3
        LCALL     ?XSTACK_DISP0_8
        LCALL     ?Subroutine9 & 0xFFFF
??CrossCallReturnLabel_11:
        LCALL     ?DEALLOC_XSTACK8
          CFI CFA_XSP16 add(XSP16, 76)
// 1516 
// 1517           if ((uiNwkStateShadow != DEV_END_DEVICE) && (uiNwkStateShadow != DEV_ZB_COORD) && (uiNwkStateShadow != DEV_ROUTER))
        MOV       DPL,?XSP + 0
        MOV       DPH,?XSP + 1
        MOVX      A,@DPTR
        ADD       A,#0x3
        MOV       R2,A
        INC       DPTR
        MOVX      A,@DPTR
        ADDC      A,#0x0
        MOV       R3,A
        MOV       DPTR,#uiNwkStateShadow
        MOVX      A,@DPTR
        XRL       A,#0x6
        JZ        ??UI_UpdateLcd_34
        MOVX      A,@DPTR
        XRL       A,#0x9
        JZ        ??UI_UpdateLcd_34
        MOVX      A,@DPTR
        XRL       A,#0x7
        JZ        ??UI_UpdateLcd_34
// 1518           {
// 1519             uiConstStrOver(line[0] + 3, "NotOnNwk");
        ; Setup parameters for call to function osal_memcpy
        MOV       ?V0,#`?<Constant "NotOnNwk">` & 0xff
        MOV       ?V1,#(`?<Constant "NotOnNwk">` >> 8) & 0xff
        MOV       R0,#?V0
        LCALL     ?PUSH_XSTACK_I_THREE
          CFI CFA_XSP16 add(XSP16, 79)
        MOV       R4,#0x8
        LJMP      ??UI_UpdateLcd_35 & 0xFFFF
          CFI CFA_XSP16 add(XSP16, 76)
// 1520           }
// 1521           else
// 1522           {
// 1523             if (uiCommissioningNetworkConnrctionStr != NULL)
??UI_UpdateLcd_34:
        MOV       DPTR,#uiCommissioningNetworkConnrctionStr
        LCALL     ??Subroutine43_0 & 0xFFFF
??CrossCallReturnLabel_92:
        JZ        ??UI_UpdateLcd_36
// 1524             {
// 1525               osal_memcpy(line[0] + 3, uiCommissioningNetworkConnrctionStr, 4);
        ; Setup parameters for call to function osal_memcpy
        MOV       DPTR,#uiCommissioningNetworkConnrctionStr
        LCALL     ?Subroutine16 & 0xFFFF
??CrossCallReturnLabel_32:
        LCALL     ?PUSH_XSTACK_I_THREE
          CFI CFA_XSP16 add(XSP16, 79)
        LCALL     ?Subroutine29 & 0xFFFF
??CrossCallReturnLabel_82:
        LCALL     ?DEALLOC_XSTACK8
          CFI CFA_XSP16 add(XSP16, 76)
// 1526               line[0][7] = ' ';
        MOV       DPL,?XSP + 0
        MOV       DPH,?XSP + 1
        LCALL     ?Subroutine36 & 0xFFFF
// 1527             }
??CrossCallReturnLabel_96:
        XCH       A,R0
        ADD       A,#0x7
        MOV       DPL,A
        CLR       A
        ADDC      A,R0
        MOV       DPH,A
        MOV       A,#0x20
        MOVX      @DPTR,A
// 1528 
// 1529             if ((uiNwkStateShadow == DEV_ZB_COORD) || (uiNwkStateShadow == DEV_ROUTER))
??UI_UpdateLcd_36:
        MOV       DPTR,#uiNwkStateShadow
        MOVX      A,@DPTR
        XRL       A,#0x9
        JZ        ??UI_UpdateLcd_37
        MOVX      A,@DPTR
        XRL       A,#0x7
        JNZ       ??UI_UpdateLcd_38
// 1530             {
// 1531               PermitJoinDuration = NLME_GetRemainingPermitJoiningDuration();
??UI_UpdateLcd_37:
        ; Setup parameters for call to function NLME_GetRemainingPermitJoiningDuration
        LCALL     `??NLME_GetRemainingPermitJoiningDuration::?rela`; Banked call to: NLME_GetRemainingPermitJoiningDuration
        MOV       A,R1
        MOV       R7,A
// 1532               
// 1533               if (PermitJoinDuration > 0)
        MOV       DPL,?XSP + 0
        MOV       DPH,?XSP + 1
        MOVX      A,@DPTR
        ADD       A,#0x8
        MOV       R2,A
        INC       DPTR
        MOVX      A,@DPTR
        ADDC      A,#0x0
        MOV       R3,A
        MOV       A,R1
        JZ        ??UI_UpdateLcd_39
// 1534               {
// 1535                 uiConstStrOver(line[0] + 8, "Open");
        ; Setup parameters for call to function osal_memcpy
        MOV       ?V0,#`?<Constant "Open">` & 0xff
        MOV       ?V1,#(`?<Constant "Open">` >> 8) & 0xff
        MOV       R0,#?V0
        LCALL     ?PUSH_XSTACK_I_THREE
          CFI CFA_XSP16 add(XSP16, 79)
        LCALL     ?Subroutine29 & 0xFFFF
??CrossCallReturnLabel_83:
        LCALL     ?DEALLOC_XSTACK8
          CFI CFA_XSP16 add(XSP16, 76)
// 1536                 uiUintToString(PermitJoinDuration, line[0] + 12, 10, 3, TRUE, FALSE);
        ; Setup parameters for call to function uiUintToString
        MOV       ?V0,R6
        MOV       R0,#?V0
        LCALL     ?PUSH_XSTACK_I_ONE
          CFI CFA_XSP16 add(XSP16, 77)
        MOV       ?V0,#0x1
        MOV       R0,#?V0
        LCALL     ?PUSH_XSTACK_I_ONE
          CFI CFA_XSP16 add(XSP16, 78)
        MOV       ?V0,#0x3
        MOV       R0,#?V0
        LCALL     ?PUSH_XSTACK_I_ONE
          CFI CFA_XSP16 add(XSP16, 79)
        MOV       A,#0x3
        LCALL     ?XSTACK_DISP0_8
        MOVX      A,@DPTR
        ADD       A,#0xc
        LCALL     ??Subroutine44_0 & 0xFFFF
??CrossCallReturnLabel_101:
        LCALL     ?PUSH_XSTACK_I_TWO
          CFI CFA_XSP16 add(XSP16, 81)
        MOV       R1,#0xa
        MOV       A,R7
        LCALL     ?Subroutine37 & 0xFFFF
??CrossCallReturnLabel_124:
        LCALL     ?DEALLOC_XSTACK8
          CFI CFA_XSP16 add(XSP16, 76)
// 1537                 LcdAutoRefreshRequired = TRUE;
        MOV       R6,#0x1
        SJMP      ??UI_UpdateLcd_38
// 1538               }
// 1539               else
// 1540               {
// 1541                 uiConstStrOver(line[0] + 8, "CLOSED");
??UI_UpdateLcd_39:
        ; Setup parameters for call to function osal_memcpy
        MOV       ?V0,#`?<Constant "CLOSED">` & 0xff
        MOV       ?V1,#(`?<Constant "CLOSED">` >> 8) & 0xff
        MOV       R0,#?V0
        LCALL     ?PUSH_XSTACK_I_THREE
          CFI CFA_XSP16 add(XSP16, 79)
        MOV       R4,#0x6
??UI_UpdateLcd_35:
        MOV       R5,#0x0
??UI_UpdateLcd_33:
        LCALL     ??Subroutine41_0 & 0xFFFF
??CrossCallReturnLabel_86:
        LCALL     ?DEALLOC_XSTACK8
          CFI CFA_XSP16 add(XSP16, 76)
// 1542               }
// 1543             }
// 1544            }
// 1545         }
// 1546         
// 1547         uiConstStrCpy(line[1], "Id000 Srch000/00"); // IDENTIFYING, SEARCHING   - IDFYcnt SRCHcnt
??UI_UpdateLcd_38:
        ; Setup parameters for call to function osal_memcpy
        MOV       ?V0,#`?<Constant "Id000 Srch000/00">` & 0xff
        MOV       ?V1,#(`?<Constant "Id000 Srch000/00">` >> 8) & 0xff
        MOV       R0,#?V0
        LCALL     ?PUSH_XSTACK_I_THREE
          CFI CFA_XSP16 add(XSP16, 79)
        MOV       R4,#0x11
        MOV       R5,#0x0
        MOV       A,#0x5
        LCALL     ?XSTACK_DISP0_8
        LCALL     ?Subroutine9 & 0xFFFF
??CrossCallReturnLabel_12:
        LCALL     ?DEALLOC_XSTACK8
          CFI CFA_XSP16 add(XSP16, 76)
// 1548 
// 1549         uiUintToString(*pUiIdentifyTimeAttribute, line[1] + 2, 10, 3, TRUE, FALSE);
        ; Setup parameters for call to function uiUintToString
        MOV       ?V0,#0x0
        MOV       R0,#?V0
        LCALL     ?PUSH_XSTACK_I_ONE
          CFI CFA_XSP16 add(XSP16, 77)
        MOV       ?V0,#0x1
        MOV       R0,#?V0
        LCALL     ?PUSH_XSTACK_I_ONE
          CFI CFA_XSP16 add(XSP16, 78)
        MOV       ?V0,#0x3
        MOV       R0,#?V0
        LCALL     ?PUSH_XSTACK_I_ONE
          CFI CFA_XSP16 add(XSP16, 79)
        MOV       A,#0x5
        LCALL     ?XSTACK_DISP0_8
        MOVX      A,@DPTR
        ADD       A,#0x2
        LCALL     ??Subroutine44_0 & 0xFFFF
??CrossCallReturnLabel_102:
        LCALL     ?PUSH_XSTACK_I_TWO
          CFI CFA_XSP16 add(XSP16, 81)
        MOV       R1,#0xa
        MOV       DPTR,#pUiIdentifyTimeAttribute
        LCALL     ?Subroutine21 & 0xFFFF
??CrossCallReturnLabel_43:
        LCALL     ??Subroutine45_0 & 0xFFFF
??CrossCallReturnLabel_115:
        LCALL     ?DEALLOC_XSTACK8
          CFI CFA_XSP16 add(XSP16, 76)
// 1550         bdb_GetFBInitiatorStatus(&FBRemainingTimeLeft, NULL);
        ; Setup parameters for call to function bdb_GetFBInitiatorStatus
        MOV       R4,#0x0
        MOV       R5,#0x0
        MOV       A,#0x6
        LCALL     ?XSTACK_DISP101_8
        LCALL     `??bdb_GetFBInitiatorStatus::?relay`; Banked call to: bdb_GetFBInitiatorStatus
// 1551         uiUintToString(FBRemainingTimeLeft, line[1] + 10, 10, 3, TRUE, FALSE);
        ; Setup parameters for call to function uiUintToString
        MOV       ?V0,#0x0
        MOV       R0,#?V0
        LCALL     ?PUSH_XSTACK_I_ONE
          CFI CFA_XSP16 add(XSP16, 77)
        MOV       ?V0,#0x1
        MOV       R0,#?V0
        LCALL     ?PUSH_XSTACK_I_ONE
          CFI CFA_XSP16 add(XSP16, 78)
        MOV       ?V0,#0x3
        MOV       R0,#?V0
        LCALL     ?PUSH_XSTACK_I_ONE
          CFI CFA_XSP16 add(XSP16, 79)
        MOV       A,#0x5
        LCALL     ?XSTACK_DISP0_8
        MOVX      A,@DPTR
        ADD       A,#0xa
        LCALL     ??Subroutine44_0 & 0xFFFF
??CrossCallReturnLabel_103:
        LCALL     ?PUSH_XSTACK_I_TWO
          CFI CFA_XSP16 add(XSP16, 81)
        MOV       R1,#0xa
        MOV       A,#0xb
        LCALL     ?XSTACK_DISP0_8
        LCALL     ?Subroutine13 & 0xFFFF
??CrossCallReturnLabel_21:
        LCALL     ?DEALLOC_XSTACK8
          CFI CFA_XSP16 add(XSP16, 76)
// 1552         uiUintToString(FBMatchesFound, line[1] + 14, 10, 2, TRUE, FALSE);
        ; Setup parameters for call to function uiUintToString
        MOV       ?V0,#0x0
        MOV       R0,#?V0
        LCALL     ?PUSH_XSTACK_I_ONE
          CFI CFA_XSP16 add(XSP16, 77)
        MOV       ?V0,#0x1
        MOV       R0,#?V0
        LCALL     ?PUSH_XSTACK_I_ONE
          CFI CFA_XSP16 add(XSP16, 78)
        MOV       ?V0,#0x2
        MOV       R0,#?V0
        LCALL     ?PUSH_XSTACK_I_ONE
          CFI CFA_XSP16 add(XSP16, 79)
        MOV       A,#0x5
        LCALL     ?XSTACK_DISP0_8
        MOVX      A,@DPTR
        ADD       A,#0xe
        LCALL     ??Subroutine44_0 & 0xFFFF
??CrossCallReturnLabel_104:
        LCALL     ?PUSH_XSTACK_I_TWO
          CFI CFA_XSP16 add(XSP16, 81)
        MOV       R1,#0xa
        MOV       DPTR,#FBMatchesFound
        LCALL     ?Subroutine13 & 0xFFFF
??CrossCallReturnLabel_22:
        LCALL     ?DEALLOC_XSTACK8
          CFI CFA_XSP16 add(XSP16, 76)
// 1553 
// 1554         if ((*pUiIdentifyTimeAttribute > 0) || (FBRemainingTimeLeft > 0) || (uiCommissioningStateStr != "--"))
        LCALL     ?Subroutine12 & 0xFFFF
??CrossCallReturnLabel_93:
        JNZ       ??UI_UpdateLcd_40
        MOV       A,#0x6
        LCALL     ?XSTACK_DISP0_8
        MOVX      A,@DPTR
        JNZ       ??UI_UpdateLcd_40
        MOV       DPTR,#uiCommissioningStateStr
        MOVX      A,@DPTR
        XRL       A,#`?<Constant "--">` & 0xff
        JNZ       ??UI_UpdateLcd_41
        INC       DPTR
        MOVX      A,@DPTR
        XRL       A,#(`?<Constant "--">` >> 8) & 0xff
??UI_UpdateLcd_41:
        JNZ       ??UI_UpdateLcd_40
        MOV       A,R6
        MOV       C,0xE0 /* A   */.0
        MOV       B.0,C
        SJMP      ??UI_UpdateLcd_42
// 1555         {
// 1556           LcdAutoRefreshRequired = TRUE;
??UI_UpdateLcd_40:
        SETB      B.0
// 1557         }
// 1558 
// 1559         line[2] = "<  COMMISSION  >";
??UI_UpdateLcd_42:
        MOV       A,#0x4
        LCALL     ?XSTACK_DISP0_8
        MOV       A,#`?<Constant "<  COMMISSION  >">` & 0xff
        MOVX      @DPTR,A
        INC       DPTR
        MOV       A,#(`?<Constant "<  COMMISSION  >">` >> 8) & 0xff
        MOVX      @DPTR,A
// 1560         
// 1561         if (LcdAutoRefreshRequired)
        MOV       C,B.0
        JC        $+5
        LJMP      ??UI_UpdateLcd_3 & 0xFFFF
// 1562         {
// 1563           osal_start_timerEx(uiAppTaskId, uiLcdAutoUpdateEvent, LCD_AUTO_REFRESH_INTERVAL_ON_COMISSIONING_SCREEN);
        ; Setup parameters for call to function osal_start_timerEx
        MOV       DPTR,#__Constant_fa
        LCALL     ?PUSH_XSTACK8_X_FOUR
          CFI CFA_XSP16 add(XSP16, 80)
        LCALL     ?Subroutine17 & 0xFFFF
// 1564         }
??CrossCallReturnLabel_33:
        LCALL     ?DEALLOC_XSTACK8
          CFI CFA_XSP16 add(XSP16, 76)
        LJMP      ??UI_UpdateLcd_3 & 0xFFFF
// 1565         break;
// 1566       case UI_STATE_SET_INST_CODE:
// 1567         line[2] = "<ADD INSTL CODE>";
??UI_UpdateLcd_11:
        MOV       A,#0x4
        LCALL     ?XSTACK_DISP0_8
        MOV       A,#`?<Constant "<ADD INSTL CODE>">` & 0xff
        MOVX      @DPTR,A
        INC       DPTR
        MOV       A,#(`?<Constant "<ADD INSTL CODE>">` >> 8) & 0xff
        LJMP      ??UI_UpdateLcd_26 & 0xFFFF
// 1568         break;
// 1569       case UI_STATE_SET_INST_CODE_0:
// 1570         uiArrayToString(uiInstallCode, line[0], 16, TRUE); 
??UI_UpdateLcd_21:
        ; Setup parameters for call to function uiArrayToString
        MOV       ?V0,#0x1
        MOV       R0,#?V0
        LCALL     ?PUSH_XSTACK_I_ONE
          CFI CFA_XSP16 add(XSP16, 77)
        MOV       R1,#0x10
        MOV       A,#0x1
        LCALL     ?XSTACK_DISP0_8
        LCALL     ?Subroutine18 & 0xFFFF
??CrossCallReturnLabel_35:
        LCALL     ?DEALLOC_XSTACK8
          CFI CFA_XSP16 add(XSP16, 76)
// 1571         uiArrayToString(uiInstallCode + 8, line[1], 16, TRUE); 
        ; Setup parameters for call to function uiArrayToString
        MOV       R0,#?V0
        LCALL     ?PUSH_XSTACK_I_ONE
          CFI CFA_XSP16 add(XSP16, 77)
        MOV       R1,#0x10
        MOV       A,#0x3
        LCALL     ?XSTACK_DISP0_8
        LCALL     ?Subroutine19 & 0xFFFF
??CrossCallReturnLabel_37:
        LCALL     ?DEALLOC_XSTACK8
          CFI CFA_XSP16 add(XSP16, 76)
// 1572         line[0][16] = 0;
        LCALL     ?Subroutine14 & 0xFFFF
// 1573         line[1][16] = 0;
??CrossCallReturnLabel_25:
        LCALL     ?XSTACK_DISP0_8
        LCALL     ?Subroutine15 & 0xFFFF
// 1574         line[2] = "<SET INSTL CODE>";
??CrossCallReturnLabel_27:
        MOV       A,#0x4
        LCALL     ?XSTACK_DISP0_8
        MOV       A,#`?<Constant "<SET INSTL CODE>">` & 0xff
        MOVX      @DPTR,A
        INC       DPTR
        MOV       A,#(`?<Constant "<SET INSTL CODE>">` >> 8) & 0xff
        LJMP      ??UI_UpdateLcd_26 & 0xFFFF
// 1575         break;
// 1576 #if (ZG_BUILD_COORDINATOR_TYPE)
// 1577       case UI_STATE_SET_INST_CODE_ADDR_0:
// 1578         uiArrayToString(uiInstallCodeAddr, line[0],16, FALSE); 
// 1579         line[0][16] = 0;
// 1580         line[2] = "<SET I.C. ADDR >";
// 1581         break;
// 1582 #endif
// 1583       case UI_STATE_SET_INST_CODE_DONE:
// 1584         line[0] = "Last status:";
??UI_UpdateLcd_22:
        MOV       DPL,?XSP + 0
        MOV       DPH,?XSP + 1
        MOV       A,#`?<Constant "Last status:">` & 0xff
        MOVX      @DPTR,A
        INC       DPTR
        MOV       A,#(`?<Constant "Last status:">` >> 8) & 0xff
        MOVX      @DPTR,A
// 1585         
// 1586         switch (uiAddInstallCodeLastStatus)
        MOV       DPTR,#uiAddInstallCodeLastStatus
        MOVX      A,@DPTR
        JZ        ??UI_UpdateLcd_43
        INC       A
        JNZ       ??UI_UpdateLcd_44
// 1587         {
// 1588           case STATUS_UNKNOWN:
// 1589             line[1] = "---";
        MOV       A,#0x2
        LCALL     ?XSTACK_DISP0_8
        MOV       A,#`?<Constant "---">` & 0xff
        MOVX      @DPTR,A
        INC       DPTR
        MOV       A,#(`?<Constant "---">` >> 8) & 0xff
        SJMP      ??UI_UpdateLcd_45
// 1590             break;
// 1591           case ZSuccess:
// 1592             line[1] = "SUCCESS";
??UI_UpdateLcd_43:
        MOV       A,#0x2
        LCALL     ?XSTACK_DISP0_8
        MOV       A,#`?<Constant "SUCCESS">` & 0xff
        MOVX      @DPTR,A
        INC       DPTR
        MOV       A,#(`?<Constant "SUCCESS">` >> 8) & 0xff
??UI_UpdateLcd_45:
        MOVX      @DPTR,A
// 1593             break;
        SJMP      ??UI_UpdateLcd_46
// 1594           default:
// 1595             uiConstStrCpy(line[1], "ERROR (0x  )    ");
??UI_UpdateLcd_44:
        ; Setup parameters for call to function osal_memcpy
        MOV       ?V0,#`?<Constant "ERROR (0x  )    ">` & 0xff
        MOV       ?V1,#(`?<Constant "ERROR (0x  )    ">` >> 8) & 0xff
        MOV       R0,#?V0
        LCALL     ?PUSH_XSTACK_I_THREE
          CFI CFA_XSP16 add(XSP16, 79)
        MOV       R4,#0x11
        MOV       R5,#0x0
        MOV       A,#0x5
        LCALL     ?XSTACK_DISP0_8
        LCALL     ?Subroutine9 & 0xFFFF
??CrossCallReturnLabel_13:
        LCALL     ?DEALLOC_XSTACK8
          CFI CFA_XSP16 add(XSP16, 76)
// 1596             uiUintToString( uiAddInstallCodeLastStatus, line[1] + 9, 16, 2, TRUE, FALSE);
        ; Setup parameters for call to function uiUintToString
        MOV       ?V0,R6
        MOV       R0,#?V0
        LCALL     ?PUSH_XSTACK_I_ONE
          CFI CFA_XSP16 add(XSP16, 77)
        MOV       ?V0,#0x1
        MOV       R0,#?V0
        LCALL     ?PUSH_XSTACK_I_ONE
          CFI CFA_XSP16 add(XSP16, 78)
        MOV       ?V0,#0x2
        MOV       R0,#?V0
        LCALL     ?PUSH_XSTACK_I_ONE
          CFI CFA_XSP16 add(XSP16, 79)
        MOV       A,#0x5
        LCALL     ?XSTACK_DISP0_8
        MOVX      A,@DPTR
        ADD       A,#0x9
        LCALL     ??Subroutine44_0 & 0xFFFF
??CrossCallReturnLabel_105:
        LCALL     ?PUSH_XSTACK_I_TWO
          CFI CFA_XSP16 add(XSP16, 81)
        MOV       R1,#0x10
        MOV       DPTR,#uiAddInstallCodeLastStatus
        LCALL     ?Subroutine13 & 0xFFFF
??CrossCallReturnLabel_23:
        LCALL     ?DEALLOC_XSTACK8
          CFI CFA_XSP16 add(XSP16, 76)
// 1597             break;
// 1598         }
// 1599         line[2] = "<APLY INST CODE>";
??UI_UpdateLcd_46:
        MOV       A,#0x4
        LCALL     ?XSTACK_DISP0_8
        MOV       A,#`?<Constant "<APLY INST CODE>">` & 0xff
        MOVX      @DPTR,A
        INC       DPTR
        MOV       A,#(`?<Constant "<APLY INST CODE>">` >> 8) & 0xff
        LJMP      ??UI_UpdateLcd_26 & 0xFFFF
// 1600         break;
// 1601 #if (ZG_BUILD_COORDINATOR_TYPE)
// 1602       case UI_STATE_SET_INST_CODE_ADDR_1:
// 1603         uiArrayToString(uiInstallCodeAddr, line[0],16, FALSE); 
// 1604         line[0][16] = 0;
// 1605         line[2] = "       I.C. ADDR";
// 1606         break;
// 1607 #endif
// 1608       case UI_STATE_SET_INST_CODE_1:
// 1609         uiArrayToString(uiInstallCode, line[0], 16, TRUE); 
??UI_UpdateLcd_23:
        ; Setup parameters for call to function uiArrayToString
        MOV       ?V0,#0x1
        MOV       R0,#?V0
        LCALL     ?PUSH_XSTACK_I_ONE
          CFI CFA_XSP16 add(XSP16, 77)
        MOV       R1,#0x10
        MOV       A,#0x1
        LCALL     ?XSTACK_DISP0_8
        LCALL     ?Subroutine18 & 0xFFFF
??CrossCallReturnLabel_36:
        LCALL     ?DEALLOC_XSTACK8
          CFI CFA_XSP16 add(XSP16, 76)
// 1610         uiArrayToString(uiInstallCode + 8, line[1], 16, TRUE); 
        ; Setup parameters for call to function uiArrayToString
        MOV       R0,#?V0
        LCALL     ?PUSH_XSTACK_I_ONE
          CFI CFA_XSP16 add(XSP16, 77)
        MOV       R1,#0x10
        MOV       A,#0x3
        LCALL     ?XSTACK_DISP0_8
        LCALL     ?Subroutine19 & 0xFFFF
??CrossCallReturnLabel_38:
        LCALL     ?DEALLOC_XSTACK8
          CFI CFA_XSP16 add(XSP16, 76)
// 1611         line[0][16] = 0;
        LCALL     ?Subroutine14 & 0xFFFF
// 1612         line[1][16] = 0;
??CrossCallReturnLabel_26:
        LCALL     ?XSTACK_DISP0_8
        LCALL     ?Subroutine15 & 0xFFFF
// 1613         uiConstStrCpy(line[2], "       INST CODE");
??CrossCallReturnLabel_28:
        ; Setup parameters for call to function osal_memcpy
        MOV       ?V0,#`?<Constant "       INST CODE">` & 0xff
        MOV       ?V1,#(`?<Constant "       INST CODE">` >> 8) & 0xff
        MOV       R0,#?V0
        LCALL     ?PUSH_XSTACK_I_THREE
          CFI CFA_XSP16 add(XSP16, 79)
        MOV       R4,#0x11
        MOV       R5,#0x0
        MOV       A,#0x7
        LCALL     ?XSTACK_DISP0_8
        LCALL     ?Subroutine9 & 0xFFFF
??CrossCallReturnLabel_14:
        LCALL     ?DEALLOC_XSTACK8
          CFI CFA_XSP16 add(XSP16, 76)
// 1614         uiArrayToString( uiInstallCode + 16, line[2], 4, TRUE);
        ; Setup parameters for call to function uiArrayToString
        MOV       ?V0,#0x1
        MOV       R0,#?V0
        LCALL     ?PUSH_XSTACK_I_ONE
          CFI CFA_XSP16 add(XSP16, 77)
        MOV       R1,#0x4
        MOV       A,#0x5
        LCALL     ?XSTACK_DISP0_8
        LCALL     ?Subroutine32 & 0xFFFF
??CrossCallReturnLabel_70:
        MOV       R2,#(uiInstallCode + 16) & 0xff
        MOV       R3,#((uiInstallCode + 16) >> 8) & 0xff
        LCALL     `??uiArrayToString::?relay`; Banked call to: uiArrayToString
        MOV       A,#0x1
        LCALL     ?DEALLOC_XSTACK8
