///////////////////////////////////////////////////////////////////////////////
//
// IAR C/C++ Compiler V10.30.1.6000 for 8051              05/May/2021  18:21:34
// Copyright 2004-2018 IAR Systems AB.
// Evaluation license - IAR Embedded Workbench for 8051, Evaluation edition 10.40
//
//    Core               =  plain
//    Code model         =  banked
//    Data model         =  large
//    Calling convention =  xdata reentrant
//    Constant location  =  data_rom
//    Dptr setup         =  1,16
//                          
//    Source file        =  
//        C:\Texas Instruments\2. main recover\Z-Stack 3.0.2\Z-Stack
//        3.0.2\Projects\zstack\HomeAutomation\Source\zcl_ha.c
//    Command line       =  
//        -f C:\users\slavko\Temp\EW3f5a.tmp ("C:\Texas Instruments\2. main
//        recover\Z-Stack 3.0.2\Z-Stack
//        3.0.2\Projects\zstack\HomeAutomation\Source\zcl_ha.c" -D
//        BDB_REPORTING -D SECURE=1 -D TC_LINKKEY_JOIN -D NV_INIT -D NV_RESTORE
//        -D xZTOOL_P1 -D xMT_TASK -D xMT_APP_FUNC -D xMT_SYS_FUNC -D
//        xMT_ZDO_FUNC -D xMT_ZDO_MGMT -D xMT_APP_CNF_FUNC -D
//        LCD_SUPPORTED=DEBUG -D MULTICAST_ENABLED=FALSE -D ZCL_READ -D
//        ZCL_DISCOVER -D ZCL_WRITE -D ZCL_BASIC -D ZCL_IDENTIFY -D ZCL_ON_OFF
//        -D ZCL_SCENES -D ZCL_GROUPS -D ZCL_LEVEL_CTRL -D HAL_LED=TRUE -D
//        HAL_KEY=TRUE -D BLINK_LEDS -lC "C:\Texas Instruments\2. main
//        recover\Z-Stack 3.0.2\Z-Stack
//        3.0.2\Projects\zstack\HomeAutomation\SampleLight\CC2530DB\RouterEB\List"
//        -lA "C:\Texas Instruments\2. main recover\Z-Stack 3.0.2\Z-Stack
//        3.0.2\Projects\zstack\HomeAutomation\SampleLight\CC2530DB\RouterEB\List"
//        --diag_suppress Pe001,Pa010 -o "C:\Texas Instruments\2. main
//        recover\Z-Stack 3.0.2\Z-Stack
//        3.0.2\Projects\zstack\HomeAutomation\SampleLight\CC2530DB\RouterEB\Obj"
//        -e --debug --core=plain --dptr=16,1 --data_model=large
//        --code_model=banked --calling_convention=xdata_reentrant
//        --place_constants=data_rom --nr_virtual_regs 16 -f "C:\Texas
//        Instruments\2. main recover\Z-Stack 3.0.2\Z-Stack
//        3.0.2\Projects\zstack\HomeAutomation\SampleLight\CC2530DB\..\..\..\Tools\CC2530DB\f8wRouter.cfg"
//        (-DCPU32MHZ -DROOT=__near_func -DMAC_CFG_APP_PENDING_QUEUE=TRUE
//        -DMAC_CFG_TX_DATA_MAX=5 -DMAC_CFG_TX_MAX=8 -DMAC_CFG_RX_MAX=5
//        -DRTR_NWK) -f "C:\Texas Instruments\2. main recover\Z-Stack
//        3.0.2\Z-Stack
//        3.0.2\Projects\zstack\HomeAutomation\SampleLight\CC2530DB\..\..\..\Tools\CC2530DB\f8wConfig.cfg"
//        (-DZIGBEEPRO -DSECURE=1 -DZG_SECURE_DYNAMIC=0 -DREFLECTOR
//        -DDEFAULT_CHANLIST=0x00000800 -DZDAPP_CONFIG_PAN_ID=0xFFFF
//        -DNWK_START_DELAY=100 -DEXTENDED_JOINING_RANDOM_MASK=0x007F
//        -DBEACON_REQUEST_DELAY=100 -DBEACON_REQ_DELAY_MASK=0x00FF
//        -DLINK_STATUS_JITTER_MASK=0x007F -DROUTE_EXPIRY_TIME=30
//        -DAPSC_ACK_WAIT_DURATION_POLLED=3000 -DNWK_INDIRECT_MSG_TIMEOUT=7
//        -DMAX_RREQ_ENTRIES=8 -DAPSC_MAX_FRAME_RETRIES=3
//        -DNWK_MAX_DATA_RETRIES=2 -DMAX_POLL_FAILURE_RETRIES=2 -DMAX_BCAST=9
//        -DAPS_MAX_GROUPS=16 -DMAX_RTG_ENTRIES=40 -DNWK_MAX_BINDING_ENTRIES=4
//        -DMAX_BINDING_CLUSTER_IDS=4 -DDEFAULT_KEY={0}
//        -DMAC_MAX_FRAME_SIZE=116 -DZDNWKMGR_MIN_TRANSMISSIONS=20
//        "-DCONST=const __code" -DGENERIC=__generic -DRFD_RCVC_ALWAYS_ON=FALSE
//        -DPOLL_RATE=1000 -DQUEUED_POLL_RATE=100 -DRESPONSE_POLL_RATE=100
//        -DREJOIN_POLL_RATE=440 -DREJOIN_BACKOFF=900000 -DREJOIN_SCAN=900000
//        -DENABLE_LED4_DISABLE_S1) -f "C:\Texas Instruments\2. main
//        recover\Z-Stack 3.0.2\Z-Stack
//        3.0.2\Projects\zstack\HomeAutomation\SampleLight\CC2530DB\..\..\..\Tools\CC2530DB\f8wZCL.cfg"
//        -I "C:\Texas Instruments\2. main recover\Z-Stack 3.0.2\Z-Stack
//        3.0.2\Projects\zstack\HomeAutomation\SampleLight\CC2530DB\" -I
//        "C:\Texas Instruments\2. main recover\Z-Stack 3.0.2\Z-Stack
//        3.0.2\Projects\zstack\HomeAutomation\SampleLight\CC2530DB\..\Source\"
//        -I "C:\Texas Instruments\2. main recover\Z-Stack 3.0.2\Z-Stack
//        3.0.2\Projects\zstack\HomeAutomation\SampleLight\CC2530DB\..\..\Source\"
//        -I "C:\Texas Instruments\2. main recover\Z-Stack 3.0.2\Z-Stack
//        3.0.2\Projects\zstack\HomeAutomation\SampleLight\CC2530DB\..\..\..\ZMain\TI2530DB\"
//        -I "C:\Texas Instruments\2. main recover\Z-Stack 3.0.2\Z-Stack
//        3.0.2\Projects\zstack\HomeAutomation\SampleLight\CC2530DB\..\..\..\..\..\Components\hal\include\"
//        -I "C:\Texas Instruments\2. main recover\Z-Stack 3.0.2\Z-Stack
//        3.0.2\Projects\zstack\HomeAutomation\SampleLight\CC2530DB\..\..\..\..\..\Components\hal\target\CC2530EB\"
//        -I "C:\Texas Instruments\2. main recover\Z-Stack 3.0.2\Z-Stack
//        3.0.2\Projects\zstack\HomeAutomation\SampleLight\CC2530DB\..\..\..\..\..\Components\mac\include\"
//        -I "C:\Texas Instruments\2. main recover\Z-Stack 3.0.2\Z-Stack
//        3.0.2\Projects\zstack\HomeAutomation\SampleLight\CC2530DB\..\..\..\..\..\Components\mac\high_level\"
//        -I "C:\Texas Instruments\2. main recover\Z-Stack 3.0.2\Z-Stack
//        3.0.2\Projects\zstack\HomeAutomation\SampleLight\CC2530DB\..\..\..\..\..\Components\mac\low_level\srf04\"
//        -I "C:\Texas Instruments\2. main recover\Z-Stack 3.0.2\Z-Stack
//        3.0.2\Projects\zstack\HomeAutomation\SampleLight\CC2530DB\..\..\..\..\..\Components\mac\low_level\srf04\single_chip\"
//        -I "C:\Texas Instruments\2. main recover\Z-Stack 3.0.2\Z-Stack
//        3.0.2\Projects\zstack\HomeAutomation\SampleLight\CC2530DB\..\..\..\..\..\Components\mt\"
//        -I "C:\Texas Instruments\2. main recover\Z-Stack 3.0.2\Z-Stack
//        3.0.2\Projects\zstack\HomeAutomation\SampleLight\CC2530DB\..\..\..\..\..\Components\osal\include\"
//        -I "C:\Texas Instruments\2. main recover\Z-Stack 3.0.2\Z-Stack
//        3.0.2\Projects\zstack\HomeAutomation\SampleLight\CC2530DB\..\..\..\..\..\Components\services\saddr\"
//        -I "C:\Texas Instruments\2. main recover\Z-Stack 3.0.2\Z-Stack
//        3.0.2\Projects\zstack\HomeAutomation\SampleLight\CC2530DB\..\..\..\..\..\Components\services\sdata\"
//        -I "C:\Texas Instruments\2. main recover\Z-Stack 3.0.2\Z-Stack
//        3.0.2\Projects\zstack\HomeAutomation\SampleLight\CC2530DB\..\..\..\..\..\Components\stack\af\"
//        -I "C:\Texas Instruments\2. main recover\Z-Stack 3.0.2\Z-Stack
//        3.0.2\Projects\zstack\HomeAutomation\SampleLight\CC2530DB\..\..\..\..\..\Components\stack\bdb\"
//        -I "C:\Texas Instruments\2. main recover\Z-Stack 3.0.2\Z-Stack
//        3.0.2\Projects\zstack\HomeAutomation\SampleLight\CC2530DB\..\..\..\..\..\Components\stack\nwk\"
//        -I "C:\Texas Instruments\2. main recover\Z-Stack 3.0.2\Z-Stack
//        3.0.2\Projects\zstack\HomeAutomation\SampleLight\CC2530DB\..\..\..\..\..\Components\stack\bdb\"
//        -I "C:\Texas Instruments\2. main recover\Z-Stack 3.0.2\Z-Stack
//        3.0.2\Projects\zstack\HomeAutomation\SampleLight\CC2530DB\..\..\..\..\..\Components\stack\gp\"
//        -I "C:\Texas Instruments\2. main recover\Z-Stack 3.0.2\Z-Stack
//        3.0.2\Projects\zstack\HomeAutomation\SampleLight\CC2530DB\..\..\..\..\..\Components\stack\sapi\"
//        -I "C:\Texas Instruments\2. main recover\Z-Stack 3.0.2\Z-Stack
//        3.0.2\Projects\zstack\HomeAutomation\SampleLight\CC2530DB\..\..\..\..\..\Components\stack\sec\"
//        -I "C:\Texas Instruments\2. main recover\Z-Stack 3.0.2\Z-Stack
//        3.0.2\Projects\zstack\HomeAutomation\SampleLight\CC2530DB\..\..\..\..\..\Components\stack\sys\"
//        -I "C:\Texas Instruments\2. main recover\Z-Stack 3.0.2\Z-Stack
//        3.0.2\Projects\zstack\HomeAutomation\SampleLight\CC2530DB\..\..\..\..\..\Components\stack\zcl\"
//        -I "C:\Texas Instruments\2. main recover\Z-Stack 3.0.2\Z-Stack
//        3.0.2\Projects\zstack\HomeAutomation\SampleLight\CC2530DB\..\..\..\..\..\Components\stack\zdo\"
//        -I "C:\Texas Instruments\2. main recover\Z-Stack 3.0.2\Z-Stack
//        3.0.2\Projects\zstack\HomeAutomation\SampleLight\CC2530DB\..\..\..\..\..\Components\zmac\"
//        -I "C:\Texas Instruments\2. main recover\Z-Stack 3.0.2\Z-Stack
//        3.0.2\Projects\zstack\HomeAutomation\SampleLight\CC2530DB\..\..\..\..\..\Components\zmac\f8w\"
//        -Ohz --require_prototypes)
//    Locale             =  English_USA.1252
//    List file          =  
//        C:\Texas Instruments\2. main recover\Z-Stack 3.0.2\Z-Stack
//        3.0.2\Projects\zstack\HomeAutomation\SampleLight\CC2530DB\RouterEB\List\zcl_ha.s51
//
///////////////////////////////////////////////////////////////////////////////

        NAME zcl_ha

        RTMODEL "__SystemLibrary", "CLib"
        RTMODEL "__calling_convention", "xdata_reentrant"
        RTMODEL "__code_model", "banked"
        RTMODEL "__core", "plain"
        RTMODEL "__data_model", "large"
        RTMODEL "__dptr_size", "16"
        RTMODEL "__extended_stack", "disabled"
        RTMODEL "__location_for_constants", "data"
        RTMODEL "__number_of_dptrs", "1"
        RTMODEL "__register_banks", "*"
        RTMODEL "__rt_version", "1"

        RSEG DOVERLAY:DATA:NOROOT(0)
        RSEG IOVERLAY:IDATA:NOROOT(0)
        RSEG ISTACK:IDATA:NOROOT(0)
        RSEG PSTACK:XDATA:NOROOT(0)
        RSEG XSTACK:XDATA:NOROOT(0)

        EXTERN ?V0
        EXTERN ?V1
        EXTERN ?V2
        EXTERN ?V3
        EXTERN ?ALLOC_XSTACK8
        EXTERN ?BANKED_ENTER_XDATA
        EXTERN ?BANKED_LEAVE_XDATA
        EXTERN ?BDISPATCH
        EXTERN ?BRET
        EXTERN ?DEALLOC_XSTACK8
        EXTERN ?PUSH_XSTACK_I_THREE
        EXTERN ?PUSH_XSTACK_I_TWO
        EXTERN ?XSP
        EXTERN ?XSTACK_DISP0_8
        EXTERN ?XSTACK_DISP101_8

        PUBLIC `??zclHA_Init::?relay`
        FUNCTION `??zclHA_Init::?relay`,0203H
        PUBLIC `??zclHA_LcdStatusLine1::?relay`
        FUNCTION `??zclHA_LcdStatusLine1::?relay`,0203H
        PUBLIC `??zclHA_clearbit::?relay`
        FUNCTION `??zclHA_clearbit::?relay`,0203H
        PUBLIC `??zclHA_isbit::?relay`
        FUNCTION `??zclHA_isbit::?relay`,0203H
        PUBLIC `??zclHA_setbit::?relay`
        FUNCTION `??zclHA_setbit::?relay`,0203H
        PUBLIC `??zclHA_uint16toa::?relay`
        FUNCTION `??zclHA_uint16toa::?relay`,0203H
        PUBLIC `??zclHA_uint8toa::?relay`
        FUNCTION `??zclHA_uint8toa::?relay`,0203H
        PUBLIC NwkInfoStrs
        PUBLIC NwkInfoZcStr
        PUBLIC NwkInfoZedStr
        PUBLIC NwkInfoZrStr
        PUBLIC zclHA_Init
        FUNCTION zclHA_Init,0a1203H
        ARGFRAME XSTACK, 0, STACK
        LOCFRAME ISTACK, 1, STACK
        LOCFRAME XSTACK, 10, STACK
        PUBLIC zclHA_LcdStatusLine1
        FUNCTION zclHA_LcdStatusLine1,0a1203H
        ARGFRAME XSTACK, 0, STACK
        LOCFRAME XSTACK, 34, STACK
        PUBLIC zclHA_clearbit
        FUNCTION zclHA_clearbit,0203H
        ARGFRAME XSTACK, 0, STACK
        LOCFRAME ISTACK, 3, STACK
        PUBLIC zclHA_isbit
        FUNCTION zclHA_isbit,0203H
        ARGFRAME XSTACK, 0, STACK
        LOCFRAME ISTACK, 3, STACK
        PUBLIC zclHA_setbit
        FUNCTION zclHA_setbit,0203H
        ARGFRAME XSTACK, 0, STACK
        LOCFRAME ISTACK, 3, STACK
        PUBLIC zclHA_uint16toa
        FUNCTION zclHA_uint16toa,0a1203H
        ARGFRAME XSTACK, 31, STACK
        ARGFRAME IOVERLAY, 0, STATIC
        ARGFRAME DOVERLAY, 0, STATIC
        LOCFRAME XSTACK, 14, STACK
        PUBLIC zclHA_uint8toa
        FUNCTION zclHA_uint8toa,0203H
        ARGFRAME XSTACK, 0, STACK
        LOCFRAME ISTACK, 1, STACK
        LOCFRAME XSTACK, 9, STACK
        
          CFI Names cfiNames0
          CFI StackFrame CFA_SP SP IDATA
          CFI StackFrame CFA_PSP16 PSP16 XDATA
          CFI StackFrame CFA_XSP16 XSP16 XDATA
          CFI StaticOverlayFrame CFA_IOVERLAY IOVERLAY
          CFI StaticOverlayFrame CFA_DOVERLAY DOVERLAY
          CFI Resource `PSW.CY`:1, `B.BR0`:1, `B.BR1`:1, `B.BR2`:1, `B.BR3`:1
          CFI Resource `B.BR4`:1, `B.BR5`:1, `B.BR6`:1, `B.BR7`:1, `VB.BR8`:1
          CFI Resource `VB.BR9`:1, `VB.BR10`:1, `VB.BR11`:1, `VB.BR12`:1
          CFI Resource `VB.BR13`:1, `VB.BR14`:1, `VB.BR15`:1, VB:8, B:8, A:8
          CFI Resource PSW:8, DPL0:8, DPH0:8, R0:8, R1:8, R2:8, R3:8, R4:8, R5:8
          CFI Resource R6:8, R7:8, V0:8, V1:8, V2:8, V3:8, V4:8, V5:8, V6:8, V7:8
          CFI Resource V8:8, V9:8, V10:8, V11:8, V12:8, V13:8, V14:8, V15:8, SP:8
          CFI Resource PSPH:8, PSPL:8, PSP16:16, XSPH:8, XSPL:8, XSP16:16
          CFI VirtualResource ?RET:24
          CFI Resource ?BRET_EXT:8
          CFI VirtualResource ?RET_HIGH:8, ?RET_LOW:8
          CFI ResourceParts PSP16 PSPH, PSPL
          CFI ResourceParts XSP16 XSPH, XSPL
          CFI ResourceParts ?RET ?BRET_EXT, ?RET_HIGH, ?RET_LOW
          CFI EndNames cfiNames0
        
          CFI Common cfiCommon0 Using cfiNames0
          CFI CodeAlign 1
          CFI DataAlign -1
          CFI ReturnAddress ?RET CODE
          CFI CFA_DOVERLAY Used
          CFI CFA_IOVERLAY Used
          CFI CFA_SP SP+-3
          CFI CFA_PSP16 PSP16+0
          CFI CFA_XSP16 XSP16+0
          CFI `PSW.CY` SameValue
          CFI `B.BR0` SameValue
          CFI `B.BR1` SameValue
          CFI `B.BR2` SameValue
          CFI `B.BR3` SameValue
          CFI `B.BR4` SameValue
          CFI `B.BR5` SameValue
          CFI `B.BR6` SameValue
          CFI `B.BR7` SameValue
          CFI `VB.BR8` SameValue
          CFI `VB.BR9` SameValue
          CFI `VB.BR10` SameValue
          CFI `VB.BR11` SameValue
          CFI `VB.BR12` SameValue
          CFI `VB.BR13` SameValue
          CFI `VB.BR14` SameValue
          CFI `VB.BR15` SameValue
          CFI VB SameValue
          CFI B Undefined
          CFI A Undefined
          CFI PSW SameValue
          CFI DPL0 SameValue
          CFI DPH0 SameValue
          CFI R0 Undefined
          CFI R1 Undefined
          CFI R2 Undefined
          CFI R3 Undefined
          CFI R4 Undefined
          CFI R5 Undefined
          CFI R6 SameValue
          CFI R7 SameValue
          CFI V0 SameValue
          CFI V1 SameValue
          CFI V2 SameValue
          CFI V3 SameValue
          CFI V4 SameValue
          CFI V5 SameValue
          CFI V6 SameValue
          CFI V7 SameValue
          CFI V8 SameValue
          CFI V9 SameValue
          CFI V10 SameValue
          CFI V11 SameValue
          CFI V12 SameValue
          CFI V13 SameValue
          CFI V14 SameValue
          CFI V15 SameValue
          CFI PSPH Undefined
          CFI PSPL Undefined
          CFI XSPH Undefined
          CFI XSPL Undefined
          CFI ?RET Concat
          CFI ?BRET_EXT Frame(CFA_SP, 3)
          CFI ?RET_HIGH Frame(CFA_SP, 2)
          CFI ?RET_LOW Frame(CFA_SP, 1)
          CFI EndCommon cfiCommon0
        
        
          CFI Common cfiCommon1 Using cfiNames0
          CFI CodeAlign 1
          CFI DataAlign -1
          CFI ReturnAddress ?RET CODE
          CFI CFA_DOVERLAY Used
          CFI CFA_IOVERLAY Used
          CFI CFA_SP SP+-2
          CFI CFA_PSP16 PSP16+0
          CFI CFA_XSP16 XSP16+0
          CFI `PSW.CY` SameValue
          CFI `B.BR0` SameValue
          CFI `B.BR1` SameValue
          CFI `B.BR2` SameValue
          CFI `B.BR3` SameValue
          CFI `B.BR4` SameValue
          CFI `B.BR5` SameValue
          CFI `B.BR6` SameValue
          CFI `B.BR7` SameValue
          CFI `VB.BR8` SameValue
          CFI `VB.BR9` SameValue
          CFI `VB.BR10` SameValue
          CFI `VB.BR11` SameValue
          CFI `VB.BR12` SameValue
          CFI `VB.BR13` SameValue
          CFI `VB.BR14` SameValue
          CFI `VB.BR15` SameValue
          CFI VB SameValue
          CFI B SameValue
          CFI A SameValue
          CFI PSW SameValue
          CFI DPL0 SameValue
          CFI DPH0 SameValue
          CFI R0 SameValue
          CFI R1 SameValue
          CFI R2 SameValue
          CFI R3 SameValue
          CFI R4 SameValue
          CFI R5 SameValue
          CFI R6 SameValue
          CFI R7 SameValue
          CFI V0 SameValue
          CFI V1 SameValue
          CFI V2 SameValue
          CFI V3 SameValue
          CFI V4 SameValue
          CFI V5 SameValue
          CFI V6 SameValue
          CFI V7 SameValue
          CFI V8 SameValue
          CFI V9 SameValue
          CFI V10 SameValue
          CFI V11 SameValue
          CFI V12 SameValue
          CFI V13 SameValue
          CFI V14 SameValue
          CFI V15 SameValue
          CFI PSPH Undefined
          CFI PSPL Undefined
          CFI XSPH Undefined
          CFI XSPL Undefined
          CFI ?RET Concat
          CFI ?BRET_EXT SameValue
          CFI ?RET_HIGH Frame(CFA_SP, 2)
          CFI ?RET_LOW Frame(CFA_SP, 1)
          CFI EndCommon cfiCommon1
        
HalLcdWriteString   SYMBOL "HalLcdWriteString"
`??HalLcdWriteString::?relay` SYMBOL "?relay", HalLcdWriteString
_ltoa               SYMBOL "_ltoa"
`??_ltoa::?relay`   SYMBOL "?relay", _ltoa
afRegister          SYMBOL "afRegister"
`??afRegister::?relay` SYMBOL "?relay", afRegister
osal_mem_alloc      SYMBOL "osal_mem_alloc"
`??osal_mem_alloc::?relay` SYMBOL "?relay", osal_mem_alloc
osal_memcpy         SYMBOL "osal_memcpy"
`??osal_memcpy::?relay` SYMBOL "?relay", osal_memcpy
zclHA_Init          SYMBOL "zclHA_Init"
`??zclHA_Init::?relay` SYMBOL "?relay", zclHA_Init
zclHA_LcdStatusLine1 SYMBOL "zclHA_LcdStatusLine1"
`??zclHA_LcdStatusLine1::?relay` SYMBOL "?relay", zclHA_LcdStatusLine1
zclHA_clearbit      SYMBOL "zclHA_clearbit"
`??zclHA_clearbit::?relay` SYMBOL "?relay", zclHA_clearbit
zclHA_isbit         SYMBOL "zclHA_isbit"
`??zclHA_isbit::?relay` SYMBOL "?relay", zclHA_isbit
zclHA_setbit        SYMBOL "zclHA_setbit"
`??zclHA_setbit::?relay` SYMBOL "?relay", zclHA_setbit
zclHA_uint16toa     SYMBOL "zclHA_uint16toa"
`??zclHA_uint16toa::?relay` SYMBOL "?relay", zclHA_uint16toa
zclHA_uint8toa      SYMBOL "zclHA_uint8toa"
`??zclHA_uint8toa::?relay` SYMBOL "?relay", zclHA_uint8toa

        EXTERN `??HalLcdWriteString::?relay`
        FUNCTION `??HalLcdWriteString::?relay`,00H
        EXTERN `??_ltoa::?relay`
        FUNCTION `??_ltoa::?relay`,00H
        EXTERN `??afRegister::?relay`
        FUNCTION `??afRegister::?relay`,00H
        EXTERN `??osal_mem_alloc::?relay`
        FUNCTION `??osal_mem_alloc::?relay`,00H
        EXTERN `??osal_memcpy::?relay`
        FUNCTION `??osal_memcpy::?relay`,00H
        EXTERN HalLcdWriteString
        FUNCTION HalLcdWriteString,0202H
        ARGFRAME ISTACK, 0, STACK
        ARGFRAME PSTACK, 0, STACK
        ARGFRAME XSTACK, 31, STACK
        ARGFRAME IOVERLAY, 0, STATIC
        ARGFRAME DOVERLAY, 0, STATIC
        EXTERN _NIB
        EXTERN _ltoa
        FUNCTION _ltoa,0202H
        ARGFRAME ISTACK, 0, STACK
        ARGFRAME PSTACK, 0, STACK
        ARGFRAME XSTACK, 33, STACK
        ARGFRAME IOVERLAY, 0, STATIC
        ARGFRAME DOVERLAY, 0, STATIC
        EXTERN afRegister
        FUNCTION afRegister,0202H
        ARGFRAME ISTACK, 0, STACK
        ARGFRAME PSTACK, 0, STACK
        ARGFRAME XSTACK, 10, STACK
        ARGFRAME IOVERLAY, 0, STATIC
        ARGFRAME DOVERLAY, 0, STATIC
        EXTERN osal_mem_alloc
        FUNCTION osal_mem_alloc,0202H
        ARGFRAME ISTACK, 0, STACK
        ARGFRAME PSTACK, 0, STACK
        ARGFRAME XSTACK, 10, STACK
        ARGFRAME IOVERLAY, 0, STATIC
        ARGFRAME DOVERLAY, 0, STATIC
        EXTERN osal_memcpy
        FUNCTION osal_memcpy,0202H
        ARGFRAME ISTACK, 0, STACK
        ARGFRAME PSTACK, 0, STACK
        ARGFRAME XSTACK, 34, STACK
        ARGFRAME IOVERLAY, 0, STATIC
        ARGFRAME DOVERLAY, 0, STATIC
        EXTERN zcl_TaskID

// C:\Texas Instruments\2. main recover\Z-Stack 3.0.2\Z-Stack 3.0.2\Projects\zstack\HomeAutomation\Source\zcl_ha.c
//    1 /**************************************************************************************************
//    2   Filename:       zcl_ha.c
//    3   Revised:        $Date: 2013-10-21 12:15:10 -0700 (Mon, 21 Oct 2013) $
//    4   Revision:       $Revision: 35738 $
//    5 
//    6   Description:    Describe the purpose and contents of the file.
//    7 
//    8 
//    9   Copyright 2013 Texas Instruments Incorporated. All rights reserved.
//   10 
//   11   IMPORTANT: Your use of this Software is limited to those specific rights
//   12   granted under the terms of a software license agreement between the user
//   13   who downloaded the software, his/her employer (which must be your employer)
//   14   and Texas Instruments Incorporated (the "License").  You may not use this
//   15   Software unless you agree to abide by the terms of the License. The License
//   16   limits your use, and you acknowledge, that the Software may not be modified,
//   17   copied or distributed unless embedded on a Texas Instruments microcontroller
//   18   or used solely and exclusively in conjunction with a Texas Instruments radio
//   19   frequency transceiver, which is integrated into your product.  Other than for
//   20   the foregoing purpose, you may not use, reproduce, copy, prepare derivative
//   21   works of, modify, distribute, perform, display or sell this Software and/or
//   22   its documentation for any purpose.
//   23 
//   24   YOU FURTHER ACKNOWLEDGE AND AGREE THAT THE SOFTWARE AND DOCUMENTATION ARE
//   25   PROVIDED “AS IS” WITHOUT WARRANTY OF ANY KIND, EITHER EXPRESS OR IMPLIED,
//   26   INCLUDING WITHOUT LIMITATION, ANY WARRANTY OF MERCHANTABILITY, TITLE,
//   27   NON-INFRINGEMENT AND FITNESS FOR A PARTICULAR PURPOSE. IN NO EVENT SHALL
//   28   TEXAS INSTRUMENTS OR ITS LICENSORS BE LIABLE OR OBLIGATED UNDER CONTRACT,
//   29   NEGLIGENCE, STRICT LIABILITY, CONTRIBUTION, BREACH OF WARRANTY, OR OTHER
//   30   LEGAL EQUITABLE THEORY ANY DIRECT OR INDIRECT DAMAGES OR EXPENSES
//   31   INCLUDING BUT NOT LIMITED TO ANY INCIDENTAL, SPECIAL, INDIRECT, PUNITIVE
//   32   OR CONSEQUENTIAL DAMAGES, LOST PROFITS OR LOST DATA, COST OF PROCUREMENT
//   33   OF SUBSTITUTE GOODS, TECHNOLOGY, SERVICES, OR ANY CLAIMS BY THIRD PARTIES
//   34   (INCLUDING BUT NOT LIMITED TO ANY DEFENSE THEREOF), OR OTHER SIMILAR COSTS.
//   35 
//   36   Should you have any questions regarding your right to use this Software,
//   37   contact Texas Instruments Incorporated at www.TI.com.
//   38 **************************************************************************************************/
//   39 
//   40 /*********************************************************************
//   41  * INCLUDES
//   42  */
//   43 #include "ZComDef.h"
//   44 #include "OSAL.h"
//   45 
//   46 #include "zcl.h"
//   47 #include "zcl_general.h"
//   48 #include "zcl_closures.h"
//   49 #include "zcl_HVAC.h"
//   50 #include "zcl_ss.h"
//   51 #include "zcl_ms.h"
//   52 #include "zcl_lighting.h"
//   53 #include "zcl_ha.h"
//   54 
//   55 /* HAL */
//   56 #include "hal_lcd.h"
//   57 #include "bdb.h"
//   58 
//   59 
//   60 /*********************************************************************
//   61  * MACROS
//   62  */
//   63 
//   64 /*********************************************************************
//   65  * CONSTANTS
//   66  */
//   67 
//   68 /*********************************************************************
//   69  * TYPEDEFS
//   70  */
//   71 
//   72 /*********************************************************************
//   73  * GLOBAL VARIABLES
//   74  */
//   75 
//   76 /*********************************************************************
//   77  * EXTERNAL VARIABLES
//   78  */
//   79 
//   80 /*********************************************************************
//   81  * EXTERNAL FUNCTIONS
//   82  */
//   83 
//   84 /*********************************************************************
//   85  * LOCAL VARIABLES
//   86  */
//   87 
//   88 /*********************************************************************
//   89  * STATUS STRINGS
//   90  */
//   91 // NwkInfo displayed on line 1 once on the network
//   92 // 0123456789012345
//   93 // Zc: PPPP CH ADDR
//   94 // Zr: PPPP CH ADDR
//   95 // Zed:PPPP CH ADDR

        RSEG XDATA_ROM_C:CONST:REORDER:NOROOT(0)
        DATA8
//   96 const char NwkInfoZcStr[]  = "ZC: ";
NwkInfoZcStr:
        DB "ZC: "

        RSEG XDATA_ROM_C:CONST:REORDER:NOROOT(0)
        DATA8
//   97 const char NwkInfoZrStr[]  = "ZR: ";
NwkInfoZrStr:
        DB "ZR: "

        RSEG XDATA_ROM_C:CONST:REORDER:NOROOT(0)
        DATA8
//   98 const char NwkInfoZedStr[] = "Zed:";
NwkInfoZedStr:
        DB "Zed:"

        RSEG XDATA_ROM_C:CONST:REORDER:NOROOT(0)
        DATA8
//   99 const char * const NwkInfoStrs[] = { NwkInfoZcStr, NwkInfoZrStr, NwkInfoZedStr };
NwkInfoStrs:
        DATA16
        DW NwkInfoZcStr
        DW NwkInfoZrStr
        DW NwkInfoZedStr
//  100 
//  101 /*********************************************************************
//  102  * LOCAL FUNCTIONS
//  103  */
//  104 
//  105 /*********************************************************************
//  106  * @fn      zclHA_Init
//  107  *
//  108  * @brief   Register the Simple descriptor with the HA profile.
//  109  *          This function also registers the profile's cluster
//  110  *          conversion table.
//  111  *
//  112  * @param   simpleDesc - a pointer to a valid SimpleDescriptionFormat_t, must not be NULL.
//  113  *
//  114  * @return  none
//  115  */

        RSEG BANKED_CODE:HUGECODE:NOROOT(0)
//  116 void zclHA_Init( SimpleDescriptionFormat_t *simpleDesc )
zclHA_Init:
          CFI Block cfiBlock0 Using cfiCommon0
          CFI Function zclHA_Init
        CODE
//  117 {
        FUNCALL zclHA_Init, osal_mem_alloc
        LOCFRAME ISTACK, 0, STACK
        LOCFRAME PSTACK, 0, STACK
        LOCFRAME XSTACK, 10, STACK
        LOCFRAME IOVERLAY, 0, STATIC
        LOCFRAME DOVERLAY, 0, STATIC
        ARGFRAME ISTACK, 0, STACK
        ARGFRAME PSTACK, 0, STACK
        ARGFRAME XSTACK, 10, STACK
        ARGFRAME IOVERLAY, 0, STATIC
        ARGFRAME DOVERLAY, 0, STATIC
        FUNCALL zclHA_Init, afRegister
        LOCFRAME ISTACK, 0, STACK
        LOCFRAME PSTACK, 0, STACK
        LOCFRAME XSTACK, 10, STACK
        LOCFRAME IOVERLAY, 0, STATIC
        LOCFRAME DOVERLAY, 0, STATIC
        ARGFRAME ISTACK, 0, STACK
        ARGFRAME PSTACK, 0, STACK
        ARGFRAME XSTACK, 10, STACK
        ARGFRAME IOVERLAY, 0, STATIC
        ARGFRAME DOVERLAY, 0, STATIC
        REQUIRE ?V0
        REQUIRE ?V1
        MOV       A,#-0xa
        LCALL     ?BANKED_ENTER_XDATA
          CFI DPH0 load(1, XDATA, add(CFA_XSP16, literal(-1)))
          CFI DPL0 load(1, XDATA, add(CFA_XSP16, literal(-2)))
          CFI ?BRET_EXT load(1, XDATA, add(CFA_XSP16, literal(-3)))
          CFI ?RET_HIGH load(1, XDATA, add(CFA_XSP16, literal(-4)))
          CFI ?RET_LOW load(1, XDATA, add(CFA_XSP16, literal(-5)))
          CFI R7 load(1, XDATA, add(CFA_XSP16, literal(-6)))
          CFI V1 load(1, XDATA, add(CFA_XSP16, literal(-7)))
          CFI V0 load(1, XDATA, add(CFA_XSP16, literal(-8)))
          CFI VB load(1, XDATA, add(CFA_XSP16, literal(-9)))
          CFI R6 load(1, XDATA, add(CFA_XSP16, literal(-10)))
          CFI CFA_SP SP+0
          CFI CFA_XSP16 add(XSP16, 10)
        ; Saved register size: 10
        ; Auto size: 0
        MOV       A,R2
        MOV       R6,A
        MOV       A,R3
        MOV       R7,A
//  118   endPointDesc_t *epDesc;
//  119 
//  120   // Register the application's endpoint descriptor
//  121   //  - This memory is allocated and never freed.
//  122   epDesc = osal_mem_alloc( sizeof ( endPointDesc_t ) );
        ; Setup parameters for call to function osal_mem_alloc
        MOV       R2,#0x7
        MOV       R3,#0x0
        LCALL     `??osal_mem_alloc::?relay`; Banked call to: osal_mem_alloc
//  123   if ( epDesc )
        MOV       A,R2
        ORL       A,R3
        JZ        ??zclHA_Init_0
//  124   {
//  125     // Fill out the endpoint description.
//  126     epDesc->endPoint = simpleDesc->EndPoint;
        MOV       DPL,R6
        MOV       DPH,R7
        MOVX      A,@DPTR
        MOV       DPL,R2
        MOV       DPH,R3
        MOVX      @DPTR,A
//  127     epDesc->task_id = &zcl_TaskID;   // all messages get sent to ZCL first
        INC       DPTR
        INC       DPTR
        MOV       A,#zcl_TaskID & 0xff
        MOVX      @DPTR,A
        INC       DPTR
        MOV       A,#(zcl_TaskID >> 8) & 0xff
        LCALL     ?Subroutine4 & 0xFFFF
//  128     epDesc->simpleDesc = simpleDesc;
??CrossCallReturnLabel_7:
        MOV       A,R6
        MOVX      @DPTR,A
        INC       DPTR
        MOV       A,R7
        LCALL     ?Subroutine4 & 0xFFFF
//  129     epDesc->latencyReq = noLatencyReqs;
??CrossCallReturnLabel_8:
        INC       DPTR
        INC       DPTR
        CLR       A
        MOVX      @DPTR,A
//  130 
//  131     // Register the endpoint description with the AF
//  132     afRegister( epDesc );
        ; Setup parameters for call to function afRegister
        LCALL     `??afRegister::?relay`; Banked call to: afRegister
//  133   }
//  134 }
??zclHA_Init_0:
        MOV       R7,#0x2
        LJMP      ?BANKED_LEAVE_XDATA
          CFI EndBlock cfiBlock0

        RSEG BANKED_CODE:HUGECODE:NOROOT(0)
?Subroutine4:
          CFI Block cfiCond1 Using cfiCommon0
          CFI Function zclHA_Init
          CFI Conditional ??CrossCallReturnLabel_7
          CFI R6 load(1, XDATA, add(CFA_XSP16, literal(-10)))
          CFI VB load(1, XDATA, add(CFA_XSP16, literal(-9)))
          CFI V0 load(1, XDATA, add(CFA_XSP16, literal(-8)))
          CFI V1 load(1, XDATA, add(CFA_XSP16, literal(-7)))
          CFI R7 load(1, XDATA, add(CFA_XSP16, literal(-6)))
          CFI ?RET_LOW load(1, XDATA, add(CFA_XSP16, literal(-5)))
          CFI ?RET_HIGH load(1, XDATA, add(CFA_XSP16, literal(-4)))
          CFI ?BRET_EXT load(1, XDATA, add(CFA_XSP16, literal(-3)))
          CFI DPL0 load(1, XDATA, add(CFA_XSP16, literal(-2)))
          CFI DPH0 load(1, XDATA, add(CFA_XSP16, literal(-1)))
          CFI CFA_SP SP+-2
          CFI CFA_XSP16 add(XSP16, 10)
          CFI Block cfiCond2 Using cfiCommon0
          CFI (cfiCond2) Function zclHA_Init
          CFI (cfiCond2) Conditional ??CrossCallReturnLabel_8
          CFI (cfiCond2) R6 load(1, XDATA, add(CFA_XSP16, literal(-10)))
          CFI (cfiCond2) VB load(1, XDATA, add(CFA_XSP16, literal(-9)))
          CFI (cfiCond2) V0 load(1, XDATA, add(CFA_XSP16, literal(-8)))
          CFI (cfiCond2) V1 load(1, XDATA, add(CFA_XSP16, literal(-7)))
          CFI (cfiCond2) R7 load(1, XDATA, add(CFA_XSP16, literal(-6)))
          CFI (cfiCond2) ?RET_LOW load(1, XDATA, add(CFA_XSP16, literal(-5)))
          CFI (cfiCond2) ?RET_HIGH load(1, XDATA, add(CFA_XSP16, literal(-4)))
          CFI (cfiCond2) ?BRET_EXT load(1, XDATA, add(CFA_XSP16, literal(-3)))
          CFI (cfiCond2) DPL0 load(1, XDATA, add(CFA_XSP16, literal(-2)))
          CFI (cfiCond2) DPH0 load(1, XDATA, add(CFA_XSP16, literal(-1)))
          CFI (cfiCond2) CFA_SP SP+-2
          CFI (cfiCond2) CFA_XSP16 add(XSP16, 10)
          CFI Block cfiPicker3 Using cfiCommon1
          CFI (cfiPicker3) NoFunction
          CFI (cfiPicker3) Picker
        MOVX      @DPTR,A
        MOV       DPL,R2
        MOV       DPH,R3
        INC       DPTR
        INC       DPTR
        INC       DPTR
        INC       DPTR
        RET
          CFI EndBlock cfiCond1
          CFI EndBlock cfiCond2
          CFI EndBlock cfiPicker3
//  135 
//  136 
//  137 
//  138 
//  139 
//  140 
//  141 /*********************************************************************
//  142  * @fn      zclHA_isbit
//  143  *
//  144  * @brief   Returns TRUE if the index bit is set
//  145  *
//  146  * @param   pArray   - array with bits in it
//  147  *          bitIndex - index into the array of bits
//  148  *
//  149  * @return  TRUE if index bit is set
//  150  */

        RSEG BANKED_CODE:HUGECODE:NOROOT(0)
//  151 bool zclHA_isbit(uint8 *pArray, uint8 bitIndex)
zclHA_isbit:
          CFI Block cfiBlock4 Using cfiCommon0
          CFI Function zclHA_isbit
        CODE
//  152 {
        PUSH      DPL
          CFI DPL0 Frame(CFA_SP, 4)
          CFI CFA_SP SP+-4
        PUSH      DPH
          CFI DPH0 Frame(CFA_SP, 5)
          CFI CFA_SP SP+-5
        ; Saved register size: 2
        ; Auto size: 0
        MOV       A,R1
        MOV       R4,A
//  153   uint8 bit;
//  154   bit = ( 1 << ( bitIndex & 0x7 ) );
//  155   if( pArray[bitIndex >> 3] & bit )
        RRC       A
        RRC       A
        RRC       A
        ANL       A,#0x1f
        MOV       R0,A
        MOV       A,R2
        ADD       A,R0
        MOV       DPL,A
        CLR       A
        ADDC      A,R3
        MOV       DPH,A
        MOVX      A,@DPTR
        PUSH      A
          CFI CFA_SP SP+-6
        MOV       A,#0x7
        ANL       A,R4
        MOV       R0,A
        POP       A
          CFI CFA_SP SP+-5
        CJNE      R0,#0x0,??zclHA_isbit_0
        SJMP      ??zclHA_isbit_1
??zclHA_isbit_0:
        CLR       C
        RRC       A
        DJNZ      R0,??zclHA_isbit_0
??zclHA_isbit_1:
        MOV       C,0xE0 /* A   */.0
        JNC       ??zclHA_isbit_2
//  156     return TRUE;
        MOV       R1,#0x1
        SJMP      ??zclHA_isbit_3
//  157   return FALSE;
??zclHA_isbit_2:
        MOV       R1,#0x0
??zclHA_isbit_3:
        SJMP      ??Subroutine5_0
//  158 }
          CFI EndBlock cfiBlock4
//  159 
//  160 /*********************************************************************
//  161  * @fn      zclHA_setbit
//  162  *
//  163  * @brief   Sets a bit in a bit array
//  164  *
//  165  * @param   pArray   - array with bits in it
//  166  *          bitIndex - index into the array of bits
//  167  *
//  168  * @return  none
//  169  */

        RSEG BANKED_CODE:HUGECODE:NOROOT(0)
//  170 void zclHA_setbit(uint8 *pArray, uint8 bitIndex)
zclHA_setbit:
          CFI Block cfiBlock5 Using cfiCommon0
          CFI Function zclHA_setbit
        CODE
//  171 {
        PUSH      DPL
          CFI DPL0 Frame(CFA_SP, 4)
          CFI CFA_SP SP+-4
        PUSH      DPH
          CFI DPH0 Frame(CFA_SP, 5)
          CFI CFA_SP SP+-5
        ; Saved register size: 2
        ; Auto size: 0
//  172   uint8 bit;
//  173   bit = ( 1 << ( bitIndex & 0x7 ) );
//  174   pArray[bitIndex >> 3] |= bit;
        MOV       A,#0x7
        ANL       A,R1
        MOV       R0,A
        MOV       A,#0x1
        CJNE      R0,#0x0,??zclHA_setbit_0
        SJMP      ??zclHA_setbit_1
??zclHA_setbit_0:
        CLR       C
        RLC       A
        DJNZ      R0,??zclHA_setbit_0
??zclHA_setbit_1:
        LCALL     ?Subroutine1 & 0xFFFF
??CrossCallReturnLabel_0:
        ORL       A,R0
          CFI EndBlock cfiBlock5
        REQUIRE ?Subroutine0
        ; // Fall through to label ?Subroutine0
//  175 }

        RSEG BANKED_CODE:HUGECODE:NOROOT(0)
?Subroutine0:
          CFI Block cfiBlock6 Using cfiCommon0
          CFI NoFunction
          CFI CFA_SP SP+-5
          CFI DPL0 Frame(CFA_SP, 4)
          CFI DPH0 Frame(CFA_SP, 5)
        MOVX      @DPTR,A
          CFI EndBlock cfiBlock6
        REQUIRE ??Subroutine5_0
        ; // Fall through to label ??Subroutine5_0

        RSEG BANKED_CODE:HUGECODE:NOROOT(0)
??Subroutine5_0:
          CFI Block cfiBlock7 Using cfiCommon0
          CFI NoFunction
          CFI CFA_SP SP+-5
          CFI DPL0 Frame(CFA_SP, 4)
          CFI DPH0 Frame(CFA_SP, 5)
        POP       DPH
          CFI CFA_SP SP+-4
          CFI DPH0 SameValue
        POP       DPL
          CFI CFA_SP SP+-3
          CFI DPL0 SameValue
        LJMP      ?BRET
          CFI EndBlock cfiBlock7
//  176 
//  177 /*********************************************************************
//  178  * @fn      zclHA_clearbit
//  179  *
//  180  * @brief   clears a bit in a bit array
//  181  *
//  182  * @param   pArray   - array with bits in it
//  183  *          bitIndex - index into the array of bits
//  184  *
//  185  * @return  none
//  186  */

        RSEG BANKED_CODE:HUGECODE:NOROOT(0)
//  187 void zclHA_clearbit(uint8 *pArray, uint8 bitIndex)
zclHA_clearbit:
          CFI Block cfiBlock8 Using cfiCommon0
          CFI Function zclHA_clearbit
        CODE
//  188 {
        PUSH      DPL
          CFI DPL0 Frame(CFA_SP, 4)
          CFI CFA_SP SP+-4
        PUSH      DPH
          CFI DPH0 Frame(CFA_SP, 5)
          CFI CFA_SP SP+-5
        ; Saved register size: 2
        ; Auto size: 0
//  189   uint8 bit;
//  190   bit = ( 1 << ( bitIndex & 0x7 ) );
//  191   pArray[bitIndex >> 3] &= (~(unsigned)bit);
        MOV       A,#0x7
        ANL       A,R1
        MOV       R0,A
        MOV       A,#0x1
        CJNE      R0,#0x0,??zclHA_clearbit_0
        SJMP      ??zclHA_clearbit_1
??zclHA_clearbit_0:
        CLR       C
        RLC       A
        DJNZ      R0,??zclHA_clearbit_0
??zclHA_clearbit_1:
        CPL       A
        LCALL     ?Subroutine1 & 0xFFFF
??CrossCallReturnLabel_1:
        ANL       A,R0
        SJMP      ?Subroutine0
//  192 }
          CFI EndBlock cfiBlock8

        RSEG BANKED_CODE:HUGECODE:NOROOT(0)
?Subroutine1:
          CFI Block cfiCond9 Using cfiCommon0
          CFI Function zclHA_setbit
          CFI Conditional ??CrossCallReturnLabel_0
          CFI DPL0 Frame(CFA_SP, 4)
          CFI DPH0 Frame(CFA_SP, 5)
          CFI CFA_SP SP+-7
          CFI Block cfiCond10 Using cfiCommon0
          CFI (cfiCond10) Function zclHA_clearbit
          CFI (cfiCond10) Conditional ??CrossCallReturnLabel_1
          CFI (cfiCond10) DPL0 Frame(CFA_SP, 4)
          CFI (cfiCond10) DPH0 Frame(CFA_SP, 5)
          CFI (cfiCond10) CFA_SP SP+-7
          CFI Block cfiPicker11 Using cfiCommon1
          CFI (cfiPicker11) NoFunction
          CFI (cfiPicker11) Picker
        MOV       R0,A
        MOV       A,R1
        RRC       A
        RRC       A
        RRC       A
        ANL       A,#0x1f
        MOV       R4,A
        MOV       A,R2
        ADD       A,R4
        MOV       DPL,A
        CLR       A
        ADDC      A,R3
        MOV       DPH,A
        MOVX      A,@DPTR
        RET
          CFI EndBlock cfiCond9
          CFI EndBlock cfiCond10
          CFI EndBlock cfiPicker11
//  193 
//  194 /*********************************************************************
//  195  * @fn      zclHA_uint16toa
//  196  *
//  197  * @brief   Converts from a uint16 to ascii hex string.
//  198  *          The # will be exactly 4 hex digits (e.g. 0x0000 or 0x1E3F).
//  199  *          NULL terminates the string.
//  200  *
//  201  * @param   u - Number to be converted
//  202  *          string - pointer to coverted string
//  203  *
//  204  * @return  none
//  205  */

        RSEG BANKED_CODE:HUGECODE:NOROOT(0)
//  206 void zclHA_uint16toa(uint16 u, char *string)
zclHA_uint16toa:
          CFI Block cfiBlock12 Using cfiCommon0
          CFI Function zclHA_uint16toa
        CODE
//  207 {
        FUNCALL zclHA_uint16toa, _ltoa
        LOCFRAME ISTACK, 0, STACK
        LOCFRAME PSTACK, 0, STACK
        LOCFRAME XSTACK, 14, STACK
        LOCFRAME IOVERLAY, 0, STATIC
        LOCFRAME DOVERLAY, 0, STATIC
        ARGFRAME ISTACK, 0, STACK
        ARGFRAME PSTACK, 0, STACK
        ARGFRAME XSTACK, 14, STACK
        ARGFRAME IOVERLAY, 0, STATIC
        ARGFRAME DOVERLAY, 0, STATIC
        REQUIRE ?V0
        REQUIRE ?V1
        REQUIRE ?V2
        REQUIRE ?V3
        MOV       A,#-0xc
        LCALL     ?BANKED_ENTER_XDATA
          CFI DPH0 load(1, XDATA, add(CFA_XSP16, literal(-1)))
          CFI DPL0 load(1, XDATA, add(CFA_XSP16, literal(-2)))
          CFI ?BRET_EXT load(1, XDATA, add(CFA_XSP16, literal(-3)))
          CFI ?RET_HIGH load(1, XDATA, add(CFA_XSP16, literal(-4)))
          CFI ?RET_LOW load(1, XDATA, add(CFA_XSP16, literal(-5)))
          CFI R7 load(1, XDATA, add(CFA_XSP16, literal(-6)))
          CFI V3 load(1, XDATA, add(CFA_XSP16, literal(-7)))
          CFI V2 load(1, XDATA, add(CFA_XSP16, literal(-8)))
          CFI V1 load(1, XDATA, add(CFA_XSP16, literal(-9)))
          CFI V0 load(1, XDATA, add(CFA_XSP16, literal(-10)))
          CFI VB load(1, XDATA, add(CFA_XSP16, literal(-11)))
          CFI R6 load(1, XDATA, add(CFA_XSP16, literal(-12)))
          CFI CFA_SP SP+0
          CFI CFA_XSP16 add(XSP16, 12)
        ; Saved register size: 12
        ; Auto size: 0
//  208   // add preceding zeros
//  209   if ( u < 0x1000 )
        CLR       C
        MOV       A,R3
        SUBB      A,#0x10
        JNC       ??CrossCallReturnLabel_4
//  210   {
//  211     *string++ = '0';
        LCALL     ?Subroutine3 & 0xFFFF
//  212   }
//  213 
//  214   if ( u < 0x0100 )
??CrossCallReturnLabel_4:
        CLR       C
        MOV       A,R3
        SUBB      A,#0x1
        JNC       ??CrossCallReturnLabel_5
//  215   {
//  216     *string++ = '0';
        LCALL     ?Subroutine3 & 0xFFFF
//  217   }
//  218 
//  219   if ( u < 0x0010 )
??CrossCallReturnLabel_5:
        CLR       C
        MOV       A,R2
        SUBB      A,#0x10
        MOV       A,R3
        SUBB      A,#0x0
        JNC       ??CrossCallReturnLabel_6
//  220   {
//  221     *string++ = '0';
        LCALL     ?Subroutine3 & 0xFFFF
//  222   }
//  223 
//  224   _ltoa((unsigned long)u, (unsigned char *)string, 16);
??CrossCallReturnLabel_6:
        ; Setup parameters for call to function _ltoa
        MOV       ?V0,R4
        MOV       ?V1,R5
        MOV       R0,#?V0
        LCALL     ?PUSH_XSTACK_I_TWO
          CFI CFA_XSP16 add(XSP16, 14)
        MOV       R1,#0x10
        CLR       A
        MOV       R4,A
        MOV       R5,A
        LCALL     `??_ltoa::?relay`; Banked call to: _ltoa
        MOV       A,#0x2
        LCALL     ?DEALLOC_XSTACK8
          CFI CFA_XSP16 add(XSP16, 12)
//  225 }
        MOV       R7,#0x4
        LJMP      ?BANKED_LEAVE_XDATA
          CFI EndBlock cfiBlock12

        RSEG BANKED_CODE:HUGECODE:NOROOT(0)
?Subroutine3:
          CFI Block cfiCond13 Using cfiCommon0
          CFI Function zclHA_uint16toa
          CFI Conditional ??CrossCallReturnLabel_4
          CFI R6 load(1, XDATA, add(CFA_XSP16, literal(-12)))
          CFI VB load(1, XDATA, add(CFA_XSP16, literal(-11)))
          CFI V0 load(1, XDATA, add(CFA_XSP16, literal(-10)))
          CFI V1 load(1, XDATA, add(CFA_XSP16, literal(-9)))
          CFI V2 load(1, XDATA, add(CFA_XSP16, literal(-8)))
          CFI V3 load(1, XDATA, add(CFA_XSP16, literal(-7)))
          CFI R7 load(1, XDATA, add(CFA_XSP16, literal(-6)))
          CFI ?RET_LOW load(1, XDATA, add(CFA_XSP16, literal(-5)))
          CFI ?RET_HIGH load(1, XDATA, add(CFA_XSP16, literal(-4)))
          CFI ?BRET_EXT load(1, XDATA, add(CFA_XSP16, literal(-3)))
          CFI DPL0 load(1, XDATA, add(CFA_XSP16, literal(-2)))
          CFI DPH0 load(1, XDATA, add(CFA_XSP16, literal(-1)))
          CFI CFA_SP SP+-2
          CFI CFA_XSP16 add(XSP16, 12)
          CFI Block cfiCond14 Using cfiCommon0
          CFI (cfiCond14) Function zclHA_uint16toa
          CFI (cfiCond14) Conditional ??CrossCallReturnLabel_5
          CFI (cfiCond14) R6 load(1, XDATA, add(CFA_XSP16, literal(-12)))
          CFI (cfiCond14) VB load(1, XDATA, add(CFA_XSP16, literal(-11)))
          CFI (cfiCond14) V0 load(1, XDATA, add(CFA_XSP16, literal(-10)))
          CFI (cfiCond14) V1 load(1, XDATA, add(CFA_XSP16, literal(-9)))
          CFI (cfiCond14) V2 load(1, XDATA, add(CFA_XSP16, literal(-8)))
          CFI (cfiCond14) V3 load(1, XDATA, add(CFA_XSP16, literal(-7)))
          CFI (cfiCond14) R7 load(1, XDATA, add(CFA_XSP16, literal(-6)))
          CFI (cfiCond14) ?RET_LOW load(1, XDATA, add(CFA_XSP16, literal(-5)))
          CFI (cfiCond14) ?RET_HIGH load(1, XDATA, add(CFA_XSP16, literal(-4)))
          CFI (cfiCond14) ?BRET_EXT load(1, XDATA, add(CFA_XSP16, literal(-3)))
          CFI (cfiCond14) DPL0 load(1, XDATA, add(CFA_XSP16, literal(-2)))
          CFI (cfiCond14) DPH0 load(1, XDATA, add(CFA_XSP16, literal(-1)))
          CFI (cfiCond14) CFA_SP SP+-2
          CFI (cfiCond14) CFA_XSP16 add(XSP16, 12)
          CFI Block cfiCond15 Using cfiCommon0
          CFI (cfiCond15) Function zclHA_uint16toa
          CFI (cfiCond15) Conditional ??CrossCallReturnLabel_6
          CFI (cfiCond15) R6 load(1, XDATA, add(CFA_XSP16, literal(-12)))
          CFI (cfiCond15) VB load(1, XDATA, add(CFA_XSP16, literal(-11)))
          CFI (cfiCond15) V0 load(1, XDATA, add(CFA_XSP16, literal(-10)))
          CFI (cfiCond15) V1 load(1, XDATA, add(CFA_XSP16, literal(-9)))
          CFI (cfiCond15) V2 load(1, XDATA, add(CFA_XSP16, literal(-8)))
          CFI (cfiCond15) V3 load(1, XDATA, add(CFA_XSP16, literal(-7)))
          CFI (cfiCond15) R7 load(1, XDATA, add(CFA_XSP16, literal(-6)))
          CFI (cfiCond15) ?RET_LOW load(1, XDATA, add(CFA_XSP16, literal(-5)))
          CFI (cfiCond15) ?RET_HIGH load(1, XDATA, add(CFA_XSP16, literal(-4)))
          CFI (cfiCond15) ?BRET_EXT load(1, XDATA, add(CFA_XSP16, literal(-3)))
          CFI (cfiCond15) DPL0 load(1, XDATA, add(CFA_XSP16, literal(-2)))
          CFI (cfiCond15) DPH0 load(1, XDATA, add(CFA_XSP16, literal(-1)))
          CFI (cfiCond15) CFA_SP SP+-2
          CFI (cfiCond15) CFA_XSP16 add(XSP16, 12)
          CFI Block cfiPicker16 Using cfiCommon1
          CFI (cfiPicker16) NoFunction
          CFI (cfiPicker16) Picker
        MOV       DPL,R4
        MOV       DPH,R5
        MOV       A,#0x30
        MOVX      @DPTR,A
        INC       DPTR
        MOV       R4,DPL
        MOV       R5,DPH
        RET
          CFI EndBlock cfiCond13
          CFI EndBlock cfiCond14
          CFI EndBlock cfiCond15
          CFI EndBlock cfiPicker16
//  226 
//  227 /*********************************************************************
//  228  * @fn      zclHA_uint8toa
//  229  *
//  230  * @brief   Converts from a uint8 to ascii decimal string.
//  231  *          The # will be exactly 3 digits (e.g. "123", " 64", "  0"), preceded by spaces.
//  232  *          No null terminator.
//  233  *
//  234  * @param   b - Byte to be converted
//  235  *          string - pointer to coverted string
//  236  *
//  237  * @return  none
//  238  */

        RSEG BANKED_CODE:HUGECODE:NOROOT(0)
//  239 void zclHA_uint8toa(uint8 b, char *string)
zclHA_uint8toa:
          CFI Block cfiBlock17 Using cfiCommon0
          CFI Function zclHA_uint8toa
        CODE
//  240 {
        MOV       A,#-0x9
        LCALL     ?BANKED_ENTER_XDATA
          CFI DPH0 load(1, XDATA, add(CFA_XSP16, literal(-1)))
          CFI DPL0 load(1, XDATA, add(CFA_XSP16, literal(-2)))
          CFI ?BRET_EXT load(1, XDATA, add(CFA_XSP16, literal(-3)))
          CFI ?RET_HIGH load(1, XDATA, add(CFA_XSP16, literal(-4)))
          CFI ?RET_LOW load(1, XDATA, add(CFA_XSP16, literal(-5)))
          CFI R7 load(1, XDATA, add(CFA_XSP16, literal(-6)))
          CFI V0 load(1, XDATA, add(CFA_XSP16, literal(-7)))
          CFI VB load(1, XDATA, add(CFA_XSP16, literal(-8)))
          CFI R6 load(1, XDATA, add(CFA_XSP16, literal(-9)))
          CFI CFA_SP SP+0
          CFI CFA_XSP16 add(XSP16, 9)
        ; Saved register size: 9
        ; Auto size: 0
        MOV       A,R1
        MOV       R6,A
//  241   // write the level (up to 3 digits, pre-padded with spaces)
//  242   string[0] = string[1] = string[2] = '0';
        MOV       A,R2
        ADD       A,#0x2
        MOV       R0,A
        CLR       A
        ADDC      A,R3
        MOV       R1,A
        MOV       A,R0
        MOV       R4,A
        MOV       A,R1
        MOV       R5,A
        MOV       DPL,R0
        MOV       DPH,A
        MOV       A,#0x30
        MOVX      @DPTR,A
        MOV       DPL,R2
        MOV       DPH,R3
        INC       DPTR
        MOV       R0,DPL
        MOV       R1,DPH
        MOVX      @DPTR,A
        MOV       DPL,R2
        MOV       DPH,R3
        MOVX      @DPTR,A
//  243   string[2] = '0' + (b % 10);  // 1s
        MOV       A,R6
        MOV       B,#0xa
        DIV       AB
        MOV       A,B
        ADD       A,#0x30
        MOV       DPL,R4
        MOV       DPH,R5
        MOVX      @DPTR,A
//  244   b = b / 10;
        MOV       B,#0xa
        MOV       A,R6
        DIV       AB
        MOV       R6,A
//  245   if( b )
        JZ        ??zclHA_uint8toa_0
//  246   {
//  247     string[1] = '0' + (b % 10);  // 10s
        MOV       B,#0xa
        DIV       AB
        MOV       A,B
        ADD       A,#0x30
        MOV       DPL,R0
        MOV       DPH,R1
        MOVX      @DPTR,A
//  248     b = b / 10;
        MOV       B,#0xa
        MOV       A,R6
        DIV       AB
        MOV       R6,A
//  249   }
//  250   if( b )
        JZ        ??zclHA_uint8toa_0
//  251   {
//  252    string[0] = '0' + (b % 10);  // 100s
        MOV       B,#0xa
        DIV       AB
        MOV       A,B
        ADD       A,#0x30
        MOV       DPL,R2
        MOV       DPH,R3
        MOVX      @DPTR,A
//  253   }
//  254 }
??zclHA_uint8toa_0:
        MOV       R7,#0x1
        LJMP      ?BANKED_LEAVE_XDATA
          CFI EndBlock cfiBlock17
//  255 
//  256 /*********************************************************************
//  257  * @fn      zclHA_LcdStatusLine1
//  258  *
//  259  * @brief   Display LCD line 1 with network status
//  260  *          only call after on network
//  261  *          ZC: PPPP CH ADDR
//  262  *          ZR: PPPP CH ADDR
//  263  *          ZE: PPPP CH ADDR
//  264  *
//  265  * @param   kind (0=ZC, 1=ZR, 2=ZED)
//  266  *
//  267  * @return  none
//  268  */

        RSEG BANKED_CODE:HUGECODE:NOROOT(0)
//  269 void zclHA_LcdStatusLine1( uint8 kind )
zclHA_LcdStatusLine1:
          CFI Block cfiBlock18 Using cfiCommon0
          CFI Function zclHA_LcdStatusLine1
        CODE
//  270 {
        FUNCALL zclHA_LcdStatusLine1, osal_memcpy
        LOCFRAME ISTACK, 0, STACK
        LOCFRAME PSTACK, 0, STACK
        LOCFRAME XSTACK, 34, STACK
        LOCFRAME IOVERLAY, 0, STATIC
        LOCFRAME DOVERLAY, 0, STATIC
        ARGFRAME ISTACK, 0, STACK
        ARGFRAME PSTACK, 0, STACK
        ARGFRAME XSTACK, 34, STACK
        ARGFRAME IOVERLAY, 0, STATIC
        ARGFRAME DOVERLAY, 0, STATIC
        FUNCALL zclHA_LcdStatusLine1, zclHA_uint16toa
        LOCFRAME ISTACK, 0, STACK
        LOCFRAME PSTACK, 0, STACK
        LOCFRAME XSTACK, 31, STACK
        LOCFRAME IOVERLAY, 0, STATIC
        LOCFRAME DOVERLAY, 0, STATIC
        ARGFRAME ISTACK, 0, STACK
        ARGFRAME PSTACK, 0, STACK
        ARGFRAME XSTACK, 31, STACK
        ARGFRAME IOVERLAY, 0, STATIC
        ARGFRAME DOVERLAY, 0, STATIC
        FUNCALL zclHA_LcdStatusLine1, _ltoa
        LOCFRAME ISTACK, 0, STACK
        LOCFRAME PSTACK, 0, STACK
        LOCFRAME XSTACK, 33, STACK
        LOCFRAME IOVERLAY, 0, STATIC
        LOCFRAME DOVERLAY, 0, STATIC
        ARGFRAME ISTACK, 0, STACK
        ARGFRAME PSTACK, 0, STACK
        ARGFRAME XSTACK, 33, STACK
        ARGFRAME IOVERLAY, 0, STATIC
        ARGFRAME DOVERLAY, 0, STATIC
        FUNCALL zclHA_LcdStatusLine1, zclHA_uint16toa
        LOCFRAME ISTACK, 0, STACK
        LOCFRAME PSTACK, 0, STACK
        LOCFRAME XSTACK, 31, STACK
        LOCFRAME IOVERLAY, 0, STATIC
        LOCFRAME DOVERLAY, 0, STATIC
        ARGFRAME ISTACK, 0, STACK
        ARGFRAME PSTACK, 0, STACK
        ARGFRAME XSTACK, 31, STACK
        ARGFRAME IOVERLAY, 0, STATIC
        ARGFRAME DOVERLAY, 0, STATIC
        FUNCALL zclHA_LcdStatusLine1, HalLcdWriteString
        LOCFRAME ISTACK, 0, STACK
        LOCFRAME PSTACK, 0, STACK
        LOCFRAME XSTACK, 31, STACK
        LOCFRAME IOVERLAY, 0, STATIC
        LOCFRAME DOVERLAY, 0, STATIC
        ARGFRAME ISTACK, 0, STACK
        ARGFRAME PSTACK, 0, STACK
        ARGFRAME XSTACK, 31, STACK
        ARGFRAME IOVERLAY, 0, STATIC
        ARGFRAME DOVERLAY, 0, STATIC
        REQUIRE ?V0
        REQUIRE ?V1
        REQUIRE ?V2
        MOV       A,#-0xb
        LCALL     ?BANKED_ENTER_XDATA
          CFI DPH0 load(1, XDATA, add(CFA_XSP16, literal(-1)))
          CFI DPL0 load(1, XDATA, add(CFA_XSP16, literal(-2)))
          CFI ?BRET_EXT load(1, XDATA, add(CFA_XSP16, literal(-3)))
          CFI ?RET_HIGH load(1, XDATA, add(CFA_XSP16, literal(-4)))
          CFI ?RET_LOW load(1, XDATA, add(CFA_XSP16, literal(-5)))
          CFI R7 load(1, XDATA, add(CFA_XSP16, literal(-6)))
          CFI V2 load(1, XDATA, add(CFA_XSP16, literal(-7)))
          CFI V1 load(1, XDATA, add(CFA_XSP16, literal(-8)))
          CFI V0 load(1, XDATA, add(CFA_XSP16, literal(-9)))
          CFI VB load(1, XDATA, add(CFA_XSP16, literal(-10)))
          CFI R6 load(1, XDATA, add(CFA_XSP16, literal(-11)))
          CFI CFA_SP SP+0
          CFI CFA_XSP16 add(XSP16, 11)
        ; Saved register size: 11
        ; Auto size: 20
        MOV       A,#-0x14
        LCALL     ?ALLOC_XSTACK8
          CFI CFA_XSP16 add(XSP16, 31)
        MOV       A,R1
//  271 #if defined ( LCD_SUPPORTED )
//  272   char szLine[20];
//  273 
//  274   // copy in what node type it is
//  275   if ( kind > ZCL_HA_DEVICE_END_DEVICE )
        CLR       C
        SUBB      A,#0x3
        JC        $+5
        LJMP      ??zclHA_LcdStatusLine1_0 & 0xFFFF
//  276   {
//  277     return;
//  278   }
//  279 
//  280   // ZE: PANx CH ADDR
//  281   osal_memcpy( szLine, NwkInfoStrs[kind], 4 );
        ; Setup parameters for call to function osal_memcpy
        MOV       A,R1
        ADD       A,R1
        MOV       R0,A
        CLR       A
        RLC       A
        MOV       R1,A
        MOV       A,#NwkInfoStrs & 0xff
        ADD       A,R0
        MOV       DPL,A
        MOV       A,#(NwkInfoStrs >> 8) & 0xff
        ADDC      A,R1
        MOV       DPH,A
        MOVX      A,@DPTR
        MOV       ?V0,A
        INC       DPTR
        MOVX      A,@DPTR
        MOV       ?V1,A
        MOV       ?V2,#0x0
        MOV       R0,#?V0
        LCALL     ?PUSH_XSTACK_I_THREE
          CFI CFA_XSP16 add(XSP16, 34)
        MOV       R4,#0x4
        MOV       R5,#0x0
        MOV       A,#0x3
        LCALL     ?XSTACK_DISP101_8
        LCALL     `??osal_memcpy::?relay`; Banked call to: osal_memcpy
        MOV       A,#0x3
        LCALL     ?DEALLOC_XSTACK8
          CFI CFA_XSP16 add(XSP16, 31)
//  282   zclHA_uint16toa( _NIB.nwkPanId, &szLine[4] );
        ; Setup parameters for call to function zclHA_uint16toa
        MOV       A,#0x4
        LCALL     ?XSTACK_DISP0_8
        MOV       R4,DPL
        MOV       R5,DPH
        MOV       DPTR,#_NIB + 33
        LCALL     ?Subroutine2 & 0xFFFF
//  283   szLine[8] = ' ';
??CrossCallReturnLabel_2:
        MOV       A,#0x8
        LCALL     ?XSTACK_DISP0_8
        MOV       A,#0x20
        MOVX      @DPTR,A
//  284 
//  285   _ltoa( _NIB.nwkLogicalChannel, (void *)(&szLine[9]), 10 );
        ; Setup parameters for call to function _ltoa
        MOV       A,#0x9
        LCALL     ?XSTACK_DISP0_8
        MOV       ?V0,DPL
        MOV       ?V1,DPH
        MOV       R0,#?V0
        LCALL     ?PUSH_XSTACK_I_TWO
          CFI CFA_XSP16 add(XSP16, 33)
        MOV       R1,#0xa
        MOV       DPTR,#_NIB + 22
        MOVX      A,@DPTR
        MOV       R2,A
        CLR       A
        MOV       R3,A
        MOV       R4,A
        MOV       R5,A
        LCALL     `??_ltoa::?relay`; Banked call to: _ltoa
        MOV       A,#0x2
        LCALL     ?DEALLOC_XSTACK8
          CFI CFA_XSP16 add(XSP16, 31)
//  286   szLine[11] = ' ';
        MOV       A,#0xb
        LCALL     ?XSTACK_DISP0_8
        MOV       A,#0x20
        MOVX      @DPTR,A
//  287 
//  288   zclHA_uint16toa( _NIB.nwkDevAddress, &szLine[12] );
        ; Setup parameters for call to function zclHA_uint16toa
        MOV       A,#0xc
        LCALL     ?XSTACK_DISP0_8
        MOV       R4,DPL
        MOV       R5,DPH
        MOV       DPTR,#_NIB + 20
        LCALL     ?Subroutine2 & 0xFFFF
//  289   HalLcdWriteString( (char*)szLine, HAL_LCD_LINE_1 );
??CrossCallReturnLabel_3:
        ; Setup parameters for call to function HalLcdWriteString
        MOV       R1,#0x1
        MOV       R2,?XSP + 0
        MOV       R3,?XSP + 1
        LCALL     `??HalLcdWriteString::?relay`; Banked call to: HalLcdWriteString
//  290 #endif
//  291 }
??zclHA_LcdStatusLine1_0:
        MOV       A,#0x14
        LCALL     ?DEALLOC_XSTACK8
          CFI CFA_XSP16 add(XSP16, 11)
        MOV       R7,#0x3
        LJMP      ?BANKED_LEAVE_XDATA
          CFI EndBlock cfiBlock18

        RSEG BANKED_CODE:HUGECODE:NOROOT(0)
?Subroutine2:
          CFI Block cfiCond19 Using cfiCommon0
          CFI Function zclHA_LcdStatusLine1
          CFI Conditional ??CrossCallReturnLabel_2
          CFI R6 load(1, XDATA, add(CFA_XSP16, literal(-11)))
          CFI VB load(1, XDATA, add(CFA_XSP16, literal(-10)))
          CFI V0 load(1, XDATA, add(CFA_XSP16, literal(-9)))
          CFI V1 load(1, XDATA, add(CFA_XSP16, literal(-8)))
          CFI V2 load(1, XDATA, add(CFA_XSP16, literal(-7)))
          CFI R7 load(1, XDATA, add(CFA_XSP16, literal(-6)))
          CFI ?RET_LOW load(1, XDATA, add(CFA_XSP16, literal(-5)))
          CFI ?RET_HIGH load(1, XDATA, add(CFA_XSP16, literal(-4)))
          CFI ?BRET_EXT load(1, XDATA, add(CFA_XSP16, literal(-3)))
          CFI DPL0 load(1, XDATA, add(CFA_XSP16, literal(-2)))
          CFI DPH0 load(1, XDATA, add(CFA_XSP16, literal(-1)))
          CFI CFA_SP SP+-2
          CFI CFA_XSP16 add(XSP16, 31)
          CFI Block cfiCond20 Using cfiCommon0
          CFI (cfiCond20) Function zclHA_LcdStatusLine1
          CFI (cfiCond20) Conditional ??CrossCallReturnLabel_3
          CFI (cfiCond20) R6 load(1, XDATA, add(CFA_XSP16, literal(-11)))
          CFI (cfiCond20) VB load(1, XDATA, add(CFA_XSP16, literal(-10)))
          CFI (cfiCond20) V0 load(1, XDATA, add(CFA_XSP16, literal(-9)))
          CFI (cfiCond20) V1 load(1, XDATA, add(CFA_XSP16, literal(-8)))
          CFI (cfiCond20) V2 load(1, XDATA, add(CFA_XSP16, literal(-7)))
          CFI (cfiCond20) R7 load(1, XDATA, add(CFA_XSP16, literal(-6)))
          CFI (cfiCond20) ?RET_LOW load(1, XDATA, add(CFA_XSP16, literal(-5)))
          CFI (cfiCond20) ?RET_HIGH load(1, XDATA, add(CFA_XSP16, literal(-4)))
          CFI (cfiCond20) ?BRET_EXT load(1, XDATA, add(CFA_XSP16, literal(-3)))
          CFI (cfiCond20) DPL0 load(1, XDATA, add(CFA_XSP16, literal(-2)))
          CFI (cfiCond20) DPH0 load(1, XDATA, add(CFA_XSP16, literal(-1)))
          CFI (cfiCond20) CFA_SP SP+-2
          CFI (cfiCond20) CFA_XSP16 add(XSP16, 31)
          CFI Block cfiPicker21 Using cfiCommon1
          CFI (cfiPicker21) NoFunction
          CFI (cfiPicker21) Picker
        MOVX      A,@DPTR
        MOV       R2,A
        INC       DPTR
        MOVX      A,@DPTR
        MOV       R3,A
        LCALL     `??zclHA_uint16toa::?relay`; Banked call to: zclHA_uint16toa
        RET
          CFI EndBlock cfiCond19
          CFI EndBlock cfiCond20
          CFI EndBlock cfiPicker21

        RSEG BANK_RELAYS:CODE:REORDER:NOROOT(0)
`??zclHA_Init::?relay`:
        CODE
        LCALL   ?BDISPATCH
        DATA24
        DC24    zclHA_Init

        RSEG BANK_RELAYS:CODE:REORDER:NOROOT(0)
`??zclHA_isbit::?relay`:
        CODE
        LCALL   ?BDISPATCH
        DATA24
        DC24    zclHA_isbit

        RSEG BANK_RELAYS:CODE:REORDER:NOROOT(0)
`??zclHA_setbit::?relay`:
        CODE
        LCALL   ?BDISPATCH
        DATA24
        DC24    zclHA_setbit

        RSEG BANK_RELAYS:CODE:REORDER:NOROOT(0)
`??zclHA_clearbit::?relay`:
        CODE
        LCALL   ?BDISPATCH
        DATA24
        DC24    zclHA_clearbit

        RSEG BANK_RELAYS:CODE:REORDER:NOROOT(0)
`??zclHA_uint16toa::?relay`:
        CODE
        LCALL   ?BDISPATCH
        DATA24
        DC24    zclHA_uint16toa

        RSEG BANK_RELAYS:CODE:REORDER:NOROOT(0)
`??zclHA_uint8toa::?relay`:
        CODE
        LCALL   ?BDISPATCH
        DATA24
        DC24    zclHA_uint8toa

        RSEG BANK_RELAYS:CODE:REORDER:NOROOT(0)
`??zclHA_LcdStatusLine1::?relay`:
        CODE
        LCALL   ?BDISPATCH
        DATA24
        DC24    zclHA_LcdStatusLine1

        END
//  292 
//  293 /*********************************************************************
//  294 *********************************************************************/
// 
// 547 bytes in segment BANKED_CODE
//  42 bytes in segment BANK_RELAYS
//  21 bytes in segment XDATA_ROM_C
// 
//  42 bytes of CODE     memory
//  21 bytes of CONST    memory
// 547 bytes of HUGECODE memory
//
//Errors: none
//Warnings: none
